ARM GAS  /tmp/cckDOVNo.s 			page 1


   1              		.cpu cortex-m4
   2              		.eabi_attribute 27, 1
   3              		.eabi_attribute 28, 1
   4              		.eabi_attribute 20, 1
   5              		.eabi_attribute 21, 1
   6              		.eabi_attribute 23, 3
   7              		.eabi_attribute 24, 1
   8              		.eabi_attribute 25, 1
   9              		.eabi_attribute 26, 1
  10              		.eabi_attribute 30, 6
  11              		.eabi_attribute 34, 1
  12              		.eabi_attribute 18, 4
  13              		.file	"api_lib.c"
  14              		.text
  15              	.Ltext0:
  16              		.cfi_sections	.debug_frame
  17              		.section	.text.netconn_apimsg,"ax",%progbits
  18              		.align	1
  19              		.arch armv7e-m
  20              		.syntax unified
  21              		.thumb
  22              		.thumb_func
  23              		.fpu fpv4-sp-d16
  25              	netconn_apimsg:
  26              	.LFB137:
  27              		.file 1 "Middlewares/Third_Party/LwIP/src/api/api_lib.c"
   1:Middlewares/Third_Party/LwIP/src/api/api_lib.c **** /**
   2:Middlewares/Third_Party/LwIP/src/api/api_lib.c ****  * @file
   3:Middlewares/Third_Party/LwIP/src/api/api_lib.c ****  * Sequential API External module
   4:Middlewares/Third_Party/LwIP/src/api/api_lib.c ****  *
   5:Middlewares/Third_Party/LwIP/src/api/api_lib.c ****  * @defgroup netconn Netconn API
   6:Middlewares/Third_Party/LwIP/src/api/api_lib.c ****  * @ingroup sequential_api
   7:Middlewares/Third_Party/LwIP/src/api/api_lib.c ****  * Thread-safe, to be called from non-TCPIP threads only.
   8:Middlewares/Third_Party/LwIP/src/api/api_lib.c ****  * TX/RX handling based on @ref netbuf (containing @ref pbuf)
   9:Middlewares/Third_Party/LwIP/src/api/api_lib.c ****  * to avoid copying data around.
  10:Middlewares/Third_Party/LwIP/src/api/api_lib.c ****  *
  11:Middlewares/Third_Party/LwIP/src/api/api_lib.c ****  * @defgroup netconn_common Common functions
  12:Middlewares/Third_Party/LwIP/src/api/api_lib.c ****  * @ingroup netconn
  13:Middlewares/Third_Party/LwIP/src/api/api_lib.c ****  * For use with TCP and UDP
  14:Middlewares/Third_Party/LwIP/src/api/api_lib.c ****  *
  15:Middlewares/Third_Party/LwIP/src/api/api_lib.c ****  * @defgroup netconn_tcp TCP only
  16:Middlewares/Third_Party/LwIP/src/api/api_lib.c ****  * @ingroup netconn
  17:Middlewares/Third_Party/LwIP/src/api/api_lib.c ****  * TCP only functions
  18:Middlewares/Third_Party/LwIP/src/api/api_lib.c ****  *
  19:Middlewares/Third_Party/LwIP/src/api/api_lib.c ****  * @defgroup netconn_udp UDP only
  20:Middlewares/Third_Party/LwIP/src/api/api_lib.c ****  * @ingroup netconn
  21:Middlewares/Third_Party/LwIP/src/api/api_lib.c ****  * UDP only functions
  22:Middlewares/Third_Party/LwIP/src/api/api_lib.c ****  */
  23:Middlewares/Third_Party/LwIP/src/api/api_lib.c **** 
  24:Middlewares/Third_Party/LwIP/src/api/api_lib.c **** /*
  25:Middlewares/Third_Party/LwIP/src/api/api_lib.c ****  * Copyright (c) 2001-2004 Swedish Institute of Computer Science.
  26:Middlewares/Third_Party/LwIP/src/api/api_lib.c ****  * All rights reserved.
  27:Middlewares/Third_Party/LwIP/src/api/api_lib.c ****  *
  28:Middlewares/Third_Party/LwIP/src/api/api_lib.c ****  * Redistribution and use in source and binary forms, with or without modification,
  29:Middlewares/Third_Party/LwIP/src/api/api_lib.c ****  * are permitted provided that the following conditions are met:
  30:Middlewares/Third_Party/LwIP/src/api/api_lib.c ****  *
  31:Middlewares/Third_Party/LwIP/src/api/api_lib.c ****  * 1. Redistributions of source code must retain the above copyright notice,
ARM GAS  /tmp/cckDOVNo.s 			page 2


  32:Middlewares/Third_Party/LwIP/src/api/api_lib.c ****  *    this list of conditions and the following disclaimer.
  33:Middlewares/Third_Party/LwIP/src/api/api_lib.c ****  * 2. Redistributions in binary form must reproduce the above copyright notice,
  34:Middlewares/Third_Party/LwIP/src/api/api_lib.c ****  *    this list of conditions and the following disclaimer in the documentation
  35:Middlewares/Third_Party/LwIP/src/api/api_lib.c ****  *    and/or other materials provided with the distribution.
  36:Middlewares/Third_Party/LwIP/src/api/api_lib.c ****  * 3. The name of the author may not be used to endorse or promote products
  37:Middlewares/Third_Party/LwIP/src/api/api_lib.c ****  *    derived from this software without specific prior written permission.
  38:Middlewares/Third_Party/LwIP/src/api/api_lib.c ****  *
  39:Middlewares/Third_Party/LwIP/src/api/api_lib.c ****  * THIS SOFTWARE IS PROVIDED BY THE AUTHOR ``AS IS'' AND ANY EXPRESS OR IMPLIED
  40:Middlewares/Third_Party/LwIP/src/api/api_lib.c ****  * WARRANTIES, INCLUDING, BUT NOT LIMITED TO, THE IMPLIED WARRANTIES OF
  41:Middlewares/Third_Party/LwIP/src/api/api_lib.c ****  * MERCHANTABILITY AND FITNESS FOR A PARTICULAR PURPOSE ARE DISCLAIMED. IN NO EVENT
  42:Middlewares/Third_Party/LwIP/src/api/api_lib.c ****  * SHALL THE AUTHOR BE LIABLE FOR ANY DIRECT, INDIRECT, INCIDENTAL, SPECIAL,
  43:Middlewares/Third_Party/LwIP/src/api/api_lib.c ****  * EXEMPLARY, OR CONSEQUENTIAL DAMAGES (INCLUDING, BUT NOT LIMITED TO, PROCUREMENT
  44:Middlewares/Third_Party/LwIP/src/api/api_lib.c ****  * OF SUBSTITUTE GOODS OR SERVICES; LOSS OF USE, DATA, OR PROFITS; OR BUSINESS
  45:Middlewares/Third_Party/LwIP/src/api/api_lib.c ****  * INTERRUPTION) HOWEVER CAUSED AND ON ANY THEORY OF LIABILITY, WHETHER IN
  46:Middlewares/Third_Party/LwIP/src/api/api_lib.c ****  * CONTRACT, STRICT LIABILITY, OR TORT (INCLUDING NEGLIGENCE OR OTHERWISE) ARISING
  47:Middlewares/Third_Party/LwIP/src/api/api_lib.c ****  * IN ANY WAY OUT OF THE USE OF THIS SOFTWARE, EVEN IF ADVISED OF THE POSSIBILITY
  48:Middlewares/Third_Party/LwIP/src/api/api_lib.c ****  * OF SUCH DAMAGE.
  49:Middlewares/Third_Party/LwIP/src/api/api_lib.c ****  *
  50:Middlewares/Third_Party/LwIP/src/api/api_lib.c ****  * This file is part of the lwIP TCP/IP stack.
  51:Middlewares/Third_Party/LwIP/src/api/api_lib.c ****  *
  52:Middlewares/Third_Party/LwIP/src/api/api_lib.c ****  * Author: Adam Dunkels <adam@sics.se>
  53:Middlewares/Third_Party/LwIP/src/api/api_lib.c ****  */
  54:Middlewares/Third_Party/LwIP/src/api/api_lib.c **** 
  55:Middlewares/Third_Party/LwIP/src/api/api_lib.c **** /* This is the part of the API that is linked with
  56:Middlewares/Third_Party/LwIP/src/api/api_lib.c ****    the application */
  57:Middlewares/Third_Party/LwIP/src/api/api_lib.c **** 
  58:Middlewares/Third_Party/LwIP/src/api/api_lib.c **** #include "lwip/opt.h"
  59:Middlewares/Third_Party/LwIP/src/api/api_lib.c **** 
  60:Middlewares/Third_Party/LwIP/src/api/api_lib.c **** #if LWIP_NETCONN /* don't build if not configured for use in lwipopts.h */
  61:Middlewares/Third_Party/LwIP/src/api/api_lib.c **** 
  62:Middlewares/Third_Party/LwIP/src/api/api_lib.c **** #include "lwip/api.h"
  63:Middlewares/Third_Party/LwIP/src/api/api_lib.c **** #include "lwip/memp.h"
  64:Middlewares/Third_Party/LwIP/src/api/api_lib.c **** 
  65:Middlewares/Third_Party/LwIP/src/api/api_lib.c **** #include "lwip/ip.h"
  66:Middlewares/Third_Party/LwIP/src/api/api_lib.c **** #include "lwip/raw.h"
  67:Middlewares/Third_Party/LwIP/src/api/api_lib.c **** #include "lwip/udp.h"
  68:Middlewares/Third_Party/LwIP/src/api/api_lib.c **** #include "lwip/priv/api_msg.h"
  69:Middlewares/Third_Party/LwIP/src/api/api_lib.c **** #include "lwip/priv/tcp_priv.h"
  70:Middlewares/Third_Party/LwIP/src/api/api_lib.c **** #include "lwip/priv/tcpip_priv.h"
  71:Middlewares/Third_Party/LwIP/src/api/api_lib.c **** 
  72:Middlewares/Third_Party/LwIP/src/api/api_lib.c **** #ifdef LWIP_HOOK_FILENAME
  73:Middlewares/Third_Party/LwIP/src/api/api_lib.c **** #include LWIP_HOOK_FILENAME
  74:Middlewares/Third_Party/LwIP/src/api/api_lib.c **** #endif
  75:Middlewares/Third_Party/LwIP/src/api/api_lib.c **** 
  76:Middlewares/Third_Party/LwIP/src/api/api_lib.c **** #include <string.h>
  77:Middlewares/Third_Party/LwIP/src/api/api_lib.c **** 
  78:Middlewares/Third_Party/LwIP/src/api/api_lib.c **** #define API_MSG_VAR_REF(name)               API_VAR_REF(name)
  79:Middlewares/Third_Party/LwIP/src/api/api_lib.c **** #define API_MSG_VAR_DECLARE(name)           API_VAR_DECLARE(struct api_msg, name)
  80:Middlewares/Third_Party/LwIP/src/api/api_lib.c **** #define API_MSG_VAR_ALLOC(name)             API_VAR_ALLOC(struct api_msg, MEMP_API_MSG, name, ERR_M
  81:Middlewares/Third_Party/LwIP/src/api/api_lib.c **** #define API_MSG_VAR_ALLOC_RETURN_NULL(name) API_VAR_ALLOC(struct api_msg, MEMP_API_MSG, name, NULL)
  82:Middlewares/Third_Party/LwIP/src/api/api_lib.c **** #define API_MSG_VAR_FREE(name)              API_VAR_FREE(MEMP_API_MSG, name)
  83:Middlewares/Third_Party/LwIP/src/api/api_lib.c **** 
  84:Middlewares/Third_Party/LwIP/src/api/api_lib.c **** #if TCP_LISTEN_BACKLOG
  85:Middlewares/Third_Party/LwIP/src/api/api_lib.c **** /* need to allocate API message for accept so empty message pool does not result in event loss
  86:Middlewares/Third_Party/LwIP/src/api/api_lib.c ****  * see bug #47512: MPU_COMPATIBLE may fail on empty pool */
  87:Middlewares/Third_Party/LwIP/src/api/api_lib.c **** #define API_MSG_VAR_ALLOC_ACCEPT(msg) API_MSG_VAR_ALLOC(msg)
  88:Middlewares/Third_Party/LwIP/src/api/api_lib.c **** #define API_MSG_VAR_FREE_ACCEPT(msg) API_MSG_VAR_FREE(msg)
ARM GAS  /tmp/cckDOVNo.s 			page 3


  89:Middlewares/Third_Party/LwIP/src/api/api_lib.c **** #else /* TCP_LISTEN_BACKLOG */
  90:Middlewares/Third_Party/LwIP/src/api/api_lib.c **** #define API_MSG_VAR_ALLOC_ACCEPT(msg)
  91:Middlewares/Third_Party/LwIP/src/api/api_lib.c **** #define API_MSG_VAR_FREE_ACCEPT(msg)
  92:Middlewares/Third_Party/LwIP/src/api/api_lib.c **** #endif /* TCP_LISTEN_BACKLOG */
  93:Middlewares/Third_Party/LwIP/src/api/api_lib.c **** 
  94:Middlewares/Third_Party/LwIP/src/api/api_lib.c **** #if LWIP_NETCONN_FULLDUPLEX
  95:Middlewares/Third_Party/LwIP/src/api/api_lib.c **** #define NETCONN_RECVMBOX_WAITABLE(conn) (sys_mbox_valid(&(conn)->recvmbox) && (((conn)->flags & NET
  96:Middlewares/Third_Party/LwIP/src/api/api_lib.c **** #define NETCONN_ACCEPTMBOX_WAITABLE(conn) (sys_mbox_valid(&(conn)->acceptmbox) && (((conn)->flags &
  97:Middlewares/Third_Party/LwIP/src/api/api_lib.c **** #define NETCONN_MBOX_WAITING_INC(conn) SYS_ARCH_INC(conn->mbox_threads_waiting, 1)
  98:Middlewares/Third_Party/LwIP/src/api/api_lib.c **** #define NETCONN_MBOX_WAITING_DEC(conn) SYS_ARCH_DEC(conn->mbox_threads_waiting, 1)
  99:Middlewares/Third_Party/LwIP/src/api/api_lib.c **** #else /* LWIP_NETCONN_FULLDUPLEX */
 100:Middlewares/Third_Party/LwIP/src/api/api_lib.c **** #define NETCONN_RECVMBOX_WAITABLE(conn)   sys_mbox_valid(&(conn)->recvmbox)
 101:Middlewares/Third_Party/LwIP/src/api/api_lib.c **** #define NETCONN_ACCEPTMBOX_WAITABLE(conn) (sys_mbox_valid(&(conn)->acceptmbox) && (((conn)->flags &
 102:Middlewares/Third_Party/LwIP/src/api/api_lib.c **** #define NETCONN_MBOX_WAITING_INC(conn)
 103:Middlewares/Third_Party/LwIP/src/api/api_lib.c **** #define NETCONN_MBOX_WAITING_DEC(conn)
 104:Middlewares/Third_Party/LwIP/src/api/api_lib.c **** #endif /* LWIP_NETCONN_FULLDUPLEX */
 105:Middlewares/Third_Party/LwIP/src/api/api_lib.c **** 
 106:Middlewares/Third_Party/LwIP/src/api/api_lib.c **** static err_t netconn_close_shutdown(struct netconn *conn, u8_t how);
 107:Middlewares/Third_Party/LwIP/src/api/api_lib.c **** 
 108:Middlewares/Third_Party/LwIP/src/api/api_lib.c **** /**
 109:Middlewares/Third_Party/LwIP/src/api/api_lib.c ****  * Call the lower part of a netconn_* function
 110:Middlewares/Third_Party/LwIP/src/api/api_lib.c ****  * This function is then running in the thread context
 111:Middlewares/Third_Party/LwIP/src/api/api_lib.c ****  * of tcpip_thread and has exclusive access to lwIP core code.
 112:Middlewares/Third_Party/LwIP/src/api/api_lib.c ****  *
 113:Middlewares/Third_Party/LwIP/src/api/api_lib.c ****  * @param fn function to call
 114:Middlewares/Third_Party/LwIP/src/api/api_lib.c ****  * @param apimsg a struct containing the function to call and its parameters
 115:Middlewares/Third_Party/LwIP/src/api/api_lib.c ****  * @return ERR_OK if the function was called, another err_t if not
 116:Middlewares/Third_Party/LwIP/src/api/api_lib.c ****  */
 117:Middlewares/Third_Party/LwIP/src/api/api_lib.c **** static err_t
 118:Middlewares/Third_Party/LwIP/src/api/api_lib.c **** netconn_apimsg(tcpip_callback_fn fn, struct api_msg *apimsg)
 119:Middlewares/Third_Party/LwIP/src/api/api_lib.c **** {
  28              		.loc 1 119 1
  29              		.cfi_startproc
  30              		@ args = 0, pretend = 0, frame = 16
  31              		@ frame_needed = 1, uses_anonymous_args = 0
  32 0000 80B5     		push	{r7, lr}
  33              	.LCFI0:
  34              		.cfi_def_cfa_offset 8
  35              		.cfi_offset 7, -8
  36              		.cfi_offset 14, -4
  37 0002 84B0     		sub	sp, sp, #16
  38              	.LCFI1:
  39              		.cfi_def_cfa_offset 24
  40 0004 00AF     		add	r7, sp, #0
  41              	.LCFI2:
  42              		.cfi_def_cfa_register 7
  43 0006 7860     		str	r0, [r7, #4]
  44 0008 3960     		str	r1, [r7]
 120:Middlewares/Third_Party/LwIP/src/api/api_lib.c ****   err_t err;
 121:Middlewares/Third_Party/LwIP/src/api/api_lib.c **** 
 122:Middlewares/Third_Party/LwIP/src/api/api_lib.c **** #ifdef LWIP_DEBUG
 123:Middlewares/Third_Party/LwIP/src/api/api_lib.c ****   /* catch functions that don't set err */
 124:Middlewares/Third_Party/LwIP/src/api/api_lib.c ****   apimsg->err = ERR_VAL;
 125:Middlewares/Third_Party/LwIP/src/api/api_lib.c **** #endif /* LWIP_DEBUG */
 126:Middlewares/Third_Party/LwIP/src/api/api_lib.c **** 
 127:Middlewares/Third_Party/LwIP/src/api/api_lib.c **** #if LWIP_NETCONN_SEM_PER_THREAD
 128:Middlewares/Third_Party/LwIP/src/api/api_lib.c ****   apimsg->op_completed_sem = LWIP_NETCONN_THREAD_SEM_GET();
ARM GAS  /tmp/cckDOVNo.s 			page 4


 129:Middlewares/Third_Party/LwIP/src/api/api_lib.c **** #endif /* LWIP_NETCONN_SEM_PER_THREAD */
 130:Middlewares/Third_Party/LwIP/src/api/api_lib.c **** 
 131:Middlewares/Third_Party/LwIP/src/api/api_lib.c ****   err = tcpip_send_msg_wait_sem(fn, apimsg, LWIP_API_MSG_SEM(apimsg));
  45              		.loc 1 131 45
  46 000a 3B68     		ldr	r3, [r7]
  47 000c 1B68     		ldr	r3, [r3]
  48              		.loc 1 131 9
  49 000e 0C33     		adds	r3, r3, #12
  50 0010 1A46     		mov	r2, r3
  51 0012 3968     		ldr	r1, [r7]
  52 0014 7868     		ldr	r0, [r7, #4]
  53 0016 FFF7FEFF 		bl	tcpip_send_msg_wait_sem
  54 001a 0346     		mov	r3, r0
  55 001c FB73     		strb	r3, [r7, #15]
 132:Middlewares/Third_Party/LwIP/src/api/api_lib.c ****   if (err == ERR_OK) {
  56              		.loc 1 132 6
  57 001e 97F90F30 		ldrsb	r3, [r7, #15]
  58 0022 002B     		cmp	r3, #0
  59 0024 03D1     		bne	.L2
 133:Middlewares/Third_Party/LwIP/src/api/api_lib.c ****     return apimsg->err;
  60              		.loc 1 133 18
  61 0026 3B68     		ldr	r3, [r7]
  62 0028 93F90430 		ldrsb	r3, [r3, #4]
  63 002c 01E0     		b	.L3
  64              	.L2:
 134:Middlewares/Third_Party/LwIP/src/api/api_lib.c ****   }
 135:Middlewares/Third_Party/LwIP/src/api/api_lib.c ****   return err;
  65              		.loc 1 135 10
  66 002e 97F90F30 		ldrsb	r3, [r7, #15]
  67              	.L3:
 136:Middlewares/Third_Party/LwIP/src/api/api_lib.c **** }
  68              		.loc 1 136 1
  69 0032 1846     		mov	r0, r3
  70 0034 1037     		adds	r7, r7, #16
  71              	.LCFI3:
  72              		.cfi_def_cfa_offset 8
  73 0036 BD46     		mov	sp, r7
  74              	.LCFI4:
  75              		.cfi_def_cfa_register 13
  76              		@ sp needed
  77 0038 80BD     		pop	{r7, pc}
  78              		.cfi_endproc
  79              	.LFE137:
  81              		.section	.rodata
  82              		.align	2
  83              	.LC0:
  84 0000 4D696464 		.ascii	"Middlewares/Third_Party/LwIP/src/api/api_lib.c\000"
  84      6C657761 
  84      7265732F 
  84      54686972 
  84      645F5061 
  85 002f 00       		.align	2
  86              	.LC1:
  87 0030 66726565 		.ascii	"freeing conn without freeing pcb\000"
  87      696E6720 
  87      636F6E6E 
  87      20776974 
ARM GAS  /tmp/cckDOVNo.s 			page 5


  87      686F7574 
  88 0051 000000   		.align	2
  89              	.LC2:
  90 0054 41737365 		.ascii	"Assertion \"%s\" failed at line %d in %s\012\000"
  90      7274696F 
  90      6E202225 
  90      73222066 
  90      61696C65 
  91              		.align	2
  92              	.LC3:
  93 007c 636F6E6E 		.ascii	"conn has no recvmbox\000"
  93      20686173 
  93      206E6F20 
  93      72656376 
  93      6D626F78 
  94 0091 000000   		.align	2
  95              	.LC4:
  96 0094 636F6E6E 		.ascii	"conn->acceptmbox shouldn't exist\000"
  96      2D3E6163 
  96      63657074 
  96      6D626F78 
  96      2073686F 
  97 00b5 000000   		.align	2
  98              	.LC5:
  99 00b8 636F6E6E 		.ascii	"conn has no op_completed\000"
  99      20686173 
  99      206E6F20 
  99      6F705F63 
  99      6F6D706C 
 100              		.section	.text.netconn_new_with_proto_and_callback,"ax",%progbits
 101              		.align	1
 102              		.global	netconn_new_with_proto_and_callback
 103              		.syntax unified
 104              		.thumb
 105              		.thumb_func
 106              		.fpu fpv4-sp-d16
 108              	netconn_new_with_proto_and_callback:
 109              	.LFB138:
 137:Middlewares/Third_Party/LwIP/src/api/api_lib.c **** 
 138:Middlewares/Third_Party/LwIP/src/api/api_lib.c **** /**
 139:Middlewares/Third_Party/LwIP/src/api/api_lib.c ****  * Create a new netconn (of a specific type) that has a callback function.
 140:Middlewares/Third_Party/LwIP/src/api/api_lib.c ****  * The corresponding pcb is also created.
 141:Middlewares/Third_Party/LwIP/src/api/api_lib.c ****  *
 142:Middlewares/Third_Party/LwIP/src/api/api_lib.c ****  * @param t the type of 'connection' to create (@see enum netconn_type)
 143:Middlewares/Third_Party/LwIP/src/api/api_lib.c ****  * @param proto the IP protocol for RAW IP pcbs
 144:Middlewares/Third_Party/LwIP/src/api/api_lib.c ****  * @param callback a function to call on status changes (RX available, TX'ed)
 145:Middlewares/Third_Party/LwIP/src/api/api_lib.c ****  * @return a newly allocated struct netconn or
 146:Middlewares/Third_Party/LwIP/src/api/api_lib.c ****  *         NULL on memory error
 147:Middlewares/Third_Party/LwIP/src/api/api_lib.c ****  */
 148:Middlewares/Third_Party/LwIP/src/api/api_lib.c **** struct netconn *
 149:Middlewares/Third_Party/LwIP/src/api/api_lib.c **** netconn_new_with_proto_and_callback(enum netconn_type t, u8_t proto, netconn_callback callback)
 150:Middlewares/Third_Party/LwIP/src/api/api_lib.c **** {
 110              		.loc 1 150 1
 111              		.cfi_startproc
 112              		@ args = 0, pretend = 0, frame = 48
 113              		@ frame_needed = 1, uses_anonymous_args = 0
 114 0000 80B5     		push	{r7, lr}
ARM GAS  /tmp/cckDOVNo.s 			page 6


 115              	.LCFI5:
 116              		.cfi_def_cfa_offset 8
 117              		.cfi_offset 7, -8
 118              		.cfi_offset 14, -4
 119 0002 8CB0     		sub	sp, sp, #48
 120              	.LCFI6:
 121              		.cfi_def_cfa_offset 56
 122 0004 00AF     		add	r7, sp, #0
 123              	.LCFI7:
 124              		.cfi_def_cfa_register 7
 125 0006 0346     		mov	r3, r0
 126 0008 3A60     		str	r2, [r7]
 127 000a FB71     		strb	r3, [r7, #7]
 128 000c 0B46     		mov	r3, r1
 129 000e BB71     		strb	r3, [r7, #6]
 151:Middlewares/Third_Party/LwIP/src/api/api_lib.c ****   struct netconn *conn;
 152:Middlewares/Third_Party/LwIP/src/api/api_lib.c ****   API_MSG_VAR_DECLARE(msg);
 153:Middlewares/Third_Party/LwIP/src/api/api_lib.c ****   API_MSG_VAR_ALLOC_RETURN_NULL(msg);
 154:Middlewares/Third_Party/LwIP/src/api/api_lib.c **** 
 155:Middlewares/Third_Party/LwIP/src/api/api_lib.c ****   conn = netconn_alloc(t, callback);
 130              		.loc 1 155 10
 131 0010 FB79     		ldrb	r3, [r7, #7]	@ zero_extendqisi2
 132 0012 3968     		ldr	r1, [r7]
 133 0014 1846     		mov	r0, r3
 134 0016 FFF7FEFF 		bl	netconn_alloc
 135 001a F862     		str	r0, [r7, #44]
 156:Middlewares/Third_Party/LwIP/src/api/api_lib.c ****   if (conn != NULL) {
 136              		.loc 1 156 6
 137 001c FB6A     		ldr	r3, [r7, #44]
 138 001e 002B     		cmp	r3, #0
 139 0020 54D0     		beq	.L5
 140              	.LBB2:
 157:Middlewares/Third_Party/LwIP/src/api/api_lib.c ****     err_t err;
 158:Middlewares/Third_Party/LwIP/src/api/api_lib.c **** 
 159:Middlewares/Third_Party/LwIP/src/api/api_lib.c ****     API_MSG_VAR_REF(msg).msg.n.proto = proto;
 141              		.loc 1 159 38
 142 0022 BB79     		ldrb	r3, [r7, #6]
 143 0024 3B74     		strb	r3, [r7, #16]
 160:Middlewares/Third_Party/LwIP/src/api/api_lib.c ****     API_MSG_VAR_REF(msg).conn = conn;
 144              		.loc 1 160 31
 145 0026 FB6A     		ldr	r3, [r7, #44]
 146 0028 BB60     		str	r3, [r7, #8]
 161:Middlewares/Third_Party/LwIP/src/api/api_lib.c ****     err = netconn_apimsg(lwip_netconn_do_newconn, &API_MSG_VAR_REF(msg));
 147              		.loc 1 161 11
 148 002a 07F10803 		add	r3, r7, #8
 149 002e 1946     		mov	r1, r3
 150 0030 2948     		ldr	r0, .L12
 151 0032 FFF7FEFF 		bl	netconn_apimsg
 152 0036 0346     		mov	r3, r0
 153 0038 87F82B30 		strb	r3, [r7, #43]
 162:Middlewares/Third_Party/LwIP/src/api/api_lib.c ****     if (err != ERR_OK) {
 154              		.loc 1 162 8
 155 003c 97F92B30 		ldrsb	r3, [r7, #43]
 156 0040 002B     		cmp	r3, #0
 157 0042 43D0     		beq	.L5
 163:Middlewares/Third_Party/LwIP/src/api/api_lib.c ****       LWIP_ASSERT("freeing conn without freeing pcb", conn->pcb.tcp == NULL);
 158              		.loc 1 163 7
ARM GAS  /tmp/cckDOVNo.s 			page 7


 159 0044 FB6A     		ldr	r3, [r7, #44]
 160 0046 5B68     		ldr	r3, [r3, #4]
 161 0048 002B     		cmp	r3, #0
 162 004a 05D0     		beq	.L6
 163              		.loc 1 163 7 is_stmt 0 discriminator 1
 164 004c 234B     		ldr	r3, .L12+4
 165 004e A322     		movs	r2, #163
 166 0050 2349     		ldr	r1, .L12+8
 167 0052 2448     		ldr	r0, .L12+12
 168 0054 FFF7FEFF 		bl	printf
 169              	.L6:
 164:Middlewares/Third_Party/LwIP/src/api/api_lib.c ****       LWIP_ASSERT("conn has no recvmbox", sys_mbox_valid(&conn->recvmbox));
 170              		.loc 1 164 7 is_stmt 1
 171 0058 FB6A     		ldr	r3, [r7, #44]
 172 005a 1033     		adds	r3, r3, #16
 173 005c 1846     		mov	r0, r3
 174 005e FFF7FEFF 		bl	sys_mbox_valid
 175 0062 0346     		mov	r3, r0
 176 0064 002B     		cmp	r3, #0
 177 0066 05D1     		bne	.L7
 178              		.loc 1 164 7 is_stmt 0 discriminator 1
 179 0068 1C4B     		ldr	r3, .L12+4
 180 006a A422     		movs	r2, #164
 181 006c 1E49     		ldr	r1, .L12+16
 182 006e 1D48     		ldr	r0, .L12+12
 183 0070 FFF7FEFF 		bl	printf
 184              	.L7:
 165:Middlewares/Third_Party/LwIP/src/api/api_lib.c **** #if LWIP_TCP
 166:Middlewares/Third_Party/LwIP/src/api/api_lib.c ****       LWIP_ASSERT("conn->acceptmbox shouldn't exist", !sys_mbox_valid(&conn->acceptmbox));
 185              		.loc 1 166 7 is_stmt 1
 186 0074 FB6A     		ldr	r3, [r7, #44]
 187 0076 1433     		adds	r3, r3, #20
 188 0078 1846     		mov	r0, r3
 189 007a FFF7FEFF 		bl	sys_mbox_valid
 190 007e 0346     		mov	r3, r0
 191 0080 002B     		cmp	r3, #0
 192 0082 05D0     		beq	.L8
 193              		.loc 1 166 7 is_stmt 0 discriminator 1
 194 0084 154B     		ldr	r3, .L12+4
 195 0086 A622     		movs	r2, #166
 196 0088 1849     		ldr	r1, .L12+20
 197 008a 1648     		ldr	r0, .L12+12
 198 008c FFF7FEFF 		bl	printf
 199              	.L8:
 167:Middlewares/Third_Party/LwIP/src/api/api_lib.c **** #endif /* LWIP_TCP */
 168:Middlewares/Third_Party/LwIP/src/api/api_lib.c **** #if !LWIP_NETCONN_SEM_PER_THREAD
 169:Middlewares/Third_Party/LwIP/src/api/api_lib.c ****       LWIP_ASSERT("conn has no op_completed", sys_sem_valid(&conn->op_completed));
 200              		.loc 1 169 7 is_stmt 1
 201 0090 FB6A     		ldr	r3, [r7, #44]
 202 0092 0C33     		adds	r3, r3, #12
 203 0094 1846     		mov	r0, r3
 204 0096 FFF7FEFF 		bl	sys_sem_valid
 205 009a 0346     		mov	r3, r0
 206 009c 002B     		cmp	r3, #0
 207 009e 05D1     		bne	.L9
 208              		.loc 1 169 7 is_stmt 0 discriminator 1
 209 00a0 0E4B     		ldr	r3, .L12+4
ARM GAS  /tmp/cckDOVNo.s 			page 8


 210 00a2 A922     		movs	r2, #169
 211 00a4 1249     		ldr	r1, .L12+24
 212 00a6 0F48     		ldr	r0, .L12+12
 213 00a8 FFF7FEFF 		bl	printf
 214              	.L9:
 170:Middlewares/Third_Party/LwIP/src/api/api_lib.c ****       sys_sem_free(&conn->op_completed);
 215              		.loc 1 170 7 is_stmt 1
 216 00ac FB6A     		ldr	r3, [r7, #44]
 217 00ae 0C33     		adds	r3, r3, #12
 218 00b0 1846     		mov	r0, r3
 219 00b2 FFF7FEFF 		bl	sys_sem_free
 171:Middlewares/Third_Party/LwIP/src/api/api_lib.c **** #endif /* !LWIP_NETCONN_SEM_PER_THREAD */
 172:Middlewares/Third_Party/LwIP/src/api/api_lib.c ****       sys_mbox_free(&conn->recvmbox);
 220              		.loc 1 172 7
 221 00b6 FB6A     		ldr	r3, [r7, #44]
 222 00b8 1033     		adds	r3, r3, #16
 223 00ba 1846     		mov	r0, r3
 224 00bc FFF7FEFF 		bl	sys_mbox_free
 173:Middlewares/Third_Party/LwIP/src/api/api_lib.c ****       memp_free(MEMP_NETCONN, conn);
 225              		.loc 1 173 7
 226 00c0 F96A     		ldr	r1, [r7, #44]
 227 00c2 0720     		movs	r0, #7
 228 00c4 FFF7FEFF 		bl	memp_free
 174:Middlewares/Third_Party/LwIP/src/api/api_lib.c ****       API_MSG_VAR_FREE(msg);
 175:Middlewares/Third_Party/LwIP/src/api/api_lib.c ****       return NULL;
 229              		.loc 1 175 14
 230 00c8 0023     		movs	r3, #0
 231 00ca 00E0     		b	.L11
 232              	.L5:
 233              	.LBE2:
 176:Middlewares/Third_Party/LwIP/src/api/api_lib.c ****     }
 177:Middlewares/Third_Party/LwIP/src/api/api_lib.c ****   }
 178:Middlewares/Third_Party/LwIP/src/api/api_lib.c ****   API_MSG_VAR_FREE(msg);
 179:Middlewares/Third_Party/LwIP/src/api/api_lib.c ****   return conn;
 234              		.loc 1 179 10
 235 00cc FB6A     		ldr	r3, [r7, #44]
 236              	.L11:
 180:Middlewares/Third_Party/LwIP/src/api/api_lib.c **** }
 237              		.loc 1 180 1 discriminator 1
 238 00ce 1846     		mov	r0, r3
 239 00d0 3037     		adds	r7, r7, #48
 240              	.LCFI8:
 241              		.cfi_def_cfa_offset 8
 242 00d2 BD46     		mov	sp, r7
 243              	.LCFI9:
 244              		.cfi_def_cfa_register 13
 245              		@ sp needed
 246 00d4 80BD     		pop	{r7, pc}
 247              	.L13:
 248 00d6 00BF     		.align	2
 249              	.L12:
 250 00d8 00000000 		.word	lwip_netconn_do_newconn
 251 00dc 00000000 		.word	.LC0
 252 00e0 30000000 		.word	.LC1
 253 00e4 54000000 		.word	.LC2
 254 00e8 7C000000 		.word	.LC3
 255 00ec 94000000 		.word	.LC4
ARM GAS  /tmp/cckDOVNo.s 			page 9


 256 00f0 B8000000 		.word	.LC5
 257              		.cfi_endproc
 258              	.LFE138:
 260              		.section	.text.netconn_prepare_delete,"ax",%progbits
 261              		.align	1
 262              		.global	netconn_prepare_delete
 263              		.syntax unified
 264              		.thumb
 265              		.thumb_func
 266              		.fpu fpv4-sp-d16
 268              	netconn_prepare_delete:
 269              	.LFB139:
 181:Middlewares/Third_Party/LwIP/src/api/api_lib.c **** 
 182:Middlewares/Third_Party/LwIP/src/api/api_lib.c **** /**
 183:Middlewares/Third_Party/LwIP/src/api/api_lib.c ****  * @ingroup netconn_common
 184:Middlewares/Third_Party/LwIP/src/api/api_lib.c ****  * Close a netconn 'connection' and free all its resources but not the netconn itself.
 185:Middlewares/Third_Party/LwIP/src/api/api_lib.c ****  * UDP and RAW connection are completely closed, TCP pcbs might still be in a waitstate
 186:Middlewares/Third_Party/LwIP/src/api/api_lib.c ****  * after this returns.
 187:Middlewares/Third_Party/LwIP/src/api/api_lib.c ****  *
 188:Middlewares/Third_Party/LwIP/src/api/api_lib.c ****  * @param conn the netconn to delete
 189:Middlewares/Third_Party/LwIP/src/api/api_lib.c ****  * @return ERR_OK if the connection was deleted
 190:Middlewares/Third_Party/LwIP/src/api/api_lib.c ****  */
 191:Middlewares/Third_Party/LwIP/src/api/api_lib.c **** err_t
 192:Middlewares/Third_Party/LwIP/src/api/api_lib.c **** netconn_prepare_delete(struct netconn *conn)
 193:Middlewares/Third_Party/LwIP/src/api/api_lib.c **** {
 270              		.loc 1 193 1
 271              		.cfi_startproc
 272              		@ args = 0, pretend = 0, frame = 48
 273              		@ frame_needed = 1, uses_anonymous_args = 0
 274 0000 80B5     		push	{r7, lr}
 275              	.LCFI10:
 276              		.cfi_def_cfa_offset 8
 277              		.cfi_offset 7, -8
 278              		.cfi_offset 14, -4
 279 0002 8CB0     		sub	sp, sp, #48
 280              	.LCFI11:
 281              		.cfi_def_cfa_offset 56
 282 0004 00AF     		add	r7, sp, #0
 283              	.LCFI12:
 284              		.cfi_def_cfa_register 7
 285 0006 7860     		str	r0, [r7, #4]
 194:Middlewares/Third_Party/LwIP/src/api/api_lib.c ****   err_t err;
 195:Middlewares/Third_Party/LwIP/src/api/api_lib.c ****   API_MSG_VAR_DECLARE(msg);
 196:Middlewares/Third_Party/LwIP/src/api/api_lib.c **** 
 197:Middlewares/Third_Party/LwIP/src/api/api_lib.c ****   /* No ASSERT here because possible to get a (conn == NULL) if we got an accept error */
 198:Middlewares/Third_Party/LwIP/src/api/api_lib.c ****   if (conn == NULL) {
 286              		.loc 1 198 6
 287 0008 7B68     		ldr	r3, [r7, #4]
 288 000a 002B     		cmp	r3, #0
 289 000c 01D1     		bne	.L15
 199:Middlewares/Third_Party/LwIP/src/api/api_lib.c ****     return ERR_OK;
 290              		.loc 1 199 12
 291 000e 0023     		movs	r3, #0
 292 0010 14E0     		b	.L18
 293              	.L15:
 200:Middlewares/Third_Party/LwIP/src/api/api_lib.c ****   }
 201:Middlewares/Third_Party/LwIP/src/api/api_lib.c **** 
ARM GAS  /tmp/cckDOVNo.s 			page 10


 202:Middlewares/Third_Party/LwIP/src/api/api_lib.c ****   API_MSG_VAR_ALLOC(msg);
 203:Middlewares/Third_Party/LwIP/src/api/api_lib.c ****   API_MSG_VAR_REF(msg).conn = conn;
 294              		.loc 1 203 29
 295 0012 7B68     		ldr	r3, [r7, #4]
 296 0014 FB60     		str	r3, [r7, #12]
 204:Middlewares/Third_Party/LwIP/src/api/api_lib.c **** #if LWIP_SO_SNDTIMEO || LWIP_SO_LINGER
 205:Middlewares/Third_Party/LwIP/src/api/api_lib.c ****   /* get the time we started, which is later compared to
 206:Middlewares/Third_Party/LwIP/src/api/api_lib.c ****      sys_now() + conn->send_timeout */
 207:Middlewares/Third_Party/LwIP/src/api/api_lib.c ****   API_MSG_VAR_REF(msg).msg.sd.time_started = sys_now();
 208:Middlewares/Third_Party/LwIP/src/api/api_lib.c **** #else /* LWIP_SO_SNDTIMEO || LWIP_SO_LINGER */
 209:Middlewares/Third_Party/LwIP/src/api/api_lib.c **** #if LWIP_TCP
 210:Middlewares/Third_Party/LwIP/src/api/api_lib.c ****   API_MSG_VAR_REF(msg).msg.sd.polls_left =
 297              		.loc 1 210 42
 298 0016 2923     		movs	r3, #41
 299 0018 7B75     		strb	r3, [r7, #21]
 211:Middlewares/Third_Party/LwIP/src/api/api_lib.c ****     ((LWIP_TCP_CLOSE_TIMEOUT_MS_DEFAULT + TCP_SLOW_INTERVAL - 1) / TCP_SLOW_INTERVAL) + 1;
 212:Middlewares/Third_Party/LwIP/src/api/api_lib.c **** #endif /* LWIP_TCP */
 213:Middlewares/Third_Party/LwIP/src/api/api_lib.c **** #endif /* LWIP_SO_SNDTIMEO || LWIP_SO_LINGER */
 214:Middlewares/Third_Party/LwIP/src/api/api_lib.c ****   err = netconn_apimsg(lwip_netconn_do_delconn, &API_MSG_VAR_REF(msg));
 300              		.loc 1 214 9
 301 001a 07F10C03 		add	r3, r7, #12
 302 001e 1946     		mov	r1, r3
 303 0020 0848     		ldr	r0, .L19
 304 0022 FFF7FEFF 		bl	netconn_apimsg
 305 0026 0346     		mov	r3, r0
 306 0028 87F82F30 		strb	r3, [r7, #47]
 215:Middlewares/Third_Party/LwIP/src/api/api_lib.c ****   API_MSG_VAR_FREE(msg);
 216:Middlewares/Third_Party/LwIP/src/api/api_lib.c **** 
 217:Middlewares/Third_Party/LwIP/src/api/api_lib.c ****   if (err != ERR_OK) {
 307              		.loc 1 217 6
 308 002c 97F92F30 		ldrsb	r3, [r7, #47]
 309 0030 002B     		cmp	r3, #0
 310 0032 02D0     		beq	.L17
 218:Middlewares/Third_Party/LwIP/src/api/api_lib.c ****     return err;
 311              		.loc 1 218 12
 312 0034 97F92F30 		ldrsb	r3, [r7, #47]
 313 0038 00E0     		b	.L18
 314              	.L17:
 219:Middlewares/Third_Party/LwIP/src/api/api_lib.c ****   }
 220:Middlewares/Third_Party/LwIP/src/api/api_lib.c ****   return ERR_OK;
 315              		.loc 1 220 10
 316 003a 0023     		movs	r3, #0
 317              	.L18:
 221:Middlewares/Third_Party/LwIP/src/api/api_lib.c **** }
 318              		.loc 1 221 1 discriminator 1
 319 003c 1846     		mov	r0, r3
 320 003e 3037     		adds	r7, r7, #48
 321              	.LCFI13:
 322              		.cfi_def_cfa_offset 8
 323 0040 BD46     		mov	sp, r7
 324              	.LCFI14:
 325              		.cfi_def_cfa_register 13
 326              		@ sp needed
 327 0042 80BD     		pop	{r7, pc}
 328              	.L20:
 329              		.align	2
 330              	.L19:
ARM GAS  /tmp/cckDOVNo.s 			page 11


 331 0044 00000000 		.word	lwip_netconn_do_delconn
 332              		.cfi_endproc
 333              	.LFE139:
 335              		.section	.text.netconn_delete,"ax",%progbits
 336              		.align	1
 337              		.global	netconn_delete
 338              		.syntax unified
 339              		.thumb
 340              		.thumb_func
 341              		.fpu fpv4-sp-d16
 343              	netconn_delete:
 344              	.LFB140:
 222:Middlewares/Third_Party/LwIP/src/api/api_lib.c **** 
 223:Middlewares/Third_Party/LwIP/src/api/api_lib.c **** /**
 224:Middlewares/Third_Party/LwIP/src/api/api_lib.c ****  * @ingroup netconn_common
 225:Middlewares/Third_Party/LwIP/src/api/api_lib.c ****  * Close a netconn 'connection' and free its resources.
 226:Middlewares/Third_Party/LwIP/src/api/api_lib.c ****  * UDP and RAW connection are completely closed, TCP pcbs might still be in a waitstate
 227:Middlewares/Third_Party/LwIP/src/api/api_lib.c ****  * after this returns.
 228:Middlewares/Third_Party/LwIP/src/api/api_lib.c ****  *
 229:Middlewares/Third_Party/LwIP/src/api/api_lib.c ****  * @param conn the netconn to delete
 230:Middlewares/Third_Party/LwIP/src/api/api_lib.c ****  * @return ERR_OK if the connection was deleted
 231:Middlewares/Third_Party/LwIP/src/api/api_lib.c ****  */
 232:Middlewares/Third_Party/LwIP/src/api/api_lib.c **** err_t
 233:Middlewares/Third_Party/LwIP/src/api/api_lib.c **** netconn_delete(struct netconn *conn)
 234:Middlewares/Third_Party/LwIP/src/api/api_lib.c **** {
 345              		.loc 1 234 1
 346              		.cfi_startproc
 347              		@ args = 0, pretend = 0, frame = 16
 348              		@ frame_needed = 1, uses_anonymous_args = 0
 349 0000 80B5     		push	{r7, lr}
 350              	.LCFI15:
 351              		.cfi_def_cfa_offset 8
 352              		.cfi_offset 7, -8
 353              		.cfi_offset 14, -4
 354 0002 84B0     		sub	sp, sp, #16
 355              	.LCFI16:
 356              		.cfi_def_cfa_offset 24
 357 0004 00AF     		add	r7, sp, #0
 358              	.LCFI17:
 359              		.cfi_def_cfa_register 7
 360 0006 7860     		str	r0, [r7, #4]
 235:Middlewares/Third_Party/LwIP/src/api/api_lib.c ****   err_t err;
 236:Middlewares/Third_Party/LwIP/src/api/api_lib.c **** 
 237:Middlewares/Third_Party/LwIP/src/api/api_lib.c ****   /* No ASSERT here because possible to get a (conn == NULL) if we got an accept error */
 238:Middlewares/Third_Party/LwIP/src/api/api_lib.c ****   if (conn == NULL) {
 361              		.loc 1 238 6
 362 0008 7B68     		ldr	r3, [r7, #4]
 363 000a 002B     		cmp	r3, #0
 364 000c 01D1     		bne	.L22
 239:Middlewares/Third_Party/LwIP/src/api/api_lib.c ****     return ERR_OK;
 365              		.loc 1 239 12
 366 000e 0023     		movs	r3, #0
 367 0010 0DE0     		b	.L23
 368              	.L22:
 240:Middlewares/Third_Party/LwIP/src/api/api_lib.c ****   }
 241:Middlewares/Third_Party/LwIP/src/api/api_lib.c **** 
 242:Middlewares/Third_Party/LwIP/src/api/api_lib.c **** #if LWIP_NETCONN_FULLDUPLEX
ARM GAS  /tmp/cckDOVNo.s 			page 12


 243:Middlewares/Third_Party/LwIP/src/api/api_lib.c ****   if (conn->flags & NETCONN_FLAG_MBOXINVALID) {
 244:Middlewares/Third_Party/LwIP/src/api/api_lib.c ****     /* Already called netconn_prepare_delete() before */
 245:Middlewares/Third_Party/LwIP/src/api/api_lib.c ****     err = ERR_OK;
 246:Middlewares/Third_Party/LwIP/src/api/api_lib.c ****   } else
 247:Middlewares/Third_Party/LwIP/src/api/api_lib.c **** #endif /* LWIP_NETCONN_FULLDUPLEX */
 248:Middlewares/Third_Party/LwIP/src/api/api_lib.c ****   {
 249:Middlewares/Third_Party/LwIP/src/api/api_lib.c ****     err = netconn_prepare_delete(conn);
 369              		.loc 1 249 11
 370 0012 7868     		ldr	r0, [r7, #4]
 371 0014 FFF7FEFF 		bl	netconn_prepare_delete
 372 0018 0346     		mov	r3, r0
 373 001a FB73     		strb	r3, [r7, #15]
 250:Middlewares/Third_Party/LwIP/src/api/api_lib.c ****   }
 251:Middlewares/Third_Party/LwIP/src/api/api_lib.c ****   if (err == ERR_OK) {
 374              		.loc 1 251 6
 375 001c 97F90F30 		ldrsb	r3, [r7, #15]
 376 0020 002B     		cmp	r3, #0
 377 0022 02D1     		bne	.L24
 252:Middlewares/Third_Party/LwIP/src/api/api_lib.c ****     netconn_free(conn);
 378              		.loc 1 252 5
 379 0024 7868     		ldr	r0, [r7, #4]
 380 0026 FFF7FEFF 		bl	netconn_free
 381              	.L24:
 253:Middlewares/Third_Party/LwIP/src/api/api_lib.c ****   }
 254:Middlewares/Third_Party/LwIP/src/api/api_lib.c ****   return err;
 382              		.loc 1 254 10
 383 002a 97F90F30 		ldrsb	r3, [r7, #15]
 384              	.L23:
 255:Middlewares/Third_Party/LwIP/src/api/api_lib.c **** }
 385              		.loc 1 255 1
 386 002e 1846     		mov	r0, r3
 387 0030 1037     		adds	r7, r7, #16
 388              	.LCFI18:
 389              		.cfi_def_cfa_offset 8
 390 0032 BD46     		mov	sp, r7
 391              	.LCFI19:
 392              		.cfi_def_cfa_register 13
 393              		@ sp needed
 394 0034 80BD     		pop	{r7, pc}
 395              		.cfi_endproc
 396              	.LFE140:
 398              		.section	.rodata
 399 00d1 000000   		.align	2
 400              	.LC6:
 401 00d4 6E657463 		.ascii	"netconn_getaddr: invalid conn\000"
 401      6F6E6E5F 
 401      67657461 
 401      6464723A 
 401      20696E76 
 402 00f2 0000     		.align	2
 403              	.LC7:
 404 00f4 6E657463 		.ascii	"netconn_getaddr: invalid addr\000"
 404      6F6E6E5F 
 404      67657461 
 404      6464723A 
 404      20696E76 
 405 0112 0000     		.align	2
ARM GAS  /tmp/cckDOVNo.s 			page 13


 406              	.LC8:
 407 0114 6E657463 		.ascii	"netconn_getaddr: invalid port\000"
 407      6F6E6E5F 
 407      67657461 
 407      6464723A 
 407      20696E76 
 408              		.section	.text.netconn_getaddr,"ax",%progbits
 409              		.align	1
 410              		.global	netconn_getaddr
 411              		.syntax unified
 412              		.thumb
 413              		.thumb_func
 414              		.fpu fpv4-sp-d16
 416              	netconn_getaddr:
 417              	.LFB141:
 256:Middlewares/Third_Party/LwIP/src/api/api_lib.c **** 
 257:Middlewares/Third_Party/LwIP/src/api/api_lib.c **** /**
 258:Middlewares/Third_Party/LwIP/src/api/api_lib.c ****  * Get the local or remote IP address and port of a netconn.
 259:Middlewares/Third_Party/LwIP/src/api/api_lib.c ****  * For RAW netconns, this returns the protocol instead of a port!
 260:Middlewares/Third_Party/LwIP/src/api/api_lib.c ****  *
 261:Middlewares/Third_Party/LwIP/src/api/api_lib.c ****  * @param conn the netconn to query
 262:Middlewares/Third_Party/LwIP/src/api/api_lib.c ****  * @param addr a pointer to which to save the IP address
 263:Middlewares/Third_Party/LwIP/src/api/api_lib.c ****  * @param port a pointer to which to save the port (or protocol for RAW)
 264:Middlewares/Third_Party/LwIP/src/api/api_lib.c ****  * @param local 1 to get the local IP address, 0 to get the remote one
 265:Middlewares/Third_Party/LwIP/src/api/api_lib.c ****  * @return ERR_CONN for invalid connections
 266:Middlewares/Third_Party/LwIP/src/api/api_lib.c ****  *         ERR_OK if the information was retrieved
 267:Middlewares/Third_Party/LwIP/src/api/api_lib.c ****  */
 268:Middlewares/Third_Party/LwIP/src/api/api_lib.c **** err_t
 269:Middlewares/Third_Party/LwIP/src/api/api_lib.c **** netconn_getaddr(struct netconn *conn, ip_addr_t *addr, u16_t *port, u8_t local)
 270:Middlewares/Third_Party/LwIP/src/api/api_lib.c **** {
 418              		.loc 1 270 1
 419              		.cfi_startproc
 420              		@ args = 0, pretend = 0, frame = 56
 421              		@ frame_needed = 1, uses_anonymous_args = 0
 422 0000 80B5     		push	{r7, lr}
 423              	.LCFI20:
 424              		.cfi_def_cfa_offset 8
 425              		.cfi_offset 7, -8
 426              		.cfi_offset 14, -4
 427 0002 8EB0     		sub	sp, sp, #56
 428              	.LCFI21:
 429              		.cfi_def_cfa_offset 64
 430 0004 00AF     		add	r7, sp, #0
 431              	.LCFI22:
 432              		.cfi_def_cfa_register 7
 433 0006 F860     		str	r0, [r7, #12]
 434 0008 B960     		str	r1, [r7, #8]
 435 000a 7A60     		str	r2, [r7, #4]
 436 000c FB70     		strb	r3, [r7, #3]
 271:Middlewares/Third_Party/LwIP/src/api/api_lib.c ****   API_MSG_VAR_DECLARE(msg);
 272:Middlewares/Third_Party/LwIP/src/api/api_lib.c ****   err_t err;
 273:Middlewares/Third_Party/LwIP/src/api/api_lib.c **** 
 274:Middlewares/Third_Party/LwIP/src/api/api_lib.c ****   LWIP_ERROR("netconn_getaddr: invalid conn", (conn != NULL), return ERR_ARG;);
 437              		.loc 1 274 3
 438 000e FB68     		ldr	r3, [r7, #12]
 439 0010 002B     		cmp	r3, #0
 440 0012 09D1     		bne	.L26
ARM GAS  /tmp/cckDOVNo.s 			page 14


 441              		.loc 1 274 3 is_stmt 0 discriminator 1
 442 0014 1D4B     		ldr	r3, .L31
 443 0016 4FF48972 		mov	r2, #274
 444 001a 1D49     		ldr	r1, .L31+4
 445 001c 1D48     		ldr	r0, .L31+8
 446 001e FFF7FEFF 		bl	printf
 447 0022 6FF00F03 		mvn	r3, #15
 448 0026 2DE0     		b	.L30
 449              	.L26:
 275:Middlewares/Third_Party/LwIP/src/api/api_lib.c ****   LWIP_ERROR("netconn_getaddr: invalid addr", (addr != NULL), return ERR_ARG;);
 450              		.loc 1 275 3 is_stmt 1
 451 0028 BB68     		ldr	r3, [r7, #8]
 452 002a 002B     		cmp	r3, #0
 453 002c 09D1     		bne	.L28
 454              		.loc 1 275 3 is_stmt 0 discriminator 1
 455 002e 174B     		ldr	r3, .L31
 456 0030 40F21312 		movw	r2, #275
 457 0034 1849     		ldr	r1, .L31+12
 458 0036 1748     		ldr	r0, .L31+8
 459 0038 FFF7FEFF 		bl	printf
 460 003c 6FF00F03 		mvn	r3, #15
 461 0040 20E0     		b	.L30
 462              	.L28:
 276:Middlewares/Third_Party/LwIP/src/api/api_lib.c ****   LWIP_ERROR("netconn_getaddr: invalid port", (port != NULL), return ERR_ARG;);
 463              		.loc 1 276 3 is_stmt 1
 464 0042 7B68     		ldr	r3, [r7, #4]
 465 0044 002B     		cmp	r3, #0
 466 0046 09D1     		bne	.L29
 467              		.loc 1 276 3 is_stmt 0 discriminator 1
 468 0048 104B     		ldr	r3, .L31
 469 004a 4FF48A72 		mov	r2, #276
 470 004e 1349     		ldr	r1, .L31+16
 471 0050 1048     		ldr	r0, .L31+8
 472 0052 FFF7FEFF 		bl	printf
 473 0056 6FF00F03 		mvn	r3, #15
 474 005a 13E0     		b	.L30
 475              	.L29:
 277:Middlewares/Third_Party/LwIP/src/api/api_lib.c **** 
 278:Middlewares/Third_Party/LwIP/src/api/api_lib.c ****   API_MSG_VAR_ALLOC(msg);
 279:Middlewares/Third_Party/LwIP/src/api/api_lib.c ****   API_MSG_VAR_REF(msg).conn = conn;
 476              		.loc 1 279 29 is_stmt 1
 477 005c FB68     		ldr	r3, [r7, #12]
 478 005e 7B61     		str	r3, [r7, #20]
 280:Middlewares/Third_Party/LwIP/src/api/api_lib.c ****   API_MSG_VAR_REF(msg).msg.ad.local = local;
 479              		.loc 1 280 37
 480 0060 FB78     		ldrb	r3, [r7, #3]
 481 0062 87F82430 		strb	r3, [r7, #36]
 281:Middlewares/Third_Party/LwIP/src/api/api_lib.c **** #if LWIP_MPU_COMPATIBLE
 282:Middlewares/Third_Party/LwIP/src/api/api_lib.c ****   err = netconn_apimsg(lwip_netconn_do_getaddr, &API_MSG_VAR_REF(msg));
 283:Middlewares/Third_Party/LwIP/src/api/api_lib.c ****   *addr = msg->msg.ad.ipaddr;
 284:Middlewares/Third_Party/LwIP/src/api/api_lib.c ****   *port = msg->msg.ad.port;
 285:Middlewares/Third_Party/LwIP/src/api/api_lib.c **** #else /* LWIP_MPU_COMPATIBLE */
 286:Middlewares/Third_Party/LwIP/src/api/api_lib.c ****   msg.msg.ad.ipaddr = addr;
 482              		.loc 1 286 21
 483 0066 BB68     		ldr	r3, [r7, #8]
 484 0068 FB61     		str	r3, [r7, #28]
 287:Middlewares/Third_Party/LwIP/src/api/api_lib.c ****   msg.msg.ad.port = port;
ARM GAS  /tmp/cckDOVNo.s 			page 15


 485              		.loc 1 287 19
 486 006a 7B68     		ldr	r3, [r7, #4]
 487 006c 3B62     		str	r3, [r7, #32]
 288:Middlewares/Third_Party/LwIP/src/api/api_lib.c ****   err = netconn_apimsg(lwip_netconn_do_getaddr, &msg);
 488              		.loc 1 288 9
 489 006e 07F11403 		add	r3, r7, #20
 490 0072 1946     		mov	r1, r3
 491 0074 0A48     		ldr	r0, .L31+20
 492 0076 FFF7FEFF 		bl	netconn_apimsg
 493 007a 0346     		mov	r3, r0
 494 007c 87F83730 		strb	r3, [r7, #55]
 289:Middlewares/Third_Party/LwIP/src/api/api_lib.c **** #endif /* LWIP_MPU_COMPATIBLE */
 290:Middlewares/Third_Party/LwIP/src/api/api_lib.c ****   API_MSG_VAR_FREE(msg);
 291:Middlewares/Third_Party/LwIP/src/api/api_lib.c **** 
 292:Middlewares/Third_Party/LwIP/src/api/api_lib.c ****   return err;
 495              		.loc 1 292 10
 496 0080 97F93730 		ldrsb	r3, [r7, #55]
 497              	.L30:
 293:Middlewares/Third_Party/LwIP/src/api/api_lib.c **** }
 498              		.loc 1 293 1 discriminator 1
 499 0084 1846     		mov	r0, r3
 500 0086 3837     		adds	r7, r7, #56
 501              	.LCFI23:
 502              		.cfi_def_cfa_offset 8
 503 0088 BD46     		mov	sp, r7
 504              	.LCFI24:
 505              		.cfi_def_cfa_register 13
 506              		@ sp needed
 507 008a 80BD     		pop	{r7, pc}
 508              	.L32:
 509              		.align	2
 510              	.L31:
 511 008c 00000000 		.word	.LC0
 512 0090 D4000000 		.word	.LC6
 513 0094 54000000 		.word	.LC2
 514 0098 F4000000 		.word	.LC7
 515 009c 14010000 		.word	.LC8
 516 00a0 00000000 		.word	lwip_netconn_do_getaddr
 517              		.cfi_endproc
 518              	.LFE141:
 520              		.section	.rodata
 521 0132 0000     		.align	2
 522              	.LC9:
 523 0134 6E657463 		.ascii	"netconn_bind: invalid conn\000"
 523      6F6E6E5F 
 523      62696E64 
 523      3A20696E 
 523      76616C69 
 524              		.section	.text.netconn_bind,"ax",%progbits
 525              		.align	1
 526              		.global	netconn_bind
 527              		.syntax unified
 528              		.thumb
 529              		.thumb_func
 530              		.fpu fpv4-sp-d16
 532              	netconn_bind:
 533              	.LFB142:
ARM GAS  /tmp/cckDOVNo.s 			page 16


 294:Middlewares/Third_Party/LwIP/src/api/api_lib.c **** 
 295:Middlewares/Third_Party/LwIP/src/api/api_lib.c **** /**
 296:Middlewares/Third_Party/LwIP/src/api/api_lib.c ****  * @ingroup netconn_common
 297:Middlewares/Third_Party/LwIP/src/api/api_lib.c ****  * Bind a netconn to a specific local IP address and port.
 298:Middlewares/Third_Party/LwIP/src/api/api_lib.c ****  * Binding one netconn twice might not always be checked correctly!
 299:Middlewares/Third_Party/LwIP/src/api/api_lib.c ****  *
 300:Middlewares/Third_Party/LwIP/src/api/api_lib.c ****  * @param conn the netconn to bind
 301:Middlewares/Third_Party/LwIP/src/api/api_lib.c ****  * @param addr the local IP address to bind the netconn to
 302:Middlewares/Third_Party/LwIP/src/api/api_lib.c ****  *             (use IP4_ADDR_ANY/IP6_ADDR_ANY to bind to all addresses)
 303:Middlewares/Third_Party/LwIP/src/api/api_lib.c ****  * @param port the local port to bind the netconn to (not used for RAW)
 304:Middlewares/Third_Party/LwIP/src/api/api_lib.c ****  * @return ERR_OK if bound, any other err_t on failure
 305:Middlewares/Third_Party/LwIP/src/api/api_lib.c ****  */
 306:Middlewares/Third_Party/LwIP/src/api/api_lib.c **** err_t
 307:Middlewares/Third_Party/LwIP/src/api/api_lib.c **** netconn_bind(struct netconn *conn, const ip_addr_t *addr, u16_t port)
 308:Middlewares/Third_Party/LwIP/src/api/api_lib.c **** {
 534              		.loc 1 308 1
 535              		.cfi_startproc
 536              		@ args = 0, pretend = 0, frame = 56
 537              		@ frame_needed = 1, uses_anonymous_args = 0
 538 0000 80B5     		push	{r7, lr}
 539              	.LCFI25:
 540              		.cfi_def_cfa_offset 8
 541              		.cfi_offset 7, -8
 542              		.cfi_offset 14, -4
 543 0002 8EB0     		sub	sp, sp, #56
 544              	.LCFI26:
 545              		.cfi_def_cfa_offset 64
 546 0004 00AF     		add	r7, sp, #0
 547              	.LCFI27:
 548              		.cfi_def_cfa_register 7
 549 0006 F860     		str	r0, [r7, #12]
 550 0008 B960     		str	r1, [r7, #8]
 551 000a 1346     		mov	r3, r2
 552 000c FB80     		strh	r3, [r7, #6]	@ movhi
 309:Middlewares/Third_Party/LwIP/src/api/api_lib.c ****   API_MSG_VAR_DECLARE(msg);
 310:Middlewares/Third_Party/LwIP/src/api/api_lib.c ****   err_t err;
 311:Middlewares/Third_Party/LwIP/src/api/api_lib.c **** 
 312:Middlewares/Third_Party/LwIP/src/api/api_lib.c ****   LWIP_ERROR("netconn_bind: invalid conn", (conn != NULL), return ERR_ARG;);
 553              		.loc 1 312 3
 554 000e FB68     		ldr	r3, [r7, #12]
 555 0010 002B     		cmp	r3, #0
 556 0012 09D1     		bne	.L34
 557              		.loc 1 312 3 is_stmt 0 discriminator 1
 558 0014 114B     		ldr	r3, .L38
 559 0016 4FF49C72 		mov	r2, #312
 560 001a 1149     		ldr	r1, .L38+4
 561 001c 1148     		ldr	r0, .L38+8
 562 001e FFF7FEFF 		bl	printf
 563 0022 6FF00F03 		mvn	r3, #15
 564 0026 15E0     		b	.L37
 565              	.L34:
 313:Middlewares/Third_Party/LwIP/src/api/api_lib.c **** 
 314:Middlewares/Third_Party/LwIP/src/api/api_lib.c **** #if LWIP_IPV4
 315:Middlewares/Third_Party/LwIP/src/api/api_lib.c ****   /* Don't propagate NULL pointer (IP_ADDR_ANY alias) to subsequent functions */
 316:Middlewares/Third_Party/LwIP/src/api/api_lib.c ****   if (addr == NULL) {
 566              		.loc 1 316 6 is_stmt 1
 567 0028 BB68     		ldr	r3, [r7, #8]
ARM GAS  /tmp/cckDOVNo.s 			page 17


 568 002a 002B     		cmp	r3, #0
 569 002c 01D1     		bne	.L36
 317:Middlewares/Third_Party/LwIP/src/api/api_lib.c ****     addr = IP4_ADDR_ANY;
 570              		.loc 1 317 10
 571 002e 0E4B     		ldr	r3, .L38+12
 572 0030 BB60     		str	r3, [r7, #8]
 573              	.L36:
 318:Middlewares/Third_Party/LwIP/src/api/api_lib.c ****   }
 319:Middlewares/Third_Party/LwIP/src/api/api_lib.c **** #endif /* LWIP_IPV4 */
 320:Middlewares/Third_Party/LwIP/src/api/api_lib.c **** 
 321:Middlewares/Third_Party/LwIP/src/api/api_lib.c **** #if LWIP_IPV4 && LWIP_IPV6
 322:Middlewares/Third_Party/LwIP/src/api/api_lib.c ****   /* "Socket API like" dual-stack support: If IP to bind to is IP6_ADDR_ANY,
 323:Middlewares/Third_Party/LwIP/src/api/api_lib.c ****    * and NETCONN_FLAG_IPV6_V6ONLY is 0, use IP_ANY_TYPE to bind
 324:Middlewares/Third_Party/LwIP/src/api/api_lib.c ****    */
 325:Middlewares/Third_Party/LwIP/src/api/api_lib.c ****   if ((netconn_get_ipv6only(conn) == 0) &&
 326:Middlewares/Third_Party/LwIP/src/api/api_lib.c ****       ip_addr_cmp(addr, IP6_ADDR_ANY)) {
 327:Middlewares/Third_Party/LwIP/src/api/api_lib.c ****     addr = IP_ANY_TYPE;
 328:Middlewares/Third_Party/LwIP/src/api/api_lib.c ****   }
 329:Middlewares/Third_Party/LwIP/src/api/api_lib.c **** #endif /* LWIP_IPV4 && LWIP_IPV6 */
 330:Middlewares/Third_Party/LwIP/src/api/api_lib.c **** 
 331:Middlewares/Third_Party/LwIP/src/api/api_lib.c ****   API_MSG_VAR_ALLOC(msg);
 332:Middlewares/Third_Party/LwIP/src/api/api_lib.c ****   API_MSG_VAR_REF(msg).conn = conn;
 574              		.loc 1 332 29
 575 0032 FB68     		ldr	r3, [r7, #12]
 576 0034 7B61     		str	r3, [r7, #20]
 333:Middlewares/Third_Party/LwIP/src/api/api_lib.c ****   API_MSG_VAR_REF(msg).msg.bc.ipaddr = API_MSG_VAR_REF(addr);
 577              		.loc 1 333 38
 578 0036 BB68     		ldr	r3, [r7, #8]
 579 0038 FB61     		str	r3, [r7, #28]
 334:Middlewares/Third_Party/LwIP/src/api/api_lib.c ****   API_MSG_VAR_REF(msg).msg.bc.port = port;
 580              		.loc 1 334 36
 581 003a FB88     		ldrh	r3, [r7, #6]	@ movhi
 582 003c 3B84     		strh	r3, [r7, #32]	@ movhi
 335:Middlewares/Third_Party/LwIP/src/api/api_lib.c ****   err = netconn_apimsg(lwip_netconn_do_bind, &API_MSG_VAR_REF(msg));
 583              		.loc 1 335 9
 584 003e 07F11403 		add	r3, r7, #20
 585 0042 1946     		mov	r1, r3
 586 0044 0948     		ldr	r0, .L38+16
 587 0046 FFF7FEFF 		bl	netconn_apimsg
 588 004a 0346     		mov	r3, r0
 589 004c 87F83730 		strb	r3, [r7, #55]
 336:Middlewares/Third_Party/LwIP/src/api/api_lib.c ****   API_MSG_VAR_FREE(msg);
 337:Middlewares/Third_Party/LwIP/src/api/api_lib.c **** 
 338:Middlewares/Third_Party/LwIP/src/api/api_lib.c ****   return err;
 590              		.loc 1 338 10
 591 0050 97F93730 		ldrsb	r3, [r7, #55]
 592              	.L37:
 339:Middlewares/Third_Party/LwIP/src/api/api_lib.c **** }
 593              		.loc 1 339 1 discriminator 1
 594 0054 1846     		mov	r0, r3
 595 0056 3837     		adds	r7, r7, #56
 596              	.LCFI28:
 597              		.cfi_def_cfa_offset 8
 598 0058 BD46     		mov	sp, r7
 599              	.LCFI29:
 600              		.cfi_def_cfa_register 13
 601              		@ sp needed
ARM GAS  /tmp/cckDOVNo.s 			page 18


 602 005a 80BD     		pop	{r7, pc}
 603              	.L39:
 604              		.align	2
 605              	.L38:
 606 005c 00000000 		.word	.LC0
 607 0060 34010000 		.word	.LC9
 608 0064 54000000 		.word	.LC2
 609 0068 00000000 		.word	ip_addr_any
 610 006c 00000000 		.word	lwip_netconn_do_bind
 611              		.cfi_endproc
 612              	.LFE142:
 614              		.section	.rodata
 615 014f 00       		.align	2
 616              	.LC10:
 617 0150 6E657463 		.ascii	"netconn_bind_if: invalid conn\000"
 617      6F6E6E5F 
 617      62696E64 
 617      5F69663A 
 617      20696E76 
 618              		.section	.text.netconn_bind_if,"ax",%progbits
 619              		.align	1
 620              		.global	netconn_bind_if
 621              		.syntax unified
 622              		.thumb
 623              		.thumb_func
 624              		.fpu fpv4-sp-d16
 626              	netconn_bind_if:
 627              	.LFB143:
 340:Middlewares/Third_Party/LwIP/src/api/api_lib.c **** 
 341:Middlewares/Third_Party/LwIP/src/api/api_lib.c **** /**
 342:Middlewares/Third_Party/LwIP/src/api/api_lib.c ****  * @ingroup netconn_common
 343:Middlewares/Third_Party/LwIP/src/api/api_lib.c ****  * Bind a netconn to a specific interface and port.
 344:Middlewares/Third_Party/LwIP/src/api/api_lib.c ****  * Binding one netconn twice might not always be checked correctly!
 345:Middlewares/Third_Party/LwIP/src/api/api_lib.c ****  *
 346:Middlewares/Third_Party/LwIP/src/api/api_lib.c ****  * @param conn the netconn to bind
 347:Middlewares/Third_Party/LwIP/src/api/api_lib.c ****  * @param if_idx the local interface index to bind the netconn to
 348:Middlewares/Third_Party/LwIP/src/api/api_lib.c ****  * @return ERR_OK if bound, any other err_t on failure
 349:Middlewares/Third_Party/LwIP/src/api/api_lib.c ****  */
 350:Middlewares/Third_Party/LwIP/src/api/api_lib.c **** err_t
 351:Middlewares/Third_Party/LwIP/src/api/api_lib.c **** netconn_bind_if(struct netconn *conn, u8_t if_idx)
 352:Middlewares/Third_Party/LwIP/src/api/api_lib.c **** {
 628              		.loc 1 352 1
 629              		.cfi_startproc
 630              		@ args = 0, pretend = 0, frame = 48
 631              		@ frame_needed = 1, uses_anonymous_args = 0
 632 0000 80B5     		push	{r7, lr}
 633              	.LCFI30:
 634              		.cfi_def_cfa_offset 8
 635              		.cfi_offset 7, -8
 636              		.cfi_offset 14, -4
 637 0002 8CB0     		sub	sp, sp, #48
 638              	.LCFI31:
 639              		.cfi_def_cfa_offset 56
 640 0004 00AF     		add	r7, sp, #0
 641              	.LCFI32:
 642              		.cfi_def_cfa_register 7
 643 0006 7860     		str	r0, [r7, #4]
ARM GAS  /tmp/cckDOVNo.s 			page 19


 644 0008 0B46     		mov	r3, r1
 645 000a FB70     		strb	r3, [r7, #3]
 353:Middlewares/Third_Party/LwIP/src/api/api_lib.c ****   API_MSG_VAR_DECLARE(msg);
 354:Middlewares/Third_Party/LwIP/src/api/api_lib.c ****   err_t err;
 355:Middlewares/Third_Party/LwIP/src/api/api_lib.c **** 
 356:Middlewares/Third_Party/LwIP/src/api/api_lib.c ****   LWIP_ERROR("netconn_bind_if: invalid conn", (conn != NULL), return ERR_ARG;);
 646              		.loc 1 356 3
 647 000c 7B68     		ldr	r3, [r7, #4]
 648 000e 002B     		cmp	r3, #0
 649 0010 09D1     		bne	.L41
 650              		.loc 1 356 3 is_stmt 0 discriminator 1
 651 0012 0E4B     		ldr	r3, .L44
 652 0014 4FF4B272 		mov	r2, #356
 653 0018 0D49     		ldr	r1, .L44+4
 654 001a 0E48     		ldr	r0, .L44+8
 655 001c FFF7FEFF 		bl	printf
 656 0020 6FF00F03 		mvn	r3, #15
 657 0024 0EE0     		b	.L43
 658              	.L41:
 357:Middlewares/Third_Party/LwIP/src/api/api_lib.c **** 
 358:Middlewares/Third_Party/LwIP/src/api/api_lib.c ****   API_MSG_VAR_ALLOC(msg);
 359:Middlewares/Third_Party/LwIP/src/api/api_lib.c ****   API_MSG_VAR_REF(msg).conn = conn;
 659              		.loc 1 359 29 is_stmt 1
 660 0026 7B68     		ldr	r3, [r7, #4]
 661 0028 FB60     		str	r3, [r7, #12]
 360:Middlewares/Third_Party/LwIP/src/api/api_lib.c ****   API_MSG_VAR_REF(msg).msg.bc.if_idx = if_idx;
 662              		.loc 1 360 38
 663 002a FB78     		ldrb	r3, [r7, #3]
 664 002c BB76     		strb	r3, [r7, #26]
 361:Middlewares/Third_Party/LwIP/src/api/api_lib.c ****   err = netconn_apimsg(lwip_netconn_do_bind_if, &API_MSG_VAR_REF(msg));
 665              		.loc 1 361 9
 666 002e 07F10C03 		add	r3, r7, #12
 667 0032 1946     		mov	r1, r3
 668 0034 0848     		ldr	r0, .L44+12
 669 0036 FFF7FEFF 		bl	netconn_apimsg
 670 003a 0346     		mov	r3, r0
 671 003c 87F82F30 		strb	r3, [r7, #47]
 362:Middlewares/Third_Party/LwIP/src/api/api_lib.c ****   API_MSG_VAR_FREE(msg);
 363:Middlewares/Third_Party/LwIP/src/api/api_lib.c **** 
 364:Middlewares/Third_Party/LwIP/src/api/api_lib.c ****   return err;
 672              		.loc 1 364 10
 673 0040 97F92F30 		ldrsb	r3, [r7, #47]
 674              	.L43:
 365:Middlewares/Third_Party/LwIP/src/api/api_lib.c **** }
 675              		.loc 1 365 1 discriminator 1
 676 0044 1846     		mov	r0, r3
 677 0046 3037     		adds	r7, r7, #48
 678              	.LCFI33:
 679              		.cfi_def_cfa_offset 8
 680 0048 BD46     		mov	sp, r7
 681              	.LCFI34:
 682              		.cfi_def_cfa_register 13
 683              		@ sp needed
 684 004a 80BD     		pop	{r7, pc}
 685              	.L45:
 686              		.align	2
 687              	.L44:
ARM GAS  /tmp/cckDOVNo.s 			page 20


 688 004c 00000000 		.word	.LC0
 689 0050 50010000 		.word	.LC10
 690 0054 54000000 		.word	.LC2
 691 0058 00000000 		.word	lwip_netconn_do_bind_if
 692              		.cfi_endproc
 693              	.LFE143:
 695              		.section	.rodata
 696 016e 0000     		.align	2
 697              	.LC11:
 698 0170 6E657463 		.ascii	"netconn_connect: invalid conn\000"
 698      6F6E6E5F 
 698      636F6E6E 
 698      6563743A 
 698      20696E76 
 699              		.section	.text.netconn_connect,"ax",%progbits
 700              		.align	1
 701              		.global	netconn_connect
 702              		.syntax unified
 703              		.thumb
 704              		.thumb_func
 705              		.fpu fpv4-sp-d16
 707              	netconn_connect:
 708              	.LFB144:
 366:Middlewares/Third_Party/LwIP/src/api/api_lib.c **** 
 367:Middlewares/Third_Party/LwIP/src/api/api_lib.c **** /**
 368:Middlewares/Third_Party/LwIP/src/api/api_lib.c ****  * @ingroup netconn_common
 369:Middlewares/Third_Party/LwIP/src/api/api_lib.c ****  * Connect a netconn to a specific remote IP address and port.
 370:Middlewares/Third_Party/LwIP/src/api/api_lib.c ****  *
 371:Middlewares/Third_Party/LwIP/src/api/api_lib.c ****  * @param conn the netconn to connect
 372:Middlewares/Third_Party/LwIP/src/api/api_lib.c ****  * @param addr the remote IP address to connect to
 373:Middlewares/Third_Party/LwIP/src/api/api_lib.c ****  * @param port the remote port to connect to (no used for RAW)
 374:Middlewares/Third_Party/LwIP/src/api/api_lib.c ****  * @return ERR_OK if connected, return value of tcp_/udp_/raw_connect otherwise
 375:Middlewares/Third_Party/LwIP/src/api/api_lib.c ****  */
 376:Middlewares/Third_Party/LwIP/src/api/api_lib.c **** err_t
 377:Middlewares/Third_Party/LwIP/src/api/api_lib.c **** netconn_connect(struct netconn *conn, const ip_addr_t *addr, u16_t port)
 378:Middlewares/Third_Party/LwIP/src/api/api_lib.c **** {
 709              		.loc 1 378 1
 710              		.cfi_startproc
 711              		@ args = 0, pretend = 0, frame = 56
 712              		@ frame_needed = 1, uses_anonymous_args = 0
 713 0000 80B5     		push	{r7, lr}
 714              	.LCFI35:
 715              		.cfi_def_cfa_offset 8
 716              		.cfi_offset 7, -8
 717              		.cfi_offset 14, -4
 718 0002 8EB0     		sub	sp, sp, #56
 719              	.LCFI36:
 720              		.cfi_def_cfa_offset 64
 721 0004 00AF     		add	r7, sp, #0
 722              	.LCFI37:
 723              		.cfi_def_cfa_register 7
 724 0006 F860     		str	r0, [r7, #12]
 725 0008 B960     		str	r1, [r7, #8]
 726 000a 1346     		mov	r3, r2
 727 000c FB80     		strh	r3, [r7, #6]	@ movhi
 379:Middlewares/Third_Party/LwIP/src/api/api_lib.c ****   API_MSG_VAR_DECLARE(msg);
 380:Middlewares/Third_Party/LwIP/src/api/api_lib.c ****   err_t err;
ARM GAS  /tmp/cckDOVNo.s 			page 21


 381:Middlewares/Third_Party/LwIP/src/api/api_lib.c **** 
 382:Middlewares/Third_Party/LwIP/src/api/api_lib.c ****   LWIP_ERROR("netconn_connect: invalid conn", (conn != NULL), return ERR_ARG;);
 728              		.loc 1 382 3
 729 000e FB68     		ldr	r3, [r7, #12]
 730 0010 002B     		cmp	r3, #0
 731 0012 09D1     		bne	.L47
 732              		.loc 1 382 3 is_stmt 0 discriminator 1
 733 0014 114B     		ldr	r3, .L51
 734 0016 4FF4BF72 		mov	r2, #382
 735 001a 1149     		ldr	r1, .L51+4
 736 001c 1148     		ldr	r0, .L51+8
 737 001e FFF7FEFF 		bl	printf
 738 0022 6FF00F03 		mvn	r3, #15
 739 0026 15E0     		b	.L50
 740              	.L47:
 383:Middlewares/Third_Party/LwIP/src/api/api_lib.c **** 
 384:Middlewares/Third_Party/LwIP/src/api/api_lib.c **** #if LWIP_IPV4
 385:Middlewares/Third_Party/LwIP/src/api/api_lib.c ****   /* Don't propagate NULL pointer (IP_ADDR_ANY alias) to subsequent functions */
 386:Middlewares/Third_Party/LwIP/src/api/api_lib.c ****   if (addr == NULL) {
 741              		.loc 1 386 6 is_stmt 1
 742 0028 BB68     		ldr	r3, [r7, #8]
 743 002a 002B     		cmp	r3, #0
 744 002c 01D1     		bne	.L49
 387:Middlewares/Third_Party/LwIP/src/api/api_lib.c ****     addr = IP4_ADDR_ANY;
 745              		.loc 1 387 10
 746 002e 0E4B     		ldr	r3, .L51+12
 747 0030 BB60     		str	r3, [r7, #8]
 748              	.L49:
 388:Middlewares/Third_Party/LwIP/src/api/api_lib.c ****   }
 389:Middlewares/Third_Party/LwIP/src/api/api_lib.c **** #endif /* LWIP_IPV4 */
 390:Middlewares/Third_Party/LwIP/src/api/api_lib.c **** 
 391:Middlewares/Third_Party/LwIP/src/api/api_lib.c ****   API_MSG_VAR_ALLOC(msg);
 392:Middlewares/Third_Party/LwIP/src/api/api_lib.c ****   API_MSG_VAR_REF(msg).conn = conn;
 749              		.loc 1 392 29
 750 0032 FB68     		ldr	r3, [r7, #12]
 751 0034 7B61     		str	r3, [r7, #20]
 393:Middlewares/Third_Party/LwIP/src/api/api_lib.c ****   API_MSG_VAR_REF(msg).msg.bc.ipaddr = API_MSG_VAR_REF(addr);
 752              		.loc 1 393 38
 753 0036 BB68     		ldr	r3, [r7, #8]
 754 0038 FB61     		str	r3, [r7, #28]
 394:Middlewares/Third_Party/LwIP/src/api/api_lib.c ****   API_MSG_VAR_REF(msg).msg.bc.port = port;
 755              		.loc 1 394 36
 756 003a FB88     		ldrh	r3, [r7, #6]	@ movhi
 757 003c 3B84     		strh	r3, [r7, #32]	@ movhi
 395:Middlewares/Third_Party/LwIP/src/api/api_lib.c ****   err = netconn_apimsg(lwip_netconn_do_connect, &API_MSG_VAR_REF(msg));
 758              		.loc 1 395 9
 759 003e 07F11403 		add	r3, r7, #20
 760 0042 1946     		mov	r1, r3
 761 0044 0948     		ldr	r0, .L51+16
 762 0046 FFF7FEFF 		bl	netconn_apimsg
 763 004a 0346     		mov	r3, r0
 764 004c 87F83730 		strb	r3, [r7, #55]
 396:Middlewares/Third_Party/LwIP/src/api/api_lib.c ****   API_MSG_VAR_FREE(msg);
 397:Middlewares/Third_Party/LwIP/src/api/api_lib.c **** 
 398:Middlewares/Third_Party/LwIP/src/api/api_lib.c ****   return err;
 765              		.loc 1 398 10
 766 0050 97F93730 		ldrsb	r3, [r7, #55]
ARM GAS  /tmp/cckDOVNo.s 			page 22


 767              	.L50:
 399:Middlewares/Third_Party/LwIP/src/api/api_lib.c **** }
 768              		.loc 1 399 1 discriminator 1
 769 0054 1846     		mov	r0, r3
 770 0056 3837     		adds	r7, r7, #56
 771              	.LCFI38:
 772              		.cfi_def_cfa_offset 8
 773 0058 BD46     		mov	sp, r7
 774              	.LCFI39:
 775              		.cfi_def_cfa_register 13
 776              		@ sp needed
 777 005a 80BD     		pop	{r7, pc}
 778              	.L52:
 779              		.align	2
 780              	.L51:
 781 005c 00000000 		.word	.LC0
 782 0060 70010000 		.word	.LC11
 783 0064 54000000 		.word	.LC2
 784 0068 00000000 		.word	ip_addr_any
 785 006c 00000000 		.word	lwip_netconn_do_connect
 786              		.cfi_endproc
 787              	.LFE144:
 789              		.section	.rodata
 790 018e 0000     		.align	2
 791              	.LC12:
 792 0190 6E657463 		.ascii	"netconn_disconnect: invalid conn\000"
 792      6F6E6E5F 
 792      64697363 
 792      6F6E6E65 
 792      63743A20 
 793              		.section	.text.netconn_disconnect,"ax",%progbits
 794              		.align	1
 795              		.global	netconn_disconnect
 796              		.syntax unified
 797              		.thumb
 798              		.thumb_func
 799              		.fpu fpv4-sp-d16
 801              	netconn_disconnect:
 802              	.LFB145:
 400:Middlewares/Third_Party/LwIP/src/api/api_lib.c **** 
 401:Middlewares/Third_Party/LwIP/src/api/api_lib.c **** /**
 402:Middlewares/Third_Party/LwIP/src/api/api_lib.c ****  * @ingroup netconn_udp
 403:Middlewares/Third_Party/LwIP/src/api/api_lib.c ****  * Disconnect a netconn from its current peer (only valid for UDP netconns).
 404:Middlewares/Third_Party/LwIP/src/api/api_lib.c ****  *
 405:Middlewares/Third_Party/LwIP/src/api/api_lib.c ****  * @param conn the netconn to disconnect
 406:Middlewares/Third_Party/LwIP/src/api/api_lib.c ****  * @return See @ref err_t
 407:Middlewares/Third_Party/LwIP/src/api/api_lib.c ****  */
 408:Middlewares/Third_Party/LwIP/src/api/api_lib.c **** err_t
 409:Middlewares/Third_Party/LwIP/src/api/api_lib.c **** netconn_disconnect(struct netconn *conn)
 410:Middlewares/Third_Party/LwIP/src/api/api_lib.c **** {
 803              		.loc 1 410 1
 804              		.cfi_startproc
 805              		@ args = 0, pretend = 0, frame = 48
 806              		@ frame_needed = 1, uses_anonymous_args = 0
 807 0000 80B5     		push	{r7, lr}
 808              	.LCFI40:
 809              		.cfi_def_cfa_offset 8
ARM GAS  /tmp/cckDOVNo.s 			page 23


 810              		.cfi_offset 7, -8
 811              		.cfi_offset 14, -4
 812 0002 8CB0     		sub	sp, sp, #48
 813              	.LCFI41:
 814              		.cfi_def_cfa_offset 56
 815 0004 00AF     		add	r7, sp, #0
 816              	.LCFI42:
 817              		.cfi_def_cfa_register 7
 818 0006 7860     		str	r0, [r7, #4]
 411:Middlewares/Third_Party/LwIP/src/api/api_lib.c ****   API_MSG_VAR_DECLARE(msg);
 412:Middlewares/Third_Party/LwIP/src/api/api_lib.c ****   err_t err;
 413:Middlewares/Third_Party/LwIP/src/api/api_lib.c **** 
 414:Middlewares/Third_Party/LwIP/src/api/api_lib.c ****   LWIP_ERROR("netconn_disconnect: invalid conn", (conn != NULL), return ERR_ARG;);
 819              		.loc 1 414 3
 820 0008 7B68     		ldr	r3, [r7, #4]
 821 000a 002B     		cmp	r3, #0
 822 000c 09D1     		bne	.L54
 823              		.loc 1 414 3 is_stmt 0 discriminator 1
 824 000e 0D4B     		ldr	r3, .L57
 825 0010 4FF4CF72 		mov	r2, #414
 826 0014 0C49     		ldr	r1, .L57+4
 827 0016 0D48     		ldr	r0, .L57+8
 828 0018 FFF7FEFF 		bl	printf
 829 001c 6FF00F03 		mvn	r3, #15
 830 0020 0CE0     		b	.L56
 831              	.L54:
 415:Middlewares/Third_Party/LwIP/src/api/api_lib.c **** 
 416:Middlewares/Third_Party/LwIP/src/api/api_lib.c ****   API_MSG_VAR_ALLOC(msg);
 417:Middlewares/Third_Party/LwIP/src/api/api_lib.c ****   API_MSG_VAR_REF(msg).conn = conn;
 832              		.loc 1 417 29 is_stmt 1
 833 0022 7B68     		ldr	r3, [r7, #4]
 834 0024 FB60     		str	r3, [r7, #12]
 418:Middlewares/Third_Party/LwIP/src/api/api_lib.c ****   err = netconn_apimsg(lwip_netconn_do_disconnect, &API_MSG_VAR_REF(msg));
 835              		.loc 1 418 9
 836 0026 07F10C03 		add	r3, r7, #12
 837 002a 1946     		mov	r1, r3
 838 002c 0848     		ldr	r0, .L57+12
 839 002e FFF7FEFF 		bl	netconn_apimsg
 840 0032 0346     		mov	r3, r0
 841 0034 87F82F30 		strb	r3, [r7, #47]
 419:Middlewares/Third_Party/LwIP/src/api/api_lib.c ****   API_MSG_VAR_FREE(msg);
 420:Middlewares/Third_Party/LwIP/src/api/api_lib.c **** 
 421:Middlewares/Third_Party/LwIP/src/api/api_lib.c ****   return err;
 842              		.loc 1 421 10
 843 0038 97F92F30 		ldrsb	r3, [r7, #47]
 844              	.L56:
 422:Middlewares/Third_Party/LwIP/src/api/api_lib.c **** }
 845              		.loc 1 422 1 discriminator 1
 846 003c 1846     		mov	r0, r3
 847 003e 3037     		adds	r7, r7, #48
 848              	.LCFI43:
 849              		.cfi_def_cfa_offset 8
 850 0040 BD46     		mov	sp, r7
 851              	.LCFI44:
 852              		.cfi_def_cfa_register 13
 853              		@ sp needed
 854 0042 80BD     		pop	{r7, pc}
ARM GAS  /tmp/cckDOVNo.s 			page 24


 855              	.L58:
 856              		.align	2
 857              	.L57:
 858 0044 00000000 		.word	.LC0
 859 0048 90010000 		.word	.LC12
 860 004c 54000000 		.word	.LC2
 861 0050 00000000 		.word	lwip_netconn_do_disconnect
 862              		.cfi_endproc
 863              	.LFE145:
 865              		.section	.rodata
 866 01b1 000000   		.align	2
 867              	.LC13:
 868 01b4 6E657463 		.ascii	"netconn_listen: invalid conn\000"
 868      6F6E6E5F 
 868      6C697374 
 868      656E3A20 
 868      696E7661 
 869              		.section	.text.netconn_listen_with_backlog,"ax",%progbits
 870              		.align	1
 871              		.global	netconn_listen_with_backlog
 872              		.syntax unified
 873              		.thumb
 874              		.thumb_func
 875              		.fpu fpv4-sp-d16
 877              	netconn_listen_with_backlog:
 878              	.LFB146:
 423:Middlewares/Third_Party/LwIP/src/api/api_lib.c **** 
 424:Middlewares/Third_Party/LwIP/src/api/api_lib.c **** /**
 425:Middlewares/Third_Party/LwIP/src/api/api_lib.c ****  * @ingroup netconn_tcp
 426:Middlewares/Third_Party/LwIP/src/api/api_lib.c ****  * Set a TCP netconn into listen mode
 427:Middlewares/Third_Party/LwIP/src/api/api_lib.c ****  *
 428:Middlewares/Third_Party/LwIP/src/api/api_lib.c ****  * @param conn the tcp netconn to set to listen mode
 429:Middlewares/Third_Party/LwIP/src/api/api_lib.c ****  * @param backlog the listen backlog, only used if TCP_LISTEN_BACKLOG==1
 430:Middlewares/Third_Party/LwIP/src/api/api_lib.c ****  * @return ERR_OK if the netconn was set to listen (UDP and RAW netconns
 431:Middlewares/Third_Party/LwIP/src/api/api_lib.c ****  *         don't return any error (yet?))
 432:Middlewares/Third_Party/LwIP/src/api/api_lib.c ****  */
 433:Middlewares/Third_Party/LwIP/src/api/api_lib.c **** err_t
 434:Middlewares/Third_Party/LwIP/src/api/api_lib.c **** netconn_listen_with_backlog(struct netconn *conn, u8_t backlog)
 435:Middlewares/Third_Party/LwIP/src/api/api_lib.c **** {
 879              		.loc 1 435 1
 880              		.cfi_startproc
 881              		@ args = 0, pretend = 0, frame = 48
 882              		@ frame_needed = 1, uses_anonymous_args = 0
 883 0000 80B5     		push	{r7, lr}
 884              	.LCFI45:
 885              		.cfi_def_cfa_offset 8
 886              		.cfi_offset 7, -8
 887              		.cfi_offset 14, -4
 888 0002 8CB0     		sub	sp, sp, #48
 889              	.LCFI46:
 890              		.cfi_def_cfa_offset 56
 891 0004 00AF     		add	r7, sp, #0
 892              	.LCFI47:
 893              		.cfi_def_cfa_register 7
 894 0006 7860     		str	r0, [r7, #4]
 895 0008 0B46     		mov	r3, r1
 896 000a FB70     		strb	r3, [r7, #3]
ARM GAS  /tmp/cckDOVNo.s 			page 25


 436:Middlewares/Third_Party/LwIP/src/api/api_lib.c **** #if LWIP_TCP
 437:Middlewares/Third_Party/LwIP/src/api/api_lib.c ****   API_MSG_VAR_DECLARE(msg);
 438:Middlewares/Third_Party/LwIP/src/api/api_lib.c ****   err_t err;
 439:Middlewares/Third_Party/LwIP/src/api/api_lib.c **** 
 440:Middlewares/Third_Party/LwIP/src/api/api_lib.c ****   /* This does no harm. If TCP_LISTEN_BACKLOG is off, backlog is unused. */
 441:Middlewares/Third_Party/LwIP/src/api/api_lib.c ****   LWIP_UNUSED_ARG(backlog);
 442:Middlewares/Third_Party/LwIP/src/api/api_lib.c **** 
 443:Middlewares/Third_Party/LwIP/src/api/api_lib.c ****   LWIP_ERROR("netconn_listen: invalid conn", (conn != NULL), return ERR_ARG;);
 897              		.loc 1 443 3
 898 000c 7B68     		ldr	r3, [r7, #4]
 899 000e 002B     		cmp	r3, #0
 900 0010 09D1     		bne	.L60
 901              		.loc 1 443 3 is_stmt 0 discriminator 1
 902 0012 0D4B     		ldr	r3, .L63
 903 0014 40F2BB12 		movw	r2, #443
 904 0018 0C49     		ldr	r1, .L63+4
 905 001a 0D48     		ldr	r0, .L63+8
 906 001c FFF7FEFF 		bl	printf
 907 0020 6FF00F03 		mvn	r3, #15
 908 0024 0CE0     		b	.L62
 909              	.L60:
 444:Middlewares/Third_Party/LwIP/src/api/api_lib.c **** 
 445:Middlewares/Third_Party/LwIP/src/api/api_lib.c ****   API_MSG_VAR_ALLOC(msg);
 446:Middlewares/Third_Party/LwIP/src/api/api_lib.c ****   API_MSG_VAR_REF(msg).conn = conn;
 910              		.loc 1 446 29 is_stmt 1
 911 0026 7B68     		ldr	r3, [r7, #4]
 912 0028 FB60     		str	r3, [r7, #12]
 447:Middlewares/Third_Party/LwIP/src/api/api_lib.c **** #if TCP_LISTEN_BACKLOG
 448:Middlewares/Third_Party/LwIP/src/api/api_lib.c ****   API_MSG_VAR_REF(msg).msg.lb.backlog = backlog;
 449:Middlewares/Third_Party/LwIP/src/api/api_lib.c **** #endif /* TCP_LISTEN_BACKLOG */
 450:Middlewares/Third_Party/LwIP/src/api/api_lib.c ****   err = netconn_apimsg(lwip_netconn_do_listen, &API_MSG_VAR_REF(msg));
 913              		.loc 1 450 9
 914 002a 07F10C03 		add	r3, r7, #12
 915 002e 1946     		mov	r1, r3
 916 0030 0848     		ldr	r0, .L63+12
 917 0032 FFF7FEFF 		bl	netconn_apimsg
 918 0036 0346     		mov	r3, r0
 919 0038 87F82F30 		strb	r3, [r7, #47]
 451:Middlewares/Third_Party/LwIP/src/api/api_lib.c ****   API_MSG_VAR_FREE(msg);
 452:Middlewares/Third_Party/LwIP/src/api/api_lib.c **** 
 453:Middlewares/Third_Party/LwIP/src/api/api_lib.c ****   return err;
 920              		.loc 1 453 10
 921 003c 97F92F30 		ldrsb	r3, [r7, #47]
 922              	.L62:
 454:Middlewares/Third_Party/LwIP/src/api/api_lib.c **** #else /* LWIP_TCP */
 455:Middlewares/Third_Party/LwIP/src/api/api_lib.c ****   LWIP_UNUSED_ARG(conn);
 456:Middlewares/Third_Party/LwIP/src/api/api_lib.c ****   LWIP_UNUSED_ARG(backlog);
 457:Middlewares/Third_Party/LwIP/src/api/api_lib.c ****   return ERR_ARG;
 458:Middlewares/Third_Party/LwIP/src/api/api_lib.c **** #endif /* LWIP_TCP */
 459:Middlewares/Third_Party/LwIP/src/api/api_lib.c **** }
 923              		.loc 1 459 1 discriminator 1
 924 0040 1846     		mov	r0, r3
 925 0042 3037     		adds	r7, r7, #48
 926              	.LCFI48:
 927              		.cfi_def_cfa_offset 8
 928 0044 BD46     		mov	sp, r7
 929              	.LCFI49:
ARM GAS  /tmp/cckDOVNo.s 			page 26


 930              		.cfi_def_cfa_register 13
 931              		@ sp needed
 932 0046 80BD     		pop	{r7, pc}
 933              	.L64:
 934              		.align	2
 935              	.L63:
 936 0048 00000000 		.word	.LC0
 937 004c B4010000 		.word	.LC13
 938 0050 54000000 		.word	.LC2
 939 0054 00000000 		.word	lwip_netconn_do_listen
 940              		.cfi_endproc
 941              	.LFE146:
 943              		.section	.rodata
 944 01d1 000000   		.align	2
 945              	.LC14:
 946 01d4 6E657463 		.ascii	"netconn_accept: invalid pointer\000"
 946      6F6E6E5F 
 946      61636365 
 946      70743A20 
 946      696E7661 
 947              		.align	2
 948              	.LC15:
 949 01f4 6E657463 		.ascii	"netconn_accept: invalid conn\000"
 949      6F6E6E5F 
 949      61636365 
 949      70743A20 
 949      696E7661 
 950              		.section	.text.netconn_accept,"ax",%progbits
 951              		.align	1
 952              		.global	netconn_accept
 953              		.syntax unified
 954              		.thumb
 955              		.thumb_func
 956              		.fpu fpv4-sp-d16
 958              	netconn_accept:
 959              	.LFB147:
 460:Middlewares/Third_Party/LwIP/src/api/api_lib.c **** 
 461:Middlewares/Third_Party/LwIP/src/api/api_lib.c **** /**
 462:Middlewares/Third_Party/LwIP/src/api/api_lib.c ****  * @ingroup netconn_tcp
 463:Middlewares/Third_Party/LwIP/src/api/api_lib.c ****  * Accept a new connection on a TCP listening netconn.
 464:Middlewares/Third_Party/LwIP/src/api/api_lib.c ****  *
 465:Middlewares/Third_Party/LwIP/src/api/api_lib.c ****  * @param conn the TCP listen netconn
 466:Middlewares/Third_Party/LwIP/src/api/api_lib.c ****  * @param new_conn pointer where the new connection is stored
 467:Middlewares/Third_Party/LwIP/src/api/api_lib.c ****  * @return ERR_OK if a new connection has been received or an error
 468:Middlewares/Third_Party/LwIP/src/api/api_lib.c ****  *                code otherwise
 469:Middlewares/Third_Party/LwIP/src/api/api_lib.c ****  */
 470:Middlewares/Third_Party/LwIP/src/api/api_lib.c **** err_t
 471:Middlewares/Third_Party/LwIP/src/api/api_lib.c **** netconn_accept(struct netconn *conn, struct netconn **new_conn)
 472:Middlewares/Third_Party/LwIP/src/api/api_lib.c **** {
 960              		.loc 1 472 1
 961              		.cfi_startproc
 962              		@ args = 0, pretend = 0, frame = 24
 963              		@ frame_needed = 1, uses_anonymous_args = 0
 964 0000 80B5     		push	{r7, lr}
 965              	.LCFI50:
 966              		.cfi_def_cfa_offset 8
 967              		.cfi_offset 7, -8
ARM GAS  /tmp/cckDOVNo.s 			page 27


 968              		.cfi_offset 14, -4
 969 0002 86B0     		sub	sp, sp, #24
 970              	.LCFI51:
 971              		.cfi_def_cfa_offset 32
 972 0004 00AF     		add	r7, sp, #0
 973              	.LCFI52:
 974              		.cfi_def_cfa_register 7
 975 0006 7860     		str	r0, [r7, #4]
 976 0008 3960     		str	r1, [r7]
 473:Middlewares/Third_Party/LwIP/src/api/api_lib.c **** #if LWIP_TCP
 474:Middlewares/Third_Party/LwIP/src/api/api_lib.c ****   err_t err;
 475:Middlewares/Third_Party/LwIP/src/api/api_lib.c ****   void *accept_ptr;
 476:Middlewares/Third_Party/LwIP/src/api/api_lib.c ****   struct netconn *newconn;
 477:Middlewares/Third_Party/LwIP/src/api/api_lib.c **** #if TCP_LISTEN_BACKLOG
 478:Middlewares/Third_Party/LwIP/src/api/api_lib.c ****   API_MSG_VAR_DECLARE(msg);
 479:Middlewares/Third_Party/LwIP/src/api/api_lib.c **** #endif /* TCP_LISTEN_BACKLOG */
 480:Middlewares/Third_Party/LwIP/src/api/api_lib.c **** 
 481:Middlewares/Third_Party/LwIP/src/api/api_lib.c ****   LWIP_ERROR("netconn_accept: invalid pointer",    (new_conn != NULL),                  return ERR_
 977              		.loc 1 481 3
 978 000a 3B68     		ldr	r3, [r7]
 979 000c 002B     		cmp	r3, #0
 980 000e 09D1     		bne	.L66
 981              		.loc 1 481 3 is_stmt 0 discriminator 1
 982 0010 3D4B     		ldr	r3, .L78
 983 0012 40F2E112 		movw	r2, #481
 984 0016 3D49     		ldr	r1, .L78+4
 985 0018 3D48     		ldr	r0, .L78+8
 986 001a FFF7FEFF 		bl	printf
 987 001e 6FF00F03 		mvn	r3, #15
 988 0022 6CE0     		b	.L77
 989              	.L66:
 482:Middlewares/Third_Party/LwIP/src/api/api_lib.c ****   *new_conn = NULL;
 990              		.loc 1 482 13 is_stmt 1
 991 0024 3B68     		ldr	r3, [r7]
 992 0026 0022     		movs	r2, #0
 993 0028 1A60     		str	r2, [r3]
 483:Middlewares/Third_Party/LwIP/src/api/api_lib.c ****   LWIP_ERROR("netconn_accept: invalid conn",       (conn != NULL),                      return ERR_
 994              		.loc 1 483 3
 995 002a 7B68     		ldr	r3, [r7, #4]
 996 002c 002B     		cmp	r3, #0
 997 002e 09D1     		bne	.L68
 998              		.loc 1 483 3 is_stmt 0 discriminator 1
 999 0030 354B     		ldr	r3, .L78
 1000 0032 40F2E312 		movw	r2, #483
 1001 0036 3749     		ldr	r1, .L78+12
 1002 0038 3548     		ldr	r0, .L78+8
 1003 003a FFF7FEFF 		bl	printf
 1004 003e 6FF00F03 		mvn	r3, #15
 1005 0042 5CE0     		b	.L77
 1006              	.L68:
 484:Middlewares/Third_Party/LwIP/src/api/api_lib.c **** 
 485:Middlewares/Third_Party/LwIP/src/api/api_lib.c ****   /* NOTE: Although the opengroup spec says a pending error shall be returned to
 486:Middlewares/Third_Party/LwIP/src/api/api_lib.c ****            send/recv/getsockopt(SO_ERROR) only, we return it for listening
 487:Middlewares/Third_Party/LwIP/src/api/api_lib.c ****            connections also, to handle embedded-system errors */
 488:Middlewares/Third_Party/LwIP/src/api/api_lib.c ****   err = netconn_err(conn);
 1007              		.loc 1 488 9 is_stmt 1
 1008 0044 7868     		ldr	r0, [r7, #4]
ARM GAS  /tmp/cckDOVNo.s 			page 28


 1009 0046 FFF7FEFF 		bl	netconn_err
 1010 004a 0346     		mov	r3, r0
 1011              		.loc 1 488 7
 1012 004c FB74     		strb	r3, [r7, #19]
 489:Middlewares/Third_Party/LwIP/src/api/api_lib.c ****   if (err != ERR_OK) {
 1013              		.loc 1 489 11
 1014 004e 97F91330 		ldrsb	r3, [r7, #19]
 1015              		.loc 1 489 6
 1016 0052 002B     		cmp	r3, #0
 1017 0054 02D0     		beq	.L69
 490:Middlewares/Third_Party/LwIP/src/api/api_lib.c ****     /* return pending error */
 491:Middlewares/Third_Party/LwIP/src/api/api_lib.c ****     return err;
 1018              		.loc 1 491 12
 1019 0056 97F91330 		ldrsb	r3, [r7, #19]
 1020 005a 50E0     		b	.L77
 1021              	.L69:
 492:Middlewares/Third_Party/LwIP/src/api/api_lib.c ****   }
 493:Middlewares/Third_Party/LwIP/src/api/api_lib.c ****   if (!NETCONN_ACCEPTMBOX_WAITABLE(conn)) {
 1022              		.loc 1 493 8
 1023 005c 7B68     		ldr	r3, [r7, #4]
 1024 005e 1433     		adds	r3, r3, #20
 1025 0060 1846     		mov	r0, r3
 1026 0062 FFF7FEFF 		bl	sys_mbox_valid
 1027 0066 0346     		mov	r3, r0
 1028              		.loc 1 493 6
 1029 0068 002B     		cmp	r3, #0
 1030 006a 05D0     		beq	.L70
 1031              		.loc 1 493 8 discriminator 1
 1032 006c 7B68     		ldr	r3, [r7, #4]
 1033 006e 1B7F     		ldrb	r3, [r3, #28]	@ zero_extendqisi2
 1034 0070 03F00103 		and	r3, r3, #1
 1035              		.loc 1 493 7 discriminator 1
 1036 0074 002B     		cmp	r3, #0
 1037 0076 02D0     		beq	.L71
 1038              	.L70:
 494:Middlewares/Third_Party/LwIP/src/api/api_lib.c ****     /* don't accept if closed: this might block the application task
 495:Middlewares/Third_Party/LwIP/src/api/api_lib.c ****        waiting on acceptmbox forever! */
 496:Middlewares/Third_Party/LwIP/src/api/api_lib.c ****     return ERR_CLSD;
 1039              		.loc 1 496 12
 1040 0078 6FF00E03 		mvn	r3, #14
 1041 007c 3FE0     		b	.L77
 1042              	.L71:
 497:Middlewares/Third_Party/LwIP/src/api/api_lib.c ****   }
 498:Middlewares/Third_Party/LwIP/src/api/api_lib.c **** 
 499:Middlewares/Third_Party/LwIP/src/api/api_lib.c ****   API_MSG_VAR_ALLOC_ACCEPT(msg);
 500:Middlewares/Third_Party/LwIP/src/api/api_lib.c **** 
 501:Middlewares/Third_Party/LwIP/src/api/api_lib.c ****   NETCONN_MBOX_WAITING_INC(conn);
 502:Middlewares/Third_Party/LwIP/src/api/api_lib.c ****   if (netconn_is_nonblocking(conn)) {
 1043              		.loc 1 502 7
 1044 007e 7B68     		ldr	r3, [r7, #4]
 1045 0080 1B7F     		ldrb	r3, [r3, #28]	@ zero_extendqisi2
 1046 0082 03F00203 		and	r3, r3, #2
 1047              		.loc 1 502 6
 1048 0086 002B     		cmp	r3, #0
 1049 0088 0ED0     		beq	.L72
 503:Middlewares/Third_Party/LwIP/src/api/api_lib.c ****     if (sys_arch_mbox_tryfetch(&conn->acceptmbox, &accept_ptr) == SYS_ARCH_TIMEOUT) {
 1050              		.loc 1 503 9
ARM GAS  /tmp/cckDOVNo.s 			page 29


 1051 008a 7B68     		ldr	r3, [r7, #4]
 1052 008c 1433     		adds	r3, r3, #20
 1053 008e 07F10C02 		add	r2, r7, #12
 1054 0092 1146     		mov	r1, r2
 1055 0094 1846     		mov	r0, r3
 1056 0096 FFF7FEFF 		bl	sys_arch_mbox_tryfetch
 1057 009a 0346     		mov	r3, r0
 1058              		.loc 1 503 8
 1059 009c B3F1FF3F 		cmp	r3, #-1
 1060 00a0 0AD1     		bne	.L73
 504:Middlewares/Third_Party/LwIP/src/api/api_lib.c ****       API_MSG_VAR_FREE_ACCEPT(msg);
 505:Middlewares/Third_Party/LwIP/src/api/api_lib.c ****       NETCONN_MBOX_WAITING_DEC(conn);
 506:Middlewares/Third_Party/LwIP/src/api/api_lib.c ****       return ERR_WOULDBLOCK;
 1061              		.loc 1 506 14
 1062 00a2 6FF00603 		mvn	r3, #6
 1063 00a6 2AE0     		b	.L77
 1064              	.L72:
 507:Middlewares/Third_Party/LwIP/src/api/api_lib.c ****     }
 508:Middlewares/Third_Party/LwIP/src/api/api_lib.c ****   } else {
 509:Middlewares/Third_Party/LwIP/src/api/api_lib.c **** #if LWIP_SO_RCVTIMEO
 510:Middlewares/Third_Party/LwIP/src/api/api_lib.c ****     if (sys_arch_mbox_fetch(&conn->acceptmbox, &accept_ptr, conn->recv_timeout) == SYS_ARCH_TIMEOUT
 511:Middlewares/Third_Party/LwIP/src/api/api_lib.c ****       API_MSG_VAR_FREE_ACCEPT(msg);
 512:Middlewares/Third_Party/LwIP/src/api/api_lib.c ****       NETCONN_MBOX_WAITING_DEC(conn);
 513:Middlewares/Third_Party/LwIP/src/api/api_lib.c ****       return ERR_TIMEOUT;
 514:Middlewares/Third_Party/LwIP/src/api/api_lib.c ****     }
 515:Middlewares/Third_Party/LwIP/src/api/api_lib.c **** #else
 516:Middlewares/Third_Party/LwIP/src/api/api_lib.c ****     sys_arch_mbox_fetch(&conn->acceptmbox, &accept_ptr, 0);
 1065              		.loc 1 516 5
 1066 00a8 7B68     		ldr	r3, [r7, #4]
 1067 00aa 1433     		adds	r3, r3, #20
 1068 00ac 07F10C01 		add	r1, r7, #12
 1069 00b0 0022     		movs	r2, #0
 1070 00b2 1846     		mov	r0, r3
 1071 00b4 FFF7FEFF 		bl	sys_arch_mbox_fetch
 1072              	.L73:
 517:Middlewares/Third_Party/LwIP/src/api/api_lib.c **** #endif /* LWIP_SO_RCVTIMEO*/
 518:Middlewares/Third_Party/LwIP/src/api/api_lib.c ****   }
 519:Middlewares/Third_Party/LwIP/src/api/api_lib.c ****   NETCONN_MBOX_WAITING_DEC(conn);
 520:Middlewares/Third_Party/LwIP/src/api/api_lib.c **** #if LWIP_NETCONN_FULLDUPLEX
 521:Middlewares/Third_Party/LwIP/src/api/api_lib.c ****   if (conn->flags & NETCONN_FLAG_MBOXINVALID) {
 522:Middlewares/Third_Party/LwIP/src/api/api_lib.c ****     if (lwip_netconn_is_deallocated_msg(accept_ptr)) {
 523:Middlewares/Third_Party/LwIP/src/api/api_lib.c ****       /* the netconn has been closed from another thread */
 524:Middlewares/Third_Party/LwIP/src/api/api_lib.c ****       API_MSG_VAR_FREE_ACCEPT(msg);
 525:Middlewares/Third_Party/LwIP/src/api/api_lib.c ****       return ERR_CONN;
 526:Middlewares/Third_Party/LwIP/src/api/api_lib.c ****     }
 527:Middlewares/Third_Party/LwIP/src/api/api_lib.c ****   }
 528:Middlewares/Third_Party/LwIP/src/api/api_lib.c **** #endif
 529:Middlewares/Third_Party/LwIP/src/api/api_lib.c **** 
 530:Middlewares/Third_Party/LwIP/src/api/api_lib.c ****   /* Register event with callback */
 531:Middlewares/Third_Party/LwIP/src/api/api_lib.c ****   API_EVENT(conn, NETCONN_EVT_RCVMINUS, 0);
 1073              		.loc 1 531 3
 1074 00b8 7B68     		ldr	r3, [r7, #4]
 1075 00ba 5B6A     		ldr	r3, [r3, #36]
 1076 00bc 002B     		cmp	r3, #0
 1077 00be 05D0     		beq	.L74
 1078              		.loc 1 531 3 is_stmt 0 discriminator 1
 1079 00c0 7B68     		ldr	r3, [r7, #4]
ARM GAS  /tmp/cckDOVNo.s 			page 30


 1080 00c2 5B6A     		ldr	r3, [r3, #36]
 1081 00c4 0022     		movs	r2, #0
 1082 00c6 0121     		movs	r1, #1
 1083 00c8 7868     		ldr	r0, [r7, #4]
 1084 00ca 9847     		blx	r3
 1085              	.LVL0:
 1086              	.L74:
 532:Middlewares/Third_Party/LwIP/src/api/api_lib.c **** 
 533:Middlewares/Third_Party/LwIP/src/api/api_lib.c ****   if (lwip_netconn_is_err_msg(accept_ptr, &err)) {
 1087              		.loc 1 533 7 is_stmt 1
 1088 00cc FB68     		ldr	r3, [r7, #12]
 1089 00ce 07F11302 		add	r2, r7, #19
 1090 00d2 1146     		mov	r1, r2
 1091 00d4 1846     		mov	r0, r3
 1092 00d6 FFF7FEFF 		bl	lwip_netconn_is_err_msg
 1093 00da 0346     		mov	r3, r0
 1094              		.loc 1 533 6
 1095 00dc 002B     		cmp	r3, #0
 1096 00de 02D0     		beq	.L75
 534:Middlewares/Third_Party/LwIP/src/api/api_lib.c ****     /* a connection has been aborted: e.g. out of pcbs or out of netconns during accept */
 535:Middlewares/Third_Party/LwIP/src/api/api_lib.c ****     API_MSG_VAR_FREE_ACCEPT(msg);
 536:Middlewares/Third_Party/LwIP/src/api/api_lib.c ****     return err;
 1097              		.loc 1 536 12
 1098 00e0 97F91330 		ldrsb	r3, [r7, #19]
 1099 00e4 0BE0     		b	.L77
 1100              	.L75:
 537:Middlewares/Third_Party/LwIP/src/api/api_lib.c ****   }
 538:Middlewares/Third_Party/LwIP/src/api/api_lib.c ****   if (accept_ptr == NULL) {
 1101              		.loc 1 538 18
 1102 00e6 FB68     		ldr	r3, [r7, #12]
 1103              		.loc 1 538 6
 1104 00e8 002B     		cmp	r3, #0
 1105 00ea 02D1     		bne	.L76
 539:Middlewares/Third_Party/LwIP/src/api/api_lib.c ****     /* connection has been aborted */
 540:Middlewares/Third_Party/LwIP/src/api/api_lib.c ****     API_MSG_VAR_FREE_ACCEPT(msg);
 541:Middlewares/Third_Party/LwIP/src/api/api_lib.c ****     return ERR_CLSD;
 1106              		.loc 1 541 12
 1107 00ec 6FF00E03 		mvn	r3, #14
 1108 00f0 05E0     		b	.L77
 1109              	.L76:
 542:Middlewares/Third_Party/LwIP/src/api/api_lib.c ****   }
 543:Middlewares/Third_Party/LwIP/src/api/api_lib.c ****   newconn = (struct netconn *)accept_ptr;
 1110              		.loc 1 543 11
 1111 00f2 FB68     		ldr	r3, [r7, #12]
 1112 00f4 7B61     		str	r3, [r7, #20]
 544:Middlewares/Third_Party/LwIP/src/api/api_lib.c **** #if TCP_LISTEN_BACKLOG
 545:Middlewares/Third_Party/LwIP/src/api/api_lib.c ****   /* Let the stack know that we have accepted the connection. */
 546:Middlewares/Third_Party/LwIP/src/api/api_lib.c ****   API_MSG_VAR_REF(msg).conn = newconn;
 547:Middlewares/Third_Party/LwIP/src/api/api_lib.c ****   /* don't care for the return value of lwip_netconn_do_recv */
 548:Middlewares/Third_Party/LwIP/src/api/api_lib.c ****   netconn_apimsg(lwip_netconn_do_accepted, &API_MSG_VAR_REF(msg));
 549:Middlewares/Third_Party/LwIP/src/api/api_lib.c ****   API_MSG_VAR_FREE(msg);
 550:Middlewares/Third_Party/LwIP/src/api/api_lib.c **** #endif /* TCP_LISTEN_BACKLOG */
 551:Middlewares/Third_Party/LwIP/src/api/api_lib.c **** 
 552:Middlewares/Third_Party/LwIP/src/api/api_lib.c ****   *new_conn = newconn;
 1113              		.loc 1 552 13
 1114 00f6 3B68     		ldr	r3, [r7]
 1115 00f8 7A69     		ldr	r2, [r7, #20]
ARM GAS  /tmp/cckDOVNo.s 			page 31


 1116 00fa 1A60     		str	r2, [r3]
 553:Middlewares/Third_Party/LwIP/src/api/api_lib.c ****   /* don't set conn->last_err: it's only ERR_OK, anyway */
 554:Middlewares/Third_Party/LwIP/src/api/api_lib.c ****   return ERR_OK;
 1117              		.loc 1 554 10
 1118 00fc 0023     		movs	r3, #0
 1119              	.L77:
 555:Middlewares/Third_Party/LwIP/src/api/api_lib.c **** #else /* LWIP_TCP */
 556:Middlewares/Third_Party/LwIP/src/api/api_lib.c ****   LWIP_UNUSED_ARG(conn);
 557:Middlewares/Third_Party/LwIP/src/api/api_lib.c ****   LWIP_UNUSED_ARG(new_conn);
 558:Middlewares/Third_Party/LwIP/src/api/api_lib.c ****   return ERR_ARG;
 559:Middlewares/Third_Party/LwIP/src/api/api_lib.c **** #endif /* LWIP_TCP */
 560:Middlewares/Third_Party/LwIP/src/api/api_lib.c **** }
 1120              		.loc 1 560 1 discriminator 1
 1121 00fe 1846     		mov	r0, r3
 1122 0100 1837     		adds	r7, r7, #24
 1123              	.LCFI53:
 1124              		.cfi_def_cfa_offset 8
 1125 0102 BD46     		mov	sp, r7
 1126              	.LCFI54:
 1127              		.cfi_def_cfa_register 13
 1128              		@ sp needed
 1129 0104 80BD     		pop	{r7, pc}
 1130              	.L79:
 1131 0106 00BF     		.align	2
 1132              	.L78:
 1133 0108 00000000 		.word	.LC0
 1134 010c D4010000 		.word	.LC14
 1135 0110 54000000 		.word	.LC2
 1136 0114 F4010000 		.word	.LC15
 1137              		.cfi_endproc
 1138              	.LFE147:
 1140              		.section	.rodata
 1141 0211 000000   		.align	2
 1142              	.LC16:
 1143 0214 6E657463 		.ascii	"netconn_recv: invalid pointer\000"
 1143      6F6E6E5F 
 1143      72656376 
 1143      3A20696E 
 1143      76616C69 
 1144 0232 0000     		.align	2
 1145              	.LC17:
 1146 0234 6E657463 		.ascii	"netconn_recv: invalid conn\000"
 1146      6F6E6E5F 
 1146      72656376 
 1146      3A20696E 
 1146      76616C69 
 1147 024f 00       		.align	2
 1148              	.LC18:
 1149 0250 62756620 		.ascii	"buf != NULL\000"
 1149      213D204E 
 1149      554C4C00 
 1150              		.section	.text.netconn_recv_data,"ax",%progbits
 1151              		.align	1
 1152              		.syntax unified
 1153              		.thumb
 1154              		.thumb_func
 1155              		.fpu fpv4-sp-d16
ARM GAS  /tmp/cckDOVNo.s 			page 32


 1157              	netconn_recv_data:
 1158              	.LFB148:
 561:Middlewares/Third_Party/LwIP/src/api/api_lib.c **** 
 562:Middlewares/Third_Party/LwIP/src/api/api_lib.c **** /**
 563:Middlewares/Third_Party/LwIP/src/api/api_lib.c ****  * @ingroup netconn_common
 564:Middlewares/Third_Party/LwIP/src/api/api_lib.c ****  * Receive data: actual implementation that doesn't care whether pbuf or netbuf
 565:Middlewares/Third_Party/LwIP/src/api/api_lib.c ****  * is received (this is internal, it's just here for describing common errors)
 566:Middlewares/Third_Party/LwIP/src/api/api_lib.c ****  *
 567:Middlewares/Third_Party/LwIP/src/api/api_lib.c ****  * @param conn the netconn from which to receive data
 568:Middlewares/Third_Party/LwIP/src/api/api_lib.c ****  * @param new_buf pointer where a new pbuf/netbuf is stored when received data
 569:Middlewares/Third_Party/LwIP/src/api/api_lib.c ****  * @param apiflags flags that control function behaviour. For now only:
 570:Middlewares/Third_Party/LwIP/src/api/api_lib.c ****  * - NETCONN_DONTBLOCK: only read data that is available now, don't wait for more data
 571:Middlewares/Third_Party/LwIP/src/api/api_lib.c ****  * @return ERR_OK if data has been received, an error code otherwise (timeout,
 572:Middlewares/Third_Party/LwIP/src/api/api_lib.c ****  *                memory error or another error)
 573:Middlewares/Third_Party/LwIP/src/api/api_lib.c ****  *         ERR_CONN if not connected
 574:Middlewares/Third_Party/LwIP/src/api/api_lib.c ****  *         ERR_CLSD if TCP connection has been closed
 575:Middlewares/Third_Party/LwIP/src/api/api_lib.c ****  *         ERR_WOULDBLOCK if the netconn is nonblocking but would block to wait for data
 576:Middlewares/Third_Party/LwIP/src/api/api_lib.c ****  *         ERR_TIMEOUT if the netconn has a receive timeout and no data was received
 577:Middlewares/Third_Party/LwIP/src/api/api_lib.c ****  */
 578:Middlewares/Third_Party/LwIP/src/api/api_lib.c **** static err_t
 579:Middlewares/Third_Party/LwIP/src/api/api_lib.c **** netconn_recv_data(struct netconn *conn, void **new_buf, u8_t apiflags)
 580:Middlewares/Third_Party/LwIP/src/api/api_lib.c **** {
 1159              		.loc 1 580 1
 1160              		.cfi_startproc
 1161              		@ args = 0, pretend = 0, frame = 32
 1162              		@ frame_needed = 1, uses_anonymous_args = 0
 1163 0000 80B5     		push	{r7, lr}
 1164              	.LCFI55:
 1165              		.cfi_def_cfa_offset 8
 1166              		.cfi_offset 7, -8
 1167              		.cfi_offset 14, -4
 1168 0002 88B0     		sub	sp, sp, #32
 1169              	.LCFI56:
 1170              		.cfi_def_cfa_offset 40
 1171 0004 00AF     		add	r7, sp, #0
 1172              	.LCFI57:
 1173              		.cfi_def_cfa_register 7
 1174 0006 F860     		str	r0, [r7, #12]
 1175 0008 B960     		str	r1, [r7, #8]
 1176 000a 1346     		mov	r3, r2
 1177 000c FB71     		strb	r3, [r7, #7]
 581:Middlewares/Third_Party/LwIP/src/api/api_lib.c ****   void *buf = NULL;
 1178              		.loc 1 581 9
 1179 000e 0023     		movs	r3, #0
 1180 0010 BB61     		str	r3, [r7, #24]
 582:Middlewares/Third_Party/LwIP/src/api/api_lib.c ****   u16_t len;
 583:Middlewares/Third_Party/LwIP/src/api/api_lib.c **** 
 584:Middlewares/Third_Party/LwIP/src/api/api_lib.c ****   LWIP_ERROR("netconn_recv: invalid pointer", (new_buf != NULL), return ERR_ARG;);
 1181              		.loc 1 584 3
 1182 0012 BB68     		ldr	r3, [r7, #8]
 1183 0014 002B     		cmp	r3, #0
 1184 0016 09D1     		bne	.L81
 1185              		.loc 1 584 3 is_stmt 0 discriminator 1
 1186 0018 584B     		ldr	r3, .L100
 1187 001a 4FF41272 		mov	r2, #584
 1188 001e 5849     		ldr	r1, .L100+4
 1189 0020 5848     		ldr	r0, .L100+8
ARM GAS  /tmp/cckDOVNo.s 			page 33


 1190 0022 FFF7FEFF 		bl	printf
 1191 0026 6FF00F03 		mvn	r3, #15
 1192 002a A2E0     		b	.L99
 1193              	.L81:
 585:Middlewares/Third_Party/LwIP/src/api/api_lib.c ****   *new_buf = NULL;
 1194              		.loc 1 585 12 is_stmt 1
 1195 002c BB68     		ldr	r3, [r7, #8]
 1196 002e 0022     		movs	r2, #0
 1197 0030 1A60     		str	r2, [r3]
 586:Middlewares/Third_Party/LwIP/src/api/api_lib.c ****   LWIP_ERROR("netconn_recv: invalid conn",    (conn != NULL),    return ERR_ARG;);
 1198              		.loc 1 586 3
 1199 0032 FB68     		ldr	r3, [r7, #12]
 1200 0034 002B     		cmp	r3, #0
 1201 0036 09D1     		bne	.L83
 1202              		.loc 1 586 3 is_stmt 0 discriminator 1
 1203 0038 504B     		ldr	r3, .L100
 1204 003a 40F24A22 		movw	r2, #586
 1205 003e 5249     		ldr	r1, .L100+12
 1206 0040 5048     		ldr	r0, .L100+8
 1207 0042 FFF7FEFF 		bl	printf
 1208 0046 6FF00F03 		mvn	r3, #15
 1209 004a 92E0     		b	.L99
 1210              	.L83:
 587:Middlewares/Third_Party/LwIP/src/api/api_lib.c **** 
 588:Middlewares/Third_Party/LwIP/src/api/api_lib.c ****   if (!NETCONN_RECVMBOX_WAITABLE(conn)) {
 1211              		.loc 1 588 8 is_stmt 1
 1212 004c FB68     		ldr	r3, [r7, #12]
 1213 004e 1033     		adds	r3, r3, #16
 1214 0050 1846     		mov	r0, r3
 1215 0052 FFF7FEFF 		bl	sys_mbox_valid
 1216 0056 0346     		mov	r3, r0
 1217              		.loc 1 588 6
 1218 0058 002B     		cmp	r3, #0
 1219 005a 0ED1     		bne	.L84
 1220              	.LBB3:
 589:Middlewares/Third_Party/LwIP/src/api/api_lib.c ****     err_t err = netconn_err(conn);
 1221              		.loc 1 589 17
 1222 005c F868     		ldr	r0, [r7, #12]
 1223 005e FFF7FEFF 		bl	netconn_err
 1224 0062 0346     		mov	r3, r0
 1225 0064 7B77     		strb	r3, [r7, #29]
 590:Middlewares/Third_Party/LwIP/src/api/api_lib.c ****     if (err != ERR_OK) {
 1226              		.loc 1 590 8
 1227 0066 97F91D30 		ldrsb	r3, [r7, #29]
 1228 006a 002B     		cmp	r3, #0
 1229 006c 02D0     		beq	.L85
 591:Middlewares/Third_Party/LwIP/src/api/api_lib.c ****       /* return pending error */
 592:Middlewares/Third_Party/LwIP/src/api/api_lib.c ****       return err;
 1230              		.loc 1 592 14
 1231 006e 97F91D30 		ldrsb	r3, [r7, #29]
 1232 0072 7EE0     		b	.L99
 1233              	.L85:
 593:Middlewares/Third_Party/LwIP/src/api/api_lib.c ****     }
 594:Middlewares/Third_Party/LwIP/src/api/api_lib.c ****     return ERR_CONN;
 1234              		.loc 1 594 12
 1235 0074 6FF00A03 		mvn	r3, #10
 1236 0078 7BE0     		b	.L99
ARM GAS  /tmp/cckDOVNo.s 			page 34


 1237              	.L84:
 1238              	.LBE3:
 595:Middlewares/Third_Party/LwIP/src/api/api_lib.c ****   }
 596:Middlewares/Third_Party/LwIP/src/api/api_lib.c **** 
 597:Middlewares/Third_Party/LwIP/src/api/api_lib.c ****   NETCONN_MBOX_WAITING_INC(conn);
 598:Middlewares/Third_Party/LwIP/src/api/api_lib.c ****   if (netconn_is_nonblocking(conn) || (apiflags & NETCONN_DONTBLOCK) ||
 1239              		.loc 1 598 7
 1240 007a FB68     		ldr	r3, [r7, #12]
 1241 007c 1B7F     		ldrb	r3, [r3, #28]	@ zero_extendqisi2
 1242 007e 03F00203 		and	r3, r3, #2
 1243              		.loc 1 598 6
 1244 0082 002B     		cmp	r3, #0
 1245 0084 0FD1     		bne	.L86
 1246              		.loc 1 598 49 discriminator 1
 1247 0086 FB79     		ldrb	r3, [r7, #7]	@ zero_extendqisi2
 1248 0088 03F00403 		and	r3, r3, #4
 1249              		.loc 1 598 36 discriminator 1
 1250 008c 002B     		cmp	r3, #0
 1251 008e 0AD1     		bne	.L86
 599:Middlewares/Third_Party/LwIP/src/api/api_lib.c ****       (conn->flags & NETCONN_FLAG_MBOXCLOSED) || (conn->pending_err != ERR_OK)) {
 1252              		.loc 1 599 12 discriminator 2
 1253 0090 FB68     		ldr	r3, [r7, #12]
 1254 0092 1B7F     		ldrb	r3, [r3, #28]	@ zero_extendqisi2
 1255              		.loc 1 599 20 discriminator 2
 1256 0094 03F00103 		and	r3, r3, #1
 598:Middlewares/Third_Party/LwIP/src/api/api_lib.c ****       (conn->flags & NETCONN_FLAG_MBOXCLOSED) || (conn->pending_err != ERR_OK)) {
 1257              		.loc 1 598 70 discriminator 2
 1258 0098 002B     		cmp	r3, #0
 1259 009a 04D1     		bne	.L86
 1260              		.loc 1 599 55
 1261 009c FB68     		ldr	r3, [r7, #12]
 1262 009e 93F90830 		ldrsb	r3, [r3, #8]
 1263              		.loc 1 599 47
 1264 00a2 002B     		cmp	r3, #0
 1265 00a4 23D0     		beq	.L87
 1266              	.L86:
 600:Middlewares/Third_Party/LwIP/src/api/api_lib.c ****     if (sys_arch_mbox_tryfetch(&conn->recvmbox, &buf) == SYS_ARCH_TIMEOUT) {
 1267              		.loc 1 600 9
 1268 00a6 FB68     		ldr	r3, [r7, #12]
 1269 00a8 1033     		adds	r3, r3, #16
 1270 00aa 07F11802 		add	r2, r7, #24
 1271 00ae 1146     		mov	r1, r2
 1272 00b0 1846     		mov	r0, r3
 1273 00b2 FFF7FEFF 		bl	sys_arch_mbox_tryfetch
 1274 00b6 0346     		mov	r3, r0
 1275              		.loc 1 600 8
 1276 00b8 B3F1FF3F 		cmp	r3, #-1
 1277 00bc 1FD1     		bne	.L91
 1278              	.LBB4:
 601:Middlewares/Third_Party/LwIP/src/api/api_lib.c ****       err_t err;
 602:Middlewares/Third_Party/LwIP/src/api/api_lib.c ****       NETCONN_MBOX_WAITING_DEC(conn);
 603:Middlewares/Third_Party/LwIP/src/api/api_lib.c ****       err = netconn_err(conn);
 1279              		.loc 1 603 13
 1280 00be F868     		ldr	r0, [r7, #12]
 1281 00c0 FFF7FEFF 		bl	netconn_err
 1282 00c4 0346     		mov	r3, r0
 1283 00c6 3B77     		strb	r3, [r7, #28]
ARM GAS  /tmp/cckDOVNo.s 			page 35


 604:Middlewares/Third_Party/LwIP/src/api/api_lib.c ****       if (err != ERR_OK) {
 1284              		.loc 1 604 10
 1285 00c8 97F91C30 		ldrsb	r3, [r7, #28]
 1286 00cc 002B     		cmp	r3, #0
 1287 00ce 02D0     		beq	.L89
 605:Middlewares/Third_Party/LwIP/src/api/api_lib.c ****         /* return pending error */
 606:Middlewares/Third_Party/LwIP/src/api/api_lib.c ****         return err;
 1288              		.loc 1 606 16
 1289 00d0 97F91C30 		ldrsb	r3, [r7, #28]
 1290 00d4 4DE0     		b	.L99
 1291              	.L89:
 607:Middlewares/Third_Party/LwIP/src/api/api_lib.c ****       }
 608:Middlewares/Third_Party/LwIP/src/api/api_lib.c ****       if (conn->flags & NETCONN_FLAG_MBOXCLOSED) {
 1292              		.loc 1 608 15
 1293 00d6 FB68     		ldr	r3, [r7, #12]
 1294 00d8 1B7F     		ldrb	r3, [r3, #28]	@ zero_extendqisi2
 1295              		.loc 1 608 23
 1296 00da 03F00103 		and	r3, r3, #1
 1297              		.loc 1 608 10
 1298 00de 002B     		cmp	r3, #0
 1299 00e0 02D0     		beq	.L90
 609:Middlewares/Third_Party/LwIP/src/api/api_lib.c ****         return ERR_CONN;
 1300              		.loc 1 609 16
 1301 00e2 6FF00A03 		mvn	r3, #10
 1302 00e6 44E0     		b	.L99
 1303              	.L90:
 610:Middlewares/Third_Party/LwIP/src/api/api_lib.c ****       }
 611:Middlewares/Third_Party/LwIP/src/api/api_lib.c ****       return ERR_WOULDBLOCK;
 1304              		.loc 1 611 14
 1305 00e8 6FF00603 		mvn	r3, #6
 1306 00ec 41E0     		b	.L99
 1307              	.L87:
 1308              	.LBE4:
 612:Middlewares/Third_Party/LwIP/src/api/api_lib.c ****     }
 613:Middlewares/Third_Party/LwIP/src/api/api_lib.c ****   } else {
 614:Middlewares/Third_Party/LwIP/src/api/api_lib.c **** #if LWIP_SO_RCVTIMEO
 615:Middlewares/Third_Party/LwIP/src/api/api_lib.c ****     if (sys_arch_mbox_fetch(&conn->recvmbox, &buf, conn->recv_timeout) == SYS_ARCH_TIMEOUT) {
 616:Middlewares/Third_Party/LwIP/src/api/api_lib.c ****       NETCONN_MBOX_WAITING_DEC(conn);
 617:Middlewares/Third_Party/LwIP/src/api/api_lib.c ****       return ERR_TIMEOUT;
 618:Middlewares/Third_Party/LwIP/src/api/api_lib.c ****     }
 619:Middlewares/Third_Party/LwIP/src/api/api_lib.c **** #else
 620:Middlewares/Third_Party/LwIP/src/api/api_lib.c ****     sys_arch_mbox_fetch(&conn->recvmbox, &buf, 0);
 1309              		.loc 1 620 5
 1310 00ee FB68     		ldr	r3, [r7, #12]
 1311 00f0 1033     		adds	r3, r3, #16
 1312 00f2 07F11801 		add	r1, r7, #24
 1313 00f6 0022     		movs	r2, #0
 1314 00f8 1846     		mov	r0, r3
 1315 00fa FFF7FEFF 		bl	sys_arch_mbox_fetch
 1316              	.L91:
 621:Middlewares/Third_Party/LwIP/src/api/api_lib.c **** #endif /* LWIP_SO_RCVTIMEO*/
 622:Middlewares/Third_Party/LwIP/src/api/api_lib.c ****   }
 623:Middlewares/Third_Party/LwIP/src/api/api_lib.c ****   NETCONN_MBOX_WAITING_DEC(conn);
 624:Middlewares/Third_Party/LwIP/src/api/api_lib.c **** #if LWIP_NETCONN_FULLDUPLEX
 625:Middlewares/Third_Party/LwIP/src/api/api_lib.c ****   if (conn->flags & NETCONN_FLAG_MBOXINVALID) {
 626:Middlewares/Third_Party/LwIP/src/api/api_lib.c ****     if (lwip_netconn_is_deallocated_msg(buf)) {
 627:Middlewares/Third_Party/LwIP/src/api/api_lib.c ****       /* the netconn has been closed from another thread */
ARM GAS  /tmp/cckDOVNo.s 			page 36


 628:Middlewares/Third_Party/LwIP/src/api/api_lib.c ****       API_MSG_VAR_FREE_ACCEPT(msg);
 629:Middlewares/Third_Party/LwIP/src/api/api_lib.c ****       return ERR_CONN;
 630:Middlewares/Third_Party/LwIP/src/api/api_lib.c ****     }
 631:Middlewares/Third_Party/LwIP/src/api/api_lib.c ****   }
 632:Middlewares/Third_Party/LwIP/src/api/api_lib.c **** #endif
 633:Middlewares/Third_Party/LwIP/src/api/api_lib.c **** 
 634:Middlewares/Third_Party/LwIP/src/api/api_lib.c **** #if LWIP_TCP
 635:Middlewares/Third_Party/LwIP/src/api/api_lib.c **** #if (LWIP_UDP || LWIP_RAW)
 636:Middlewares/Third_Party/LwIP/src/api/api_lib.c ****   if (NETCONNTYPE_GROUP(conn->type) == NETCONN_TCP)
 1317              		.loc 1 636 7
 1318 00fe FB68     		ldr	r3, [r7, #12]
 1319 0100 1B78     		ldrb	r3, [r3]	@ zero_extendqisi2
 1320 0102 03F0F003 		and	r3, r3, #240
 1321              		.loc 1 636 6
 1322 0106 102B     		cmp	r3, #16
 1323 0108 17D1     		bne	.L92
 1324              	.LBB5:
 637:Middlewares/Third_Party/LwIP/src/api/api_lib.c **** #endif /* (LWIP_UDP || LWIP_RAW) */
 638:Middlewares/Third_Party/LwIP/src/api/api_lib.c ****   {
 639:Middlewares/Third_Party/LwIP/src/api/api_lib.c ****     err_t err;
 640:Middlewares/Third_Party/LwIP/src/api/api_lib.c ****     /* Check if this is an error message or a pbuf */
 641:Middlewares/Third_Party/LwIP/src/api/api_lib.c ****     if (lwip_netconn_is_err_msg(buf, &err)) {
 1325              		.loc 1 641 9
 1326 010a BB69     		ldr	r3, [r7, #24]
 1327 010c 07F11702 		add	r2, r7, #23
 1328 0110 1146     		mov	r1, r2
 1329 0112 1846     		mov	r0, r3
 1330 0114 FFF7FEFF 		bl	lwip_netconn_is_err_msg
 1331 0118 0346     		mov	r3, r0
 1332              		.loc 1 641 8
 1333 011a 002B     		cmp	r3, #0
 1334 011c 09D0     		beq	.L93
 642:Middlewares/Third_Party/LwIP/src/api/api_lib.c ****       /* new_buf has been zeroed above already */
 643:Middlewares/Third_Party/LwIP/src/api/api_lib.c ****       if (err == ERR_CLSD) {
 1335              		.loc 1 643 15
 1336 011e 97F91730 		ldrsb	r3, [r7, #23]
 1337              		.loc 1 643 10
 1338 0122 13F10F0F 		cmn	r3, #15
 1339 0126 01D1     		bne	.L94
 644:Middlewares/Third_Party/LwIP/src/api/api_lib.c ****         /* connection closed translates to ERR_OK with *new_buf == NULL */
 645:Middlewares/Third_Party/LwIP/src/api/api_lib.c ****         return ERR_OK;
 1340              		.loc 1 645 16
 1341 0128 0023     		movs	r3, #0
 1342 012a 22E0     		b	.L99
 1343              	.L94:
 646:Middlewares/Third_Party/LwIP/src/api/api_lib.c ****       }
 647:Middlewares/Third_Party/LwIP/src/api/api_lib.c ****       return err;
 1344              		.loc 1 647 14
 1345 012c 97F91730 		ldrsb	r3, [r7, #23]
 1346 0130 1FE0     		b	.L99
 1347              	.L93:
 648:Middlewares/Third_Party/LwIP/src/api/api_lib.c ****     }
 649:Middlewares/Third_Party/LwIP/src/api/api_lib.c ****     len = ((struct pbuf *)buf)->tot_len;
 1348              		.loc 1 649 12
 1349 0132 BB69     		ldr	r3, [r7, #24]
 1350              		.loc 1 649 9
 1351 0134 1B89     		ldrh	r3, [r3, #8]	@ movhi
ARM GAS  /tmp/cckDOVNo.s 			page 37


 1352 0136 FB83     		strh	r3, [r7, #30]	@ movhi
 1353              	.LBE5:
 1354 0138 0DE0     		b	.L96
 1355              	.L92:
 650:Middlewares/Third_Party/LwIP/src/api/api_lib.c ****   }
 651:Middlewares/Third_Party/LwIP/src/api/api_lib.c **** #endif /* LWIP_TCP */
 652:Middlewares/Third_Party/LwIP/src/api/api_lib.c **** #if LWIP_TCP && (LWIP_UDP || LWIP_RAW)
 653:Middlewares/Third_Party/LwIP/src/api/api_lib.c ****   else
 654:Middlewares/Third_Party/LwIP/src/api/api_lib.c **** #endif /* LWIP_TCP && (LWIP_UDP || LWIP_RAW) */
 655:Middlewares/Third_Party/LwIP/src/api/api_lib.c **** #if (LWIP_UDP || LWIP_RAW)
 656:Middlewares/Third_Party/LwIP/src/api/api_lib.c ****   {
 657:Middlewares/Third_Party/LwIP/src/api/api_lib.c ****     LWIP_ASSERT("buf != NULL", buf != NULL);
 1356              		.loc 1 657 5
 1357 013a BB69     		ldr	r3, [r7, #24]
 1358 013c 002B     		cmp	r3, #0
 1359 013e 06D1     		bne	.L97
 1360              		.loc 1 657 5 is_stmt 0 discriminator 1
 1361 0140 0E4B     		ldr	r3, .L100
 1362 0142 40F29122 		movw	r2, #657
 1363 0146 1149     		ldr	r1, .L100+16
 1364 0148 0E48     		ldr	r0, .L100+8
 1365 014a FFF7FEFF 		bl	printf
 1366              	.L97:
 658:Middlewares/Third_Party/LwIP/src/api/api_lib.c ****     len = netbuf_len((struct netbuf *)buf);
 1367              		.loc 1 658 11 is_stmt 1
 1368 014e BB69     		ldr	r3, [r7, #24]
 1369 0150 1B68     		ldr	r3, [r3]
 1370              		.loc 1 658 9
 1371 0152 1B89     		ldrh	r3, [r3, #8]	@ movhi
 1372 0154 FB83     		strh	r3, [r7, #30]	@ movhi
 1373              	.L96:
 659:Middlewares/Third_Party/LwIP/src/api/api_lib.c ****   }
 660:Middlewares/Third_Party/LwIP/src/api/api_lib.c **** #endif /* (LWIP_UDP || LWIP_RAW) */
 661:Middlewares/Third_Party/LwIP/src/api/api_lib.c **** 
 662:Middlewares/Third_Party/LwIP/src/api/api_lib.c **** #if LWIP_SO_RCVBUF
 663:Middlewares/Third_Party/LwIP/src/api/api_lib.c ****   SYS_ARCH_DEC(conn->recv_avail, len);
 664:Middlewares/Third_Party/LwIP/src/api/api_lib.c **** #endif /* LWIP_SO_RCVBUF */
 665:Middlewares/Third_Party/LwIP/src/api/api_lib.c ****   /* Register event with callback */
 666:Middlewares/Third_Party/LwIP/src/api/api_lib.c ****   API_EVENT(conn, NETCONN_EVT_RCVMINUS, len);
 1374              		.loc 1 666 3
 1375 0156 FB68     		ldr	r3, [r7, #12]
 1376 0158 5B6A     		ldr	r3, [r3, #36]
 1377 015a 002B     		cmp	r3, #0
 1378 015c 05D0     		beq	.L98
 1379              		.loc 1 666 3 is_stmt 0 discriminator 1
 1380 015e FB68     		ldr	r3, [r7, #12]
 1381 0160 5B6A     		ldr	r3, [r3, #36]
 1382 0162 FA8B     		ldrh	r2, [r7, #30]
 1383 0164 0121     		movs	r1, #1
 1384 0166 F868     		ldr	r0, [r7, #12]
 1385 0168 9847     		blx	r3
 1386              	.LVL1:
 1387              	.L98:
 667:Middlewares/Third_Party/LwIP/src/api/api_lib.c **** 
 668:Middlewares/Third_Party/LwIP/src/api/api_lib.c ****   LWIP_DEBUGF(API_LIB_DEBUG, ("netconn_recv_data: received %p, len=%"U16_F"\n", buf, len));
 669:Middlewares/Third_Party/LwIP/src/api/api_lib.c **** 
 670:Middlewares/Third_Party/LwIP/src/api/api_lib.c ****   *new_buf = buf;
ARM GAS  /tmp/cckDOVNo.s 			page 38


 1388              		.loc 1 670 12 is_stmt 1
 1389 016a BA69     		ldr	r2, [r7, #24]
 1390 016c BB68     		ldr	r3, [r7, #8]
 1391 016e 1A60     		str	r2, [r3]
 671:Middlewares/Third_Party/LwIP/src/api/api_lib.c ****   /* don't set conn->last_err: it's only ERR_OK, anyway */
 672:Middlewares/Third_Party/LwIP/src/api/api_lib.c ****   return ERR_OK;
 1392              		.loc 1 672 10
 1393 0170 0023     		movs	r3, #0
 1394              	.L99:
 673:Middlewares/Third_Party/LwIP/src/api/api_lib.c **** }
 1395              		.loc 1 673 1 discriminator 2
 1396 0172 1846     		mov	r0, r3
 1397 0174 2037     		adds	r7, r7, #32
 1398              	.LCFI58:
 1399              		.cfi_def_cfa_offset 8
 1400 0176 BD46     		mov	sp, r7
 1401              	.LCFI59:
 1402              		.cfi_def_cfa_register 13
 1403              		@ sp needed
 1404 0178 80BD     		pop	{r7, pc}
 1405              	.L101:
 1406 017a 00BF     		.align	2
 1407              	.L100:
 1408 017c 00000000 		.word	.LC0
 1409 0180 14020000 		.word	.LC16
 1410 0184 54000000 		.word	.LC2
 1411 0188 34020000 		.word	.LC17
 1412 018c 50020000 		.word	.LC18
 1413              		.cfi_endproc
 1414              	.LFE148:
 1416              		.section	.rodata
 1417              		.align	2
 1418              	.LC19:
 1419 025c 6E657463 		.ascii	"netconn_recv_tcp_pbuf: invalid conn\000"
 1419      6F6E6E5F 
 1419      72656376 
 1419      5F746370 
 1419      5F706275 
 1420              		.section	.text.netconn_tcp_recvd_msg,"ax",%progbits
 1421              		.align	1
 1422              		.syntax unified
 1423              		.thumb
 1424              		.thumb_func
 1425              		.fpu fpv4-sp-d16
 1427              	netconn_tcp_recvd_msg:
 1428              	.LFB149:
 674:Middlewares/Third_Party/LwIP/src/api/api_lib.c **** 
 675:Middlewares/Third_Party/LwIP/src/api/api_lib.c **** #if LWIP_TCP
 676:Middlewares/Third_Party/LwIP/src/api/api_lib.c **** static err_t
 677:Middlewares/Third_Party/LwIP/src/api/api_lib.c **** netconn_tcp_recvd_msg(struct netconn *conn, size_t len, struct api_msg *msg)
 678:Middlewares/Third_Party/LwIP/src/api/api_lib.c **** {
 1429              		.loc 1 678 1
 1430              		.cfi_startproc
 1431              		@ args = 0, pretend = 0, frame = 16
 1432              		@ frame_needed = 1, uses_anonymous_args = 0
 1433 0000 80B5     		push	{r7, lr}
 1434              	.LCFI60:
ARM GAS  /tmp/cckDOVNo.s 			page 39


 1435              		.cfi_def_cfa_offset 8
 1436              		.cfi_offset 7, -8
 1437              		.cfi_offset 14, -4
 1438 0002 84B0     		sub	sp, sp, #16
 1439              	.LCFI61:
 1440              		.cfi_def_cfa_offset 24
 1441 0004 00AF     		add	r7, sp, #0
 1442              	.LCFI62:
 1443              		.cfi_def_cfa_register 7
 1444 0006 F860     		str	r0, [r7, #12]
 1445 0008 B960     		str	r1, [r7, #8]
 1446 000a 7A60     		str	r2, [r7, #4]
 679:Middlewares/Third_Party/LwIP/src/api/api_lib.c ****   LWIP_ERROR("netconn_recv_tcp_pbuf: invalid conn", (conn != NULL) &&
 1447              		.loc 1 679 3
 1448 000c FB68     		ldr	r3, [r7, #12]
 1449 000e 002B     		cmp	r3, #0
 1450 0010 05D0     		beq	.L103
 1451              		.loc 1 679 3 is_stmt 0 discriminator 2
 1452 0012 FB68     		ldr	r3, [r7, #12]
 1453 0014 1B78     		ldrb	r3, [r3]	@ zero_extendqisi2
 1454 0016 03F0F003 		and	r3, r3, #240
 1455 001a 102B     		cmp	r3, #16
 1456 001c 09D0     		beq	.L104
 1457              	.L103:
 1458              		.loc 1 679 3 discriminator 3
 1459 001e 0C4B     		ldr	r3, .L106
 1460 0020 4FF42A72 		mov	r2, #680
 1461 0024 0B49     		ldr	r1, .L106+4
 1462 0026 0C48     		ldr	r0, .L106+8
 1463 0028 FFF7FEFF 		bl	printf
 1464 002c 6FF00F03 		mvn	r3, #15
 1465 0030 0AE0     		b	.L105
 1466              	.L104:
 680:Middlewares/Third_Party/LwIP/src/api/api_lib.c ****              NETCONNTYPE_GROUP(netconn_type(conn)) == NETCONN_TCP, return ERR_ARG;);
 681:Middlewares/Third_Party/LwIP/src/api/api_lib.c **** 
 682:Middlewares/Third_Party/LwIP/src/api/api_lib.c ****   msg->conn = conn;
 1467              		.loc 1 682 13 is_stmt 1
 1468 0032 7B68     		ldr	r3, [r7, #4]
 1469 0034 FA68     		ldr	r2, [r7, #12]
 1470 0036 1A60     		str	r2, [r3]
 683:Middlewares/Third_Party/LwIP/src/api/api_lib.c ****   msg->msg.r.len = len;
 1471              		.loc 1 683 18
 1472 0038 7B68     		ldr	r3, [r7, #4]
 1473 003a BA68     		ldr	r2, [r7, #8]
 1474 003c 9A60     		str	r2, [r3, #8]
 684:Middlewares/Third_Party/LwIP/src/api/api_lib.c **** 
 685:Middlewares/Third_Party/LwIP/src/api/api_lib.c ****   return netconn_apimsg(lwip_netconn_do_recv, msg);
 1475              		.loc 1 685 10
 1476 003e 7968     		ldr	r1, [r7, #4]
 1477 0040 0648     		ldr	r0, .L106+12
 1478 0042 FFF7FEFF 		bl	netconn_apimsg
 1479 0046 0346     		mov	r3, r0
 1480              	.L105:
 686:Middlewares/Third_Party/LwIP/src/api/api_lib.c **** }
 1481              		.loc 1 686 1
 1482 0048 1846     		mov	r0, r3
 1483 004a 1037     		adds	r7, r7, #16
ARM GAS  /tmp/cckDOVNo.s 			page 40


 1484              	.LCFI63:
 1485              		.cfi_def_cfa_offset 8
 1486 004c BD46     		mov	sp, r7
 1487              	.LCFI64:
 1488              		.cfi_def_cfa_register 13
 1489              		@ sp needed
 1490 004e 80BD     		pop	{r7, pc}
 1491              	.L107:
 1492              		.align	2
 1493              	.L106:
 1494 0050 00000000 		.word	.LC0
 1495 0054 5C020000 		.word	.LC19
 1496 0058 54000000 		.word	.LC2
 1497 005c 00000000 		.word	lwip_netconn_do_recv
 1498              		.cfi_endproc
 1499              	.LFE149:
 1501              		.section	.text.netconn_tcp_recvd,"ax",%progbits
 1502              		.align	1
 1503              		.global	netconn_tcp_recvd
 1504              		.syntax unified
 1505              		.thumb
 1506              		.thumb_func
 1507              		.fpu fpv4-sp-d16
 1509              	netconn_tcp_recvd:
 1510              	.LFB150:
 687:Middlewares/Third_Party/LwIP/src/api/api_lib.c **** 
 688:Middlewares/Third_Party/LwIP/src/api/api_lib.c **** err_t
 689:Middlewares/Third_Party/LwIP/src/api/api_lib.c **** netconn_tcp_recvd(struct netconn *conn, size_t len)
 690:Middlewares/Third_Party/LwIP/src/api/api_lib.c **** {
 1511              		.loc 1 690 1
 1512              		.cfi_startproc
 1513              		@ args = 0, pretend = 0, frame = 48
 1514              		@ frame_needed = 1, uses_anonymous_args = 0
 1515 0000 80B5     		push	{r7, lr}
 1516              	.LCFI65:
 1517              		.cfi_def_cfa_offset 8
 1518              		.cfi_offset 7, -8
 1519              		.cfi_offset 14, -4
 1520 0002 8CB0     		sub	sp, sp, #48
 1521              	.LCFI66:
 1522              		.cfi_def_cfa_offset 56
 1523 0004 00AF     		add	r7, sp, #0
 1524              	.LCFI67:
 1525              		.cfi_def_cfa_register 7
 1526 0006 7860     		str	r0, [r7, #4]
 1527 0008 3960     		str	r1, [r7]
 691:Middlewares/Third_Party/LwIP/src/api/api_lib.c ****   err_t err;
 692:Middlewares/Third_Party/LwIP/src/api/api_lib.c ****   API_MSG_VAR_DECLARE(msg);
 693:Middlewares/Third_Party/LwIP/src/api/api_lib.c ****   LWIP_ERROR("netconn_recv_tcp_pbuf: invalid conn", (conn != NULL) &&
 1528              		.loc 1 693 3
 1529 000a 7B68     		ldr	r3, [r7, #4]
 1530 000c 002B     		cmp	r3, #0
 1531 000e 05D0     		beq	.L109
 1532              		.loc 1 693 3 is_stmt 0 discriminator 2
 1533 0010 7B68     		ldr	r3, [r7, #4]
 1534 0012 1B78     		ldrb	r3, [r3]	@ zero_extendqisi2
 1535 0014 03F0F003 		and	r3, r3, #240
ARM GAS  /tmp/cckDOVNo.s 			page 41


 1536 0018 102B     		cmp	r3, #16
 1537 001a 09D0     		beq	.L110
 1538              	.L109:
 1539              		.loc 1 693 3 discriminator 3
 1540 001c 0C4B     		ldr	r3, .L113
 1541 001e 40F2B622 		movw	r2, #694
 1542 0022 0C49     		ldr	r1, .L113+4
 1543 0024 0C48     		ldr	r0, .L113+8
 1544 0026 FFF7FEFF 		bl	printf
 1545 002a 6FF00F03 		mvn	r3, #15
 1546 002e 0BE0     		b	.L112
 1547              	.L110:
 694:Middlewares/Third_Party/LwIP/src/api/api_lib.c ****              NETCONNTYPE_GROUP(netconn_type(conn)) == NETCONN_TCP, return ERR_ARG;);
 695:Middlewares/Third_Party/LwIP/src/api/api_lib.c **** 
 696:Middlewares/Third_Party/LwIP/src/api/api_lib.c ****   API_MSG_VAR_ALLOC(msg);
 697:Middlewares/Third_Party/LwIP/src/api/api_lib.c ****   err = netconn_tcp_recvd_msg(conn, len, &API_VAR_REF(msg));
 1548              		.loc 1 697 9 is_stmt 1
 1549 0030 07F10C03 		add	r3, r7, #12
 1550 0034 1A46     		mov	r2, r3
 1551 0036 3968     		ldr	r1, [r7]
 1552 0038 7868     		ldr	r0, [r7, #4]
 1553 003a FFF7FEFF 		bl	netconn_tcp_recvd_msg
 1554 003e 0346     		mov	r3, r0
 1555 0040 87F82F30 		strb	r3, [r7, #47]
 698:Middlewares/Third_Party/LwIP/src/api/api_lib.c ****   API_MSG_VAR_FREE(msg);
 699:Middlewares/Third_Party/LwIP/src/api/api_lib.c ****   return err;
 1556              		.loc 1 699 10
 1557 0044 97F92F30 		ldrsb	r3, [r7, #47]
 1558              	.L112:
 700:Middlewares/Third_Party/LwIP/src/api/api_lib.c **** }
 1559              		.loc 1 700 1 discriminator 1
 1560 0048 1846     		mov	r0, r3
 1561 004a 3037     		adds	r7, r7, #48
 1562              	.LCFI68:
 1563              		.cfi_def_cfa_offset 8
 1564 004c BD46     		mov	sp, r7
 1565              	.LCFI69:
 1566              		.cfi_def_cfa_register 13
 1567              		@ sp needed
 1568 004e 80BD     		pop	{r7, pc}
 1569              	.L114:
 1570              		.align	2
 1571              	.L113:
 1572 0050 00000000 		.word	.LC0
 1573 0054 5C020000 		.word	.LC19
 1574 0058 54000000 		.word	.LC2
 1575              		.cfi_endproc
 1576              	.LFE150:
 1578              		.section	.text.netconn_recv_data_tcp,"ax",%progbits
 1579              		.align	1
 1580              		.syntax unified
 1581              		.thumb
 1582              		.thumb_func
 1583              		.fpu fpv4-sp-d16
 1585              	netconn_recv_data_tcp:
 1586              	.LFB151:
 701:Middlewares/Third_Party/LwIP/src/api/api_lib.c **** 
ARM GAS  /tmp/cckDOVNo.s 			page 42


 702:Middlewares/Third_Party/LwIP/src/api/api_lib.c **** static err_t
 703:Middlewares/Third_Party/LwIP/src/api/api_lib.c **** netconn_recv_data_tcp(struct netconn *conn, struct pbuf **new_buf, u8_t apiflags)
 704:Middlewares/Third_Party/LwIP/src/api/api_lib.c **** {
 1587              		.loc 1 704 1
 1588              		.cfi_startproc
 1589              		@ args = 0, pretend = 0, frame = 64
 1590              		@ frame_needed = 1, uses_anonymous_args = 0
 1591 0000 80B5     		push	{r7, lr}
 1592              	.LCFI70:
 1593              		.cfi_def_cfa_offset 8
 1594              		.cfi_offset 7, -8
 1595              		.cfi_offset 14, -4
 1596 0002 90B0     		sub	sp, sp, #64
 1597              	.LCFI71:
 1598              		.cfi_def_cfa_offset 72
 1599 0004 00AF     		add	r7, sp, #0
 1600              	.LCFI72:
 1601              		.cfi_def_cfa_register 7
 1602 0006 F860     		str	r0, [r7, #12]
 1603 0008 B960     		str	r1, [r7, #8]
 1604 000a 1346     		mov	r3, r2
 1605 000c FB71     		strb	r3, [r7, #7]
 705:Middlewares/Third_Party/LwIP/src/api/api_lib.c ****   err_t err;
 706:Middlewares/Third_Party/LwIP/src/api/api_lib.c ****   struct pbuf *buf;
 707:Middlewares/Third_Party/LwIP/src/api/api_lib.c ****   API_MSG_VAR_DECLARE(msg);
 708:Middlewares/Third_Party/LwIP/src/api/api_lib.c **** #if LWIP_MPU_COMPATIBLE
 709:Middlewares/Third_Party/LwIP/src/api/api_lib.c ****   msg = NULL;
 710:Middlewares/Third_Party/LwIP/src/api/api_lib.c **** #endif
 711:Middlewares/Third_Party/LwIP/src/api/api_lib.c **** 
 712:Middlewares/Third_Party/LwIP/src/api/api_lib.c ****   if (!NETCONN_RECVMBOX_WAITABLE(conn)) {
 1606              		.loc 1 712 8
 1607 000e FB68     		ldr	r3, [r7, #12]
 1608 0010 1033     		adds	r3, r3, #16
 1609 0012 1846     		mov	r0, r3
 1610 0014 FFF7FEFF 		bl	sys_mbox_valid
 1611 0018 0346     		mov	r3, r0
 1612              		.loc 1 712 6
 1613 001a 002B     		cmp	r3, #0
 1614 001c 02D1     		bne	.L116
 713:Middlewares/Third_Party/LwIP/src/api/api_lib.c ****     /* This only happens when calling this function more than once *after* receiving FIN */
 714:Middlewares/Third_Party/LwIP/src/api/api_lib.c ****     return ERR_CONN;
 1615              		.loc 1 714 12
 1616 001e 6FF00A03 		mvn	r3, #10
 1617 0022 6DE0     		b	.L128
 1618              	.L116:
 715:Middlewares/Third_Party/LwIP/src/api/api_lib.c ****   }
 716:Middlewares/Third_Party/LwIP/src/api/api_lib.c ****   if (netconn_is_flag_set(conn, NETCONN_FIN_RX_PENDING)) {
 1619              		.loc 1 716 7
 1620 0024 FB68     		ldr	r3, [r7, #12]
 1621 0026 1B7F     		ldrb	r3, [r3, #28]	@ zero_extendqisi2
 1622 0028 5BB2     		sxtb	r3, r3
 1623              		.loc 1 716 6
 1624 002a 002B     		cmp	r3, #0
 1625 002c 07DA     		bge	.L118
 717:Middlewares/Third_Party/LwIP/src/api/api_lib.c ****     netconn_clear_flags(conn, NETCONN_FIN_RX_PENDING);
 1626              		.loc 1 717 5
 1627 002e FB68     		ldr	r3, [r7, #12]
ARM GAS  /tmp/cckDOVNo.s 			page 43


 1628 0030 1B7F     		ldrb	r3, [r3, #28]	@ zero_extendqisi2
 1629 0032 03F07F03 		and	r3, r3, #127
 1630 0036 DAB2     		uxtb	r2, r3
 1631 0038 FB68     		ldr	r3, [r7, #12]
 1632 003a 1A77     		strb	r2, [r3, #28]
 718:Middlewares/Third_Party/LwIP/src/api/api_lib.c ****     goto handle_fin;
 1633              		.loc 1 718 5
 1634 003c 39E0     		b	.L119
 1635              	.L118:
 719:Middlewares/Third_Party/LwIP/src/api/api_lib.c ****   }
 720:Middlewares/Third_Party/LwIP/src/api/api_lib.c **** 
 721:Middlewares/Third_Party/LwIP/src/api/api_lib.c ****   if (!(apiflags & NETCONN_NOAUTORCVD)) {
 722:Middlewares/Third_Party/LwIP/src/api/api_lib.c ****     /* need to allocate API message here so empty message pool does not result in event loss
 723:Middlewares/Third_Party/LwIP/src/api/api_lib.c ****       * see bug #47512: MPU_COMPATIBLE may fail on empty pool */
 724:Middlewares/Third_Party/LwIP/src/api/api_lib.c ****     API_MSG_VAR_ALLOC(msg);
 725:Middlewares/Third_Party/LwIP/src/api/api_lib.c ****   }
 726:Middlewares/Third_Party/LwIP/src/api/api_lib.c **** 
 727:Middlewares/Third_Party/LwIP/src/api/api_lib.c ****   err = netconn_recv_data(conn, (void **)new_buf, apiflags);
 1636              		.loc 1 727 9
 1637 003e FB79     		ldrb	r3, [r7, #7]	@ zero_extendqisi2
 1638 0040 1A46     		mov	r2, r3
 1639 0042 B968     		ldr	r1, [r7, #8]
 1640 0044 F868     		ldr	r0, [r7, #12]
 1641 0046 FFF7FEFF 		bl	netconn_recv_data
 1642 004a 0346     		mov	r3, r0
 1643 004c 87F83F30 		strb	r3, [r7, #63]
 728:Middlewares/Third_Party/LwIP/src/api/api_lib.c ****   if (err != ERR_OK) {
 1644              		.loc 1 728 6
 1645 0050 97F93F30 		ldrsb	r3, [r7, #63]
 1646 0054 002B     		cmp	r3, #0
 1647 0056 02D0     		beq	.L120
 729:Middlewares/Third_Party/LwIP/src/api/api_lib.c ****     if (!(apiflags & NETCONN_NOAUTORCVD)) {
 730:Middlewares/Third_Party/LwIP/src/api/api_lib.c ****       API_MSG_VAR_FREE(msg);
 731:Middlewares/Third_Party/LwIP/src/api/api_lib.c ****     }
 732:Middlewares/Third_Party/LwIP/src/api/api_lib.c ****     return err;
 1648              		.loc 1 732 12
 1649 0058 97F93F30 		ldrsb	r3, [r7, #63]
 1650 005c 50E0     		b	.L128
 1651              	.L120:
 733:Middlewares/Third_Party/LwIP/src/api/api_lib.c ****   }
 734:Middlewares/Third_Party/LwIP/src/api/api_lib.c ****   buf = *new_buf;
 1652              		.loc 1 734 7
 1653 005e BB68     		ldr	r3, [r7, #8]
 1654 0060 1B68     		ldr	r3, [r3]
 1655 0062 BB63     		str	r3, [r7, #56]
 735:Middlewares/Third_Party/LwIP/src/api/api_lib.c ****   if (!(apiflags & NETCONN_NOAUTORCVD)) {
 1656              		.loc 1 735 18
 1657 0064 FB79     		ldrb	r3, [r7, #7]	@ zero_extendqisi2
 1658 0066 03F00803 		and	r3, r3, #8
 1659              		.loc 1 735 6
 1660 006a 002B     		cmp	r3, #0
 1661 006c 0ED1     		bne	.L121
 1662              	.LBB6:
 736:Middlewares/Third_Party/LwIP/src/api/api_lib.c ****     /* Let the stack know that we have taken the data. */
 737:Middlewares/Third_Party/LwIP/src/api/api_lib.c ****     u16_t len = buf ? buf->tot_len : 1;
 1663              		.loc 1 737 11
 1664 006e BB6B     		ldr	r3, [r7, #56]
ARM GAS  /tmp/cckDOVNo.s 			page 44


 1665 0070 002B     		cmp	r3, #0
 1666 0072 02D0     		beq	.L122
 1667              		.loc 1 737 11 is_stmt 0 discriminator 1
 1668 0074 BB6B     		ldr	r3, [r7, #56]
 1669 0076 1B89     		ldrh	r3, [r3, #8]
 1670 0078 00E0     		b	.L123
 1671              	.L122:
 1672              		.loc 1 737 11 discriminator 2
 1673 007a 0123     		movs	r3, #1
 1674              	.L123:
 1675              		.loc 1 737 11 discriminator 4
 1676 007c FB86     		strh	r3, [r7, #54]	@ movhi
 738:Middlewares/Third_Party/LwIP/src/api/api_lib.c ****     /* don't care for the return value of lwip_netconn_do_recv */
 739:Middlewares/Third_Party/LwIP/src/api/api_lib.c ****     /* @todo: this should really be fixed, e.g. by retrying in poll on error */
 740:Middlewares/Third_Party/LwIP/src/api/api_lib.c ****     netconn_tcp_recvd_msg(conn, len,  &API_VAR_REF(msg));
 1677              		.loc 1 740 5 is_stmt 1 discriminator 4
 1678 007e FB8E     		ldrh	r3, [r7, #54]
 1679 0080 07F11402 		add	r2, r7, #20
 1680 0084 1946     		mov	r1, r3
 1681 0086 F868     		ldr	r0, [r7, #12]
 1682 0088 FFF7FEFF 		bl	netconn_tcp_recvd_msg
 1683              	.L121:
 1684              	.LBE6:
 741:Middlewares/Third_Party/LwIP/src/api/api_lib.c ****     API_MSG_VAR_FREE(msg);
 742:Middlewares/Third_Party/LwIP/src/api/api_lib.c ****   }
 743:Middlewares/Third_Party/LwIP/src/api/api_lib.c **** 
 744:Middlewares/Third_Party/LwIP/src/api/api_lib.c ****   /* If we are closed, we indicate that we no longer wish to use the socket */
 745:Middlewares/Third_Party/LwIP/src/api/api_lib.c ****   if (buf == NULL) {
 1685              		.loc 1 745 6
 1686 008c BB6B     		ldr	r3, [r7, #56]
 1687 008e 002B     		cmp	r3, #0
 1688 0090 34D1     		bne	.L124
 746:Middlewares/Third_Party/LwIP/src/api/api_lib.c ****     if (apiflags & NETCONN_NOFIN) {
 1689              		.loc 1 746 18
 1690 0092 FB79     		ldrb	r3, [r7, #7]	@ zero_extendqisi2
 1691 0094 03F01003 		and	r3, r3, #16
 1692              		.loc 1 746 8
 1693 0098 002B     		cmp	r3, #0
 1694 009a 09D0     		beq	.L129
 747:Middlewares/Third_Party/LwIP/src/api/api_lib.c ****       /* received a FIN but the caller cannot handle it right now:
 748:Middlewares/Third_Party/LwIP/src/api/api_lib.c ****          re-enqueue it and return "no data" */
 749:Middlewares/Third_Party/LwIP/src/api/api_lib.c ****       netconn_set_flags(conn, NETCONN_FIN_RX_PENDING);
 1695              		.loc 1 749 7
 1696 009c FB68     		ldr	r3, [r7, #12]
 1697 009e 1B7F     		ldrb	r3, [r3, #28]	@ zero_extendqisi2
 1698 00a0 63F07F03 		orn	r3, r3, #127
 1699 00a4 DAB2     		uxtb	r2, r3
 1700 00a6 FB68     		ldr	r3, [r7, #12]
 1701 00a8 1A77     		strb	r2, [r3, #28]
 750:Middlewares/Third_Party/LwIP/src/api/api_lib.c ****       return ERR_WOULDBLOCK;
 1702              		.loc 1 750 14
 1703 00aa 6FF00603 		mvn	r3, #6
 1704 00ae 27E0     		b	.L128
 1705              	.L129:
 751:Middlewares/Third_Party/LwIP/src/api/api_lib.c ****     } else {
 752:Middlewares/Third_Party/LwIP/src/api/api_lib.c **** handle_fin:
 1706              		.loc 1 752 1
ARM GAS  /tmp/cckDOVNo.s 			page 45


 1707 00b0 00BF     		nop
 1708              	.L119:
 753:Middlewares/Third_Party/LwIP/src/api/api_lib.c ****       API_EVENT(conn, NETCONN_EVT_RCVMINUS, 0);
 1709              		.loc 1 753 7
 1710 00b2 FB68     		ldr	r3, [r7, #12]
 1711 00b4 5B6A     		ldr	r3, [r3, #36]
 1712 00b6 002B     		cmp	r3, #0
 1713 00b8 05D0     		beq	.L125
 1714              		.loc 1 753 7 is_stmt 0 discriminator 1
 1715 00ba FB68     		ldr	r3, [r7, #12]
 1716 00bc 5B6A     		ldr	r3, [r3, #36]
 1717 00be 0022     		movs	r2, #0
 1718 00c0 0121     		movs	r1, #1
 1719 00c2 F868     		ldr	r0, [r7, #12]
 1720 00c4 9847     		blx	r3
 1721              	.LVL2:
 1722              	.L125:
 754:Middlewares/Third_Party/LwIP/src/api/api_lib.c ****       if (conn->pcb.ip == NULL) {
 1723              		.loc 1 754 20 is_stmt 1
 1724 00c6 FB68     		ldr	r3, [r7, #12]
 1725 00c8 5B68     		ldr	r3, [r3, #4]
 1726              		.loc 1 754 10
 1727 00ca 002B     		cmp	r3, #0
 1728 00cc 0FD1     		bne	.L126
 755:Middlewares/Third_Party/LwIP/src/api/api_lib.c ****         /* race condition: RST during recv */
 756:Middlewares/Third_Party/LwIP/src/api/api_lib.c ****         err = netconn_err(conn);
 1729              		.loc 1 756 15
 1730 00ce F868     		ldr	r0, [r7, #12]
 1731 00d0 FFF7FEFF 		bl	netconn_err
 1732 00d4 0346     		mov	r3, r0
 1733 00d6 87F83F30 		strb	r3, [r7, #63]
 757:Middlewares/Third_Party/LwIP/src/api/api_lib.c ****         if (err != ERR_OK) {
 1734              		.loc 1 757 12
 1735 00da 97F93F30 		ldrsb	r3, [r7, #63]
 1736 00de 002B     		cmp	r3, #0
 1737 00e0 02D0     		beq	.L127
 758:Middlewares/Third_Party/LwIP/src/api/api_lib.c ****           return err;
 1738              		.loc 1 758 18
 1739 00e2 97F93F30 		ldrsb	r3, [r7, #63]
 1740 00e6 0BE0     		b	.L128
 1741              	.L127:
 759:Middlewares/Third_Party/LwIP/src/api/api_lib.c ****         }
 760:Middlewares/Third_Party/LwIP/src/api/api_lib.c ****         return ERR_RST;
 1742              		.loc 1 760 16
 1743 00e8 6FF00D03 		mvn	r3, #13
 1744 00ec 08E0     		b	.L128
 1745              	.L126:
 761:Middlewares/Third_Party/LwIP/src/api/api_lib.c ****       }
 762:Middlewares/Third_Party/LwIP/src/api/api_lib.c ****       /* RX side is closed, so deallocate the recvmbox */
 763:Middlewares/Third_Party/LwIP/src/api/api_lib.c ****       netconn_close_shutdown(conn, NETCONN_SHUT_RD);
 1746              		.loc 1 763 7
 1747 00ee 0121     		movs	r1, #1
 1748 00f0 F868     		ldr	r0, [r7, #12]
 1749 00f2 FFF7FEFF 		bl	netconn_close_shutdown
 764:Middlewares/Third_Party/LwIP/src/api/api_lib.c ****       /* Don' store ERR_CLSD as conn->err since we are only half-closed */
 765:Middlewares/Third_Party/LwIP/src/api/api_lib.c ****       return ERR_CLSD;
 1750              		.loc 1 765 14
ARM GAS  /tmp/cckDOVNo.s 			page 46


 1751 00f6 6FF00E03 		mvn	r3, #14
 1752 00fa 01E0     		b	.L128
 1753              	.L124:
 766:Middlewares/Third_Party/LwIP/src/api/api_lib.c ****     }
 767:Middlewares/Third_Party/LwIP/src/api/api_lib.c ****   }
 768:Middlewares/Third_Party/LwIP/src/api/api_lib.c ****   return err;
 1754              		.loc 1 768 10
 1755 00fc 97F93F30 		ldrsb	r3, [r7, #63]
 1756              	.L128:
 769:Middlewares/Third_Party/LwIP/src/api/api_lib.c **** }
 1757              		.loc 1 769 1 discriminator 1
 1758 0100 1846     		mov	r0, r3
 1759 0102 4037     		adds	r7, r7, #64
 1760              	.LCFI73:
 1761              		.cfi_def_cfa_offset 8
 1762 0104 BD46     		mov	sp, r7
 1763              	.LCFI74:
 1764              		.cfi_def_cfa_register 13
 1765              		@ sp needed
 1766 0106 80BD     		pop	{r7, pc}
 1767              		.cfi_endproc
 1768              	.LFE151:
 1770              		.section	.text.netconn_recv_tcp_pbuf,"ax",%progbits
 1771              		.align	1
 1772              		.global	netconn_recv_tcp_pbuf
 1773              		.syntax unified
 1774              		.thumb
 1775              		.thumb_func
 1776              		.fpu fpv4-sp-d16
 1778              	netconn_recv_tcp_pbuf:
 1779              	.LFB152:
 770:Middlewares/Third_Party/LwIP/src/api/api_lib.c **** 
 771:Middlewares/Third_Party/LwIP/src/api/api_lib.c **** /**
 772:Middlewares/Third_Party/LwIP/src/api/api_lib.c ****  * @ingroup netconn_tcp
 773:Middlewares/Third_Party/LwIP/src/api/api_lib.c ****  * Receive data (in form of a pbuf) from a TCP netconn
 774:Middlewares/Third_Party/LwIP/src/api/api_lib.c ****  *
 775:Middlewares/Third_Party/LwIP/src/api/api_lib.c ****  * @param conn the netconn from which to receive data
 776:Middlewares/Third_Party/LwIP/src/api/api_lib.c ****  * @param new_buf pointer where a new pbuf is stored when received data
 777:Middlewares/Third_Party/LwIP/src/api/api_lib.c ****  * @return ERR_OK if data has been received, an error code otherwise (timeout,
 778:Middlewares/Third_Party/LwIP/src/api/api_lib.c ****  *                memory error or another error, @see netconn_recv_data)
 779:Middlewares/Third_Party/LwIP/src/api/api_lib.c ****  *         ERR_ARG if conn is not a TCP netconn
 780:Middlewares/Third_Party/LwIP/src/api/api_lib.c ****  */
 781:Middlewares/Third_Party/LwIP/src/api/api_lib.c **** err_t
 782:Middlewares/Third_Party/LwIP/src/api/api_lib.c **** netconn_recv_tcp_pbuf(struct netconn *conn, struct pbuf **new_buf)
 783:Middlewares/Third_Party/LwIP/src/api/api_lib.c **** {
 1780              		.loc 1 783 1
 1781              		.cfi_startproc
 1782              		@ args = 0, pretend = 0, frame = 8
 1783              		@ frame_needed = 1, uses_anonymous_args = 0
 1784 0000 80B5     		push	{r7, lr}
 1785              	.LCFI75:
 1786              		.cfi_def_cfa_offset 8
 1787              		.cfi_offset 7, -8
 1788              		.cfi_offset 14, -4
 1789 0002 82B0     		sub	sp, sp, #8
 1790              	.LCFI76:
 1791              		.cfi_def_cfa_offset 16
ARM GAS  /tmp/cckDOVNo.s 			page 47


 1792 0004 00AF     		add	r7, sp, #0
 1793              	.LCFI77:
 1794              		.cfi_def_cfa_register 7
 1795 0006 7860     		str	r0, [r7, #4]
 1796 0008 3960     		str	r1, [r7]
 784:Middlewares/Third_Party/LwIP/src/api/api_lib.c ****   LWIP_ERROR("netconn_recv_tcp_pbuf: invalid conn", (conn != NULL) &&
 1797              		.loc 1 784 3
 1798 000a 7B68     		ldr	r3, [r7, #4]
 1799 000c 002B     		cmp	r3, #0
 1800 000e 05D0     		beq	.L131
 1801              		.loc 1 784 3 is_stmt 0 discriminator 2
 1802 0010 7B68     		ldr	r3, [r7, #4]
 1803 0012 1B78     		ldrb	r3, [r3]	@ zero_extendqisi2
 1804 0014 03F0F003 		and	r3, r3, #240
 1805 0018 102B     		cmp	r3, #16
 1806 001a 09D0     		beq	.L132
 1807              	.L131:
 1808              		.loc 1 784 3 discriminator 3
 1809 001c 094B     		ldr	r3, .L134
 1810 001e 40F21132 		movw	r2, #785
 1811 0022 0949     		ldr	r1, .L134+4
 1812 0024 0948     		ldr	r0, .L134+8
 1813 0026 FFF7FEFF 		bl	printf
 1814 002a 6FF00F03 		mvn	r3, #15
 1815 002e 05E0     		b	.L133
 1816              	.L132:
 785:Middlewares/Third_Party/LwIP/src/api/api_lib.c ****              NETCONNTYPE_GROUP(netconn_type(conn)) == NETCONN_TCP, return ERR_ARG;);
 786:Middlewares/Third_Party/LwIP/src/api/api_lib.c **** 
 787:Middlewares/Third_Party/LwIP/src/api/api_lib.c ****   return netconn_recv_data_tcp(conn, new_buf, 0);
 1817              		.loc 1 787 10 is_stmt 1
 1818 0030 0022     		movs	r2, #0
 1819 0032 3968     		ldr	r1, [r7]
 1820 0034 7868     		ldr	r0, [r7, #4]
 1821 0036 FFF7FEFF 		bl	netconn_recv_data_tcp
 1822 003a 0346     		mov	r3, r0
 1823              	.L133:
 788:Middlewares/Third_Party/LwIP/src/api/api_lib.c **** }
 1824              		.loc 1 788 1
 1825 003c 1846     		mov	r0, r3
 1826 003e 0837     		adds	r7, r7, #8
 1827              	.LCFI78:
 1828              		.cfi_def_cfa_offset 8
 1829 0040 BD46     		mov	sp, r7
 1830              	.LCFI79:
 1831              		.cfi_def_cfa_register 13
 1832              		@ sp needed
 1833 0042 80BD     		pop	{r7, pc}
 1834              	.L135:
 1835              		.align	2
 1836              	.L134:
 1837 0044 00000000 		.word	.LC0
 1838 0048 5C020000 		.word	.LC19
 1839 004c 54000000 		.word	.LC2
 1840              		.cfi_endproc
 1841              	.LFE152:
 1843              		.section	.text.netconn_recv_tcp_pbuf_flags,"ax",%progbits
 1844              		.align	1
ARM GAS  /tmp/cckDOVNo.s 			page 48


 1845              		.global	netconn_recv_tcp_pbuf_flags
 1846              		.syntax unified
 1847              		.thumb
 1848              		.thumb_func
 1849              		.fpu fpv4-sp-d16
 1851              	netconn_recv_tcp_pbuf_flags:
 1852              	.LFB153:
 789:Middlewares/Third_Party/LwIP/src/api/api_lib.c **** 
 790:Middlewares/Third_Party/LwIP/src/api/api_lib.c **** /**
 791:Middlewares/Third_Party/LwIP/src/api/api_lib.c ****  * @ingroup netconn_tcp
 792:Middlewares/Third_Party/LwIP/src/api/api_lib.c ****  * Receive data (in form of a pbuf) from a TCP netconn
 793:Middlewares/Third_Party/LwIP/src/api/api_lib.c ****  *
 794:Middlewares/Third_Party/LwIP/src/api/api_lib.c ****  * @param conn the netconn from which to receive data
 795:Middlewares/Third_Party/LwIP/src/api/api_lib.c ****  * @param new_buf pointer where a new pbuf is stored when received data
 796:Middlewares/Third_Party/LwIP/src/api/api_lib.c ****  * @param apiflags flags that control function behaviour. For now only:
 797:Middlewares/Third_Party/LwIP/src/api/api_lib.c ****  * - NETCONN_DONTBLOCK: only read data that is available now, don't wait for more data
 798:Middlewares/Third_Party/LwIP/src/api/api_lib.c ****  * @return ERR_OK if data has been received, an error code otherwise (timeout,
 799:Middlewares/Third_Party/LwIP/src/api/api_lib.c ****  *                memory error or another error, @see netconn_recv_data)
 800:Middlewares/Third_Party/LwIP/src/api/api_lib.c ****  *         ERR_ARG if conn is not a TCP netconn
 801:Middlewares/Third_Party/LwIP/src/api/api_lib.c ****  */
 802:Middlewares/Third_Party/LwIP/src/api/api_lib.c **** err_t
 803:Middlewares/Third_Party/LwIP/src/api/api_lib.c **** netconn_recv_tcp_pbuf_flags(struct netconn *conn, struct pbuf **new_buf, u8_t apiflags)
 804:Middlewares/Third_Party/LwIP/src/api/api_lib.c **** {
 1853              		.loc 1 804 1
 1854              		.cfi_startproc
 1855              		@ args = 0, pretend = 0, frame = 16
 1856              		@ frame_needed = 1, uses_anonymous_args = 0
 1857 0000 80B5     		push	{r7, lr}
 1858              	.LCFI80:
 1859              		.cfi_def_cfa_offset 8
 1860              		.cfi_offset 7, -8
 1861              		.cfi_offset 14, -4
 1862 0002 84B0     		sub	sp, sp, #16
 1863              	.LCFI81:
 1864              		.cfi_def_cfa_offset 24
 1865 0004 00AF     		add	r7, sp, #0
 1866              	.LCFI82:
 1867              		.cfi_def_cfa_register 7
 1868 0006 F860     		str	r0, [r7, #12]
 1869 0008 B960     		str	r1, [r7, #8]
 1870 000a 1346     		mov	r3, r2
 1871 000c FB71     		strb	r3, [r7, #7]
 805:Middlewares/Third_Party/LwIP/src/api/api_lib.c ****   LWIP_ERROR("netconn_recv_tcp_pbuf: invalid conn", (conn != NULL) &&
 1872              		.loc 1 805 3
 1873 000e FB68     		ldr	r3, [r7, #12]
 1874 0010 002B     		cmp	r3, #0
 1875 0012 05D0     		beq	.L137
 1876              		.loc 1 805 3 is_stmt 0 discriminator 2
 1877 0014 FB68     		ldr	r3, [r7, #12]
 1878 0016 1B78     		ldrb	r3, [r3]	@ zero_extendqisi2
 1879 0018 03F0F003 		and	r3, r3, #240
 1880 001c 102B     		cmp	r3, #16
 1881 001e 09D0     		beq	.L138
 1882              	.L137:
 1883              		.loc 1 805 3 discriminator 3
 1884 0020 0A4B     		ldr	r3, .L140
 1885 0022 40F22632 		movw	r2, #806
ARM GAS  /tmp/cckDOVNo.s 			page 49


 1886 0026 0A49     		ldr	r1, .L140+4
 1887 0028 0A48     		ldr	r0, .L140+8
 1888 002a FFF7FEFF 		bl	printf
 1889 002e 6FF00F03 		mvn	r3, #15
 1890 0032 06E0     		b	.L139
 1891              	.L138:
 806:Middlewares/Third_Party/LwIP/src/api/api_lib.c ****              NETCONNTYPE_GROUP(netconn_type(conn)) == NETCONN_TCP, return ERR_ARG;);
 807:Middlewares/Third_Party/LwIP/src/api/api_lib.c **** 
 808:Middlewares/Third_Party/LwIP/src/api/api_lib.c ****   return netconn_recv_data_tcp(conn, new_buf, apiflags);
 1892              		.loc 1 808 10 is_stmt 1
 1893 0034 FB79     		ldrb	r3, [r7, #7]	@ zero_extendqisi2
 1894 0036 1A46     		mov	r2, r3
 1895 0038 B968     		ldr	r1, [r7, #8]
 1896 003a F868     		ldr	r0, [r7, #12]
 1897 003c FFF7FEFF 		bl	netconn_recv_data_tcp
 1898 0040 0346     		mov	r3, r0
 1899              	.L139:
 809:Middlewares/Third_Party/LwIP/src/api/api_lib.c **** }
 1900              		.loc 1 809 1
 1901 0042 1846     		mov	r0, r3
 1902 0044 1037     		adds	r7, r7, #16
 1903              	.LCFI83:
 1904              		.cfi_def_cfa_offset 8
 1905 0046 BD46     		mov	sp, r7
 1906              	.LCFI84:
 1907              		.cfi_def_cfa_register 13
 1908              		@ sp needed
 1909 0048 80BD     		pop	{r7, pc}
 1910              	.L141:
 1911 004a 00BF     		.align	2
 1912              	.L140:
 1913 004c 00000000 		.word	.LC0
 1914 0050 5C020000 		.word	.LC19
 1915 0054 54000000 		.word	.LC2
 1916              		.cfi_endproc
 1917              	.LFE153:
 1919              		.section	.rodata
 1920              		.align	2
 1921              	.LC20:
 1922 0280 6E657463 		.ascii	"netconn_recv_udp_raw_netbuf: invalid conn\000"
 1922      6F6E6E5F 
 1922      72656376 
 1922      5F756470 
 1922      5F726177 
 1923              		.section	.text.netconn_recv_udp_raw_netbuf,"ax",%progbits
 1924              		.align	1
 1925              		.global	netconn_recv_udp_raw_netbuf
 1926              		.syntax unified
 1927              		.thumb
 1928              		.thumb_func
 1929              		.fpu fpv4-sp-d16
 1931              	netconn_recv_udp_raw_netbuf:
 1932              	.LFB154:
 810:Middlewares/Third_Party/LwIP/src/api/api_lib.c **** #endif /* LWIP_TCP */
 811:Middlewares/Third_Party/LwIP/src/api/api_lib.c **** 
 812:Middlewares/Third_Party/LwIP/src/api/api_lib.c **** /**
 813:Middlewares/Third_Party/LwIP/src/api/api_lib.c ****  * Receive data (in form of a netbuf) from a UDP or RAW netconn
ARM GAS  /tmp/cckDOVNo.s 			page 50


 814:Middlewares/Third_Party/LwIP/src/api/api_lib.c ****  *
 815:Middlewares/Third_Party/LwIP/src/api/api_lib.c ****  * @param conn the netconn from which to receive data
 816:Middlewares/Third_Party/LwIP/src/api/api_lib.c ****  * @param new_buf pointer where a new netbuf is stored when received data
 817:Middlewares/Third_Party/LwIP/src/api/api_lib.c ****  * @return ERR_OK if data has been received, an error code otherwise (timeout,
 818:Middlewares/Third_Party/LwIP/src/api/api_lib.c ****  *                memory error or another error)
 819:Middlewares/Third_Party/LwIP/src/api/api_lib.c ****  *         ERR_ARG if conn is not a UDP/RAW netconn
 820:Middlewares/Third_Party/LwIP/src/api/api_lib.c ****  */
 821:Middlewares/Third_Party/LwIP/src/api/api_lib.c **** err_t
 822:Middlewares/Third_Party/LwIP/src/api/api_lib.c **** netconn_recv_udp_raw_netbuf(struct netconn *conn, struct netbuf **new_buf)
 823:Middlewares/Third_Party/LwIP/src/api/api_lib.c **** {
 1933              		.loc 1 823 1
 1934              		.cfi_startproc
 1935              		@ args = 0, pretend = 0, frame = 8
 1936              		@ frame_needed = 1, uses_anonymous_args = 0
 1937 0000 80B5     		push	{r7, lr}
 1938              	.LCFI85:
 1939              		.cfi_def_cfa_offset 8
 1940              		.cfi_offset 7, -8
 1941              		.cfi_offset 14, -4
 1942 0002 82B0     		sub	sp, sp, #8
 1943              	.LCFI86:
 1944              		.cfi_def_cfa_offset 16
 1945 0004 00AF     		add	r7, sp, #0
 1946              	.LCFI87:
 1947              		.cfi_def_cfa_register 7
 1948 0006 7860     		str	r0, [r7, #4]
 1949 0008 3960     		str	r1, [r7]
 824:Middlewares/Third_Party/LwIP/src/api/api_lib.c ****   LWIP_ERROR("netconn_recv_udp_raw_netbuf: invalid conn", (conn != NULL) &&
 1950              		.loc 1 824 3
 1951 000a 7B68     		ldr	r3, [r7, #4]
 1952 000c 002B     		cmp	r3, #0
 1953 000e 05D0     		beq	.L143
 1954              		.loc 1 824 3 is_stmt 0 discriminator 2
 1955 0010 7B68     		ldr	r3, [r7, #4]
 1956 0012 1B78     		ldrb	r3, [r3]	@ zero_extendqisi2
 1957 0014 03F0F003 		and	r3, r3, #240
 1958 0018 102B     		cmp	r3, #16
 1959 001a 09D1     		bne	.L144
 1960              	.L143:
 1961              		.loc 1 824 3 discriminator 3
 1962 001c 094B     		ldr	r3, .L146
 1963 001e 40F23932 		movw	r2, #825
 1964 0022 0949     		ldr	r1, .L146+4
 1965 0024 0948     		ldr	r0, .L146+8
 1966 0026 FFF7FEFF 		bl	printf
 1967 002a 6FF00F03 		mvn	r3, #15
 1968 002e 05E0     		b	.L145
 1969              	.L144:
 825:Middlewares/Third_Party/LwIP/src/api/api_lib.c ****              NETCONNTYPE_GROUP(netconn_type(conn)) != NETCONN_TCP, return ERR_ARG;);
 826:Middlewares/Third_Party/LwIP/src/api/api_lib.c **** 
 827:Middlewares/Third_Party/LwIP/src/api/api_lib.c ****   return netconn_recv_data(conn, (void **)new_buf, 0);
 1970              		.loc 1 827 10 is_stmt 1
 1971 0030 0022     		movs	r2, #0
 1972 0032 3968     		ldr	r1, [r7]
 1973 0034 7868     		ldr	r0, [r7, #4]
 1974 0036 FFF7FEFF 		bl	netconn_recv_data
 1975 003a 0346     		mov	r3, r0
ARM GAS  /tmp/cckDOVNo.s 			page 51


 1976              	.L145:
 828:Middlewares/Third_Party/LwIP/src/api/api_lib.c **** }
 1977              		.loc 1 828 1
 1978 003c 1846     		mov	r0, r3
 1979 003e 0837     		adds	r7, r7, #8
 1980              	.LCFI88:
 1981              		.cfi_def_cfa_offset 8
 1982 0040 BD46     		mov	sp, r7
 1983              	.LCFI89:
 1984              		.cfi_def_cfa_register 13
 1985              		@ sp needed
 1986 0042 80BD     		pop	{r7, pc}
 1987              	.L147:
 1988              		.align	2
 1989              	.L146:
 1990 0044 00000000 		.word	.LC0
 1991 0048 80020000 		.word	.LC20
 1992 004c 54000000 		.word	.LC2
 1993              		.cfi_endproc
 1994              	.LFE154:
 1996              		.section	.text.netconn_recv_udp_raw_netbuf_flags,"ax",%progbits
 1997              		.align	1
 1998              		.global	netconn_recv_udp_raw_netbuf_flags
 1999              		.syntax unified
 2000              		.thumb
 2001              		.thumb_func
 2002              		.fpu fpv4-sp-d16
 2004              	netconn_recv_udp_raw_netbuf_flags:
 2005              	.LFB155:
 829:Middlewares/Third_Party/LwIP/src/api/api_lib.c **** 
 830:Middlewares/Third_Party/LwIP/src/api/api_lib.c **** /**
 831:Middlewares/Third_Party/LwIP/src/api/api_lib.c ****  * Receive data (in form of a netbuf) from a UDP or RAW netconn
 832:Middlewares/Third_Party/LwIP/src/api/api_lib.c ****  *
 833:Middlewares/Third_Party/LwIP/src/api/api_lib.c ****  * @param conn the netconn from which to receive data
 834:Middlewares/Third_Party/LwIP/src/api/api_lib.c ****  * @param new_buf pointer where a new netbuf is stored when received data
 835:Middlewares/Third_Party/LwIP/src/api/api_lib.c ****  * @param apiflags flags that control function behaviour. For now only:
 836:Middlewares/Third_Party/LwIP/src/api/api_lib.c ****  * - NETCONN_DONTBLOCK: only read data that is available now, don't wait for more data
 837:Middlewares/Third_Party/LwIP/src/api/api_lib.c ****  * @return ERR_OK if data has been received, an error code otherwise (timeout,
 838:Middlewares/Third_Party/LwIP/src/api/api_lib.c ****  *                memory error or another error)
 839:Middlewares/Third_Party/LwIP/src/api/api_lib.c ****  *         ERR_ARG if conn is not a UDP/RAW netconn
 840:Middlewares/Third_Party/LwIP/src/api/api_lib.c ****  */
 841:Middlewares/Third_Party/LwIP/src/api/api_lib.c **** err_t
 842:Middlewares/Third_Party/LwIP/src/api/api_lib.c **** netconn_recv_udp_raw_netbuf_flags(struct netconn *conn, struct netbuf **new_buf, u8_t apiflags)
 843:Middlewares/Third_Party/LwIP/src/api/api_lib.c **** {
 2006              		.loc 1 843 1
 2007              		.cfi_startproc
 2008              		@ args = 0, pretend = 0, frame = 16
 2009              		@ frame_needed = 1, uses_anonymous_args = 0
 2010 0000 80B5     		push	{r7, lr}
 2011              	.LCFI90:
 2012              		.cfi_def_cfa_offset 8
 2013              		.cfi_offset 7, -8
 2014              		.cfi_offset 14, -4
 2015 0002 84B0     		sub	sp, sp, #16
 2016              	.LCFI91:
 2017              		.cfi_def_cfa_offset 24
 2018 0004 00AF     		add	r7, sp, #0
ARM GAS  /tmp/cckDOVNo.s 			page 52


 2019              	.LCFI92:
 2020              		.cfi_def_cfa_register 7
 2021 0006 F860     		str	r0, [r7, #12]
 2022 0008 B960     		str	r1, [r7, #8]
 2023 000a 1346     		mov	r3, r2
 2024 000c FB71     		strb	r3, [r7, #7]
 844:Middlewares/Third_Party/LwIP/src/api/api_lib.c ****   LWIP_ERROR("netconn_recv_udp_raw_netbuf: invalid conn", (conn != NULL) &&
 2025              		.loc 1 844 3
 2026 000e FB68     		ldr	r3, [r7, #12]
 2027 0010 002B     		cmp	r3, #0
 2028 0012 05D0     		beq	.L149
 2029              		.loc 1 844 3 is_stmt 0 discriminator 2
 2030 0014 FB68     		ldr	r3, [r7, #12]
 2031 0016 1B78     		ldrb	r3, [r3]	@ zero_extendqisi2
 2032 0018 03F0F003 		and	r3, r3, #240
 2033 001c 102B     		cmp	r3, #16
 2034 001e 09D1     		bne	.L150
 2035              	.L149:
 2036              		.loc 1 844 3 discriminator 3
 2037 0020 0A4B     		ldr	r3, .L152
 2038 0022 40F24D32 		movw	r2, #845
 2039 0026 0A49     		ldr	r1, .L152+4
 2040 0028 0A48     		ldr	r0, .L152+8
 2041 002a FFF7FEFF 		bl	printf
 2042 002e 6FF00F03 		mvn	r3, #15
 2043 0032 06E0     		b	.L151
 2044              	.L150:
 845:Middlewares/Third_Party/LwIP/src/api/api_lib.c ****              NETCONNTYPE_GROUP(netconn_type(conn)) != NETCONN_TCP, return ERR_ARG;);
 846:Middlewares/Third_Party/LwIP/src/api/api_lib.c **** 
 847:Middlewares/Third_Party/LwIP/src/api/api_lib.c ****   return netconn_recv_data(conn, (void **)new_buf, apiflags);
 2045              		.loc 1 847 10 is_stmt 1
 2046 0034 FB79     		ldrb	r3, [r7, #7]	@ zero_extendqisi2
 2047 0036 1A46     		mov	r2, r3
 2048 0038 B968     		ldr	r1, [r7, #8]
 2049 003a F868     		ldr	r0, [r7, #12]
 2050 003c FFF7FEFF 		bl	netconn_recv_data
 2051 0040 0346     		mov	r3, r0
 2052              	.L151:
 848:Middlewares/Third_Party/LwIP/src/api/api_lib.c **** }
 2053              		.loc 1 848 1
 2054 0042 1846     		mov	r0, r3
 2055 0044 1037     		adds	r7, r7, #16
 2056              	.LCFI93:
 2057              		.cfi_def_cfa_offset 8
 2058 0046 BD46     		mov	sp, r7
 2059              	.LCFI94:
 2060              		.cfi_def_cfa_register 13
 2061              		@ sp needed
 2062 0048 80BD     		pop	{r7, pc}
 2063              	.L153:
 2064 004a 00BF     		.align	2
 2065              	.L152:
 2066 004c 00000000 		.word	.LC0
 2067 0050 80020000 		.word	.LC20
 2068 0054 54000000 		.word	.LC2
 2069              		.cfi_endproc
 2070              	.LFE155:
ARM GAS  /tmp/cckDOVNo.s 			page 53


 2072              		.section	.rodata
 2073 02aa 0000     		.align	2
 2074              	.LC21:
 2075 02ac 7020213D 		.ascii	"p != NULL\000"
 2075      204E554C 
 2075      4C00
 2076              		.section	.text.netconn_recv,"ax",%progbits
 2077              		.align	1
 2078              		.global	netconn_recv
 2079              		.syntax unified
 2080              		.thumb
 2081              		.thumb_func
 2082              		.fpu fpv4-sp-d16
 2084              	netconn_recv:
 2085              	.LFB156:
 849:Middlewares/Third_Party/LwIP/src/api/api_lib.c **** 
 850:Middlewares/Third_Party/LwIP/src/api/api_lib.c **** /**
 851:Middlewares/Third_Party/LwIP/src/api/api_lib.c ****  * @ingroup netconn_common
 852:Middlewares/Third_Party/LwIP/src/api/api_lib.c ****  * Receive data (in form of a netbuf containing a packet buffer) from a netconn
 853:Middlewares/Third_Party/LwIP/src/api/api_lib.c ****  *
 854:Middlewares/Third_Party/LwIP/src/api/api_lib.c ****  * @param conn the netconn from which to receive data
 855:Middlewares/Third_Party/LwIP/src/api/api_lib.c ****  * @param new_buf pointer where a new netbuf is stored when received data
 856:Middlewares/Third_Party/LwIP/src/api/api_lib.c ****  * @return ERR_OK if data has been received, an error code otherwise (timeout,
 857:Middlewares/Third_Party/LwIP/src/api/api_lib.c ****  *                memory error or another error)
 858:Middlewares/Third_Party/LwIP/src/api/api_lib.c ****  */
 859:Middlewares/Third_Party/LwIP/src/api/api_lib.c **** err_t
 860:Middlewares/Third_Party/LwIP/src/api/api_lib.c **** netconn_recv(struct netconn *conn, struct netbuf **new_buf)
 861:Middlewares/Third_Party/LwIP/src/api/api_lib.c **** {
 2086              		.loc 1 861 1
 2087              		.cfi_startproc
 2088              		@ args = 0, pretend = 0, frame = 24
 2089              		@ frame_needed = 1, uses_anonymous_args = 0
 2090 0000 80B5     		push	{r7, lr}
 2091              	.LCFI95:
 2092              		.cfi_def_cfa_offset 8
 2093              		.cfi_offset 7, -8
 2094              		.cfi_offset 14, -4
 2095 0002 86B0     		sub	sp, sp, #24
 2096              	.LCFI96:
 2097              		.cfi_def_cfa_offset 32
 2098 0004 00AF     		add	r7, sp, #0
 2099              	.LCFI97:
 2100              		.cfi_def_cfa_register 7
 2101 0006 7860     		str	r0, [r7, #4]
 2102 0008 3960     		str	r1, [r7]
 862:Middlewares/Third_Party/LwIP/src/api/api_lib.c **** #if LWIP_TCP
 863:Middlewares/Third_Party/LwIP/src/api/api_lib.c ****   struct netbuf *buf = NULL;
 2103              		.loc 1 863 18
 2104 000a 0023     		movs	r3, #0
 2105 000c 7B61     		str	r3, [r7, #20]
 864:Middlewares/Third_Party/LwIP/src/api/api_lib.c ****   err_t err;
 865:Middlewares/Third_Party/LwIP/src/api/api_lib.c **** #endif /* LWIP_TCP */
 866:Middlewares/Third_Party/LwIP/src/api/api_lib.c **** 
 867:Middlewares/Third_Party/LwIP/src/api/api_lib.c ****   LWIP_ERROR("netconn_recv: invalid pointer", (new_buf != NULL), return ERR_ARG;);
 2106              		.loc 1 867 3
 2107 000e 3B68     		ldr	r3, [r7]
 2108 0010 002B     		cmp	r3, #0
ARM GAS  /tmp/cckDOVNo.s 			page 54


 2109 0012 09D1     		bne	.L155
 2110              		.loc 1 867 3 is_stmt 0 discriminator 1
 2111 0014 324B     		ldr	r3, .L163
 2112 0016 40F26332 		movw	r2, #867
 2113 001a 3249     		ldr	r1, .L163+4
 2114 001c 3248     		ldr	r0, .L163+8
 2115 001e FFF7FEFF 		bl	printf
 2116 0022 6FF00F03 		mvn	r3, #15
 2117 0026 56E0     		b	.L156
 2118              	.L155:
 868:Middlewares/Third_Party/LwIP/src/api/api_lib.c ****   *new_buf = NULL;
 2119              		.loc 1 868 12 is_stmt 1
 2120 0028 3B68     		ldr	r3, [r7]
 2121 002a 0022     		movs	r2, #0
 2122 002c 1A60     		str	r2, [r3]
 869:Middlewares/Third_Party/LwIP/src/api/api_lib.c ****   LWIP_ERROR("netconn_recv: invalid conn",    (conn != NULL),    return ERR_ARG;);
 2123              		.loc 1 869 3
 2124 002e 7B68     		ldr	r3, [r7, #4]
 2125 0030 002B     		cmp	r3, #0
 2126 0032 09D1     		bne	.L157
 2127              		.loc 1 869 3 is_stmt 0 discriminator 1
 2128 0034 2A4B     		ldr	r3, .L163
 2129 0036 40F26532 		movw	r2, #869
 2130 003a 2C49     		ldr	r1, .L163+12
 2131 003c 2A48     		ldr	r0, .L163+8
 2132 003e FFF7FEFF 		bl	printf
 2133 0042 6FF00F03 		mvn	r3, #15
 2134 0046 46E0     		b	.L156
 2135              	.L157:
 870:Middlewares/Third_Party/LwIP/src/api/api_lib.c **** 
 871:Middlewares/Third_Party/LwIP/src/api/api_lib.c **** #if LWIP_TCP
 872:Middlewares/Third_Party/LwIP/src/api/api_lib.c **** #if (LWIP_UDP || LWIP_RAW)
 873:Middlewares/Third_Party/LwIP/src/api/api_lib.c ****   if (NETCONNTYPE_GROUP(conn->type) == NETCONN_TCP)
 2136              		.loc 1 873 7 is_stmt 1
 2137 0048 7B68     		ldr	r3, [r7, #4]
 2138 004a 1B78     		ldrb	r3, [r3]	@ zero_extendqisi2
 2139 004c 03F0F003 		and	r3, r3, #240
 2140              		.loc 1 873 6
 2141 0050 102B     		cmp	r3, #16
 2142 0052 3AD1     		bne	.L158
 2143              	.LBB7:
 874:Middlewares/Third_Party/LwIP/src/api/api_lib.c **** #endif /* (LWIP_UDP || LWIP_RAW) */
 875:Middlewares/Third_Party/LwIP/src/api/api_lib.c ****   {
 876:Middlewares/Third_Party/LwIP/src/api/api_lib.c ****     struct pbuf *p = NULL;
 2144              		.loc 1 876 18
 2145 0054 0023     		movs	r3, #0
 2146 0056 FB60     		str	r3, [r7, #12]
 877:Middlewares/Third_Party/LwIP/src/api/api_lib.c ****     /* This is not a listening netconn, since recvmbox is set */
 878:Middlewares/Third_Party/LwIP/src/api/api_lib.c **** 
 879:Middlewares/Third_Party/LwIP/src/api/api_lib.c ****     buf = (struct netbuf *)memp_malloc(MEMP_NETBUF);
 2147              		.loc 1 879 28
 2148 0058 0620     		movs	r0, #6
 2149 005a FFF7FEFF 		bl	memp_malloc
 2150 005e 7861     		str	r0, [r7, #20]
 880:Middlewares/Third_Party/LwIP/src/api/api_lib.c ****     if (buf == NULL) {
 2151              		.loc 1 880 8
 2152 0060 7B69     		ldr	r3, [r7, #20]
ARM GAS  /tmp/cckDOVNo.s 			page 55


 2153 0062 002B     		cmp	r3, #0
 2154 0064 02D1     		bne	.L159
 881:Middlewares/Third_Party/LwIP/src/api/api_lib.c ****       return ERR_MEM;
 2155              		.loc 1 881 14
 2156 0066 4FF0FF33 		mov	r3, #-1
 2157 006a 34E0     		b	.L156
 2158              	.L159:
 882:Middlewares/Third_Party/LwIP/src/api/api_lib.c ****     }
 883:Middlewares/Third_Party/LwIP/src/api/api_lib.c **** 
 884:Middlewares/Third_Party/LwIP/src/api/api_lib.c ****     err = netconn_recv_data_tcp(conn, &p, 0);
 2159              		.loc 1 884 11
 2160 006c 07F10C03 		add	r3, r7, #12
 2161 0070 0022     		movs	r2, #0
 2162 0072 1946     		mov	r1, r3
 2163 0074 7868     		ldr	r0, [r7, #4]
 2164 0076 FFF7FEFF 		bl	netconn_recv_data_tcp
 2165 007a 0346     		mov	r3, r0
 2166 007c FB74     		strb	r3, [r7, #19]
 885:Middlewares/Third_Party/LwIP/src/api/api_lib.c ****     if (err != ERR_OK) {
 2167              		.loc 1 885 8
 2168 007e 97F91330 		ldrsb	r3, [r7, #19]
 2169 0082 002B     		cmp	r3, #0
 2170 0084 06D0     		beq	.L161
 886:Middlewares/Third_Party/LwIP/src/api/api_lib.c ****       memp_free(MEMP_NETBUF, buf);
 2171              		.loc 1 886 7
 2172 0086 7969     		ldr	r1, [r7, #20]
 2173 0088 0620     		movs	r0, #6
 2174 008a FFF7FEFF 		bl	memp_free
 887:Middlewares/Third_Party/LwIP/src/api/api_lib.c ****       return err;
 2175              		.loc 1 887 14
 2176 008e 97F91330 		ldrsb	r3, [r7, #19]
 2177 0092 20E0     		b	.L156
 2178              	.L161:
 888:Middlewares/Third_Party/LwIP/src/api/api_lib.c ****     }
 889:Middlewares/Third_Party/LwIP/src/api/api_lib.c ****     LWIP_ASSERT("p != NULL", p != NULL);
 2179              		.loc 1 889 5
 2180 0094 FB68     		ldr	r3, [r7, #12]
 2181 0096 002B     		cmp	r3, #0
 2182 0098 06D1     		bne	.L162
 2183              		.loc 1 889 5 is_stmt 0 discriminator 1
 2184 009a 114B     		ldr	r3, .L163
 2185 009c 40F27932 		movw	r2, #889
 2186 00a0 1349     		ldr	r1, .L163+16
 2187 00a2 1148     		ldr	r0, .L163+8
 2188 00a4 FFF7FEFF 		bl	printf
 2189              	.L162:
 890:Middlewares/Third_Party/LwIP/src/api/api_lib.c **** 
 891:Middlewares/Third_Party/LwIP/src/api/api_lib.c ****     buf->p = p;
 2190              		.loc 1 891 12 is_stmt 1
 2191 00a8 FA68     		ldr	r2, [r7, #12]
 2192 00aa 7B69     		ldr	r3, [r7, #20]
 2193 00ac 1A60     		str	r2, [r3]
 892:Middlewares/Third_Party/LwIP/src/api/api_lib.c ****     buf->ptr = p;
 2194              		.loc 1 892 14
 2195 00ae FA68     		ldr	r2, [r7, #12]
 2196 00b0 7B69     		ldr	r3, [r7, #20]
 2197 00b2 5A60     		str	r2, [r3, #4]
ARM GAS  /tmp/cckDOVNo.s 			page 56


 893:Middlewares/Third_Party/LwIP/src/api/api_lib.c ****     buf->port = 0;
 2198              		.loc 1 893 15
 2199 00b4 7B69     		ldr	r3, [r7, #20]
 2200 00b6 0022     		movs	r2, #0
 2201 00b8 9A81     		strh	r2, [r3, #12]	@ movhi
 894:Middlewares/Third_Party/LwIP/src/api/api_lib.c ****     ip_addr_set_zero(&buf->addr);
 2202              		.loc 1 894 5
 2203 00ba 7B69     		ldr	r3, [r7, #20]
 2204 00bc 0022     		movs	r2, #0
 2205 00be 9A60     		str	r2, [r3, #8]
 895:Middlewares/Third_Party/LwIP/src/api/api_lib.c ****     *new_buf = buf;
 2206              		.loc 1 895 14
 2207 00c0 3B68     		ldr	r3, [r7]
 2208 00c2 7A69     		ldr	r2, [r7, #20]
 2209 00c4 1A60     		str	r2, [r3]
 896:Middlewares/Third_Party/LwIP/src/api/api_lib.c ****     /* don't set conn->last_err: it's only ERR_OK, anyway */
 897:Middlewares/Third_Party/LwIP/src/api/api_lib.c ****     return ERR_OK;
 2210              		.loc 1 897 12
 2211 00c6 0023     		movs	r3, #0
 2212 00c8 05E0     		b	.L156
 2213              	.L158:
 2214              	.LBE7:
 898:Middlewares/Third_Party/LwIP/src/api/api_lib.c ****   }
 899:Middlewares/Third_Party/LwIP/src/api/api_lib.c **** #endif /* LWIP_TCP */
 900:Middlewares/Third_Party/LwIP/src/api/api_lib.c **** #if LWIP_TCP && (LWIP_UDP || LWIP_RAW)
 901:Middlewares/Third_Party/LwIP/src/api/api_lib.c ****   else
 902:Middlewares/Third_Party/LwIP/src/api/api_lib.c **** #endif /* LWIP_TCP && (LWIP_UDP || LWIP_RAW) */
 903:Middlewares/Third_Party/LwIP/src/api/api_lib.c ****   {
 904:Middlewares/Third_Party/LwIP/src/api/api_lib.c **** #if (LWIP_UDP || LWIP_RAW)
 905:Middlewares/Third_Party/LwIP/src/api/api_lib.c ****     return netconn_recv_data(conn, (void **)new_buf, 0);
 2215              		.loc 1 905 12
 2216 00ca 0022     		movs	r2, #0
 2217 00cc 3968     		ldr	r1, [r7]
 2218 00ce 7868     		ldr	r0, [r7, #4]
 2219 00d0 FFF7FEFF 		bl	netconn_recv_data
 2220 00d4 0346     		mov	r3, r0
 2221              	.L156:
 906:Middlewares/Third_Party/LwIP/src/api/api_lib.c **** #endif /* (LWIP_UDP || LWIP_RAW) */
 907:Middlewares/Third_Party/LwIP/src/api/api_lib.c ****   }
 908:Middlewares/Third_Party/LwIP/src/api/api_lib.c **** }
 2222              		.loc 1 908 1 discriminator 1
 2223 00d6 1846     		mov	r0, r3
 2224 00d8 1837     		adds	r7, r7, #24
 2225              	.LCFI98:
 2226              		.cfi_def_cfa_offset 8
 2227 00da BD46     		mov	sp, r7
 2228              	.LCFI99:
 2229              		.cfi_def_cfa_register 13
 2230              		@ sp needed
 2231 00dc 80BD     		pop	{r7, pc}
 2232              	.L164:
 2233 00de 00BF     		.align	2
 2234              	.L163:
 2235 00e0 00000000 		.word	.LC0
 2236 00e4 14020000 		.word	.LC16
 2237 00e8 54000000 		.word	.LC2
 2238 00ec 34020000 		.word	.LC17
ARM GAS  /tmp/cckDOVNo.s 			page 57


 2239 00f0 AC020000 		.word	.LC21
 2240              		.cfi_endproc
 2241              	.LFE156:
 2243              		.section	.text.netconn_sendto,"ax",%progbits
 2244              		.align	1
 2245              		.global	netconn_sendto
 2246              		.syntax unified
 2247              		.thumb
 2248              		.thumb_func
 2249              		.fpu fpv4-sp-d16
 2251              	netconn_sendto:
 2252              	.LFB157:
 909:Middlewares/Third_Party/LwIP/src/api/api_lib.c **** 
 910:Middlewares/Third_Party/LwIP/src/api/api_lib.c **** /**
 911:Middlewares/Third_Party/LwIP/src/api/api_lib.c ****  * @ingroup netconn_udp
 912:Middlewares/Third_Party/LwIP/src/api/api_lib.c ****  * Send data (in form of a netbuf) to a specific remote IP address and port.
 913:Middlewares/Third_Party/LwIP/src/api/api_lib.c ****  * Only to be used for UDP and RAW netconns (not TCP).
 914:Middlewares/Third_Party/LwIP/src/api/api_lib.c ****  *
 915:Middlewares/Third_Party/LwIP/src/api/api_lib.c ****  * @param conn the netconn over which to send data
 916:Middlewares/Third_Party/LwIP/src/api/api_lib.c ****  * @param buf a netbuf containing the data to send
 917:Middlewares/Third_Party/LwIP/src/api/api_lib.c ****  * @param addr the remote IP address to which to send the data
 918:Middlewares/Third_Party/LwIP/src/api/api_lib.c ****  * @param port the remote port to which to send the data
 919:Middlewares/Third_Party/LwIP/src/api/api_lib.c ****  * @return ERR_OK if data was sent, any other err_t on error
 920:Middlewares/Third_Party/LwIP/src/api/api_lib.c ****  */
 921:Middlewares/Third_Party/LwIP/src/api/api_lib.c **** err_t
 922:Middlewares/Third_Party/LwIP/src/api/api_lib.c **** netconn_sendto(struct netconn *conn, struct netbuf *buf, const ip_addr_t *addr, u16_t port)
 923:Middlewares/Third_Party/LwIP/src/api/api_lib.c **** {
 2253              		.loc 1 923 1
 2254              		.cfi_startproc
 2255              		@ args = 0, pretend = 0, frame = 16
 2256              		@ frame_needed = 1, uses_anonymous_args = 0
 2257 0000 80B5     		push	{r7, lr}
 2258              	.LCFI100:
 2259              		.cfi_def_cfa_offset 8
 2260              		.cfi_offset 7, -8
 2261              		.cfi_offset 14, -4
 2262 0002 84B0     		sub	sp, sp, #16
 2263              	.LCFI101:
 2264              		.cfi_def_cfa_offset 24
 2265 0004 00AF     		add	r7, sp, #0
 2266              	.LCFI102:
 2267              		.cfi_def_cfa_register 7
 2268 0006 F860     		str	r0, [r7, #12]
 2269 0008 B960     		str	r1, [r7, #8]
 2270 000a 7A60     		str	r2, [r7, #4]
 2271 000c 7B80     		strh	r3, [r7, #2]	@ movhi
 924:Middlewares/Third_Party/LwIP/src/api/api_lib.c ****   if (buf != NULL) {
 2272              		.loc 1 924 6
 2273 000e BB68     		ldr	r3, [r7, #8]
 2274 0010 002B     		cmp	r3, #0
 2275 0012 11D0     		beq	.L166
 925:Middlewares/Third_Party/LwIP/src/api/api_lib.c ****     ip_addr_set(&buf->addr, addr);
 2276              		.loc 1 925 5
 2277 0014 7B68     		ldr	r3, [r7, #4]
 2278 0016 002B     		cmp	r3, #0
 2279 0018 02D0     		beq	.L167
 2280              		.loc 1 925 5 is_stmt 0 discriminator 1
ARM GAS  /tmp/cckDOVNo.s 			page 58


 2281 001a 7B68     		ldr	r3, [r7, #4]
 2282 001c 1B68     		ldr	r3, [r3]
 2283 001e 00E0     		b	.L168
 2284              	.L167:
 2285              		.loc 1 925 5 discriminator 2
 2286 0020 0023     		movs	r3, #0
 2287              	.L168:
 2288              		.loc 1 925 5 discriminator 4
 2289 0022 BA68     		ldr	r2, [r7, #8]
 2290 0024 9360     		str	r3, [r2, #8]
 926:Middlewares/Third_Party/LwIP/src/api/api_lib.c ****     buf->port = port;
 2291              		.loc 1 926 15 is_stmt 1 discriminator 4
 2292 0026 BB68     		ldr	r3, [r7, #8]
 2293 0028 7A88     		ldrh	r2, [r7, #2]	@ movhi
 2294 002a 9A81     		strh	r2, [r3, #12]	@ movhi
 927:Middlewares/Third_Party/LwIP/src/api/api_lib.c ****     return netconn_send(conn, buf);
 2295              		.loc 1 927 12 discriminator 4
 2296 002c B968     		ldr	r1, [r7, #8]
 2297 002e F868     		ldr	r0, [r7, #12]
 2298 0030 FFF7FEFF 		bl	netconn_send
 2299 0034 0346     		mov	r3, r0
 2300 0036 01E0     		b	.L169
 2301              	.L166:
 928:Middlewares/Third_Party/LwIP/src/api/api_lib.c ****   }
 929:Middlewares/Third_Party/LwIP/src/api/api_lib.c ****   return ERR_VAL;
 2302              		.loc 1 929 10
 2303 0038 6FF00503 		mvn	r3, #5
 2304              	.L169:
 930:Middlewares/Third_Party/LwIP/src/api/api_lib.c **** }
 2305              		.loc 1 930 1
 2306 003c 1846     		mov	r0, r3
 2307 003e 1037     		adds	r7, r7, #16
 2308              	.LCFI103:
 2309              		.cfi_def_cfa_offset 8
 2310 0040 BD46     		mov	sp, r7
 2311              	.LCFI104:
 2312              		.cfi_def_cfa_register 13
 2313              		@ sp needed
 2314 0042 80BD     		pop	{r7, pc}
 2315              		.cfi_endproc
 2316              	.LFE157:
 2318              		.section	.rodata
 2319 02b6 0000     		.align	2
 2320              	.LC22:
 2321 02b8 6E657463 		.ascii	"netconn_send: invalid conn\000"
 2321      6F6E6E5F 
 2321      73656E64 
 2321      3A20696E 
 2321      76616C69 
 2322              		.section	.text.netconn_send,"ax",%progbits
 2323              		.align	1
 2324              		.global	netconn_send
 2325              		.syntax unified
 2326              		.thumb
 2327              		.thumb_func
 2328              		.fpu fpv4-sp-d16
 2330              	netconn_send:
ARM GAS  /tmp/cckDOVNo.s 			page 59


 2331              	.LFB158:
 931:Middlewares/Third_Party/LwIP/src/api/api_lib.c **** 
 932:Middlewares/Third_Party/LwIP/src/api/api_lib.c **** /**
 933:Middlewares/Third_Party/LwIP/src/api/api_lib.c ****  * @ingroup netconn_udp
 934:Middlewares/Third_Party/LwIP/src/api/api_lib.c ****  * Send data over a UDP or RAW netconn (that is already connected).
 935:Middlewares/Third_Party/LwIP/src/api/api_lib.c ****  *
 936:Middlewares/Third_Party/LwIP/src/api/api_lib.c ****  * @param conn the UDP or RAW netconn over which to send data
 937:Middlewares/Third_Party/LwIP/src/api/api_lib.c ****  * @param buf a netbuf containing the data to send
 938:Middlewares/Third_Party/LwIP/src/api/api_lib.c ****  * @return ERR_OK if data was sent, any other err_t on error
 939:Middlewares/Third_Party/LwIP/src/api/api_lib.c ****  */
 940:Middlewares/Third_Party/LwIP/src/api/api_lib.c **** err_t
 941:Middlewares/Third_Party/LwIP/src/api/api_lib.c **** netconn_send(struct netconn *conn, struct netbuf *buf)
 942:Middlewares/Third_Party/LwIP/src/api/api_lib.c **** {
 2332              		.loc 1 942 1
 2333              		.cfi_startproc
 2334              		@ args = 0, pretend = 0, frame = 48
 2335              		@ frame_needed = 1, uses_anonymous_args = 0
 2336 0000 80B5     		push	{r7, lr}
 2337              	.LCFI105:
 2338              		.cfi_def_cfa_offset 8
 2339              		.cfi_offset 7, -8
 2340              		.cfi_offset 14, -4
 2341 0002 8CB0     		sub	sp, sp, #48
 2342              	.LCFI106:
 2343              		.cfi_def_cfa_offset 56
 2344 0004 00AF     		add	r7, sp, #0
 2345              	.LCFI107:
 2346              		.cfi_def_cfa_register 7
 2347 0006 7860     		str	r0, [r7, #4]
 2348 0008 3960     		str	r1, [r7]
 943:Middlewares/Third_Party/LwIP/src/api/api_lib.c ****   API_MSG_VAR_DECLARE(msg);
 944:Middlewares/Third_Party/LwIP/src/api/api_lib.c ****   err_t err;
 945:Middlewares/Third_Party/LwIP/src/api/api_lib.c **** 
 946:Middlewares/Third_Party/LwIP/src/api/api_lib.c ****   LWIP_ERROR("netconn_send: invalid conn",  (conn != NULL), return ERR_ARG;);
 2349              		.loc 1 946 3
 2350 000a 7B68     		ldr	r3, [r7, #4]
 2351 000c 002B     		cmp	r3, #0
 2352 000e 09D1     		bne	.L171
 2353              		.loc 1 946 3 is_stmt 0 discriminator 1
 2354 0010 0E4B     		ldr	r3, .L174
 2355 0012 40F2B232 		movw	r2, #946
 2356 0016 0E49     		ldr	r1, .L174+4
 2357 0018 0E48     		ldr	r0, .L174+8
 2358 001a FFF7FEFF 		bl	printf
 2359 001e 6FF00F03 		mvn	r3, #15
 2360 0022 0EE0     		b	.L173
 2361              	.L171:
 947:Middlewares/Third_Party/LwIP/src/api/api_lib.c **** 
 948:Middlewares/Third_Party/LwIP/src/api/api_lib.c ****   LWIP_DEBUGF(API_LIB_DEBUG, ("netconn_send: sending %"U16_F" bytes\n", buf->p->tot_len));
 949:Middlewares/Third_Party/LwIP/src/api/api_lib.c **** 
 950:Middlewares/Third_Party/LwIP/src/api/api_lib.c ****   API_MSG_VAR_ALLOC(msg);
 951:Middlewares/Third_Party/LwIP/src/api/api_lib.c ****   API_MSG_VAR_REF(msg).conn = conn;
 2362              		.loc 1 951 29 is_stmt 1
 2363 0024 7B68     		ldr	r3, [r7, #4]
 2364 0026 FB60     		str	r3, [r7, #12]
 952:Middlewares/Third_Party/LwIP/src/api/api_lib.c ****   API_MSG_VAR_REF(msg).msg.b = buf;
 2365              		.loc 1 952 30
ARM GAS  /tmp/cckDOVNo.s 			page 60


 2366 0028 3B68     		ldr	r3, [r7]
 2367 002a 7B61     		str	r3, [r7, #20]
 953:Middlewares/Third_Party/LwIP/src/api/api_lib.c ****   err = netconn_apimsg(lwip_netconn_do_send, &API_MSG_VAR_REF(msg));
 2368              		.loc 1 953 9
 2369 002c 07F10C03 		add	r3, r7, #12
 2370 0030 1946     		mov	r1, r3
 2371 0032 0948     		ldr	r0, .L174+12
 2372 0034 FFF7FEFF 		bl	netconn_apimsg
 2373 0038 0346     		mov	r3, r0
 2374 003a 87F82F30 		strb	r3, [r7, #47]
 954:Middlewares/Third_Party/LwIP/src/api/api_lib.c ****   API_MSG_VAR_FREE(msg);
 955:Middlewares/Third_Party/LwIP/src/api/api_lib.c **** 
 956:Middlewares/Third_Party/LwIP/src/api/api_lib.c ****   return err;
 2375              		.loc 1 956 10
 2376 003e 97F92F30 		ldrsb	r3, [r7, #47]
 2377              	.L173:
 957:Middlewares/Third_Party/LwIP/src/api/api_lib.c **** }
 2378              		.loc 1 957 1 discriminator 1
 2379 0042 1846     		mov	r0, r3
 2380 0044 3037     		adds	r7, r7, #48
 2381              	.LCFI108:
 2382              		.cfi_def_cfa_offset 8
 2383 0046 BD46     		mov	sp, r7
 2384              	.LCFI109:
 2385              		.cfi_def_cfa_register 13
 2386              		@ sp needed
 2387 0048 80BD     		pop	{r7, pc}
 2388              	.L175:
 2389 004a 00BF     		.align	2
 2390              	.L174:
 2391 004c 00000000 		.word	.LC0
 2392 0050 B8020000 		.word	.LC22
 2393 0054 54000000 		.word	.LC2
 2394 0058 00000000 		.word	lwip_netconn_do_send
 2395              		.cfi_endproc
 2396              	.LFE158:
 2398              		.section	.text.netconn_write_partly,"ax",%progbits
 2399              		.align	1
 2400              		.global	netconn_write_partly
 2401              		.syntax unified
 2402              		.thumb
 2403              		.thumb_func
 2404              		.fpu fpv4-sp-d16
 2406              	netconn_write_partly:
 2407              	.LFB159:
 958:Middlewares/Third_Party/LwIP/src/api/api_lib.c **** 
 959:Middlewares/Third_Party/LwIP/src/api/api_lib.c **** /**
 960:Middlewares/Third_Party/LwIP/src/api/api_lib.c ****  * @ingroup netconn_tcp
 961:Middlewares/Third_Party/LwIP/src/api/api_lib.c ****  * Send data over a TCP netconn.
 962:Middlewares/Third_Party/LwIP/src/api/api_lib.c ****  *
 963:Middlewares/Third_Party/LwIP/src/api/api_lib.c ****  * @param conn the TCP netconn over which to send data
 964:Middlewares/Third_Party/LwIP/src/api/api_lib.c ****  * @param dataptr pointer to the application buffer that contains the data to send
 965:Middlewares/Third_Party/LwIP/src/api/api_lib.c ****  * @param size size of the application data to send
 966:Middlewares/Third_Party/LwIP/src/api/api_lib.c ****  * @param apiflags combination of following flags :
 967:Middlewares/Third_Party/LwIP/src/api/api_lib.c ****  * - NETCONN_COPY: data will be copied into memory belonging to the stack
 968:Middlewares/Third_Party/LwIP/src/api/api_lib.c ****  * - NETCONN_MORE: for TCP connection, PSH flag will be set on last segment sent
 969:Middlewares/Third_Party/LwIP/src/api/api_lib.c ****  * - NETCONN_DONTBLOCK: only write the data if all data can be written at once
ARM GAS  /tmp/cckDOVNo.s 			page 61


 970:Middlewares/Third_Party/LwIP/src/api/api_lib.c ****  * @param bytes_written pointer to a location that receives the number of written bytes
 971:Middlewares/Third_Party/LwIP/src/api/api_lib.c ****  * @return ERR_OK if data was sent, any other err_t on error
 972:Middlewares/Third_Party/LwIP/src/api/api_lib.c ****  */
 973:Middlewares/Third_Party/LwIP/src/api/api_lib.c **** err_t
 974:Middlewares/Third_Party/LwIP/src/api/api_lib.c **** netconn_write_partly(struct netconn *conn, const void *dataptr, size_t size,
 975:Middlewares/Third_Party/LwIP/src/api/api_lib.c ****                      u8_t apiflags, size_t *bytes_written)
 976:Middlewares/Third_Party/LwIP/src/api/api_lib.c **** {
 2408              		.loc 1 976 1
 2409              		.cfi_startproc
 2410              		@ args = 4, pretend = 0, frame = 24
 2411              		@ frame_needed = 1, uses_anonymous_args = 0
 2412 0000 80B5     		push	{r7, lr}
 2413              	.LCFI110:
 2414              		.cfi_def_cfa_offset 8
 2415              		.cfi_offset 7, -8
 2416              		.cfi_offset 14, -4
 2417 0002 88B0     		sub	sp, sp, #32
 2418              	.LCFI111:
 2419              		.cfi_def_cfa_offset 40
 2420 0004 02AF     		add	r7, sp, #8
 2421              	.LCFI112:
 2422              		.cfi_def_cfa 7, 32
 2423 0006 F860     		str	r0, [r7, #12]
 2424 0008 B960     		str	r1, [r7, #8]
 2425 000a 7A60     		str	r2, [r7, #4]
 2426 000c FB70     		strb	r3, [r7, #3]
 977:Middlewares/Third_Party/LwIP/src/api/api_lib.c ****   struct netvector vector;
 978:Middlewares/Third_Party/LwIP/src/api/api_lib.c ****   vector.ptr = dataptr;
 2427              		.loc 1 978 14
 2428 000e BB68     		ldr	r3, [r7, #8]
 2429 0010 3B61     		str	r3, [r7, #16]
 979:Middlewares/Third_Party/LwIP/src/api/api_lib.c ****   vector.len = size;
 2430              		.loc 1 979 14
 2431 0012 7B68     		ldr	r3, [r7, #4]
 2432 0014 7B61     		str	r3, [r7, #20]
 980:Middlewares/Third_Party/LwIP/src/api/api_lib.c ****   return netconn_write_vectors_partly(conn, &vector, 1, apiflags, bytes_written);
 2433              		.loc 1 980 10
 2434 0016 FA78     		ldrb	r2, [r7, #3]	@ zero_extendqisi2
 2435 0018 07F11001 		add	r1, r7, #16
 2436 001c 3B6A     		ldr	r3, [r7, #32]
 2437 001e 0093     		str	r3, [sp]
 2438 0020 1346     		mov	r3, r2
 2439 0022 0122     		movs	r2, #1
 2440 0024 F868     		ldr	r0, [r7, #12]
 2441 0026 FFF7FEFF 		bl	netconn_write_vectors_partly
 2442 002a 0346     		mov	r3, r0
 981:Middlewares/Third_Party/LwIP/src/api/api_lib.c **** }
 2443              		.loc 1 981 1
 2444 002c 1846     		mov	r0, r3
 2445 002e 1837     		adds	r7, r7, #24
 2446              	.LCFI113:
 2447              		.cfi_def_cfa_offset 8
 2448 0030 BD46     		mov	sp, r7
 2449              	.LCFI114:
 2450              		.cfi_def_cfa_register 13
 2451              		@ sp needed
 2452 0032 80BD     		pop	{r7, pc}
ARM GAS  /tmp/cckDOVNo.s 			page 62


 2453              		.cfi_endproc
 2454              	.LFE159:
 2456              		.section	.rodata
 2457 02d3 00       		.align	2
 2458              	.LC23:
 2459 02d4 6E657463 		.ascii	"netconn_write: invalid conn\000"
 2459      6F6E6E5F 
 2459      77726974 
 2459      653A2069 
 2459      6E76616C 
 2460              		.align	2
 2461              	.LC24:
 2462 02f0 6E657463 		.ascii	"netconn_write: invalid conn->type\000"
 2462      6F6E6E5F 
 2462      77726974 
 2462      653A2069 
 2462      6E76616C 
 2463 0312 0000     		.align	2
 2464              	.LC25:
 2465 0314 646F5F77 		.ascii	"do_write failed to write all bytes\000"
 2465      72697465 
 2465      20666169 
 2465      6C656420 
 2465      746F2077 
 2466              		.section	.text.netconn_write_vectors_partly,"ax",%progbits
 2467              		.align	1
 2468              		.global	netconn_write_vectors_partly
 2469              		.syntax unified
 2470              		.thumb
 2471              		.thumb_func
 2472              		.fpu fpv4-sp-d16
 2474              	netconn_write_vectors_partly:
 2475              	.LFB160:
 982:Middlewares/Third_Party/LwIP/src/api/api_lib.c **** 
 983:Middlewares/Third_Party/LwIP/src/api/api_lib.c **** /**
 984:Middlewares/Third_Party/LwIP/src/api/api_lib.c ****  * Send vectorized data atomically over a TCP netconn.
 985:Middlewares/Third_Party/LwIP/src/api/api_lib.c ****  *
 986:Middlewares/Third_Party/LwIP/src/api/api_lib.c ****  * @param conn the TCP netconn over which to send data
 987:Middlewares/Third_Party/LwIP/src/api/api_lib.c ****  * @param vectors array of vectors containing data to send
 988:Middlewares/Third_Party/LwIP/src/api/api_lib.c ****  * @param vectorcnt number of vectors in the array
 989:Middlewares/Third_Party/LwIP/src/api/api_lib.c ****  * @param apiflags combination of following flags :
 990:Middlewares/Third_Party/LwIP/src/api/api_lib.c ****  * - NETCONN_COPY: data will be copied into memory belonging to the stack
 991:Middlewares/Third_Party/LwIP/src/api/api_lib.c ****  * - NETCONN_MORE: for TCP connection, PSH flag will be set on last segment sent
 992:Middlewares/Third_Party/LwIP/src/api/api_lib.c ****  * - NETCONN_DONTBLOCK: only write the data if all data can be written at once
 993:Middlewares/Third_Party/LwIP/src/api/api_lib.c ****  * @param bytes_written pointer to a location that receives the number of written bytes
 994:Middlewares/Third_Party/LwIP/src/api/api_lib.c ****  * @return ERR_OK if data was sent, any other err_t on error
 995:Middlewares/Third_Party/LwIP/src/api/api_lib.c ****  */
 996:Middlewares/Third_Party/LwIP/src/api/api_lib.c **** err_t
 997:Middlewares/Third_Party/LwIP/src/api/api_lib.c **** netconn_write_vectors_partly(struct netconn *conn, struct netvector *vectors, u16_t vectorcnt,
 998:Middlewares/Third_Party/LwIP/src/api/api_lib.c ****                              u8_t apiflags, size_t *bytes_written)
 999:Middlewares/Third_Party/LwIP/src/api/api_lib.c **** {
 2476              		.loc 1 999 1
 2477              		.cfi_startproc
 2478              		@ args = 4, pretend = 0, frame = 72
 2479              		@ frame_needed = 1, uses_anonymous_args = 0
 2480 0000 80B5     		push	{r7, lr}
 2481              	.LCFI115:
ARM GAS  /tmp/cckDOVNo.s 			page 63


 2482              		.cfi_def_cfa_offset 8
 2483              		.cfi_offset 7, -8
 2484              		.cfi_offset 14, -4
 2485 0002 92B0     		sub	sp, sp, #72
 2486              	.LCFI116:
 2487              		.cfi_def_cfa_offset 80
 2488 0004 00AF     		add	r7, sp, #0
 2489              	.LCFI117:
 2490              		.cfi_def_cfa_register 7
 2491 0006 F860     		str	r0, [r7, #12]
 2492 0008 B960     		str	r1, [r7, #8]
 2493 000a 1146     		mov	r1, r2
 2494 000c 1A46     		mov	r2, r3
 2495 000e 0B46     		mov	r3, r1	@ movhi
 2496 0010 FB80     		strh	r3, [r7, #6]	@ movhi
 2497 0012 1346     		mov	r3, r2
 2498 0014 7B71     		strb	r3, [r7, #5]
1000:Middlewares/Third_Party/LwIP/src/api/api_lib.c ****   API_MSG_VAR_DECLARE(msg);
1001:Middlewares/Third_Party/LwIP/src/api/api_lib.c ****   err_t err;
1002:Middlewares/Third_Party/LwIP/src/api/api_lib.c ****   u8_t dontblock;
1003:Middlewares/Third_Party/LwIP/src/api/api_lib.c ****   size_t size;
1004:Middlewares/Third_Party/LwIP/src/api/api_lib.c ****   int i;
1005:Middlewares/Third_Party/LwIP/src/api/api_lib.c **** 
1006:Middlewares/Third_Party/LwIP/src/api/api_lib.c ****   LWIP_ERROR("netconn_write: invalid conn",  (conn != NULL), return ERR_ARG;);
 2499              		.loc 1 1006 3
 2500 0016 FB68     		ldr	r3, [r7, #12]
 2501 0018 002B     		cmp	r3, #0
 2502 001a 09D1     		bne	.L179
 2503              		.loc 1 1006 3 is_stmt 0 discriminator 1
 2504 001c 4E4B     		ldr	r3, .L195
 2505 001e 40F2EE32 		movw	r2, #1006
 2506 0022 4E49     		ldr	r1, .L195+4
 2507 0024 4E48     		ldr	r0, .L195+8
 2508 0026 FFF7FEFF 		bl	printf
 2509 002a 6FF00F03 		mvn	r3, #15
 2510 002e 8EE0     		b	.L194
 2511              	.L179:
1007:Middlewares/Third_Party/LwIP/src/api/api_lib.c ****   LWIP_ERROR("netconn_write: invalid conn->type",  (NETCONNTYPE_GROUP(conn->type) == NETCONN_TCP), 
 2512              		.loc 1 1007 3 is_stmt 1
 2513 0030 FB68     		ldr	r3, [r7, #12]
 2514 0032 1B78     		ldrb	r3, [r3]	@ zero_extendqisi2
 2515 0034 03F0F003 		and	r3, r3, #240
 2516 0038 102B     		cmp	r3, #16
 2517 003a 09D0     		beq	.L181
 2518              		.loc 1 1007 3 is_stmt 0 discriminator 1
 2519 003c 464B     		ldr	r3, .L195
 2520 003e 40F2EF32 		movw	r2, #1007
 2521 0042 4849     		ldr	r1, .L195+12
 2522 0044 4648     		ldr	r0, .L195+8
 2523 0046 FFF7FEFF 		bl	printf
 2524 004a 6FF00503 		mvn	r3, #5
 2525 004e 7EE0     		b	.L194
 2526              	.L181:
1008:Middlewares/Third_Party/LwIP/src/api/api_lib.c ****   dontblock = netconn_is_nonblocking(conn) || (apiflags & NETCONN_DONTBLOCK);
 2527              		.loc 1 1008 15 is_stmt 1
 2528 0050 FB68     		ldr	r3, [r7, #12]
 2529 0052 1B7F     		ldrb	r3, [r3, #28]	@ zero_extendqisi2
ARM GAS  /tmp/cckDOVNo.s 			page 64


 2530 0054 03F00203 		and	r3, r3, #2
 2531              		.loc 1 1008 44
 2532 0058 002B     		cmp	r3, #0
 2533 005a 04D1     		bne	.L182
 2534              		.loc 1 1008 57 discriminator 2
 2535 005c 7B79     		ldrb	r3, [r7, #5]	@ zero_extendqisi2
 2536 005e 03F00403 		and	r3, r3, #4
 2537              		.loc 1 1008 44 discriminator 2
 2538 0062 002B     		cmp	r3, #0
 2539 0064 01D0     		beq	.L183
 2540              	.L182:
 2541              		.loc 1 1008 44 is_stmt 0 discriminator 3
 2542 0066 0123     		movs	r3, #1
 2543 0068 00E0     		b	.L184
 2544              	.L183:
 2545              		.loc 1 1008 44 discriminator 4
 2546 006a 0023     		movs	r3, #0
 2547              	.L184:
 2548              		.loc 1 1008 13 is_stmt 1 discriminator 6
 2549 006c 87F83F30 		strb	r3, [r7, #63]
1009:Middlewares/Third_Party/LwIP/src/api/api_lib.c **** #if LWIP_SO_SNDTIMEO
1010:Middlewares/Third_Party/LwIP/src/api/api_lib.c ****   if (conn->send_timeout != 0) {
1011:Middlewares/Third_Party/LwIP/src/api/api_lib.c ****     dontblock = 1;
1012:Middlewares/Third_Party/LwIP/src/api/api_lib.c ****   }
1013:Middlewares/Third_Party/LwIP/src/api/api_lib.c **** #endif /* LWIP_SO_SNDTIMEO */
1014:Middlewares/Third_Party/LwIP/src/api/api_lib.c ****   if (dontblock && !bytes_written) {
 2550              		.loc 1 1014 6 discriminator 6
 2551 0070 97F83F30 		ldrb	r3, [r7, #63]	@ zero_extendqisi2
 2552 0074 002B     		cmp	r3, #0
 2553 0076 05D0     		beq	.L185
 2554              		.loc 1 1014 17 discriminator 1
 2555 0078 3B6D     		ldr	r3, [r7, #80]
 2556 007a 002B     		cmp	r3, #0
 2557 007c 02D1     		bne	.L185
1015:Middlewares/Third_Party/LwIP/src/api/api_lib.c ****     /* This implies netconn_write() cannot be used for non-blocking send, since
1016:Middlewares/Third_Party/LwIP/src/api/api_lib.c ****        it has no way to return the number of bytes written. */
1017:Middlewares/Third_Party/LwIP/src/api/api_lib.c ****     return ERR_VAL;
 2558              		.loc 1 1017 12
 2559 007e 6FF00503 		mvn	r3, #5
 2560 0082 64E0     		b	.L194
 2561              	.L185:
1018:Middlewares/Third_Party/LwIP/src/api/api_lib.c ****   }
1019:Middlewares/Third_Party/LwIP/src/api/api_lib.c **** 
1020:Middlewares/Third_Party/LwIP/src/api/api_lib.c ****   /* sum up the total size */
1021:Middlewares/Third_Party/LwIP/src/api/api_lib.c ****   size = 0;
 2562              		.loc 1 1021 8
 2563 0084 0023     		movs	r3, #0
 2564 0086 7B64     		str	r3, [r7, #68]
1022:Middlewares/Third_Party/LwIP/src/api/api_lib.c ****   for (i = 0; i < vectorcnt; i++) {
 2565              		.loc 1 1022 10
 2566 0088 0023     		movs	r3, #0
 2567 008a 3B64     		str	r3, [r7, #64]
 2568              		.loc 1 1022 3
 2569 008c 15E0     		b	.L186
 2570              	.L188:
1023:Middlewares/Third_Party/LwIP/src/api/api_lib.c ****     size += vectors[i].len;
 2571              		.loc 1 1023 20
ARM GAS  /tmp/cckDOVNo.s 			page 65


 2572 008e 3B6C     		ldr	r3, [r7, #64]
 2573 0090 DB00     		lsls	r3, r3, #3
 2574 0092 BA68     		ldr	r2, [r7, #8]
 2575 0094 1344     		add	r3, r3, r2
 2576              		.loc 1 1023 23
 2577 0096 5B68     		ldr	r3, [r3, #4]
 2578              		.loc 1 1023 10
 2579 0098 7A6C     		ldr	r2, [r7, #68]
 2580 009a 1344     		add	r3, r3, r2
 2581 009c 7B64     		str	r3, [r7, #68]
1024:Middlewares/Third_Party/LwIP/src/api/api_lib.c ****     if (size < vectors[i].len) {
 2582              		.loc 1 1024 23
 2583 009e 3B6C     		ldr	r3, [r7, #64]
 2584 00a0 DB00     		lsls	r3, r3, #3
 2585 00a2 BA68     		ldr	r2, [r7, #8]
 2586 00a4 1344     		add	r3, r3, r2
 2587              		.loc 1 1024 26
 2588 00a6 5B68     		ldr	r3, [r3, #4]
 2589              		.loc 1 1024 8
 2590 00a8 7A6C     		ldr	r2, [r7, #68]
 2591 00aa 9A42     		cmp	r2, r3
 2592 00ac 02D2     		bcs	.L187
1025:Middlewares/Third_Party/LwIP/src/api/api_lib.c ****       /* overflow */
1026:Middlewares/Third_Party/LwIP/src/api/api_lib.c ****       return ERR_VAL;
 2593              		.loc 1 1026 14
 2594 00ae 6FF00503 		mvn	r3, #5
 2595 00b2 4CE0     		b	.L194
 2596              	.L187:
1022:Middlewares/Third_Party/LwIP/src/api/api_lib.c ****     size += vectors[i].len;
 2597              		.loc 1 1022 31 discriminator 2
 2598 00b4 3B6C     		ldr	r3, [r7, #64]
 2599 00b6 0133     		adds	r3, r3, #1
 2600 00b8 3B64     		str	r3, [r7, #64]
 2601              	.L186:
1022:Middlewares/Third_Party/LwIP/src/api/api_lib.c ****     size += vectors[i].len;
 2602              		.loc 1 1022 17 discriminator 1
 2603 00ba FB88     		ldrh	r3, [r7, #6]
1022:Middlewares/Third_Party/LwIP/src/api/api_lib.c ****     size += vectors[i].len;
 2604              		.loc 1 1022 3 discriminator 1
 2605 00bc 3A6C     		ldr	r2, [r7, #64]
 2606 00be 9A42     		cmp	r2, r3
 2607 00c0 E5DB     		blt	.L188
1027:Middlewares/Third_Party/LwIP/src/api/api_lib.c ****     }
1028:Middlewares/Third_Party/LwIP/src/api/api_lib.c ****   }
1029:Middlewares/Third_Party/LwIP/src/api/api_lib.c ****   if (size == 0) {
 2608              		.loc 1 1029 6
 2609 00c2 7B6C     		ldr	r3, [r7, #68]
 2610 00c4 002B     		cmp	r3, #0
 2611 00c6 01D1     		bne	.L189
1030:Middlewares/Third_Party/LwIP/src/api/api_lib.c ****     return ERR_OK;
 2612              		.loc 1 1030 12
 2613 00c8 0023     		movs	r3, #0
 2614 00ca 40E0     		b	.L194
 2615              	.L189:
1031:Middlewares/Third_Party/LwIP/src/api/api_lib.c ****   } else if (size > SSIZE_MAX) {
 2616              		.loc 1 1031 19
 2617 00cc 7B6C     		ldr	r3, [r7, #68]
ARM GAS  /tmp/cckDOVNo.s 			page 66


 2618              		.loc 1 1031 13
 2619 00ce 002B     		cmp	r3, #0
 2620 00d0 0ADA     		bge	.L190
 2621              	.LBB8:
1032:Middlewares/Third_Party/LwIP/src/api/api_lib.c ****     ssize_t limited;
1033:Middlewares/Third_Party/LwIP/src/api/api_lib.c ****     /* this is required by the socket layer (cannot send full size_t range) */
1034:Middlewares/Third_Party/LwIP/src/api/api_lib.c ****     if (!bytes_written) {
 2622              		.loc 1 1034 8
 2623 00d2 3B6D     		ldr	r3, [r7, #80]
 2624 00d4 002B     		cmp	r3, #0
 2625 00d6 02D1     		bne	.L191
1035:Middlewares/Third_Party/LwIP/src/api/api_lib.c ****       return ERR_VAL;
 2626              		.loc 1 1035 14
 2627 00d8 6FF00503 		mvn	r3, #5
 2628 00dc 37E0     		b	.L194
 2629              	.L191:
1036:Middlewares/Third_Party/LwIP/src/api/api_lib.c ****     }
1037:Middlewares/Third_Party/LwIP/src/api/api_lib.c ****     /* limit the amount of data to send */
1038:Middlewares/Third_Party/LwIP/src/api/api_lib.c ****     limited = SSIZE_MAX;
 2630              		.loc 1 1038 13
 2631 00de 6FF00043 		mvn	r3, #-2147483648
 2632 00e2 BB63     		str	r3, [r7, #56]
1039:Middlewares/Third_Party/LwIP/src/api/api_lib.c ****     size = (size_t)limited;
 2633              		.loc 1 1039 10
 2634 00e4 BB6B     		ldr	r3, [r7, #56]
 2635 00e6 7B64     		str	r3, [r7, #68]
 2636              	.L190:
 2637              	.LBE8:
1040:Middlewares/Third_Party/LwIP/src/api/api_lib.c ****   }
1041:Middlewares/Third_Party/LwIP/src/api/api_lib.c **** 
1042:Middlewares/Third_Party/LwIP/src/api/api_lib.c ****   API_MSG_VAR_ALLOC(msg);
1043:Middlewares/Third_Party/LwIP/src/api/api_lib.c ****   /* non-blocking write sends as much  */
1044:Middlewares/Third_Party/LwIP/src/api/api_lib.c ****   API_MSG_VAR_REF(msg).conn = conn;
 2638              		.loc 1 1044 29
 2639 00e8 FB68     		ldr	r3, [r7, #12]
 2640 00ea 7B61     		str	r3, [r7, #20]
1045:Middlewares/Third_Party/LwIP/src/api/api_lib.c ****   API_MSG_VAR_REF(msg).msg.w.vector = vectors;
 2641              		.loc 1 1045 37
 2642 00ec BB68     		ldr	r3, [r7, #8]
 2643 00ee FB61     		str	r3, [r7, #28]
1046:Middlewares/Third_Party/LwIP/src/api/api_lib.c ****   API_MSG_VAR_REF(msg).msg.w.vector_cnt = vectorcnt;
 2644              		.loc 1 1046 41
 2645 00f0 FB88     		ldrh	r3, [r7, #6]	@ movhi
 2646 00f2 3B84     		strh	r3, [r7, #32]	@ movhi
1047:Middlewares/Third_Party/LwIP/src/api/api_lib.c ****   API_MSG_VAR_REF(msg).msg.w.vector_off = 0;
 2647              		.loc 1 1047 41
 2648 00f4 0023     		movs	r3, #0
 2649 00f6 7B62     		str	r3, [r7, #36]
1048:Middlewares/Third_Party/LwIP/src/api/api_lib.c ****   API_MSG_VAR_REF(msg).msg.w.apiflags = apiflags;
 2650              		.loc 1 1048 39
 2651 00f8 7B79     		ldrb	r3, [r7, #5]
 2652 00fa 87F83030 		strb	r3, [r7, #48]
1049:Middlewares/Third_Party/LwIP/src/api/api_lib.c ****   API_MSG_VAR_REF(msg).msg.w.len = size;
 2653              		.loc 1 1049 34
 2654 00fe 7B6C     		ldr	r3, [r7, #68]
 2655 0100 BB62     		str	r3, [r7, #40]
1050:Middlewares/Third_Party/LwIP/src/api/api_lib.c ****   API_MSG_VAR_REF(msg).msg.w.offset = 0;
ARM GAS  /tmp/cckDOVNo.s 			page 67


 2656              		.loc 1 1050 37
 2657 0102 0023     		movs	r3, #0
 2658 0104 FB62     		str	r3, [r7, #44]
1051:Middlewares/Third_Party/LwIP/src/api/api_lib.c **** #if LWIP_SO_SNDTIMEO
1052:Middlewares/Third_Party/LwIP/src/api/api_lib.c ****   if (conn->send_timeout != 0) {
1053:Middlewares/Third_Party/LwIP/src/api/api_lib.c ****     /* get the time we started, which is later compared to
1054:Middlewares/Third_Party/LwIP/src/api/api_lib.c ****         sys_now() + conn->send_timeout */
1055:Middlewares/Third_Party/LwIP/src/api/api_lib.c ****     API_MSG_VAR_REF(msg).msg.w.time_started = sys_now();
1056:Middlewares/Third_Party/LwIP/src/api/api_lib.c ****   } else {
1057:Middlewares/Third_Party/LwIP/src/api/api_lib.c ****     API_MSG_VAR_REF(msg).msg.w.time_started = 0;
1058:Middlewares/Third_Party/LwIP/src/api/api_lib.c ****   }
1059:Middlewares/Third_Party/LwIP/src/api/api_lib.c **** #endif /* LWIP_SO_SNDTIMEO */
1060:Middlewares/Third_Party/LwIP/src/api/api_lib.c **** 
1061:Middlewares/Third_Party/LwIP/src/api/api_lib.c ****   /* For locking the core: this _can_ be delayed on low memory/low send buffer,
1062:Middlewares/Third_Party/LwIP/src/api/api_lib.c ****      but if it is, this is done inside api_msg.c:do_write(), so we can use the
1063:Middlewares/Third_Party/LwIP/src/api/api_lib.c ****      non-blocking version here. */
1064:Middlewares/Third_Party/LwIP/src/api/api_lib.c ****   err = netconn_apimsg(lwip_netconn_do_write, &API_MSG_VAR_REF(msg));
 2659              		.loc 1 1064 9
 2660 0106 07F11403 		add	r3, r7, #20
 2661 010a 1946     		mov	r1, r3
 2662 010c 1648     		ldr	r0, .L195+16
 2663 010e FFF7FEFF 		bl	netconn_apimsg
 2664 0112 0346     		mov	r3, r0
 2665 0114 87F83730 		strb	r3, [r7, #55]
1065:Middlewares/Third_Party/LwIP/src/api/api_lib.c ****   if (err == ERR_OK) {
 2666              		.loc 1 1065 6
 2667 0118 97F93730 		ldrsb	r3, [r7, #55]
 2668 011c 002B     		cmp	r3, #0
 2669 011e 14D1     		bne	.L192
1066:Middlewares/Third_Party/LwIP/src/api/api_lib.c ****     if (bytes_written != NULL) {
 2670              		.loc 1 1066 8
 2671 0120 3B6D     		ldr	r3, [r7, #80]
 2672 0122 002B     		cmp	r3, #0
 2673 0124 02D0     		beq	.L193
1067:Middlewares/Third_Party/LwIP/src/api/api_lib.c ****       *bytes_written = API_MSG_VAR_REF(msg).msg.w.offset;
 2674              		.loc 1 1067 50
 2675 0126 FA6A     		ldr	r2, [r7, #44]
 2676              		.loc 1 1067 22
 2677 0128 3B6D     		ldr	r3, [r7, #80]
 2678 012a 1A60     		str	r2, [r3]
 2679              	.L193:
1068:Middlewares/Third_Party/LwIP/src/api/api_lib.c ****     }
1069:Middlewares/Third_Party/LwIP/src/api/api_lib.c ****     /* for blocking, check all requested bytes were written, NOTE: send_timeout is
1070:Middlewares/Third_Party/LwIP/src/api/api_lib.c ****        treated as dontblock (see dontblock assignment above) */
1071:Middlewares/Third_Party/LwIP/src/api/api_lib.c ****     if (!dontblock) {
 2680              		.loc 1 1071 8
 2681 012c 97F83F30 		ldrb	r3, [r7, #63]	@ zero_extendqisi2
 2682 0130 002B     		cmp	r3, #0
 2683 0132 0AD1     		bne	.L192
1072:Middlewares/Third_Party/LwIP/src/api/api_lib.c ****       LWIP_ASSERT("do_write failed to write all bytes", API_MSG_VAR_REF(msg).msg.w.offset == size);
 2684              		.loc 1 1072 7
 2685 0134 FB6A     		ldr	r3, [r7, #44]
 2686 0136 7A6C     		ldr	r2, [r7, #68]
 2687 0138 9A42     		cmp	r2, r3
 2688 013a 06D0     		beq	.L192
 2689              		.loc 1 1072 7 is_stmt 0 discriminator 1
 2690 013c 064B     		ldr	r3, .L195
ARM GAS  /tmp/cckDOVNo.s 			page 68


 2691 013e 4FF48662 		mov	r2, #1072
 2692 0142 0A49     		ldr	r1, .L195+20
 2693 0144 0648     		ldr	r0, .L195+8
 2694 0146 FFF7FEFF 		bl	printf
 2695              	.L192:
1073:Middlewares/Third_Party/LwIP/src/api/api_lib.c ****     }
1074:Middlewares/Third_Party/LwIP/src/api/api_lib.c ****   }
1075:Middlewares/Third_Party/LwIP/src/api/api_lib.c ****   API_MSG_VAR_FREE(msg);
1076:Middlewares/Third_Party/LwIP/src/api/api_lib.c **** 
1077:Middlewares/Third_Party/LwIP/src/api/api_lib.c ****   return err;
 2696              		.loc 1 1077 10 is_stmt 1
 2697 014a 97F93730 		ldrsb	r3, [r7, #55]
 2698              	.L194:
1078:Middlewares/Third_Party/LwIP/src/api/api_lib.c **** }
 2699              		.loc 1 1078 1 discriminator 1
 2700 014e 1846     		mov	r0, r3
 2701 0150 4837     		adds	r7, r7, #72
 2702              	.LCFI118:
 2703              		.cfi_def_cfa_offset 8
 2704 0152 BD46     		mov	sp, r7
 2705              	.LCFI119:
 2706              		.cfi_def_cfa_register 13
 2707              		@ sp needed
 2708 0154 80BD     		pop	{r7, pc}
 2709              	.L196:
 2710 0156 00BF     		.align	2
 2711              	.L195:
 2712 0158 00000000 		.word	.LC0
 2713 015c D4020000 		.word	.LC23
 2714 0160 54000000 		.word	.LC2
 2715 0164 F0020000 		.word	.LC24
 2716 0168 00000000 		.word	lwip_netconn_do_write
 2717 016c 14030000 		.word	.LC25
 2718              		.cfi_endproc
 2719              	.LFE160:
 2721              		.section	.rodata
 2722 0337 00       		.align	2
 2723              	.LC26:
 2724 0338 6E657463 		.ascii	"netconn_close: invalid conn\000"
 2724      6F6E6E5F 
 2724      636C6F73 
 2724      653A2069 
 2724      6E76616C 
 2725              		.section	.text.netconn_close_shutdown,"ax",%progbits
 2726              		.align	1
 2727              		.syntax unified
 2728              		.thumb
 2729              		.thumb_func
 2730              		.fpu fpv4-sp-d16
 2732              	netconn_close_shutdown:
 2733              	.LFB161:
1079:Middlewares/Third_Party/LwIP/src/api/api_lib.c **** 
1080:Middlewares/Third_Party/LwIP/src/api/api_lib.c **** /**
1081:Middlewares/Third_Party/LwIP/src/api/api_lib.c ****  * @ingroup netconn_tcp
1082:Middlewares/Third_Party/LwIP/src/api/api_lib.c ****  * Close or shutdown a TCP netconn (doesn't delete it).
1083:Middlewares/Third_Party/LwIP/src/api/api_lib.c ****  *
1084:Middlewares/Third_Party/LwIP/src/api/api_lib.c ****  * @param conn the TCP netconn to close or shutdown
ARM GAS  /tmp/cckDOVNo.s 			page 69


1085:Middlewares/Third_Party/LwIP/src/api/api_lib.c ****  * @param how fully close or only shutdown one side?
1086:Middlewares/Third_Party/LwIP/src/api/api_lib.c ****  * @return ERR_OK if the netconn was closed, any other err_t on error
1087:Middlewares/Third_Party/LwIP/src/api/api_lib.c ****  */
1088:Middlewares/Third_Party/LwIP/src/api/api_lib.c **** static err_t
1089:Middlewares/Third_Party/LwIP/src/api/api_lib.c **** netconn_close_shutdown(struct netconn *conn, u8_t how)
1090:Middlewares/Third_Party/LwIP/src/api/api_lib.c **** {
 2734              		.loc 1 1090 1
 2735              		.cfi_startproc
 2736              		@ args = 0, pretend = 0, frame = 48
 2737              		@ frame_needed = 1, uses_anonymous_args = 0
 2738 0000 80B5     		push	{r7, lr}
 2739              	.LCFI120:
 2740              		.cfi_def_cfa_offset 8
 2741              		.cfi_offset 7, -8
 2742              		.cfi_offset 14, -4
 2743 0002 8CB0     		sub	sp, sp, #48
 2744              	.LCFI121:
 2745              		.cfi_def_cfa_offset 56
 2746 0004 00AF     		add	r7, sp, #0
 2747              	.LCFI122:
 2748              		.cfi_def_cfa_register 7
 2749 0006 7860     		str	r0, [r7, #4]
 2750 0008 0B46     		mov	r3, r1
 2751 000a FB70     		strb	r3, [r7, #3]
1091:Middlewares/Third_Party/LwIP/src/api/api_lib.c ****   API_MSG_VAR_DECLARE(msg);
1092:Middlewares/Third_Party/LwIP/src/api/api_lib.c ****   err_t err;
1093:Middlewares/Third_Party/LwIP/src/api/api_lib.c ****   LWIP_UNUSED_ARG(how);
1094:Middlewares/Third_Party/LwIP/src/api/api_lib.c **** 
1095:Middlewares/Third_Party/LwIP/src/api/api_lib.c ****   LWIP_ERROR("netconn_close: invalid conn",  (conn != NULL), return ERR_ARG;);
 2752              		.loc 1 1095 3
 2753 000c 7B68     		ldr	r3, [r7, #4]
 2754 000e 002B     		cmp	r3, #0
 2755 0010 09D1     		bne	.L198
 2756              		.loc 1 1095 3 is_stmt 0 discriminator 1
 2757 0012 0F4B     		ldr	r3, .L201
 2758 0014 40F24742 		movw	r2, #1095
 2759 0018 0E49     		ldr	r1, .L201+4
 2760 001a 0F48     		ldr	r0, .L201+8
 2761 001c FFF7FEFF 		bl	printf
 2762 0020 6FF00F03 		mvn	r3, #15
 2763 0024 10E0     		b	.L200
 2764              	.L198:
1096:Middlewares/Third_Party/LwIP/src/api/api_lib.c **** 
1097:Middlewares/Third_Party/LwIP/src/api/api_lib.c ****   API_MSG_VAR_ALLOC(msg);
1098:Middlewares/Third_Party/LwIP/src/api/api_lib.c ****   API_MSG_VAR_REF(msg).conn = conn;
 2765              		.loc 1 1098 29 is_stmt 1
 2766 0026 7B68     		ldr	r3, [r7, #4]
 2767 0028 FB60     		str	r3, [r7, #12]
1099:Middlewares/Third_Party/LwIP/src/api/api_lib.c **** #if LWIP_TCP
1100:Middlewares/Third_Party/LwIP/src/api/api_lib.c ****   /* shutting down both ends is the same as closing */
1101:Middlewares/Third_Party/LwIP/src/api/api_lib.c ****   API_MSG_VAR_REF(msg).msg.sd.shut = how;
 2768              		.loc 1 1101 36
 2769 002a FB78     		ldrb	r3, [r7, #3]
 2770 002c 3B75     		strb	r3, [r7, #20]
1102:Middlewares/Third_Party/LwIP/src/api/api_lib.c **** #if LWIP_SO_SNDTIMEO || LWIP_SO_LINGER
1103:Middlewares/Third_Party/LwIP/src/api/api_lib.c ****   /* get the time we started, which is later compared to
1104:Middlewares/Third_Party/LwIP/src/api/api_lib.c ****      sys_now() + conn->send_timeout */
ARM GAS  /tmp/cckDOVNo.s 			page 70


1105:Middlewares/Third_Party/LwIP/src/api/api_lib.c ****   API_MSG_VAR_REF(msg).msg.sd.time_started = sys_now();
1106:Middlewares/Third_Party/LwIP/src/api/api_lib.c **** #else /* LWIP_SO_SNDTIMEO || LWIP_SO_LINGER */
1107:Middlewares/Third_Party/LwIP/src/api/api_lib.c ****   API_MSG_VAR_REF(msg).msg.sd.polls_left =
 2771              		.loc 1 1107 42
 2772 002e 2923     		movs	r3, #41
 2773 0030 7B75     		strb	r3, [r7, #21]
1108:Middlewares/Third_Party/LwIP/src/api/api_lib.c ****     ((LWIP_TCP_CLOSE_TIMEOUT_MS_DEFAULT + TCP_SLOW_INTERVAL - 1) / TCP_SLOW_INTERVAL) + 1;
1109:Middlewares/Third_Party/LwIP/src/api/api_lib.c **** #endif /* LWIP_SO_SNDTIMEO || LWIP_SO_LINGER */
1110:Middlewares/Third_Party/LwIP/src/api/api_lib.c **** #endif /* LWIP_TCP */
1111:Middlewares/Third_Party/LwIP/src/api/api_lib.c ****   err = netconn_apimsg(lwip_netconn_do_close, &API_MSG_VAR_REF(msg));
 2774              		.loc 1 1111 9
 2775 0032 07F10C03 		add	r3, r7, #12
 2776 0036 1946     		mov	r1, r3
 2777 0038 0848     		ldr	r0, .L201+12
 2778 003a FFF7FEFF 		bl	netconn_apimsg
 2779 003e 0346     		mov	r3, r0
 2780 0040 87F82F30 		strb	r3, [r7, #47]
1112:Middlewares/Third_Party/LwIP/src/api/api_lib.c ****   API_MSG_VAR_FREE(msg);
1113:Middlewares/Third_Party/LwIP/src/api/api_lib.c **** 
1114:Middlewares/Third_Party/LwIP/src/api/api_lib.c ****   return err;
 2781              		.loc 1 1114 10
 2782 0044 97F92F30 		ldrsb	r3, [r7, #47]
 2783              	.L200:
1115:Middlewares/Third_Party/LwIP/src/api/api_lib.c **** }
 2784              		.loc 1 1115 1 discriminator 1
 2785 0048 1846     		mov	r0, r3
 2786 004a 3037     		adds	r7, r7, #48
 2787              	.LCFI123:
 2788              		.cfi_def_cfa_offset 8
 2789 004c BD46     		mov	sp, r7
 2790              	.LCFI124:
 2791              		.cfi_def_cfa_register 13
 2792              		@ sp needed
 2793 004e 80BD     		pop	{r7, pc}
 2794              	.L202:
 2795              		.align	2
 2796              	.L201:
 2797 0050 00000000 		.word	.LC0
 2798 0054 38030000 		.word	.LC26
 2799 0058 54000000 		.word	.LC2
 2800 005c 00000000 		.word	lwip_netconn_do_close
 2801              		.cfi_endproc
 2802              	.LFE161:
 2804              		.section	.text.netconn_close,"ax",%progbits
 2805              		.align	1
 2806              		.global	netconn_close
 2807              		.syntax unified
 2808              		.thumb
 2809              		.thumb_func
 2810              		.fpu fpv4-sp-d16
 2812              	netconn_close:
 2813              	.LFB162:
1116:Middlewares/Third_Party/LwIP/src/api/api_lib.c **** 
1117:Middlewares/Third_Party/LwIP/src/api/api_lib.c **** /**
1118:Middlewares/Third_Party/LwIP/src/api/api_lib.c ****  * @ingroup netconn_tcp
1119:Middlewares/Third_Party/LwIP/src/api/api_lib.c ****  * Close a TCP netconn (doesn't delete it).
1120:Middlewares/Third_Party/LwIP/src/api/api_lib.c ****  *
ARM GAS  /tmp/cckDOVNo.s 			page 71


1121:Middlewares/Third_Party/LwIP/src/api/api_lib.c ****  * @param conn the TCP netconn to close
1122:Middlewares/Third_Party/LwIP/src/api/api_lib.c ****  * @return ERR_OK if the netconn was closed, any other err_t on error
1123:Middlewares/Third_Party/LwIP/src/api/api_lib.c ****  */
1124:Middlewares/Third_Party/LwIP/src/api/api_lib.c **** err_t
1125:Middlewares/Third_Party/LwIP/src/api/api_lib.c **** netconn_close(struct netconn *conn)
1126:Middlewares/Third_Party/LwIP/src/api/api_lib.c **** {
 2814              		.loc 1 1126 1
 2815              		.cfi_startproc
 2816              		@ args = 0, pretend = 0, frame = 8
 2817              		@ frame_needed = 1, uses_anonymous_args = 0
 2818 0000 80B5     		push	{r7, lr}
 2819              	.LCFI125:
 2820              		.cfi_def_cfa_offset 8
 2821              		.cfi_offset 7, -8
 2822              		.cfi_offset 14, -4
 2823 0002 82B0     		sub	sp, sp, #8
 2824              	.LCFI126:
 2825              		.cfi_def_cfa_offset 16
 2826 0004 00AF     		add	r7, sp, #0
 2827              	.LCFI127:
 2828              		.cfi_def_cfa_register 7
 2829 0006 7860     		str	r0, [r7, #4]
1127:Middlewares/Third_Party/LwIP/src/api/api_lib.c ****   /* shutting down both ends is the same as closing */
1128:Middlewares/Third_Party/LwIP/src/api/api_lib.c ****   return netconn_close_shutdown(conn, NETCONN_SHUT_RDWR);
 2830              		.loc 1 1128 10
 2831 0008 0321     		movs	r1, #3
 2832 000a 7868     		ldr	r0, [r7, #4]
 2833 000c FFF7FEFF 		bl	netconn_close_shutdown
 2834 0010 0346     		mov	r3, r0
1129:Middlewares/Third_Party/LwIP/src/api/api_lib.c **** }
 2835              		.loc 1 1129 1
 2836 0012 1846     		mov	r0, r3
 2837 0014 0837     		adds	r7, r7, #8
 2838              	.LCFI128:
 2839              		.cfi_def_cfa_offset 8
 2840 0016 BD46     		mov	sp, r7
 2841              	.LCFI129:
 2842              		.cfi_def_cfa_register 13
 2843              		@ sp needed
 2844 0018 80BD     		pop	{r7, pc}
 2845              		.cfi_endproc
 2846              	.LFE162:
 2848              		.section	.text.netconn_err,"ax",%progbits
 2849              		.align	1
 2850              		.global	netconn_err
 2851              		.syntax unified
 2852              		.thumb
 2853              		.thumb_func
 2854              		.fpu fpv4-sp-d16
 2856              	netconn_err:
 2857              	.LFB163:
1130:Middlewares/Third_Party/LwIP/src/api/api_lib.c **** 
1131:Middlewares/Third_Party/LwIP/src/api/api_lib.c **** /**
1132:Middlewares/Third_Party/LwIP/src/api/api_lib.c ****  * @ingroup netconn_common
1133:Middlewares/Third_Party/LwIP/src/api/api_lib.c ****  * Get and reset pending error on a netconn
1134:Middlewares/Third_Party/LwIP/src/api/api_lib.c ****  *
1135:Middlewares/Third_Party/LwIP/src/api/api_lib.c ****  * @param conn the netconn to get the error from
ARM GAS  /tmp/cckDOVNo.s 			page 72


1136:Middlewares/Third_Party/LwIP/src/api/api_lib.c ****  * @return and pending error or ERR_OK if no error was pending
1137:Middlewares/Third_Party/LwIP/src/api/api_lib.c ****  */
1138:Middlewares/Third_Party/LwIP/src/api/api_lib.c **** err_t
1139:Middlewares/Third_Party/LwIP/src/api/api_lib.c **** netconn_err(struct netconn *conn)
1140:Middlewares/Third_Party/LwIP/src/api/api_lib.c **** {
 2858              		.loc 1 1140 1
 2859              		.cfi_startproc
 2860              		@ args = 0, pretend = 0, frame = 16
 2861              		@ frame_needed = 1, uses_anonymous_args = 0
 2862 0000 80B5     		push	{r7, lr}
 2863              	.LCFI130:
 2864              		.cfi_def_cfa_offset 8
 2865              		.cfi_offset 7, -8
 2866              		.cfi_offset 14, -4
 2867 0002 84B0     		sub	sp, sp, #16
 2868              	.LCFI131:
 2869              		.cfi_def_cfa_offset 24
 2870 0004 00AF     		add	r7, sp, #0
 2871              	.LCFI132:
 2872              		.cfi_def_cfa_register 7
 2873 0006 7860     		str	r0, [r7, #4]
1141:Middlewares/Third_Party/LwIP/src/api/api_lib.c ****   err_t err;
1142:Middlewares/Third_Party/LwIP/src/api/api_lib.c ****   SYS_ARCH_DECL_PROTECT(lev);
1143:Middlewares/Third_Party/LwIP/src/api/api_lib.c ****   if (conn == NULL) {
 2874              		.loc 1 1143 6
 2875 0008 7B68     		ldr	r3, [r7, #4]
 2876 000a 002B     		cmp	r3, #0
 2877 000c 01D1     		bne	.L206
1144:Middlewares/Third_Party/LwIP/src/api/api_lib.c ****     return ERR_OK;
 2878              		.loc 1 1144 12
 2879 000e 0023     		movs	r3, #0
 2880 0010 0DE0     		b	.L207
 2881              	.L206:
1145:Middlewares/Third_Party/LwIP/src/api/api_lib.c ****   }
1146:Middlewares/Third_Party/LwIP/src/api/api_lib.c ****   SYS_ARCH_PROTECT(lev);
 2882              		.loc 1 1146 3
 2883 0012 FFF7FEFF 		bl	sys_arch_protect
 2884 0016 F860     		str	r0, [r7, #12]
1147:Middlewares/Third_Party/LwIP/src/api/api_lib.c ****   err = conn->pending_err;
 2885              		.loc 1 1147 7
 2886 0018 7B68     		ldr	r3, [r7, #4]
 2887 001a 1B7A     		ldrb	r3, [r3, #8]
 2888 001c FB72     		strb	r3, [r7, #11]
1148:Middlewares/Third_Party/LwIP/src/api/api_lib.c ****   conn->pending_err = ERR_OK;
 2889              		.loc 1 1148 21
 2890 001e 7B68     		ldr	r3, [r7, #4]
 2891 0020 0022     		movs	r2, #0
 2892 0022 1A72     		strb	r2, [r3, #8]
1149:Middlewares/Third_Party/LwIP/src/api/api_lib.c ****   SYS_ARCH_UNPROTECT(lev);
 2893              		.loc 1 1149 3
 2894 0024 F868     		ldr	r0, [r7, #12]
 2895 0026 FFF7FEFF 		bl	sys_arch_unprotect
1150:Middlewares/Third_Party/LwIP/src/api/api_lib.c ****   return err;
 2896              		.loc 1 1150 10
 2897 002a 97F90B30 		ldrsb	r3, [r7, #11]
 2898              	.L207:
1151:Middlewares/Third_Party/LwIP/src/api/api_lib.c **** }
ARM GAS  /tmp/cckDOVNo.s 			page 73


 2899              		.loc 1 1151 1
 2900 002e 1846     		mov	r0, r3
 2901 0030 1037     		adds	r7, r7, #16
 2902              	.LCFI133:
 2903              		.cfi_def_cfa_offset 8
 2904 0032 BD46     		mov	sp, r7
 2905              	.LCFI134:
 2906              		.cfi_def_cfa_register 13
 2907              		@ sp needed
 2908 0034 80BD     		pop	{r7, pc}
 2909              		.cfi_endproc
 2910              	.LFE163:
 2912              		.section	.text.netconn_shutdown,"ax",%progbits
 2913              		.align	1
 2914              		.global	netconn_shutdown
 2915              		.syntax unified
 2916              		.thumb
 2917              		.thumb_func
 2918              		.fpu fpv4-sp-d16
 2920              	netconn_shutdown:
 2921              	.LFB164:
1152:Middlewares/Third_Party/LwIP/src/api/api_lib.c **** 
1153:Middlewares/Third_Party/LwIP/src/api/api_lib.c **** /**
1154:Middlewares/Third_Party/LwIP/src/api/api_lib.c ****  * @ingroup netconn_tcp
1155:Middlewares/Third_Party/LwIP/src/api/api_lib.c ****  * Shut down one or both sides of a TCP netconn (doesn't delete it).
1156:Middlewares/Third_Party/LwIP/src/api/api_lib.c ****  *
1157:Middlewares/Third_Party/LwIP/src/api/api_lib.c ****  * @param conn the TCP netconn to shut down
1158:Middlewares/Third_Party/LwIP/src/api/api_lib.c ****  * @param shut_rx shut down the RX side (no more read possible after this)
1159:Middlewares/Third_Party/LwIP/src/api/api_lib.c ****  * @param shut_tx shut down the TX side (no more write possible after this)
1160:Middlewares/Third_Party/LwIP/src/api/api_lib.c ****  * @return ERR_OK if the netconn was closed, any other err_t on error
1161:Middlewares/Third_Party/LwIP/src/api/api_lib.c ****  */
1162:Middlewares/Third_Party/LwIP/src/api/api_lib.c **** err_t
1163:Middlewares/Third_Party/LwIP/src/api/api_lib.c **** netconn_shutdown(struct netconn *conn, u8_t shut_rx, u8_t shut_tx)
1164:Middlewares/Third_Party/LwIP/src/api/api_lib.c **** {
 2922              		.loc 1 1164 1
 2923              		.cfi_startproc
 2924              		@ args = 0, pretend = 0, frame = 8
 2925              		@ frame_needed = 1, uses_anonymous_args = 0
 2926 0000 80B5     		push	{r7, lr}
 2927              	.LCFI135:
 2928              		.cfi_def_cfa_offset 8
 2929              		.cfi_offset 7, -8
 2930              		.cfi_offset 14, -4
 2931 0002 82B0     		sub	sp, sp, #8
 2932              	.LCFI136:
 2933              		.cfi_def_cfa_offset 16
 2934 0004 00AF     		add	r7, sp, #0
 2935              	.LCFI137:
 2936              		.cfi_def_cfa_register 7
 2937 0006 7860     		str	r0, [r7, #4]
 2938 0008 0B46     		mov	r3, r1
 2939 000a FB70     		strb	r3, [r7, #3]
 2940 000c 1346     		mov	r3, r2
 2941 000e BB70     		strb	r3, [r7, #2]
1165:Middlewares/Third_Party/LwIP/src/api/api_lib.c ****   return netconn_close_shutdown(conn, (u8_t)((shut_rx ? NETCONN_SHUT_RD : 0) | (shut_tx ? NETCONN_S
 2942              		.loc 1 1165 78
 2943 0010 FB78     		ldrb	r3, [r7, #3]	@ zero_extendqisi2
ARM GAS  /tmp/cckDOVNo.s 			page 74


 2944 0012 002B     		cmp	r3, #0
 2945 0014 01D0     		beq	.L209
 2946              		.loc 1 1165 78 is_stmt 0 discriminator 1
 2947 0016 0122     		movs	r2, #1
 2948 0018 00E0     		b	.L210
 2949              	.L209:
 2950              		.loc 1 1165 78 discriminator 2
 2951 001a 0022     		movs	r2, #0
 2952              	.L210:
 2953              		.loc 1 1165 78 discriminator 4
 2954 001c BB78     		ldrb	r3, [r7, #2]	@ zero_extendqisi2
 2955 001e 002B     		cmp	r3, #0
 2956 0020 01D0     		beq	.L211
 2957              		.loc 1 1165 78 discriminator 5
 2958 0022 0223     		movs	r3, #2
 2959 0024 00E0     		b	.L212
 2960              	.L211:
 2961              		.loc 1 1165 78 discriminator 6
 2962 0026 0023     		movs	r3, #0
 2963              	.L212:
 2964              		.loc 1 1165 78 discriminator 8
 2965 0028 1343     		orrs	r3, r3, r2
 2966 002a 5BB2     		sxtb	r3, r3
 2967              		.loc 1 1165 10 is_stmt 1 discriminator 8
 2968 002c DBB2     		uxtb	r3, r3
 2969 002e 1946     		mov	r1, r3
 2970 0030 7868     		ldr	r0, [r7, #4]
 2971 0032 FFF7FEFF 		bl	netconn_close_shutdown
 2972 0036 0346     		mov	r3, r0
1166:Middlewares/Third_Party/LwIP/src/api/api_lib.c **** }
 2973              		.loc 1 1166 1 discriminator 8
 2974 0038 1846     		mov	r0, r3
 2975 003a 0837     		adds	r7, r7, #8
 2976              	.LCFI138:
 2977              		.cfi_def_cfa_offset 8
 2978 003c BD46     		mov	sp, r7
 2979              	.LCFI139:
 2980              		.cfi_def_cfa_register 13
 2981              		@ sp needed
 2982 003e 80BD     		pop	{r7, pc}
 2983              		.cfi_endproc
 2984              	.LFE164:
 2986              		.text
 2987              	.Letext0:
 2988              		.file 2 "/home/mego-ros2/microros_ws/firmware/toolchain/arm-none-eabi/include/machine/_default_typ
 2989              		.file 3 "/home/mego-ros2/microros_ws/firmware/toolchain/arm-none-eabi/include/sys/_stdint.h"
 2990              		.file 4 "Drivers/CMSIS/Include/core_cm4.h"
 2991              		.file 5 "Drivers/CMSIS/Device/ST/STM32F4xx/Include/system_stm32f4xx.h"
 2992              		.file 6 "/home/mego-ros2/microros_ws/firmware/toolchain/lib/gcc/arm-none-eabi/8.3.1/include/stddef
 2993              		.file 7 "Drivers/STM32F4xx_HAL_Driver/Inc/stm32f4xx_hal.h"
 2994              		.file 8 "/home/mego-ros2/microros_ws/firmware/toolchain/arm-none-eabi/include/sys/_types.h"
 2995              		.file 9 "/home/mego-ros2/microros_ws/firmware/toolchain/arm-none-eabi/include/sys/reent.h"
 2996              		.file 10 "/home/mego-ros2/microros_ws/firmware/toolchain/arm-none-eabi/include/sys/lock.h"
 2997              		.file 11 "/home/mego-ros2/microros_ws/firmware/toolchain/arm-none-eabi/include/stdlib.h"
 2998              		.file 12 "/home/mego-ros2/microros_ws/firmware/freertos_apps/stm32MakefileTest/lib/include/FreeRTO
 2999              		.file 13 "Middlewares/Third_Party/LwIP/system/arch/cc.h"
 3000              		.file 14 "Middlewares/Third_Party/LwIP/src/include/lwip/arch.h"
ARM GAS  /tmp/cckDOVNo.s 			page 75


 3001              		.file 15 "/home/mego-ros2/microros_ws/firmware/toolchain/arm-none-eabi/include/ctype.h"
 3002              		.file 16 "Middlewares/Third_Party/LwIP/src/include/lwip/err.h"
 3003              		.file 17 "Middlewares/Third_Party/LwIP/src/include/lwip/pbuf.h"
 3004              		.file 18 "Middlewares/Third_Party/LwIP/src/include/lwip/ip4_addr.h"
 3005              		.file 19 "Middlewares/Third_Party/LwIP/src/include/lwip/ip_addr.h"
 3006              		.file 20 "Middlewares/Third_Party/LwIP/src/include/lwip/netbuf.h"
 3007              		.file 21 "Middlewares/Third_Party/FreeRTOS/Source/CMSIS_RTOS_V2/cmsis_os2.h"
 3008              		.file 22 "Middlewares/Third_Party/LwIP/system/arch/sys_arch.h"
 3009              		.file 23 "Middlewares/Third_Party/LwIP/src/include/lwip/api.h"
 3010              		.file 24 "Middlewares/Third_Party/LwIP/src/include/lwip/ip.h"
 3011              		.file 25 "Middlewares/Third_Party/LwIP/src/include/lwip/tcp.h"
 3012              		.file 26 "Middlewares/Third_Party/LwIP/src/include/lwip/udp.h"
 3013              		.file 27 "Middlewares/Third_Party/LwIP/src/include/lwip/priv/api_msg.h"
 3014              		.file 28 "Middlewares/Third_Party/LwIP/src/include/lwip/memp.h"
 3015              		.file 29 "Middlewares/Third_Party/LwIP/src/include/lwip/priv/memp_priv.h"
 3016              		.file 30 "Middlewares/Third_Party/LwIP/src/include/lwip/netif.h"
 3017              		.file 31 "Middlewares/Third_Party/LwIP/src/include/lwip/prot/ip4.h"
 3018              		.file 32 "Middlewares/Third_Party/LwIP/src/include/lwip/timeouts.h"
 3019              		.file 33 "Middlewares/Third_Party/LwIP/src/include/lwip/tcpip.h"
 3020              		.file 34 "Middlewares/Third_Party/LwIP/src/include/lwip/tcpbase.h"
 3021              		.file 35 "Middlewares/Third_Party/LwIP/src/include/lwip/priv/tcp_priv.h"
 3022              		.file 36 "Middlewares/Third_Party/LwIP/src/include/lwip/prot/tcp.h"
ARM GAS  /tmp/cckDOVNo.s 			page 76

