ARM GAS  /tmp/ccVS1xKp.s 			page 1


   1              		.cpu cortex-m4
   2              		.eabi_attribute 27, 1
   3              		.eabi_attribute 28, 1
   4              		.eabi_attribute 20, 1
   5              		.eabi_attribute 21, 1
   6              		.eabi_attribute 23, 3
   7              		.eabi_attribute 24, 1
   8              		.eabi_attribute 25, 1
   9              		.eabi_attribute 26, 1
  10              		.eabi_attribute 30, 6
  11              		.eabi_attribute 34, 1
  12              		.eabi_attribute 18, 4
  13              		.file	"app.c"
  14              		.text
  15              	.Ltext0:
  16              		.cfi_sections	.debug_frame
  17              		.section	.rodata.rmw_qos_profile_sensor_data,"a"
  18              		.align	3
  21              	rmw_qos_profile_sensor_data:
  22 0000 01       		.byte	1
  23 0001 000000   		.space	3
  24 0004 05000000 		.word	5
  25 0008 02       		.byte	2
  26 0009 02       		.byte	2
  27 000a 00000000 		.space	6
  27      0000
  28 0010 00000000 		.word	0
  29 0014 00000000 		.word	0
  30 0018 00000000 		.word	0
  31 001c 00000000 		.word	0
  32 0020 00000000 		.word	0
  33 0024 00000000 		.word	0
  34 0028 00000000 		.word	0
  35 002c 00000000 		.word	0
  36 0030 00       		.byte	0
  37 0031 00000000 		.space	7
  37      000000
  38 0038 00000000 		.word	0
  39 003c 00000000 		.word	0
  40 0040 00000000 		.word	0
  41 0044 00000000 		.word	0
  42 0048 00       		.byte	0
  43 0049 00000000 		.space	7
  43      000000
  44              		.section	.rodata.rmw_qos_profile_parameters,"a"
  45              		.align	3
  48              	rmw_qos_profile_parameters:
  49 0000 01       		.byte	1
  50 0001 000000   		.space	3
  51 0004 E8030000 		.word	1000
  52 0008 01       		.byte	1
  53 0009 02       		.byte	2
  54 000a 00000000 		.space	6
  54      0000
  55 0010 00000000 		.word	0
  56 0014 00000000 		.word	0
  57 0018 00000000 		.word	0
ARM GAS  /tmp/ccVS1xKp.s 			page 2


  58 001c 00000000 		.word	0
  59 0020 00000000 		.word	0
  60 0024 00000000 		.word	0
  61 0028 00000000 		.word	0
  62 002c 00000000 		.word	0
  63 0030 00       		.byte	0
  64 0031 00000000 		.space	7
  64      000000
  65 0038 00000000 		.word	0
  66 003c 00000000 		.word	0
  67 0040 00000000 		.word	0
  68 0044 00000000 		.word	0
  69 0048 00       		.byte	0
  70 0049 00000000 		.space	7
  70      000000
  71              		.section	.rodata.rmw_qos_profile_default,"a"
  72              		.align	3
  75              	rmw_qos_profile_default:
  76 0000 01       		.byte	1
  77 0001 000000   		.space	3
  78 0004 0A000000 		.word	10
  79 0008 01       		.byte	1
  80 0009 02       		.byte	2
  81 000a 00000000 		.space	6
  81      0000
  82 0010 00000000 		.word	0
  83 0014 00000000 		.word	0
  84 0018 00000000 		.word	0
  85 001c 00000000 		.word	0
  86 0020 00000000 		.word	0
  87 0024 00000000 		.word	0
  88 0028 00000000 		.word	0
  89 002c 00000000 		.word	0
  90 0030 00       		.byte	0
  91 0031 00000000 		.space	7
  91      000000
  92 0038 00000000 		.word	0
  93 003c 00000000 		.word	0
  94 0040 00000000 		.word	0
  95 0044 00000000 		.word	0
  96 0048 00       		.byte	0
  97 0049 00000000 		.space	7
  97      000000
  98              		.section	.rodata.rmw_qos_profile_services_default,"a"
  99              		.align	3
 102              	rmw_qos_profile_services_default:
 103 0000 01       		.byte	1
 104 0001 000000   		.space	3
 105 0004 0A000000 		.word	10
 106 0008 01       		.byte	1
 107 0009 02       		.byte	2
 108 000a 00000000 		.space	6
 108      0000
 109 0010 00000000 		.word	0
 110 0014 00000000 		.word	0
 111 0018 00000000 		.word	0
 112 001c 00000000 		.word	0
ARM GAS  /tmp/ccVS1xKp.s 			page 3


 113 0020 00000000 		.word	0
 114 0024 00000000 		.word	0
 115 0028 00000000 		.word	0
 116 002c 00000000 		.word	0
 117 0030 00       		.byte	0
 118 0031 00000000 		.space	7
 118      000000
 119 0038 00000000 		.word	0
 120 003c 00000000 		.word	0
 121 0040 00000000 		.word	0
 122 0044 00000000 		.word	0
 123 0048 00       		.byte	0
 124 0049 00000000 		.space	7
 124      000000
 125              		.section	.rodata.rmw_qos_profile_parameter_events,"a"
 126              		.align	3
 129              	rmw_qos_profile_parameter_events:
 130 0000 01       		.byte	1
 131 0001 000000   		.space	3
 132 0004 E8030000 		.word	1000
 133 0008 01       		.byte	1
 134 0009 02       		.byte	2
 135 000a 00000000 		.space	6
 135      0000
 136 0010 00000000 		.word	0
 137 0014 00000000 		.word	0
 138 0018 00000000 		.word	0
 139 001c 00000000 		.word	0
 140 0020 00000000 		.word	0
 141 0024 00000000 		.word	0
 142 0028 00000000 		.word	0
 143 002c 00000000 		.word	0
 144 0030 00       		.byte	0
 145 0031 00000000 		.space	7
 145      000000
 146 0038 00000000 		.word	0
 147 003c 00000000 		.word	0
 148 0040 00000000 		.word	0
 149 0044 00000000 		.word	0
 150 0048 00       		.byte	0
 151 0049 00000000 		.space	7
 151      000000
 152              		.section	.rodata.rmw_qos_profile_system_default,"a"
 153              		.align	3
 156              	rmw_qos_profile_system_default:
 157 0000 00000000 		.space	80
 157      00000000 
 157      00000000 
 157      00000000 
 157      00000000 
 158              		.section	.rodata.rmw_qos_profile_unknown,"a"
 159              		.align	3
 162              	rmw_qos_profile_unknown:
 163 0000 03       		.byte	3
 164 0001 000000   		.space	3
 165 0004 00000000 		.word	0
 166 0008 03       		.byte	3
ARM GAS  /tmp/ccVS1xKp.s 			page 4


 167 0009 03       		.byte	3
 168 000a 00000000 		.space	6
 168      0000
 169 0010 00000000 		.word	0
 170 0014 00000000 		.word	0
 171 0018 00000000 		.word	0
 172 001c 00000000 		.word	0
 173 0020 00000000 		.word	0
 174 0024 00000000 		.word	0
 175 0028 00000000 		.word	0
 176 002c 00000000 		.word	0
 177 0030 04       		.byte	4
 178 0031 00000000 		.space	7
 178      000000
 179 0038 00000000 		.word	0
 180 003c 00000000 		.word	0
 181 0040 00000000 		.word	0
 182 0044 00000000 		.word	0
 183 0048 00       		.byte	0
 184 0049 00000000 		.space	7
 184      000000
 185              		.comm	ping_publisher,4,4
 186              		.comm	pong_publisher,4,4
 187              		.comm	ping_subscriber,4,4
 188              		.comm	pong_subscriber,4,4
 189              		.comm	incoming_ping,20,4
 190              		.comm	outcoming_ping,20,4
 191              		.comm	incoming_pong,20,4
 192              		.comm	device_id,4,4
 193              		.comm	seq_no,4,4
 194              		.comm	pong_count,4,4
 195              		.section	.rodata
 196              		.align	2
 197              	.LC0:
 198 0000 25645F25 		.ascii	"%d_%d\000"
 198      6400
 199 0006 0000     		.align	2
 200              	.LC1:
 201 0008 50696E67 		.ascii	"Ping send seq %s\012\000"
 201      2073656E 
 201      64207365 
 201      71202573 
 201      0A00
 202              		.section	.text.ping_timer_callback,"ax",%progbits
 203              		.align	1
 204              		.global	ping_timer_callback
 205              		.arch armv7e-m
 206              		.syntax unified
 207              		.thumb
 208              		.thumb_func
 209              		.fpu fpv4-sp-d16
 211              	ping_timer_callback:
 212              	.LFB4:
 213              		.file 1 "/home/mego/microros_ws/firmware/freertos_apps/apps/ping_pong/app.c"
   1:/home/mego/microros_ws/firmware/freertos_apps/apps/ping_pong/app.c **** #include <rcl/rcl.h>
   2:/home/mego/microros_ws/firmware/freertos_apps/apps/ping_pong/app.c **** #include <rcl/error_handling.h>
   3:/home/mego/microros_ws/firmware/freertos_apps/apps/ping_pong/app.c **** #include <rclc/rclc.h>
ARM GAS  /tmp/ccVS1xKp.s 			page 5


   4:/home/mego/microros_ws/firmware/freertos_apps/apps/ping_pong/app.c **** #include <rclc/executor.h>
   5:/home/mego/microros_ws/firmware/freertos_apps/apps/ping_pong/app.c **** 
   6:/home/mego/microros_ws/firmware/freertos_apps/apps/ping_pong/app.c **** #include <std_msgs/msg/header.h>
   7:/home/mego/microros_ws/firmware/freertos_apps/apps/ping_pong/app.c **** 
   8:/home/mego/microros_ws/firmware/freertos_apps/apps/ping_pong/app.c **** #include <stdio.h>
   9:/home/mego/microros_ws/firmware/freertos_apps/apps/ping_pong/app.c **** #include <unistd.h>
  10:/home/mego/microros_ws/firmware/freertos_apps/apps/ping_pong/app.c **** #include <time.h>
  11:/home/mego/microros_ws/firmware/freertos_apps/apps/ping_pong/app.c **** 
  12:/home/mego/microros_ws/firmware/freertos_apps/apps/ping_pong/app.c **** #ifdef ESP_PLATFORM
  13:/home/mego/microros_ws/firmware/freertos_apps/apps/ping_pong/app.c **** #include "freertos/FreeRTOS.h"
  14:/home/mego/microros_ws/firmware/freertos_apps/apps/ping_pong/app.c **** #include "freertos/task.h"
  15:/home/mego/microros_ws/firmware/freertos_apps/apps/ping_pong/app.c **** #endif
  16:/home/mego/microros_ws/firmware/freertos_apps/apps/ping_pong/app.c **** 
  17:/home/mego/microros_ws/firmware/freertos_apps/apps/ping_pong/app.c **** #define STRING_BUFFER_LEN 50
  18:/home/mego/microros_ws/firmware/freertos_apps/apps/ping_pong/app.c **** 
  19:/home/mego/microros_ws/firmware/freertos_apps/apps/ping_pong/app.c **** #define RCCHECK(fn) { rcl_ret_t temp_rc = fn; if((temp_rc != RCL_RET_OK)){printf("Failed status on 
  20:/home/mego/microros_ws/firmware/freertos_apps/apps/ping_pong/app.c **** #define RCSOFTCHECK(fn) { rcl_ret_t temp_rc = fn; if((temp_rc != RCL_RET_OK)){printf("Failed status
  21:/home/mego/microros_ws/firmware/freertos_apps/apps/ping_pong/app.c **** 
  22:/home/mego/microros_ws/firmware/freertos_apps/apps/ping_pong/app.c **** rcl_publisher_t ping_publisher;
  23:/home/mego/microros_ws/firmware/freertos_apps/apps/ping_pong/app.c **** rcl_publisher_t pong_publisher;
  24:/home/mego/microros_ws/firmware/freertos_apps/apps/ping_pong/app.c **** rcl_subscription_t ping_subscriber;
  25:/home/mego/microros_ws/firmware/freertos_apps/apps/ping_pong/app.c **** rcl_subscription_t pong_subscriber;
  26:/home/mego/microros_ws/firmware/freertos_apps/apps/ping_pong/app.c **** 
  27:/home/mego/microros_ws/firmware/freertos_apps/apps/ping_pong/app.c **** std_msgs__msg__Header incoming_ping;
  28:/home/mego/microros_ws/firmware/freertos_apps/apps/ping_pong/app.c **** std_msgs__msg__Header outcoming_ping;
  29:/home/mego/microros_ws/firmware/freertos_apps/apps/ping_pong/app.c **** std_msgs__msg__Header incoming_pong;
  30:/home/mego/microros_ws/firmware/freertos_apps/apps/ping_pong/app.c **** 
  31:/home/mego/microros_ws/firmware/freertos_apps/apps/ping_pong/app.c **** int device_id;
  32:/home/mego/microros_ws/firmware/freertos_apps/apps/ping_pong/app.c **** int seq_no;
  33:/home/mego/microros_ws/firmware/freertos_apps/apps/ping_pong/app.c **** int pong_count;
  34:/home/mego/microros_ws/firmware/freertos_apps/apps/ping_pong/app.c **** 
  35:/home/mego/microros_ws/firmware/freertos_apps/apps/ping_pong/app.c **** void ping_timer_callback(rcl_timer_t * timer, int64_t last_call_time)
  36:/home/mego/microros_ws/firmware/freertos_apps/apps/ping_pong/app.c **** {
 214              		.loc 1 36 1
 215              		.cfi_startproc
 216              		@ args = 0, pretend = 0, frame = 32
 217              		@ frame_needed = 1, uses_anonymous_args = 0
 218 0000 90B5     		push	{r4, r7, lr}
 219              	.LCFI0:
 220              		.cfi_def_cfa_offset 12
 221              		.cfi_offset 4, -12
 222              		.cfi_offset 7, -8
 223              		.cfi_offset 14, -4
 224 0002 89B0     		sub	sp, sp, #36
 225              	.LCFI1:
 226              		.cfi_def_cfa_offset 48
 227 0004 00AF     		add	r7, sp, #0
 228              	.LCFI2:
 229              		.cfi_def_cfa_register 7
 230 0006 F860     		str	r0, [r7, #12]
 231 0008 C7E90023 		strd	r2, [r7]
  37:/home/mego/microros_ws/firmware/freertos_apps/apps/ping_pong/app.c **** 	RCLC_UNUSED(last_call_time);
  38:/home/mego/microros_ws/firmware/freertos_apps/apps/ping_pong/app.c **** 
  39:/home/mego/microros_ws/firmware/freertos_apps/apps/ping_pong/app.c **** 	if (timer != NULL) {
 232              		.loc 1 39 5
 233 000c FB68     		ldr	r3, [r7, #12]
 234 000e 002B     		cmp	r3, #0
ARM GAS  /tmp/ccVS1xKp.s 			page 6


 235 0010 32D0     		beq	.L3
 236              	.LBB2:
  40:/home/mego/microros_ws/firmware/freertos_apps/apps/ping_pong/app.c **** 
  41:/home/mego/microros_ws/firmware/freertos_apps/apps/ping_pong/app.c **** 		seq_no = rand();
 237              		.loc 1 41 12
 238 0012 FFF7FEFF 		bl	rand
 239 0016 0246     		mov	r2, r0
 240              		.loc 1 41 10
 241 0018 194B     		ldr	r3, .L4
 242 001a 1A60     		str	r2, [r3]
  42:/home/mego/microros_ws/firmware/freertos_apps/apps/ping_pong/app.c **** 		sprintf(outcoming_ping.frame_id.data, "%d_%d", seq_no, device_id);
 243              		.loc 1 42 3
 244 001c 194B     		ldr	r3, .L4+4
 245 001e 9868     		ldr	r0, [r3, #8]
 246 0020 174B     		ldr	r3, .L4
 247 0022 1A68     		ldr	r2, [r3]
 248 0024 184B     		ldr	r3, .L4+8
 249 0026 1B68     		ldr	r3, [r3]
 250 0028 1849     		ldr	r1, .L4+12
 251 002a FFF7FEFF 		bl	sprintf
  43:/home/mego/microros_ws/firmware/freertos_apps/apps/ping_pong/app.c **** 		outcoming_ping.frame_id.size = strlen(outcoming_ping.frame_id.data);
 252              		.loc 1 43 64
 253 002e 154B     		ldr	r3, .L4+4
 254 0030 9B68     		ldr	r3, [r3, #8]
 255              		.loc 1 43 34
 256 0032 1846     		mov	r0, r3
 257 0034 FFF7FEFF 		bl	strlen
 258 0038 0246     		mov	r2, r0
 259              		.loc 1 43 32
 260 003a 124B     		ldr	r3, .L4+4
 261 003c DA60     		str	r2, [r3, #12]
  44:/home/mego/microros_ws/firmware/freertos_apps/apps/ping_pong/app.c **** 
  45:/home/mego/microros_ws/firmware/freertos_apps/apps/ping_pong/app.c **** 		// Fill the message timestamp
  46:/home/mego/microros_ws/firmware/freertos_apps/apps/ping_pong/app.c **** 		struct timespec ts;
  47:/home/mego/microros_ws/firmware/freertos_apps/apps/ping_pong/app.c **** 		clock_gettime(CLOCK_REALTIME, &ts);
 262              		.loc 1 47 3
 263 003e 07F11003 		add	r3, r7, #16
 264 0042 1946     		mov	r1, r3
 265 0044 0020     		movs	r0, #0
 266 0046 FFF7FEFF 		bl	clock_gettime
  48:/home/mego/microros_ws/firmware/freertos_apps/apps/ping_pong/app.c **** 		outcoming_ping.stamp.sec = ts.tv_sec;
 267              		.loc 1 48 32
 268 004a D7E90434 		ldrd	r3, [r7, #16]
 269              		.loc 1 48 28
 270 004e 1A46     		mov	r2, r3
 271 0050 0C4B     		ldr	r3, .L4+4
 272 0052 1A60     		str	r2, [r3]
  49:/home/mego/microros_ws/firmware/freertos_apps/apps/ping_pong/app.c **** 		outcoming_ping.stamp.nanosec = ts.tv_nsec;
 273              		.loc 1 49 36
 274 0054 BB69     		ldr	r3, [r7, #24]
 275 0056 1A46     		mov	r2, r3
 276              		.loc 1 49 32
 277 0058 0A4B     		ldr	r3, .L4+4
 278 005a 5A60     		str	r2, [r3, #4]
  50:/home/mego/microros_ws/firmware/freertos_apps/apps/ping_pong/app.c **** 
  51:/home/mego/microros_ws/firmware/freertos_apps/apps/ping_pong/app.c **** 		// Reset the pong count and publish the ping message
  52:/home/mego/microros_ws/firmware/freertos_apps/apps/ping_pong/app.c **** 		pong_count = 0;
ARM GAS  /tmp/ccVS1xKp.s 			page 7


 279              		.loc 1 52 14
 280 005c 0C4B     		ldr	r3, .L4+16
 281 005e 0022     		movs	r2, #0
 282 0060 1A60     		str	r2, [r3]
  53:/home/mego/microros_ws/firmware/freertos_apps/apps/ping_pong/app.c **** 		rcl_publish(&ping_publisher, (const void*)&outcoming_ping, NULL);
 283              		.loc 1 53 3
 284 0062 0022     		movs	r2, #0
 285 0064 0749     		ldr	r1, .L4+4
 286 0066 0B48     		ldr	r0, .L4+20
 287 0068 FFF7FEFF 		bl	rcl_publish
  54:/home/mego/microros_ws/firmware/freertos_apps/apps/ping_pong/app.c **** 		printf("Ping send seq %s\n", outcoming_ping.frame_id.data);
 288              		.loc 1 54 3
 289 006c 054B     		ldr	r3, .L4+4
 290 006e 9B68     		ldr	r3, [r3, #8]
 291 0070 1946     		mov	r1, r3
 292 0072 0948     		ldr	r0, .L4+24
 293 0074 FFF7FEFF 		bl	printf
 294              	.L3:
 295              	.LBE2:
  55:/home/mego/microros_ws/firmware/freertos_apps/apps/ping_pong/app.c **** 	}
  56:/home/mego/microros_ws/firmware/freertos_apps/apps/ping_pong/app.c **** }
 296              		.loc 1 56 1
 297 0078 00BF     		nop
 298 007a 2437     		adds	r7, r7, #36
 299              	.LCFI3:
 300              		.cfi_def_cfa_offset 12
 301 007c BD46     		mov	sp, r7
 302              	.LCFI4:
 303              		.cfi_def_cfa_register 13
 304              		@ sp needed
 305 007e 90BD     		pop	{r4, r7, pc}
 306              	.L5:
 307              		.align	2
 308              	.L4:
 309 0080 00000000 		.word	seq_no
 310 0084 00000000 		.word	outcoming_ping
 311 0088 00000000 		.word	device_id
 312 008c 00000000 		.word	.LC0
 313 0090 00000000 		.word	pong_count
 314 0094 00000000 		.word	ping_publisher
 315 0098 08000000 		.word	.LC1
 316              		.cfi_endproc
 317              	.LFE4:
 319              		.section	.rodata
 320 001a 0000     		.align	2
 321              	.LC2:
 322 001c 50696E67 		.ascii	"Ping received with seq %s. Answering.\012\000"
 322      20726563 
 322      65697665 
 322      64207769 
 322      74682073 
 323              		.section	.text.ping_subscription_callback,"ax",%progbits
 324              		.align	1
 325              		.global	ping_subscription_callback
 326              		.syntax unified
 327              		.thumb
 328              		.thumb_func
ARM GAS  /tmp/ccVS1xKp.s 			page 8


 329              		.fpu fpv4-sp-d16
 331              	ping_subscription_callback:
 332              	.LFB5:
  57:/home/mego/microros_ws/firmware/freertos_apps/apps/ping_pong/app.c **** 
  58:/home/mego/microros_ws/firmware/freertos_apps/apps/ping_pong/app.c **** void ping_subscription_callback(const void * msgin)
  59:/home/mego/microros_ws/firmware/freertos_apps/apps/ping_pong/app.c **** {
 333              		.loc 1 59 1
 334              		.cfi_startproc
 335              		@ args = 0, pretend = 0, frame = 16
 336              		@ frame_needed = 1, uses_anonymous_args = 0
 337 0000 80B5     		push	{r7, lr}
 338              	.LCFI5:
 339              		.cfi_def_cfa_offset 8
 340              		.cfi_offset 7, -8
 341              		.cfi_offset 14, -4
 342 0002 84B0     		sub	sp, sp, #16
 343              	.LCFI6:
 344              		.cfi_def_cfa_offset 24
 345 0004 00AF     		add	r7, sp, #0
 346              	.LCFI7:
 347              		.cfi_def_cfa_register 7
 348 0006 7860     		str	r0, [r7, #4]
  60:/home/mego/microros_ws/firmware/freertos_apps/apps/ping_pong/app.c **** 	const std_msgs__msg__Header * msg = (const std_msgs__msg__Header *)msgin;
 349              		.loc 1 60 32
 350 0008 7B68     		ldr	r3, [r7, #4]
 351 000a FB60     		str	r3, [r7, #12]
  61:/home/mego/microros_ws/firmware/freertos_apps/apps/ping_pong/app.c **** 
  62:/home/mego/microros_ws/firmware/freertos_apps/apps/ping_pong/app.c **** 	// Dont pong my own pings
  63:/home/mego/microros_ws/firmware/freertos_apps/apps/ping_pong/app.c **** 	if(strcmp(outcoming_ping.frame_id.data, msg->frame_id.data) != 0){
 352              		.loc 1 63 35
 353 000c 0C4B     		ldr	r3, .L9
 354 000e 9A68     		ldr	r2, [r3, #8]
 355              		.loc 1 63 55
 356 0010 FB68     		ldr	r3, [r7, #12]
 357 0012 9B68     		ldr	r3, [r3, #8]
 358              		.loc 1 63 5
 359 0014 1946     		mov	r1, r3
 360 0016 1046     		mov	r0, r2
 361 0018 FFF7FEFF 		bl	strcmp
 362 001c 0346     		mov	r3, r0
 363              		.loc 1 63 4
 364 001e 002B     		cmp	r3, #0
 365 0020 0AD0     		beq	.L8
  64:/home/mego/microros_ws/firmware/freertos_apps/apps/ping_pong/app.c **** 		printf("Ping received with seq %s. Answering.\n", msg->frame_id.data);
 366              		.loc 1 64 3
 367 0022 FB68     		ldr	r3, [r7, #12]
 368 0024 9B68     		ldr	r3, [r3, #8]
 369 0026 1946     		mov	r1, r3
 370 0028 0648     		ldr	r0, .L9+4
 371 002a FFF7FEFF 		bl	printf
  65:/home/mego/microros_ws/firmware/freertos_apps/apps/ping_pong/app.c **** 		rcl_publish(&pong_publisher, (const void*)msg, NULL);
 372              		.loc 1 65 3
 373 002e 0022     		movs	r2, #0
 374 0030 F968     		ldr	r1, [r7, #12]
 375 0032 0548     		ldr	r0, .L9+8
 376 0034 FFF7FEFF 		bl	rcl_publish
 377              	.L8:
ARM GAS  /tmp/ccVS1xKp.s 			page 9


  66:/home/mego/microros_ws/firmware/freertos_apps/apps/ping_pong/app.c **** 	}
  67:/home/mego/microros_ws/firmware/freertos_apps/apps/ping_pong/app.c **** }
 378              		.loc 1 67 1
 379 0038 00BF     		nop
 380 003a 1037     		adds	r7, r7, #16
 381              	.LCFI8:
 382              		.cfi_def_cfa_offset 8
 383 003c BD46     		mov	sp, r7
 384              	.LCFI9:
 385              		.cfi_def_cfa_register 13
 386              		@ sp needed
 387 003e 80BD     		pop	{r7, pc}
 388              	.L10:
 389              		.align	2
 390              	.L9:
 391 0040 00000000 		.word	outcoming_ping
 392 0044 1C000000 		.word	.LC2
 393 0048 00000000 		.word	pong_publisher
 394              		.cfi_endproc
 395              	.LFE5:
 397              		.section	.rodata
 398 0043 00       		.align	2
 399              	.LC3:
 400 0044 506F6E67 		.ascii	"Pong for seq %s (%d)\012\000"
 400      20666F72 
 400      20736571 
 400      20257320 
 400      28256429 
 401              		.section	.text.pong_subscription_callback,"ax",%progbits
 402              		.align	1
 403              		.global	pong_subscription_callback
 404              		.syntax unified
 405              		.thumb
 406              		.thumb_func
 407              		.fpu fpv4-sp-d16
 409              	pong_subscription_callback:
 410              	.LFB6:
  68:/home/mego/microros_ws/firmware/freertos_apps/apps/ping_pong/app.c **** 
  69:/home/mego/microros_ws/firmware/freertos_apps/apps/ping_pong/app.c **** 
  70:/home/mego/microros_ws/firmware/freertos_apps/apps/ping_pong/app.c **** void pong_subscription_callback(const void * msgin)
  71:/home/mego/microros_ws/firmware/freertos_apps/apps/ping_pong/app.c **** {
 411              		.loc 1 71 1
 412              		.cfi_startproc
 413              		@ args = 0, pretend = 0, frame = 16
 414              		@ frame_needed = 1, uses_anonymous_args = 0
 415 0000 80B5     		push	{r7, lr}
 416              	.LCFI10:
 417              		.cfi_def_cfa_offset 8
 418              		.cfi_offset 7, -8
 419              		.cfi_offset 14, -4
 420 0002 84B0     		sub	sp, sp, #16
 421              	.LCFI11:
 422              		.cfi_def_cfa_offset 24
 423 0004 00AF     		add	r7, sp, #0
 424              	.LCFI12:
 425              		.cfi_def_cfa_register 7
 426 0006 7860     		str	r0, [r7, #4]
ARM GAS  /tmp/ccVS1xKp.s 			page 10


  72:/home/mego/microros_ws/firmware/freertos_apps/apps/ping_pong/app.c **** 	const std_msgs__msg__Header * msg = (const std_msgs__msg__Header *)msgin;
 427              		.loc 1 72 32
 428 0008 7B68     		ldr	r3, [r7, #4]
 429 000a FB60     		str	r3, [r7, #12]
  73:/home/mego/microros_ws/firmware/freertos_apps/apps/ping_pong/app.c **** 
  74:/home/mego/microros_ws/firmware/freertos_apps/apps/ping_pong/app.c **** 	if(strcmp(outcoming_ping.frame_id.data, msg->frame_id.data) == 0) {
 430              		.loc 1 74 35
 431 000c 0D4B     		ldr	r3, .L14
 432 000e 9A68     		ldr	r2, [r3, #8]
 433              		.loc 1 74 55
 434 0010 FB68     		ldr	r3, [r7, #12]
 435 0012 9B68     		ldr	r3, [r3, #8]
 436              		.loc 1 74 5
 437 0014 1946     		mov	r1, r3
 438 0016 1046     		mov	r0, r2
 439 0018 FFF7FEFF 		bl	strcmp
 440 001c 0346     		mov	r3, r0
 441              		.loc 1 74 4
 442 001e 002B     		cmp	r3, #0
 443 0020 0CD1     		bne	.L13
  75:/home/mego/microros_ws/firmware/freertos_apps/apps/ping_pong/app.c **** 		pong_count++;
 444              		.loc 1 75 13
 445 0022 094B     		ldr	r3, .L14+4
 446 0024 1B68     		ldr	r3, [r3]
 447 0026 0133     		adds	r3, r3, #1
 448 0028 074A     		ldr	r2, .L14+4
 449 002a 1360     		str	r3, [r2]
  76:/home/mego/microros_ws/firmware/freertos_apps/apps/ping_pong/app.c **** 		printf("Pong for seq %s (%d)\n", msg->frame_id.data, pong_count);
 450              		.loc 1 76 3
 451 002c FB68     		ldr	r3, [r7, #12]
 452 002e 9968     		ldr	r1, [r3, #8]
 453 0030 054B     		ldr	r3, .L14+4
 454 0032 1B68     		ldr	r3, [r3]
 455 0034 1A46     		mov	r2, r3
 456 0036 0548     		ldr	r0, .L14+8
 457 0038 FFF7FEFF 		bl	printf
 458              	.L13:
  77:/home/mego/microros_ws/firmware/freertos_apps/apps/ping_pong/app.c **** 	}
  78:/home/mego/microros_ws/firmware/freertos_apps/apps/ping_pong/app.c **** }
 459              		.loc 1 78 1
 460 003c 00BF     		nop
 461 003e 1037     		adds	r7, r7, #16
 462              	.LCFI13:
 463              		.cfi_def_cfa_offset 8
 464 0040 BD46     		mov	sp, r7
 465              	.LCFI14:
 466              		.cfi_def_cfa_register 13
 467              		@ sp needed
 468 0042 80BD     		pop	{r7, pc}
 469              	.L15:
 470              		.align	2
 471              	.L14:
 472 0044 00000000 		.word	outcoming_ping
 473 0048 00000000 		.word	pong_count
 474 004c 44000000 		.word	.LC3
 475              		.cfi_endproc
 476              	.LFE6:
ARM GAS  /tmp/ccVS1xKp.s 			page 11


 478              		.section	.rodata
 479 005a 0000     		.align	2
 480              	.LC4:
 481 005c 4661696C 		.ascii	"Failed status on line %d: %d. Aborting.\012\000"
 481      65642073 
 481      74617475 
 481      73206F6E 
 481      206C696E 
 482 0085 000000   		.align	2
 483              	.LC5:
 484 0088 00       		.ascii	"\000"
 485 0089 000000   		.align	2
 486              	.LC6:
 487 008c 70696E67 		.ascii	"pingpong_node\000"
 487      706F6E67 
 487      5F6E6F64 
 487      6500
 488 009a 0000     		.align	2
 489              	.LC7:
 490 009c 2F6D6963 		.ascii	"/microROS/ping\000"
 490      726F524F 
 490      532F7069 
 490      6E6700
 491 00ab 00       		.align	2
 492              	.LC8:
 493 00ac 2F6D6963 		.ascii	"/microROS/pong\000"
 493      726F524F 
 493      532F706F 
 493      6E6700
 494              		.section	.text.appMain,"ax",%progbits
 495              		.align	1
 496              		.global	appMain
 497              		.syntax unified
 498              		.thumb
 499              		.thumb_func
 500              		.fpu fpv4-sp-d16
 502              	appMain:
 503              	.LFB7:
  79:/home/mego/microros_ws/firmware/freertos_apps/apps/ping_pong/app.c **** 
  80:/home/mego/microros_ws/firmware/freertos_apps/apps/ping_pong/app.c **** 
  81:/home/mego/microros_ws/firmware/freertos_apps/apps/ping_pong/app.c **** void appMain(void *argument)
  82:/home/mego/microros_ws/firmware/freertos_apps/apps/ping_pong/app.c **** {
 504              		.loc 1 82 1
 505              		.cfi_startproc
 506              		@ args = 0, pretend = 0, frame = 456
 507              		@ frame_needed = 1, uses_anonymous_args = 0
 508 0000 80B5     		push	{r7, lr}
 509              	.LCFI15:
 510              		.cfi_def_cfa_offset 8
 511              		.cfi_offset 7, -8
 512              		.cfi_offset 14, -4
 513 0002 F4B0     		sub	sp, sp, #464
 514              	.LCFI16:
 515              		.cfi_def_cfa_offset 472
 516 0004 02AF     		add	r7, sp, #8
 517              	.LCFI17:
 518              		.cfi_def_cfa 7, 464
ARM GAS  /tmp/ccVS1xKp.s 			page 12


 519 0006 3B1D     		adds	r3, r7, #4
 520 0008 1860     		str	r0, [r3]
  83:/home/mego/microros_ws/firmware/freertos_apps/apps/ping_pong/app.c **** 	int test_printf_count = 0;
 521              		.loc 1 83 6
 522 000a 0023     		movs	r3, #0
 523 000c C7F8C431 		str	r3, [r7, #452]
  84:/home/mego/microros_ws/firmware/freertos_apps/apps/ping_pong/app.c **** 	rcl_allocator_t allocator = rcl_get_default_allocator();
 524              		.loc 1 84 30
 525 0010 07F5C273 		add	r3, r7, #388
 526 0014 1846     		mov	r0, r3
 527 0016 FFF7FEFF 		bl	rcutils_get_default_allocator
 528              	.LBB3:
  85:/home/mego/microros_ws/firmware/freertos_apps/apps/ping_pong/app.c **** 	rclc_support_t support;
  86:/home/mego/microros_ws/firmware/freertos_apps/apps/ping_pong/app.c **** 
  87:/home/mego/microros_ws/firmware/freertos_apps/apps/ping_pong/app.c **** // create init_options
  88:/home/mego/microros_ws/firmware/freertos_apps/apps/ping_pong/app.c **** 	RCCHECK(rclc_support_init(&support, 0, NULL, &allocator));
 529              		.loc 1 88 2
 530 001a 07F5C273 		add	r3, r7, #388
 531 001e 07F59C70 		add	r0, r7, #312
 532 0022 0022     		movs	r2, #0
 533 0024 0021     		movs	r1, #0
 534 0026 FFF7FEFF 		bl	rclc_support_init
 535 002a C7F8C001 		str	r0, [r7, #448]
 536 002e D7F8C031 		ldr	r3, [r7, #448]
 537 0032 002B     		cmp	r3, #0
 538 0034 08D0     		beq	.L17
 539              	.LBB4:
 540              		.loc 1 88 2 is_stmt 0 discriminator 1
 541 0036 D7F8C021 		ldr	r2, [r7, #448]
 542 003a 5821     		movs	r1, #88
 543 003c 9248     		ldr	r0, .L29+8
 544 003e FFF7FEFF 		bl	printf
 545 0042 0020     		movs	r0, #0
 546 0044 FFF7FEFF 		bl	vTaskDelete
 547              	.L17:
 548              	.LBE4:
 549              	.LBE3:
 550              	.LBB5:
  89:/home/mego/microros_ws/firmware/freertos_apps/apps/ping_pong/app.c **** 
  90:/home/mego/microros_ws/firmware/freertos_apps/apps/ping_pong/app.c **** 	rcl_node_t node;
  91:/home/mego/microros_ws/firmware/freertos_apps/apps/ping_pong/app.c **** 	RCCHECK(rclc_node_init_default(&node, "pingpong_node", "", &support));
 551              		.loc 1 91 2 is_stmt 1
 552 0048 07F59C73 		add	r3, r7, #312
 553 004c 07F59870 		add	r0, r7, #304
 554 0050 8E4A     		ldr	r2, .L29+12
 555 0052 8F49     		ldr	r1, .L29+16
 556 0054 FFF7FEFF 		bl	rclc_node_init_default
 557 0058 C7F8BC01 		str	r0, [r7, #444]
 558 005c D7F8BC31 		ldr	r3, [r7, #444]
 559 0060 002B     		cmp	r3, #0
 560 0062 08D0     		beq	.L18
 561              	.LBB6:
 562              		.loc 1 91 2 is_stmt 0 discriminator 1
 563 0064 D7F8BC21 		ldr	r2, [r7, #444]
 564 0068 5B21     		movs	r1, #91
 565 006a 8748     		ldr	r0, .L29+8
 566 006c FFF7FEFF 		bl	printf
ARM GAS  /tmp/ccVS1xKp.s 			page 13


 567 0070 0020     		movs	r0, #0
 568 0072 FFF7FEFF 		bl	vTaskDelete
 569              	.L18:
 570              	.LBE6:
 571              	.LBE5:
 572              	.LBB7:
  92:/home/mego/microros_ws/firmware/freertos_apps/apps/ping_pong/app.c **** 
  93:/home/mego/microros_ws/firmware/freertos_apps/apps/ping_pong/app.c **** 	RCCHECK(rclc_publisher_init_default(&ping_publisher, &node,
 573              		.loc 1 93 2 is_stmt 1
 574 0076 FFF7FEFF 		bl	rosidl_typesupport_c__get_message_type_support_handle__std_msgs__msg__Header
 575 007a 0246     		mov	r2, r0
 576 007c 07F59871 		add	r1, r7, #304
 577 0080 844B     		ldr	r3, .L29+20
 578 0082 8548     		ldr	r0, .L29+24
 579 0084 FFF7FEFF 		bl	rclc_publisher_init_default
 580 0088 C7F8B801 		str	r0, [r7, #440]
 581 008c D7F8B831 		ldr	r3, [r7, #440]
 582 0090 002B     		cmp	r3, #0
 583 0092 08D0     		beq	.L19
 584              	.LBB8:
 585              		.loc 1 93 2 is_stmt 0 discriminator 1
 586 0094 D7F8B821 		ldr	r2, [r7, #440]
 587 0098 5E21     		movs	r1, #94
 588 009a 7B48     		ldr	r0, .L29+8
 589 009c FFF7FEFF 		bl	printf
 590 00a0 0020     		movs	r0, #0
 591 00a2 FFF7FEFF 		bl	vTaskDelete
 592              	.L19:
 593              	.LBE8:
 594              	.LBE7:
 595              	.LBB9:
  94:/home/mego/microros_ws/firmware/freertos_apps/apps/ping_pong/app.c **** 		ROSIDL_GET_MSG_TYPE_SUPPORT(std_msgs, msg, Header), "/microROS/ping"));
  95:/home/mego/microros_ws/firmware/freertos_apps/apps/ping_pong/app.c **** 
  96:/home/mego/microros_ws/firmware/freertos_apps/apps/ping_pong/app.c **** // Create a best effort pong publisher
  97:/home/mego/microros_ws/firmware/freertos_apps/apps/ping_pong/app.c **** 	RCCHECK(rclc_publisher_init_best_effort(&pong_publisher, &node,
 596              		.loc 1 97 2 is_stmt 1
 597 00a6 FFF7FEFF 		bl	rosidl_typesupport_c__get_message_type_support_handle__std_msgs__msg__Header
 598 00aa 0246     		mov	r2, r0
 599 00ac 07F59871 		add	r1, r7, #304
 600 00b0 7A4B     		ldr	r3, .L29+28
 601 00b2 7B48     		ldr	r0, .L29+32
 602 00b4 FFF7FEFF 		bl	rclc_publisher_init_best_effort
 603 00b8 C7F8B401 		str	r0, [r7, #436]
 604 00bc D7F8B431 		ldr	r3, [r7, #436]
 605 00c0 002B     		cmp	r3, #0
 606 00c2 08D0     		beq	.L20
 607              	.LBB10:
 608              		.loc 1 97 2 is_stmt 0 discriminator 1
 609 00c4 D7F8B421 		ldr	r2, [r7, #436]
 610 00c8 6221     		movs	r1, #98
 611 00ca 6F48     		ldr	r0, .L29+8
 612 00cc FFF7FEFF 		bl	printf
 613 00d0 0020     		movs	r0, #0
 614 00d2 FFF7FEFF 		bl	vTaskDelete
 615              	.L20:
 616              	.LBE10:
 617              	.LBE9:
ARM GAS  /tmp/ccVS1xKp.s 			page 14


 618              	.LBB11:
  98:/home/mego/microros_ws/firmware/freertos_apps/apps/ping_pong/app.c **** 		ROSIDL_GET_MSG_TYPE_SUPPORT(std_msgs, msg, Header), "/microROS/pong"));
  99:/home/mego/microros_ws/firmware/freertos_apps/apps/ping_pong/app.c **** 
 100:/home/mego/microros_ws/firmware/freertos_apps/apps/ping_pong/app.c **** 	RCCHECK(rclc_subscription_init_best_effort(&ping_subscriber, &node,
 619              		.loc 1 100 2 is_stmt 1
 620 00d6 FFF7FEFF 		bl	rosidl_typesupport_c__get_message_type_support_handle__std_msgs__msg__Header
 621 00da 0246     		mov	r2, r0
 622 00dc 07F59871 		add	r1, r7, #304
 623 00e0 6C4B     		ldr	r3, .L29+20
 624 00e2 7048     		ldr	r0, .L29+36
 625 00e4 FFF7FEFF 		bl	rclc_subscription_init_best_effort
 626 00e8 C7F8B001 		str	r0, [r7, #432]
 627 00ec D7F8B031 		ldr	r3, [r7, #432]
 628 00f0 002B     		cmp	r3, #0
 629 00f2 08D0     		beq	.L21
 630              	.LBB12:
 631              		.loc 1 100 2 is_stmt 0 discriminator 1
 632 00f4 D7F8B021 		ldr	r2, [r7, #432]
 633 00f8 6521     		movs	r1, #101
 634 00fa 6348     		ldr	r0, .L29+8
 635 00fc FFF7FEFF 		bl	printf
 636 0100 0020     		movs	r0, #0
 637 0102 FFF7FEFF 		bl	vTaskDelete
 638              	.L21:
 639              	.LBE12:
 640              	.LBE11:
 641              	.LBB13:
 101:/home/mego/microros_ws/firmware/freertos_apps/apps/ping_pong/app.c **** 		ROSIDL_GET_MSG_TYPE_SUPPORT(std_msgs, msg, Header), "/microROS/ping"));
 102:/home/mego/microros_ws/firmware/freertos_apps/apps/ping_pong/app.c **** 
 103:/home/mego/microros_ws/firmware/freertos_apps/apps/ping_pong/app.c **** // Create a best effort  pong subscriber
 104:/home/mego/microros_ws/firmware/freertos_apps/apps/ping_pong/app.c **** 	RCCHECK(rclc_subscription_init_best_effort(&pong_subscriber, &node,
 642              		.loc 1 104 2 is_stmt 1
 643 0106 FFF7FEFF 		bl	rosidl_typesupport_c__get_message_type_support_handle__std_msgs__msg__Header
 644 010a 0246     		mov	r2, r0
 645 010c 07F59871 		add	r1, r7, #304
 646 0110 624B     		ldr	r3, .L29+28
 647 0112 6548     		ldr	r0, .L29+40
 648 0114 FFF7FEFF 		bl	rclc_subscription_init_best_effort
 649 0118 C7F8AC01 		str	r0, [r7, #428]
 650 011c D7F8AC31 		ldr	r3, [r7, #428]
 651 0120 002B     		cmp	r3, #0
 652 0122 08D0     		beq	.L22
 653              	.LBB14:
 654              		.loc 1 104 2 is_stmt 0 discriminator 1
 655 0124 D7F8AC21 		ldr	r2, [r7, #428]
 656 0128 6921     		movs	r1, #105
 657 012a 5748     		ldr	r0, .L29+8
 658 012c FFF7FEFF 		bl	printf
 659 0130 0020     		movs	r0, #0
 660 0132 FFF7FEFF 		bl	vTaskDelete
 661              	.L22:
 662              	.LBE14:
 663              	.LBE13:
 664              	.LBB15:
 105:/home/mego/microros_ws/firmware/freertos_apps/apps/ping_pong/app.c **** 		ROSIDL_GET_MSG_TYPE_SUPPORT(std_msgs, msg, Header), "/microROS/pong"));
 106:/home/mego/microros_ws/firmware/freertos_apps/apps/ping_pong/app.c **** 
 107:/home/mego/microros_ws/firmware/freertos_apps/apps/ping_pong/app.c **** 
ARM GAS  /tmp/ccVS1xKp.s 			page 15


 108:/home/mego/microros_ws/firmware/freertos_apps/apps/ping_pong/app.c **** // Create a 3 seconds ping timer timer,
 109:/home/mego/microros_ws/firmware/freertos_apps/apps/ping_pong/app.c **** 	rcl_timer_t timer;
 110:/home/mego/microros_ws/firmware/freertos_apps/apps/ping_pong/app.c **** 	RCCHECK(rclc_timer_init_default(&timer, &support, RCL_MS_TO_NS(2000), ping_timer_callback));
 665              		.loc 1 110 2 is_stmt 1
 666 0136 07F59C71 		add	r1, r7, #312
 667 013a 07F59670 		add	r0, r7, #300
 668 013e 5B4B     		ldr	r3, .L29+44
 669 0140 0093     		str	r3, [sp]
 670 0142 4FA3     		adr	r3, .L29
 671 0144 D3E90023 		ldrd	r2, [r3]
 672 0148 FFF7FEFF 		bl	rclc_timer_init_default
 673 014c C7F8A801 		str	r0, [r7, #424]
 674 0150 D7F8A831 		ldr	r3, [r7, #424]
 675 0154 002B     		cmp	r3, #0
 676 0156 08D0     		beq	.L23
 677              	.LBB16:
 678              		.loc 1 110 2 is_stmt 0 discriminator 1
 679 0158 D7F8A821 		ldr	r2, [r7, #424]
 680 015c 6E21     		movs	r1, #110
 681 015e 4A48     		ldr	r0, .L29+8
 682 0160 FFF7FEFF 		bl	printf
 683 0164 0020     		movs	r0, #0
 684 0166 FFF7FEFF 		bl	vTaskDelete
 685              	.L23:
 686              	.LBE16:
 687              	.LBE15:
 688              	.LBB17:
 111:/home/mego/microros_ws/firmware/freertos_apps/apps/ping_pong/app.c **** 
 112:/home/mego/microros_ws/firmware/freertos_apps/apps/ping_pong/app.c **** 
 113:/home/mego/microros_ws/firmware/freertos_apps/apps/ping_pong/app.c **** // Create executor
 114:/home/mego/microros_ws/firmware/freertos_apps/apps/ping_pong/app.c **** 	rclc_executor_t executor;
 115:/home/mego/microros_ws/firmware/freertos_apps/apps/ping_pong/app.c **** 	RCCHECK(rclc_executor_init(&executor, &support.context, 3, &allocator));
 689              		.loc 1 115 2 is_stmt 1
 690 016a 07F5C272 		add	r2, r7, #388
 691 016e 07F59C73 		add	r3, r7, #312
 692 0172 03F10801 		add	r1, r3, #8
 693 0176 07F1A800 		add	r0, r7, #168
 694 017a 1346     		mov	r3, r2
 695 017c 0322     		movs	r2, #3
 696 017e FFF7FEFF 		bl	rclc_executor_init
 697 0182 C7F8A401 		str	r0, [r7, #420]
 698 0186 D7F8A431 		ldr	r3, [r7, #420]
 699 018a 002B     		cmp	r3, #0
 700 018c 08D0     		beq	.L24
 701              	.LBB18:
 702              		.loc 1 115 2 is_stmt 0 discriminator 1
 703 018e D7F8A421 		ldr	r2, [r7, #420]
 704 0192 7321     		movs	r1, #115
 705 0194 3C48     		ldr	r0, .L29+8
 706 0196 FFF7FEFF 		bl	printf
 707 019a 0020     		movs	r0, #0
 708 019c FFF7FEFF 		bl	vTaskDelete
 709              	.L24:
 710              	.LBE18:
 711              	.LBE17:
 712              	.LBB19:
 116:/home/mego/microros_ws/firmware/freertos_apps/apps/ping_pong/app.c **** 	RCCHECK(rclc_executor_add_timer(&executor, &timer));
ARM GAS  /tmp/ccVS1xKp.s 			page 16


 713              		.loc 1 116 2 is_stmt 1
 714 01a0 07F59672 		add	r2, r7, #300
 715 01a4 07F1A803 		add	r3, r7, #168
 716 01a8 1146     		mov	r1, r2
 717 01aa 1846     		mov	r0, r3
 718 01ac FFF7FEFF 		bl	rclc_executor_add_timer
 719 01b0 C7F8A001 		str	r0, [r7, #416]
 720 01b4 D7F8A031 		ldr	r3, [r7, #416]
 721 01b8 002B     		cmp	r3, #0
 722 01ba 08D0     		beq	.L25
 723              	.LBB20:
 724              		.loc 1 116 2 is_stmt 0 discriminator 1
 725 01bc D7F8A021 		ldr	r2, [r7, #416]
 726 01c0 7421     		movs	r1, #116
 727 01c2 3148     		ldr	r0, .L29+8
 728 01c4 FFF7FEFF 		bl	printf
 729 01c8 0020     		movs	r0, #0
 730 01ca FFF7FEFF 		bl	vTaskDelete
 731              	.L25:
 732              	.LBE20:
 733              	.LBE19:
 734              	.LBB21:
 117:/home/mego/microros_ws/firmware/freertos_apps/apps/ping_pong/app.c **** 	RCCHECK(rclc_executor_add_subscription(&executor, &ping_subscriber, &incoming_ping,
 735              		.loc 1 117 2 is_stmt 1
 736 01ce 07F1A800 		add	r0, r7, #168
 737 01d2 0023     		movs	r3, #0
 738 01d4 0093     		str	r3, [sp]
 739 01d6 364B     		ldr	r3, .L29+48
 740 01d8 364A     		ldr	r2, .L29+52
 741 01da 3249     		ldr	r1, .L29+36
 742 01dc FFF7FEFF 		bl	rclc_executor_add_subscription
 743 01e0 C7F89C01 		str	r0, [r7, #412]
 744 01e4 D7F89C31 		ldr	r3, [r7, #412]
 745 01e8 002B     		cmp	r3, #0
 746 01ea 08D0     		beq	.L26
 747              	.LBB22:
 748              		.loc 1 117 2 is_stmt 0 discriminator 1
 749 01ec D7F89C21 		ldr	r2, [r7, #412]
 750 01f0 7621     		movs	r1, #118
 751 01f2 2548     		ldr	r0, .L29+8
 752 01f4 FFF7FEFF 		bl	printf
 753 01f8 0020     		movs	r0, #0
 754 01fa FFF7FEFF 		bl	vTaskDelete
 755              	.L26:
 756              	.LBE22:
 757              	.LBE21:
 758              	.LBB23:
 118:/home/mego/microros_ws/firmware/freertos_apps/apps/ping_pong/app.c **** 		&ping_subscription_callback, ON_NEW_DATA));
 119:/home/mego/microros_ws/firmware/freertos_apps/apps/ping_pong/app.c **** 	RCCHECK(rclc_executor_add_subscription(&executor, &pong_subscriber, &incoming_pong,
 759              		.loc 1 119 2 is_stmt 1
 760 01fe 07F1A800 		add	r0, r7, #168
 761 0202 0023     		movs	r3, #0
 762 0204 0093     		str	r3, [sp]
 763 0206 2C4B     		ldr	r3, .L29+56
 764 0208 2C4A     		ldr	r2, .L29+60
 765 020a 2749     		ldr	r1, .L29+40
 766 020c FFF7FEFF 		bl	rclc_executor_add_subscription
ARM GAS  /tmp/ccVS1xKp.s 			page 17


 767 0210 C7F89801 		str	r0, [r7, #408]
 768 0214 D7F89831 		ldr	r3, [r7, #408]
 769 0218 002B     		cmp	r3, #0
 770 021a 08D0     		beq	.L27
 771              	.LBB24:
 772              		.loc 1 119 2 is_stmt 0 discriminator 1
 773 021c D7F89821 		ldr	r2, [r7, #408]
 774 0220 7821     		movs	r1, #120
 775 0222 1948     		ldr	r0, .L29+8
 776 0224 FFF7FEFF 		bl	printf
 777 0228 0020     		movs	r0, #0
 778 022a FFF7FEFF 		bl	vTaskDelete
 779              	.L27:
 780              	.LBE24:
 781              	.LBE23:
 120:/home/mego/microros_ws/firmware/freertos_apps/apps/ping_pong/app.c **** 		&pong_subscription_callback, ON_NEW_DATA));
 121:/home/mego/microros_ws/firmware/freertos_apps/apps/ping_pong/app.c **** 
 122:/home/mego/microros_ws/firmware/freertos_apps/apps/ping_pong/app.c **** // Create and allocate the pingpong messages
 123:/home/mego/microros_ws/firmware/freertos_apps/apps/ping_pong/app.c **** 	char outcoming_ping_buffer[STRING_BUFFER_LEN];
 124:/home/mego/microros_ws/firmware/freertos_apps/apps/ping_pong/app.c **** 	outcoming_ping.frame_id.data = outcoming_ping_buffer;
 782              		.loc 1 124 31 is_stmt 1
 783 022e 244A     		ldr	r2, .L29+64
 784 0230 07F17403 		add	r3, r7, #116
 785 0234 9360     		str	r3, [r2, #8]
 125:/home/mego/microros_ws/firmware/freertos_apps/apps/ping_pong/app.c **** 	outcoming_ping.frame_id.capacity = STRING_BUFFER_LEN;
 786              		.loc 1 125 35
 787 0236 224B     		ldr	r3, .L29+64
 788 0238 3222     		movs	r2, #50
 789 023a 1A61     		str	r2, [r3, #16]
 126:/home/mego/microros_ws/firmware/freertos_apps/apps/ping_pong/app.c **** 
 127:/home/mego/microros_ws/firmware/freertos_apps/apps/ping_pong/app.c **** 	char incoming_ping_buffer[STRING_BUFFER_LEN];
 128:/home/mego/microros_ws/firmware/freertos_apps/apps/ping_pong/app.c **** 	incoming_ping.frame_id.data = incoming_ping_buffer;
 790              		.loc 1 128 30
 791 023c 1D4A     		ldr	r2, .L29+52
 792 023e 07F14003 		add	r3, r7, #64
 793 0242 9360     		str	r3, [r2, #8]
 129:/home/mego/microros_ws/firmware/freertos_apps/apps/ping_pong/app.c **** 	incoming_ping.frame_id.capacity = STRING_BUFFER_LEN;
 794              		.loc 1 129 34
 795 0244 1B4B     		ldr	r3, .L29+52
 796 0246 3222     		movs	r2, #50
 797 0248 1A61     		str	r2, [r3, #16]
 130:/home/mego/microros_ws/firmware/freertos_apps/apps/ping_pong/app.c **** 
 131:/home/mego/microros_ws/firmware/freertos_apps/apps/ping_pong/app.c **** 	char incoming_pong_buffer[STRING_BUFFER_LEN];
 132:/home/mego/microros_ws/firmware/freertos_apps/apps/ping_pong/app.c **** 	incoming_pong.frame_id.data = incoming_pong_buffer;
 798              		.loc 1 132 30
 799 024a 1C4A     		ldr	r2, .L29+60
 800 024c 07F10C03 		add	r3, r7, #12
 801 0250 9360     		str	r3, [r2, #8]
 133:/home/mego/microros_ws/firmware/freertos_apps/apps/ping_pong/app.c **** 	incoming_pong.frame_id.capacity = STRING_BUFFER_LEN;
 802              		.loc 1 133 34
 803 0252 1A4B     		ldr	r3, .L29+60
 804 0254 3222     		movs	r2, #50
 805 0256 1A61     		str	r2, [r3, #16]
 134:/home/mego/microros_ws/firmware/freertos_apps/apps/ping_pong/app.c **** 
 135:/home/mego/microros_ws/firmware/freertos_apps/apps/ping_pong/app.c **** 	device_id = rand();
 806              		.loc 1 135 14
 807 0258 FFF7FEFF 		bl	rand
ARM GAS  /tmp/ccVS1xKp.s 			page 18


 808 025c 0246     		mov	r2, r0
 809              		.loc 1 135 12
 810 025e 194B     		ldr	r3, .L29+68
 811 0260 1A60     		str	r2, [r3]
 812              	.L28:
 136:/home/mego/microros_ws/firmware/freertos_apps/apps/ping_pong/app.c **** 	
 137:/home/mego/microros_ws/firmware/freertos_apps/apps/ping_pong/app.c **** 
 138:/home/mego/microros_ws/firmware/freertos_apps/apps/ping_pong/app.c **** 	while(1){
 139:/home/mego/microros_ws/firmware/freertos_apps/apps/ping_pong/app.c **** 		rclc_executor_spin_some(&executor, RCL_MS_TO_NS(10));
 813              		.loc 1 139 3 discriminator 1
 814 0262 07F1A801 		add	r1, r7, #168
 815 0266 184A     		ldr	r2, .L29+72
 816 0268 4FF00003 		mov	r3, #0
 817 026c 0846     		mov	r0, r1
 818 026e FFF7FEFF 		bl	rclc_executor_spin_some
 140:/home/mego/microros_ws/firmware/freertos_apps/apps/ping_pong/app.c **** 		usleep(10000);
 819              		.loc 1 140 3 discriminator 1
 820 0272 42F21070 		movw	r0, #10000
 821 0276 FFF7FEFF 		bl	usleep
 139:/home/mego/microros_ws/firmware/freertos_apps/apps/ping_pong/app.c **** 		usleep(10000);
 822              		.loc 1 139 3 discriminator 1
 823 027a F2E7     		b	.L28
 824              	.L30:
 825 027c AFF30080 		.align	3
 826              	.L29:
 827 0280 00943577 		.word	2000000000
 828 0284 00000000 		.word	0
 829 0288 5C000000 		.word	.LC4
 830 028c 88000000 		.word	.LC5
 831 0290 8C000000 		.word	.LC6
 832 0294 9C000000 		.word	.LC7
 833 0298 00000000 		.word	ping_publisher
 834 029c AC000000 		.word	.LC8
 835 02a0 00000000 		.word	pong_publisher
 836 02a4 00000000 		.word	ping_subscriber
 837 02a8 00000000 		.word	pong_subscriber
 838 02ac 00000000 		.word	ping_timer_callback
 839 02b0 00000000 		.word	ping_subscription_callback
 840 02b4 00000000 		.word	incoming_ping
 841 02b8 00000000 		.word	pong_subscription_callback
 842 02bc 00000000 		.word	incoming_pong
 843 02c0 00000000 		.word	outcoming_ping
 844 02c4 00000000 		.word	device_id
 845 02c8 80969800 		.word	10000000
 846              		.cfi_endproc
 847              	.LFE7:
 849              		.text
 850              	.Letext0:
 851              		.file 2 "/home/mego/microros_ws/firmware/freertos_apps/stm32MakefileTest/../../mcu_ws/install/rcut
 852              		.file 3 "/home/mego/microros_ws/firmware/toolchain/lib/gcc/arm-none-eabi/8.3.1/include/stddef.h"
 853              		.file 4 "/home/mego/microros_ws/firmware/freertos_apps/stm32MakefileTest/../../mcu_ws/install/rcl/
 854              		.file 5 "/home/mego/microros_ws/firmware/toolchain/arm-none-eabi/include/machine/_default_types.h"
 855              		.file 6 "/home/mego/microros_ws/firmware/toolchain/arm-none-eabi/include/sys/_stdint.h"
 856              		.file 7 "/home/mego/microros_ws/firmware/freertos_apps/stm32MakefileTest/../../mcu_ws/install/rmw/
 857              		.file 8 "/home/mego/microros_ws/firmware/toolchain/lib/gcc/arm-none-eabi/8.3.1/include/stdarg.h"
 858              		.file 9 "/home/mego/microros_ws/firmware/toolchain/arm-none-eabi/include/sys/_types.h"
 859              		.file 10 "/home/mego/microros_ws/firmware/toolchain/arm-none-eabi/include/sys/reent.h"
ARM GAS  /tmp/ccVS1xKp.s 			page 19


 860              		.file 11 "/home/mego/microros_ws/firmware/toolchain/arm-none-eabi/include/sys/lock.h"
 861              		.file 12 "/home/mego/microros_ws/firmware/freertos_apps/stm32MakefileTest/lib/include/FreeRTOS_POS
 862              		.file 13 "/home/mego/microros_ws/firmware/toolchain/arm-none-eabi/include/stdlib.h"
 863              		.file 14 "/home/mego/microros_ws/firmware/freertos_apps/stm32MakefileTest/../../mcu_ws/install/rcu
 864              		.file 15 "/home/mego/microros_ws/firmware/freertos_apps/stm32MakefileTest/../../mcu_ws/install/rcu
 865              		.file 16 "/home/mego/microros_ws/firmware/freertos_apps/stm32MakefileTest/../../mcu_ws/install/rmw
 866              		.file 17 "/home/mego/microros_ws/firmware/freertos_apps/stm32MakefileTest/../../mcu_ws/install/rcl
 867              		.file 18 "/home/mego/microros_ws/firmware/freertos_apps/stm32MakefileTest/../../mcu_ws/install/rcl
 868              		.file 19 "/home/mego/microros_ws/firmware/freertos_apps/stm32MakefileTest/../../mcu_ws/install/rcl
 869              		.file 20 "/home/mego/microros_ws/firmware/freertos_apps/stm32MakefileTest/../../mcu_ws/install/rcl
 870              		.file 21 "/home/mego/microros_ws/firmware/freertos_apps/stm32MakefileTest/../../mcu_ws/install/rcl
 871              		.file 22 "/home/mego/microros_ws/firmware/freertos_apps/stm32MakefileTest/../../mcu_ws/install/rcl
 872              		.file 23 "/home/mego/microros_ws/firmware/freertos_apps/stm32MakefileTest/../../mcu_ws/install/rcl
 873              		.file 24 "/home/mego/microros_ws/firmware/freertos_apps/stm32MakefileTest/../../mcu_ws/install/rcl
 874              		.file 25 "/home/mego/microros_ws/firmware/freertos_apps/stm32MakefileTest/../../mcu_ws/install/rcl
 875              		.file 26 "/home/mego/microros_ws/firmware/freertos_apps/stm32MakefileTest/../../mcu_ws/install/rcl
 876              		.file 27 "/home/mego/microros_ws/firmware/freertos_apps/stm32MakefileTest/../../mcu_ws/install/rcl
 877              		.file 28 "/home/mego/microros_ws/firmware/freertos_apps/stm32MakefileTest/../../mcu_ws/install/rmw
 878              		.file 29 "/home/mego/microros_ws/firmware/freertos_apps/stm32MakefileTest/../../mcu_ws/install/rcl
 879              		.file 30 "/home/mego/microros_ws/firmware/freertos_apps/stm32MakefileTest/../../mcu_ws/install/rcl
 880              		.file 31 "/home/mego/microros_ws/firmware/freertos_apps/stm32MakefileTest/../../mcu_ws/install/rcl
 881              		.file 32 "/home/mego/microros_ws/firmware/freertos_apps/stm32MakefileTest/../../mcu_ws/install/rcl
 882              		.file 33 "/home/mego/microros_ws/firmware/freertos_apps/stm32MakefileTest/../../mcu_ws/install/rcl
 883              		.file 34 "/home/mego/microros_ws/firmware/freertos_apps/stm32MakefileTest/../../mcu_ws/install/rcl
 884              		.file 35 "/home/mego/microros_ws/firmware/freertos_apps/stm32MakefileTest/../../mcu_ws/install/bui
 885              		.file 36 "/home/mego/microros_ws/firmware/freertos_apps/stm32MakefileTest/../../mcu_ws/install/ros
 886              		.file 37 "/home/mego/microros_ws/firmware/freertos_apps/stm32MakefileTest/../../mcu_ws/install/std
 887              		.file 38 "/home/mego/microros_ws/firmware/freertos_apps/stm32MakefileTest/lib/include/FreeRTOS_POS
 888              		.file 39 "<built-in>"
ARM GAS  /tmp/ccVS1xKp.s 			page 20


DEFINED SYMBOLS
                            *ABS*:0000000000000000 app.c
     /tmp/ccVS1xKp.s:18     .rodata.rmw_qos_profile_sensor_data:0000000000000000 $d
     /tmp/ccVS1xKp.s:21     .rodata.rmw_qos_profile_sensor_data:0000000000000000 rmw_qos_profile_sensor_data
     /tmp/ccVS1xKp.s:45     .rodata.rmw_qos_profile_parameters:0000000000000000 $d
     /tmp/ccVS1xKp.s:48     .rodata.rmw_qos_profile_parameters:0000000000000000 rmw_qos_profile_parameters
     /tmp/ccVS1xKp.s:72     .rodata.rmw_qos_profile_default:0000000000000000 $d
     /tmp/ccVS1xKp.s:75     .rodata.rmw_qos_profile_default:0000000000000000 rmw_qos_profile_default
     /tmp/ccVS1xKp.s:99     .rodata.rmw_qos_profile_services_default:0000000000000000 $d
     /tmp/ccVS1xKp.s:102    .rodata.rmw_qos_profile_services_default:0000000000000000 rmw_qos_profile_services_default
     /tmp/ccVS1xKp.s:126    .rodata.rmw_qos_profile_parameter_events:0000000000000000 $d
     /tmp/ccVS1xKp.s:129    .rodata.rmw_qos_profile_parameter_events:0000000000000000 rmw_qos_profile_parameter_events
     /tmp/ccVS1xKp.s:153    .rodata.rmw_qos_profile_system_default:0000000000000000 $d
     /tmp/ccVS1xKp.s:156    .rodata.rmw_qos_profile_system_default:0000000000000000 rmw_qos_profile_system_default
     /tmp/ccVS1xKp.s:159    .rodata.rmw_qos_profile_unknown:0000000000000000 $d
     /tmp/ccVS1xKp.s:162    .rodata.rmw_qos_profile_unknown:0000000000000000 rmw_qos_profile_unknown
                            *COM*:0000000000000004 ping_publisher
                            *COM*:0000000000000004 pong_publisher
                            *COM*:0000000000000004 ping_subscriber
                            *COM*:0000000000000004 pong_subscriber
                            *COM*:0000000000000014 incoming_ping
                            *COM*:0000000000000014 outcoming_ping
                            *COM*:0000000000000014 incoming_pong
                            *COM*:0000000000000004 device_id
                            *COM*:0000000000000004 seq_no
                            *COM*:0000000000000004 pong_count
     /tmp/ccVS1xKp.s:196    .rodata:0000000000000000 $d
     /tmp/ccVS1xKp.s:203    .text.ping_timer_callback:0000000000000000 $t
     /tmp/ccVS1xKp.s:211    .text.ping_timer_callback:0000000000000000 ping_timer_callback
     /tmp/ccVS1xKp.s:309    .text.ping_timer_callback:0000000000000080 $d
     /tmp/ccVS1xKp.s:324    .text.ping_subscription_callback:0000000000000000 $t
     /tmp/ccVS1xKp.s:331    .text.ping_subscription_callback:0000000000000000 ping_subscription_callback
     /tmp/ccVS1xKp.s:391    .text.ping_subscription_callback:0000000000000040 $d
     /tmp/ccVS1xKp.s:402    .text.pong_subscription_callback:0000000000000000 $t
     /tmp/ccVS1xKp.s:409    .text.pong_subscription_callback:0000000000000000 pong_subscription_callback
     /tmp/ccVS1xKp.s:472    .text.pong_subscription_callback:0000000000000044 $d
     /tmp/ccVS1xKp.s:495    .text.appMain:0000000000000000 $t
     /tmp/ccVS1xKp.s:502    .text.appMain:0000000000000000 appMain
     /tmp/ccVS1xKp.s:827    .text.appMain:0000000000000280 $d

UNDEFINED SYMBOLS
rand
sprintf
strlen
clock_gettime
rcl_publish
printf
strcmp
rcutils_get_default_allocator
rclc_support_init
vTaskDelete
rclc_node_init_default
rosidl_typesupport_c__get_message_type_support_handle__std_msgs__msg__Header
rclc_publisher_init_default
rclc_publisher_init_best_effort
rclc_subscription_init_best_effort
rclc_timer_init_default
ARM GAS  /tmp/ccVS1xKp.s 			page 21


rclc_executor_init
rclc_executor_add_timer
rclc_executor_add_subscription
rclc_executor_spin_some
usleep
