ARM GAS  /tmp/ccsjw2Nr.s 			page 1


   1              		.cpu cortex-m4
   2              		.eabi_attribute 27, 1
   3              		.eabi_attribute 28, 1
   4              		.eabi_attribute 20, 1
   5              		.eabi_attribute 21, 1
   6              		.eabi_attribute 23, 3
   7              		.eabi_attribute 24, 1
   8              		.eabi_attribute 25, 1
   9              		.eabi_attribute 26, 1
  10              		.eabi_attribute 30, 6
  11              		.eabi_attribute 34, 1
  12              		.eabi_attribute 18, 4
  13              		.file	"dhcp.c"
  14              		.text
  15              	.Ltext0:
  16              		.cfi_sections	.debug_frame
  17              		.comm	dhcp_rx_options_val,32,4
  18              		.comm	dhcp_rx_options_given,8,4
  19              		.section	.data.dhcp_discover_request_options,"aw"
  20              		.align	2
  23              	dhcp_discover_request_options:
  24 0000 01       		.byte	1
  25 0001 03       		.byte	3
  26 0002 1C       		.byte	28
  27              		.section	.bss.dhcp_pcb,"aw",%nobits
  28              		.align	2
  31              	dhcp_pcb:
  32 0000 00000000 		.space	4
  33              		.section	.bss.dhcp_pcb_refcount,"aw",%nobits
  36              	dhcp_pcb_refcount:
  37 0000 00       		.space	1
  38              		.section	.rodata
  39              		.align	2
  40              	.LC0:
  41 0000 4D696464 		.ascii	"Middlewares/Third_Party/LwIP/src/core/ipv4/dhcp.c\000"
  41      6C657761 
  41      7265732F 
  41      54686972 
  41      645F5061 
  42 0032 0000     		.align	2
  43              	.LC1:
  44 0034 64686370 		.ascii	"dhcp_inc_pcb_refcount(): memory leak\000"
  44      5F696E63 
  44      5F706362 
  44      5F726566 
  44      636F756E 
  45 0059 000000   		.align	2
  46              	.LC2:
  47 005c 41737365 		.ascii	"Assertion \"%s\" failed at line %d in %s\012\000"
  47      7274696F 
  47      6E202225 
  47      73222066 
  47      61696C65 
  48              		.section	.text.dhcp_inc_pcb_refcount,"ax",%progbits
  49              		.align	1
  50              		.arch armv7e-m
  51              		.syntax unified
ARM GAS  /tmp/ccsjw2Nr.s 			page 2


  52              		.thumb
  53              		.thumb_func
  54              		.fpu fpv4-sp-d16
  56              	dhcp_inc_pcb_refcount:
  57              	.LFB133:
  58              		.file 1 "Middlewares/Third_Party/LwIP/src/core/ipv4/dhcp.c"
   1:Middlewares/Third_Party/LwIP/src/core/ipv4/dhcp.c **** /**
   2:Middlewares/Third_Party/LwIP/src/core/ipv4/dhcp.c ****  * @file
   3:Middlewares/Third_Party/LwIP/src/core/ipv4/dhcp.c ****  * Dynamic Host Configuration Protocol client
   4:Middlewares/Third_Party/LwIP/src/core/ipv4/dhcp.c ****  *
   5:Middlewares/Third_Party/LwIP/src/core/ipv4/dhcp.c ****  * @defgroup dhcp4 DHCPv4
   6:Middlewares/Third_Party/LwIP/src/core/ipv4/dhcp.c ****  * @ingroup ip4
   7:Middlewares/Third_Party/LwIP/src/core/ipv4/dhcp.c ****  * DHCP (IPv4) related functions
   8:Middlewares/Third_Party/LwIP/src/core/ipv4/dhcp.c ****  * This is a DHCP client for the lwIP TCP/IP stack. It aims to conform
   9:Middlewares/Third_Party/LwIP/src/core/ipv4/dhcp.c ****  * with RFC 2131 and RFC 2132.
  10:Middlewares/Third_Party/LwIP/src/core/ipv4/dhcp.c ****  *
  11:Middlewares/Third_Party/LwIP/src/core/ipv4/dhcp.c ****  * @todo:
  12:Middlewares/Third_Party/LwIP/src/core/ipv4/dhcp.c ****  * - Support for interfaces other than Ethernet (SLIP, PPP, ...)
  13:Middlewares/Third_Party/LwIP/src/core/ipv4/dhcp.c ****  *
  14:Middlewares/Third_Party/LwIP/src/core/ipv4/dhcp.c ****  * Options:
  15:Middlewares/Third_Party/LwIP/src/core/ipv4/dhcp.c ****  * @ref DHCP_COARSE_TIMER_SECS (recommended 60 which is a minute)
  16:Middlewares/Third_Party/LwIP/src/core/ipv4/dhcp.c ****  * @ref DHCP_FINE_TIMER_MSECS (recommended 500 which equals TCP coarse timer)
  17:Middlewares/Third_Party/LwIP/src/core/ipv4/dhcp.c ****  *
  18:Middlewares/Third_Party/LwIP/src/core/ipv4/dhcp.c ****  * dhcp_start() starts a DHCP client instance which
  19:Middlewares/Third_Party/LwIP/src/core/ipv4/dhcp.c ****  * configures the interface by obtaining an IP address lease and maintaining it.
  20:Middlewares/Third_Party/LwIP/src/core/ipv4/dhcp.c ****  *
  21:Middlewares/Third_Party/LwIP/src/core/ipv4/dhcp.c ****  * Use dhcp_release() to end the lease and use dhcp_stop()
  22:Middlewares/Third_Party/LwIP/src/core/ipv4/dhcp.c ****  * to remove the DHCP client.
  23:Middlewares/Third_Party/LwIP/src/core/ipv4/dhcp.c ****  *
  24:Middlewares/Third_Party/LwIP/src/core/ipv4/dhcp.c ****  * @see LWIP_HOOK_DHCP_APPEND_OPTIONS
  25:Middlewares/Third_Party/LwIP/src/core/ipv4/dhcp.c ****  * @see LWIP_HOOK_DHCP_PARSE_OPTION
  26:Middlewares/Third_Party/LwIP/src/core/ipv4/dhcp.c ****  *
  27:Middlewares/Third_Party/LwIP/src/core/ipv4/dhcp.c ****  * @see netifapi_dhcp4
  28:Middlewares/Third_Party/LwIP/src/core/ipv4/dhcp.c ****  */
  29:Middlewares/Third_Party/LwIP/src/core/ipv4/dhcp.c **** 
  30:Middlewares/Third_Party/LwIP/src/core/ipv4/dhcp.c **** /*
  31:Middlewares/Third_Party/LwIP/src/core/ipv4/dhcp.c ****  * Copyright (c) 2001-2004 Leon Woestenberg <leon.woestenberg@gmx.net>
  32:Middlewares/Third_Party/LwIP/src/core/ipv4/dhcp.c ****  * Copyright (c) 2001-2004 Axon Digital Design B.V., The Netherlands.
  33:Middlewares/Third_Party/LwIP/src/core/ipv4/dhcp.c ****  * All rights reserved.
  34:Middlewares/Third_Party/LwIP/src/core/ipv4/dhcp.c ****  *
  35:Middlewares/Third_Party/LwIP/src/core/ipv4/dhcp.c ****  * Redistribution and use in source and binary forms, with or without modification,
  36:Middlewares/Third_Party/LwIP/src/core/ipv4/dhcp.c ****  * are permitted provided that the following conditions are met:
  37:Middlewares/Third_Party/LwIP/src/core/ipv4/dhcp.c ****  *
  38:Middlewares/Third_Party/LwIP/src/core/ipv4/dhcp.c ****  * 1. Redistributions of source code must retain the above copyright notice,
  39:Middlewares/Third_Party/LwIP/src/core/ipv4/dhcp.c ****  *    this list of conditions and the following disclaimer.
  40:Middlewares/Third_Party/LwIP/src/core/ipv4/dhcp.c ****  * 2. Redistributions in binary form must reproduce the above copyright notice,
  41:Middlewares/Third_Party/LwIP/src/core/ipv4/dhcp.c ****  *    this list of conditions and the following disclaimer in the documentation
  42:Middlewares/Third_Party/LwIP/src/core/ipv4/dhcp.c ****  *    and/or other materials provided with the distribution.
  43:Middlewares/Third_Party/LwIP/src/core/ipv4/dhcp.c ****  * 3. The name of the author may not be used to endorse or promote products
  44:Middlewares/Third_Party/LwIP/src/core/ipv4/dhcp.c ****  *    derived from this software without specific prior written permission.
  45:Middlewares/Third_Party/LwIP/src/core/ipv4/dhcp.c ****  *
  46:Middlewares/Third_Party/LwIP/src/core/ipv4/dhcp.c ****  * THIS SOFTWARE IS PROVIDED BY THE AUTHOR ``AS IS'' AND ANY EXPRESS OR IMPLIED
  47:Middlewares/Third_Party/LwIP/src/core/ipv4/dhcp.c ****  * WARRANTIES, INCLUDING, BUT NOT LIMITED TO, THE IMPLIED WARRANTIES OF
  48:Middlewares/Third_Party/LwIP/src/core/ipv4/dhcp.c ****  * MERCHANTABILITY AND FITNESS FOR A PARTICULAR PURPOSE ARE DISCLAIMED. IN NO EVENT
  49:Middlewares/Third_Party/LwIP/src/core/ipv4/dhcp.c ****  * SHALL THE AUTHOR BE LIABLE FOR ANY DIRECT, INDIRECT, INCIDENTAL, SPECIAL,
  50:Middlewares/Third_Party/LwIP/src/core/ipv4/dhcp.c ****  * EXEMPLARY, OR CONSEQUENTIAL DAMAGES (INCLUDING, BUT NOT LIMITED TO, PROCUREMENT
  51:Middlewares/Third_Party/LwIP/src/core/ipv4/dhcp.c ****  * OF SUBSTITUTE GOODS OR SERVICES; LOSS OF USE, DATA, OR PROFITS; OR BUSINESS
ARM GAS  /tmp/ccsjw2Nr.s 			page 3


  52:Middlewares/Third_Party/LwIP/src/core/ipv4/dhcp.c ****  * INTERRUPTION) HOWEVER CAUSED AND ON ANY THEORY OF LIABILITY, WHETHER IN
  53:Middlewares/Third_Party/LwIP/src/core/ipv4/dhcp.c ****  * CONTRACT, STRICT LIABILITY, OR TORT (INCLUDING NEGLIGENCE OR OTHERWISE) ARISING
  54:Middlewares/Third_Party/LwIP/src/core/ipv4/dhcp.c ****  * IN ANY WAY OUT OF THE USE OF THIS SOFTWARE, EVEN IF ADVISED OF THE POSSIBILITY
  55:Middlewares/Third_Party/LwIP/src/core/ipv4/dhcp.c ****  * OF SUCH DAMAGE.
  56:Middlewares/Third_Party/LwIP/src/core/ipv4/dhcp.c ****  *
  57:Middlewares/Third_Party/LwIP/src/core/ipv4/dhcp.c ****  * This file is part of the lwIP TCP/IP stack.
  58:Middlewares/Third_Party/LwIP/src/core/ipv4/dhcp.c ****  * The Swedish Institute of Computer Science and Adam Dunkels
  59:Middlewares/Third_Party/LwIP/src/core/ipv4/dhcp.c ****  * are specifically granted permission to redistribute this
  60:Middlewares/Third_Party/LwIP/src/core/ipv4/dhcp.c ****  * source code.
  61:Middlewares/Third_Party/LwIP/src/core/ipv4/dhcp.c ****  *
  62:Middlewares/Third_Party/LwIP/src/core/ipv4/dhcp.c ****  * Author: Leon Woestenberg <leon.woestenberg@gmx.net>
  63:Middlewares/Third_Party/LwIP/src/core/ipv4/dhcp.c ****  *
  64:Middlewares/Third_Party/LwIP/src/core/ipv4/dhcp.c ****  */
  65:Middlewares/Third_Party/LwIP/src/core/ipv4/dhcp.c **** 
  66:Middlewares/Third_Party/LwIP/src/core/ipv4/dhcp.c **** #include "lwip/opt.h"
  67:Middlewares/Third_Party/LwIP/src/core/ipv4/dhcp.c **** 
  68:Middlewares/Third_Party/LwIP/src/core/ipv4/dhcp.c **** #if LWIP_IPV4 && LWIP_DHCP /* don't build if not configured for use in lwipopts.h */
  69:Middlewares/Third_Party/LwIP/src/core/ipv4/dhcp.c **** 
  70:Middlewares/Third_Party/LwIP/src/core/ipv4/dhcp.c **** #include "lwip/stats.h"
  71:Middlewares/Third_Party/LwIP/src/core/ipv4/dhcp.c **** #include "lwip/mem.h"
  72:Middlewares/Third_Party/LwIP/src/core/ipv4/dhcp.c **** #include "lwip/udp.h"
  73:Middlewares/Third_Party/LwIP/src/core/ipv4/dhcp.c **** #include "lwip/ip_addr.h"
  74:Middlewares/Third_Party/LwIP/src/core/ipv4/dhcp.c **** #include "lwip/netif.h"
  75:Middlewares/Third_Party/LwIP/src/core/ipv4/dhcp.c **** #include "lwip/def.h"
  76:Middlewares/Third_Party/LwIP/src/core/ipv4/dhcp.c **** #include "lwip/dhcp.h"
  77:Middlewares/Third_Party/LwIP/src/core/ipv4/dhcp.c **** #include "lwip/autoip.h"
  78:Middlewares/Third_Party/LwIP/src/core/ipv4/dhcp.c **** #include "lwip/dns.h"
  79:Middlewares/Third_Party/LwIP/src/core/ipv4/dhcp.c **** #include "lwip/etharp.h"
  80:Middlewares/Third_Party/LwIP/src/core/ipv4/dhcp.c **** #include "lwip/prot/dhcp.h"
  81:Middlewares/Third_Party/LwIP/src/core/ipv4/dhcp.c **** #include "lwip/prot/iana.h"
  82:Middlewares/Third_Party/LwIP/src/core/ipv4/dhcp.c **** 
  83:Middlewares/Third_Party/LwIP/src/core/ipv4/dhcp.c **** #include <string.h>
  84:Middlewares/Third_Party/LwIP/src/core/ipv4/dhcp.c **** 
  85:Middlewares/Third_Party/LwIP/src/core/ipv4/dhcp.c **** #ifdef LWIP_HOOK_FILENAME
  86:Middlewares/Third_Party/LwIP/src/core/ipv4/dhcp.c **** #include LWIP_HOOK_FILENAME
  87:Middlewares/Third_Party/LwIP/src/core/ipv4/dhcp.c **** #endif
  88:Middlewares/Third_Party/LwIP/src/core/ipv4/dhcp.c **** #ifndef LWIP_HOOK_DHCP_APPEND_OPTIONS
  89:Middlewares/Third_Party/LwIP/src/core/ipv4/dhcp.c **** #define LWIP_HOOK_DHCP_APPEND_OPTIONS(netif, dhcp, state, msg, msg_type, options_len_ptr)
  90:Middlewares/Third_Party/LwIP/src/core/ipv4/dhcp.c **** #endif
  91:Middlewares/Third_Party/LwIP/src/core/ipv4/dhcp.c **** #ifndef LWIP_HOOK_DHCP_PARSE_OPTION
  92:Middlewares/Third_Party/LwIP/src/core/ipv4/dhcp.c **** #define LWIP_HOOK_DHCP_PARSE_OPTION(netif, dhcp, state, msg, msg_type, option, len, pbuf, offset) d
  93:Middlewares/Third_Party/LwIP/src/core/ipv4/dhcp.c **** #endif
  94:Middlewares/Third_Party/LwIP/src/core/ipv4/dhcp.c **** 
  95:Middlewares/Third_Party/LwIP/src/core/ipv4/dhcp.c **** /** DHCP_CREATE_RAND_XID: if this is set to 1, the xid is created using
  96:Middlewares/Third_Party/LwIP/src/core/ipv4/dhcp.c ****  * LWIP_RAND() (this overrides DHCP_GLOBAL_XID)
  97:Middlewares/Third_Party/LwIP/src/core/ipv4/dhcp.c ****  */
  98:Middlewares/Third_Party/LwIP/src/core/ipv4/dhcp.c **** #ifndef DHCP_CREATE_RAND_XID
  99:Middlewares/Third_Party/LwIP/src/core/ipv4/dhcp.c **** #define DHCP_CREATE_RAND_XID        1
 100:Middlewares/Third_Party/LwIP/src/core/ipv4/dhcp.c **** #endif
 101:Middlewares/Third_Party/LwIP/src/core/ipv4/dhcp.c **** 
 102:Middlewares/Third_Party/LwIP/src/core/ipv4/dhcp.c **** /** Default for DHCP_GLOBAL_XID is 0xABCD0000
 103:Middlewares/Third_Party/LwIP/src/core/ipv4/dhcp.c ****  * This can be changed by defining DHCP_GLOBAL_XID and DHCP_GLOBAL_XID_HEADER, e.g.
 104:Middlewares/Third_Party/LwIP/src/core/ipv4/dhcp.c ****  *  \#define DHCP_GLOBAL_XID_HEADER "stdlib.h"
 105:Middlewares/Third_Party/LwIP/src/core/ipv4/dhcp.c ****  *  \#define DHCP_GLOBAL_XID rand()
 106:Middlewares/Third_Party/LwIP/src/core/ipv4/dhcp.c ****  */
 107:Middlewares/Third_Party/LwIP/src/core/ipv4/dhcp.c **** #ifdef DHCP_GLOBAL_XID_HEADER
 108:Middlewares/Third_Party/LwIP/src/core/ipv4/dhcp.c **** #include DHCP_GLOBAL_XID_HEADER /* include optional starting XID generation prototypes */
ARM GAS  /tmp/ccsjw2Nr.s 			page 4


 109:Middlewares/Third_Party/LwIP/src/core/ipv4/dhcp.c **** #endif
 110:Middlewares/Third_Party/LwIP/src/core/ipv4/dhcp.c **** 
 111:Middlewares/Third_Party/LwIP/src/core/ipv4/dhcp.c **** /** DHCP_OPTION_MAX_MSG_SIZE is set to the MTU
 112:Middlewares/Third_Party/LwIP/src/core/ipv4/dhcp.c ****  * MTU is checked to be big enough in dhcp_start */
 113:Middlewares/Third_Party/LwIP/src/core/ipv4/dhcp.c **** #define DHCP_MAX_MSG_LEN(netif)        (netif->mtu)
 114:Middlewares/Third_Party/LwIP/src/core/ipv4/dhcp.c **** #define DHCP_MAX_MSG_LEN_MIN_REQUIRED  576
 115:Middlewares/Third_Party/LwIP/src/core/ipv4/dhcp.c **** /** Minimum length for reply before packet is parsed */
 116:Middlewares/Third_Party/LwIP/src/core/ipv4/dhcp.c **** #define DHCP_MIN_REPLY_LEN             44
 117:Middlewares/Third_Party/LwIP/src/core/ipv4/dhcp.c **** 
 118:Middlewares/Third_Party/LwIP/src/core/ipv4/dhcp.c **** #define REBOOT_TRIES                2
 119:Middlewares/Third_Party/LwIP/src/core/ipv4/dhcp.c **** 
 120:Middlewares/Third_Party/LwIP/src/core/ipv4/dhcp.c **** #if LWIP_DNS && LWIP_DHCP_MAX_DNS_SERVERS
 121:Middlewares/Third_Party/LwIP/src/core/ipv4/dhcp.c **** #if DNS_MAX_SERVERS > LWIP_DHCP_MAX_DNS_SERVERS
 122:Middlewares/Third_Party/LwIP/src/core/ipv4/dhcp.c **** #define LWIP_DHCP_PROVIDE_DNS_SERVERS LWIP_DHCP_MAX_DNS_SERVERS
 123:Middlewares/Third_Party/LwIP/src/core/ipv4/dhcp.c **** #else
 124:Middlewares/Third_Party/LwIP/src/core/ipv4/dhcp.c **** #define LWIP_DHCP_PROVIDE_DNS_SERVERS DNS_MAX_SERVERS
 125:Middlewares/Third_Party/LwIP/src/core/ipv4/dhcp.c **** #endif
 126:Middlewares/Third_Party/LwIP/src/core/ipv4/dhcp.c **** #else
 127:Middlewares/Third_Party/LwIP/src/core/ipv4/dhcp.c **** #define LWIP_DHCP_PROVIDE_DNS_SERVERS 0
 128:Middlewares/Third_Party/LwIP/src/core/ipv4/dhcp.c **** #endif
 129:Middlewares/Third_Party/LwIP/src/core/ipv4/dhcp.c **** 
 130:Middlewares/Third_Party/LwIP/src/core/ipv4/dhcp.c **** /** Option handling: options are parsed in dhcp_parse_reply
 131:Middlewares/Third_Party/LwIP/src/core/ipv4/dhcp.c ****  * and saved in an array where other functions can load them from.
 132:Middlewares/Third_Party/LwIP/src/core/ipv4/dhcp.c ****  * This might be moved into the struct dhcp (not necessarily since
 133:Middlewares/Third_Party/LwIP/src/core/ipv4/dhcp.c ****  * lwIP is single-threaded and the array is only used while in recv
 134:Middlewares/Third_Party/LwIP/src/core/ipv4/dhcp.c ****  * callback). */
 135:Middlewares/Third_Party/LwIP/src/core/ipv4/dhcp.c **** enum dhcp_option_idx {
 136:Middlewares/Third_Party/LwIP/src/core/ipv4/dhcp.c ****   DHCP_OPTION_IDX_OVERLOAD = 0,
 137:Middlewares/Third_Party/LwIP/src/core/ipv4/dhcp.c ****   DHCP_OPTION_IDX_MSG_TYPE,
 138:Middlewares/Third_Party/LwIP/src/core/ipv4/dhcp.c ****   DHCP_OPTION_IDX_SERVER_ID,
 139:Middlewares/Third_Party/LwIP/src/core/ipv4/dhcp.c ****   DHCP_OPTION_IDX_LEASE_TIME,
 140:Middlewares/Third_Party/LwIP/src/core/ipv4/dhcp.c ****   DHCP_OPTION_IDX_T1,
 141:Middlewares/Third_Party/LwIP/src/core/ipv4/dhcp.c ****   DHCP_OPTION_IDX_T2,
 142:Middlewares/Third_Party/LwIP/src/core/ipv4/dhcp.c ****   DHCP_OPTION_IDX_SUBNET_MASK,
 143:Middlewares/Third_Party/LwIP/src/core/ipv4/dhcp.c ****   DHCP_OPTION_IDX_ROUTER,
 144:Middlewares/Third_Party/LwIP/src/core/ipv4/dhcp.c **** #if LWIP_DHCP_PROVIDE_DNS_SERVERS
 145:Middlewares/Third_Party/LwIP/src/core/ipv4/dhcp.c ****   DHCP_OPTION_IDX_DNS_SERVER,
 146:Middlewares/Third_Party/LwIP/src/core/ipv4/dhcp.c ****   DHCP_OPTION_IDX_DNS_SERVER_LAST = DHCP_OPTION_IDX_DNS_SERVER + LWIP_DHCP_PROVIDE_DNS_SERVERS - 1,
 147:Middlewares/Third_Party/LwIP/src/core/ipv4/dhcp.c **** #endif /* LWIP_DHCP_PROVIDE_DNS_SERVERS */
 148:Middlewares/Third_Party/LwIP/src/core/ipv4/dhcp.c **** #if LWIP_DHCP_GET_NTP_SRV
 149:Middlewares/Third_Party/LwIP/src/core/ipv4/dhcp.c ****   DHCP_OPTION_IDX_NTP_SERVER,
 150:Middlewares/Third_Party/LwIP/src/core/ipv4/dhcp.c ****   DHCP_OPTION_IDX_NTP_SERVER_LAST = DHCP_OPTION_IDX_NTP_SERVER + LWIP_DHCP_MAX_NTP_SERVERS - 1,
 151:Middlewares/Third_Party/LwIP/src/core/ipv4/dhcp.c **** #endif /* LWIP_DHCP_GET_NTP_SRV */
 152:Middlewares/Third_Party/LwIP/src/core/ipv4/dhcp.c ****   DHCP_OPTION_IDX_MAX
 153:Middlewares/Third_Party/LwIP/src/core/ipv4/dhcp.c **** };
 154:Middlewares/Third_Party/LwIP/src/core/ipv4/dhcp.c **** 
 155:Middlewares/Third_Party/LwIP/src/core/ipv4/dhcp.c **** /** Holds the decoded option values, only valid while in dhcp_recv.
 156:Middlewares/Third_Party/LwIP/src/core/ipv4/dhcp.c ****     @todo: move this into struct dhcp? */
 157:Middlewares/Third_Party/LwIP/src/core/ipv4/dhcp.c **** u32_t dhcp_rx_options_val[DHCP_OPTION_IDX_MAX];
 158:Middlewares/Third_Party/LwIP/src/core/ipv4/dhcp.c **** /** Holds a flag which option was received and is contained in dhcp_rx_options_val,
 159:Middlewares/Third_Party/LwIP/src/core/ipv4/dhcp.c ****     only valid while in dhcp_recv.
 160:Middlewares/Third_Party/LwIP/src/core/ipv4/dhcp.c ****     @todo: move this into struct dhcp? */
 161:Middlewares/Third_Party/LwIP/src/core/ipv4/dhcp.c **** u8_t  dhcp_rx_options_given[DHCP_OPTION_IDX_MAX];
 162:Middlewares/Third_Party/LwIP/src/core/ipv4/dhcp.c **** 
 163:Middlewares/Third_Party/LwIP/src/core/ipv4/dhcp.c **** static u8_t dhcp_discover_request_options[] = {
 164:Middlewares/Third_Party/LwIP/src/core/ipv4/dhcp.c ****   DHCP_OPTION_SUBNET_MASK,
 165:Middlewares/Third_Party/LwIP/src/core/ipv4/dhcp.c ****   DHCP_OPTION_ROUTER,
ARM GAS  /tmp/ccsjw2Nr.s 			page 5


 166:Middlewares/Third_Party/LwIP/src/core/ipv4/dhcp.c ****   DHCP_OPTION_BROADCAST
 167:Middlewares/Third_Party/LwIP/src/core/ipv4/dhcp.c **** #if LWIP_DHCP_PROVIDE_DNS_SERVERS
 168:Middlewares/Third_Party/LwIP/src/core/ipv4/dhcp.c ****   , DHCP_OPTION_DNS_SERVER
 169:Middlewares/Third_Party/LwIP/src/core/ipv4/dhcp.c **** #endif /* LWIP_DHCP_PROVIDE_DNS_SERVERS */
 170:Middlewares/Third_Party/LwIP/src/core/ipv4/dhcp.c **** #if LWIP_DHCP_GET_NTP_SRV
 171:Middlewares/Third_Party/LwIP/src/core/ipv4/dhcp.c ****   , DHCP_OPTION_NTP
 172:Middlewares/Third_Party/LwIP/src/core/ipv4/dhcp.c **** #endif /* LWIP_DHCP_GET_NTP_SRV */
 173:Middlewares/Third_Party/LwIP/src/core/ipv4/dhcp.c **** };
 174:Middlewares/Third_Party/LwIP/src/core/ipv4/dhcp.c **** 
 175:Middlewares/Third_Party/LwIP/src/core/ipv4/dhcp.c **** #ifdef DHCP_GLOBAL_XID
 176:Middlewares/Third_Party/LwIP/src/core/ipv4/dhcp.c **** static u32_t xid;
 177:Middlewares/Third_Party/LwIP/src/core/ipv4/dhcp.c **** static u8_t xid_initialised;
 178:Middlewares/Third_Party/LwIP/src/core/ipv4/dhcp.c **** #endif /* DHCP_GLOBAL_XID */
 179:Middlewares/Third_Party/LwIP/src/core/ipv4/dhcp.c **** 
 180:Middlewares/Third_Party/LwIP/src/core/ipv4/dhcp.c **** #define dhcp_option_given(dhcp, idx)          (dhcp_rx_options_given[idx] != 0)
 181:Middlewares/Third_Party/LwIP/src/core/ipv4/dhcp.c **** #define dhcp_got_option(dhcp, idx)            (dhcp_rx_options_given[idx] = 1)
 182:Middlewares/Third_Party/LwIP/src/core/ipv4/dhcp.c **** #define dhcp_clear_option(dhcp, idx)          (dhcp_rx_options_given[idx] = 0)
 183:Middlewares/Third_Party/LwIP/src/core/ipv4/dhcp.c **** #define dhcp_clear_all_options(dhcp)          (memset(dhcp_rx_options_given, 0, sizeof(dhcp_rx_opti
 184:Middlewares/Third_Party/LwIP/src/core/ipv4/dhcp.c **** #define dhcp_get_option_value(dhcp, idx)      (dhcp_rx_options_val[idx])
 185:Middlewares/Third_Party/LwIP/src/core/ipv4/dhcp.c **** #define dhcp_set_option_value(dhcp, idx, val) (dhcp_rx_options_val[idx] = (val))
 186:Middlewares/Third_Party/LwIP/src/core/ipv4/dhcp.c **** 
 187:Middlewares/Third_Party/LwIP/src/core/ipv4/dhcp.c **** static struct udp_pcb *dhcp_pcb;
 188:Middlewares/Third_Party/LwIP/src/core/ipv4/dhcp.c **** static u8_t dhcp_pcb_refcount;
 189:Middlewares/Third_Party/LwIP/src/core/ipv4/dhcp.c **** 
 190:Middlewares/Third_Party/LwIP/src/core/ipv4/dhcp.c **** /* DHCP client state machine functions */
 191:Middlewares/Third_Party/LwIP/src/core/ipv4/dhcp.c **** static err_t dhcp_discover(struct netif *netif);
 192:Middlewares/Third_Party/LwIP/src/core/ipv4/dhcp.c **** static err_t dhcp_select(struct netif *netif);
 193:Middlewares/Third_Party/LwIP/src/core/ipv4/dhcp.c **** static void dhcp_bind(struct netif *netif);
 194:Middlewares/Third_Party/LwIP/src/core/ipv4/dhcp.c **** #if DHCP_DOES_ARP_CHECK
 195:Middlewares/Third_Party/LwIP/src/core/ipv4/dhcp.c **** static err_t dhcp_decline(struct netif *netif);
 196:Middlewares/Third_Party/LwIP/src/core/ipv4/dhcp.c **** #endif /* DHCP_DOES_ARP_CHECK */
 197:Middlewares/Third_Party/LwIP/src/core/ipv4/dhcp.c **** static err_t dhcp_rebind(struct netif *netif);
 198:Middlewares/Third_Party/LwIP/src/core/ipv4/dhcp.c **** static err_t dhcp_reboot(struct netif *netif);
 199:Middlewares/Third_Party/LwIP/src/core/ipv4/dhcp.c **** static void dhcp_set_state(struct dhcp *dhcp, u8_t new_state);
 200:Middlewares/Third_Party/LwIP/src/core/ipv4/dhcp.c **** 
 201:Middlewares/Third_Party/LwIP/src/core/ipv4/dhcp.c **** /* receive, unfold, parse and free incoming messages */
 202:Middlewares/Third_Party/LwIP/src/core/ipv4/dhcp.c **** static void dhcp_recv(void *arg, struct udp_pcb *pcb, struct pbuf *p, const ip_addr_t *addr, u16_t 
 203:Middlewares/Third_Party/LwIP/src/core/ipv4/dhcp.c **** 
 204:Middlewares/Third_Party/LwIP/src/core/ipv4/dhcp.c **** /* set the DHCP timers */
 205:Middlewares/Third_Party/LwIP/src/core/ipv4/dhcp.c **** static void dhcp_timeout(struct netif *netif);
 206:Middlewares/Third_Party/LwIP/src/core/ipv4/dhcp.c **** static void dhcp_t1_timeout(struct netif *netif);
 207:Middlewares/Third_Party/LwIP/src/core/ipv4/dhcp.c **** static void dhcp_t2_timeout(struct netif *netif);
 208:Middlewares/Third_Party/LwIP/src/core/ipv4/dhcp.c **** 
 209:Middlewares/Third_Party/LwIP/src/core/ipv4/dhcp.c **** /* build outgoing messages */
 210:Middlewares/Third_Party/LwIP/src/core/ipv4/dhcp.c **** /* create a DHCP message, fill in common headers */
 211:Middlewares/Third_Party/LwIP/src/core/ipv4/dhcp.c **** static struct pbuf *dhcp_create_msg(struct netif *netif, struct dhcp *dhcp, u8_t message_type, u16_
 212:Middlewares/Third_Party/LwIP/src/core/ipv4/dhcp.c **** /* add a DHCP option (type, then length in bytes) */
 213:Middlewares/Third_Party/LwIP/src/core/ipv4/dhcp.c **** static u16_t dhcp_option(u16_t options_out_len, u8_t *options, u8_t option_type, u8_t option_len);
 214:Middlewares/Third_Party/LwIP/src/core/ipv4/dhcp.c **** /* add option values */
 215:Middlewares/Third_Party/LwIP/src/core/ipv4/dhcp.c **** static u16_t dhcp_option_byte(u16_t options_out_len, u8_t *options, u8_t value);
 216:Middlewares/Third_Party/LwIP/src/core/ipv4/dhcp.c **** static u16_t dhcp_option_short(u16_t options_out_len, u8_t *options, u16_t value);
 217:Middlewares/Third_Party/LwIP/src/core/ipv4/dhcp.c **** static u16_t dhcp_option_long(u16_t options_out_len, u8_t *options, u32_t value);
 218:Middlewares/Third_Party/LwIP/src/core/ipv4/dhcp.c **** #if LWIP_NETIF_HOSTNAME
 219:Middlewares/Third_Party/LwIP/src/core/ipv4/dhcp.c **** static u16_t dhcp_option_hostname(u16_t options_out_len, u8_t *options, struct netif *netif);
 220:Middlewares/Third_Party/LwIP/src/core/ipv4/dhcp.c **** #endif /* LWIP_NETIF_HOSTNAME */
 221:Middlewares/Third_Party/LwIP/src/core/ipv4/dhcp.c **** /* always add the DHCP options trailer to end and pad */
 222:Middlewares/Third_Party/LwIP/src/core/ipv4/dhcp.c **** static void dhcp_option_trailer(u16_t options_out_len, u8_t *options, struct pbuf *p_out);
ARM GAS  /tmp/ccsjw2Nr.s 			page 6


 223:Middlewares/Third_Party/LwIP/src/core/ipv4/dhcp.c **** 
 224:Middlewares/Third_Party/LwIP/src/core/ipv4/dhcp.c **** /** Ensure DHCP PCB is allocated and bound */
 225:Middlewares/Third_Party/LwIP/src/core/ipv4/dhcp.c **** static err_t
 226:Middlewares/Third_Party/LwIP/src/core/ipv4/dhcp.c **** dhcp_inc_pcb_refcount(void)
 227:Middlewares/Third_Party/LwIP/src/core/ipv4/dhcp.c **** {
  59              		.loc 1 227 1
  60              		.cfi_startproc
  61              		@ args = 0, pretend = 0, frame = 0
  62              		@ frame_needed = 1, uses_anonymous_args = 0
  63 0000 80B5     		push	{r7, lr}
  64              	.LCFI0:
  65              		.cfi_def_cfa_offset 8
  66              		.cfi_offset 7, -8
  67              		.cfi_offset 14, -4
  68 0002 00AF     		add	r7, sp, #0
  69              	.LCFI1:
  70              		.cfi_def_cfa_register 7
 228:Middlewares/Third_Party/LwIP/src/core/ipv4/dhcp.c ****   if (dhcp_pcb_refcount == 0) {
  71              		.loc 1 228 25
  72 0004 204B     		ldr	r3, .L6
  73 0006 1B78     		ldrb	r3, [r3]	@ zero_extendqisi2
  74              		.loc 1 228 6
  75 0008 002B     		cmp	r3, #0
  76 000a 33D1     		bne	.L2
 229:Middlewares/Third_Party/LwIP/src/core/ipv4/dhcp.c ****     LWIP_ASSERT("dhcp_inc_pcb_refcount(): memory leak", dhcp_pcb == NULL);
  77              		.loc 1 229 5
  78 000c 1F4B     		ldr	r3, .L6+4
  79 000e 1B68     		ldr	r3, [r3]
  80 0010 002B     		cmp	r3, #0
  81 0012 05D0     		beq	.L3
  82              		.loc 1 229 5 is_stmt 0 discriminator 1
  83 0014 1E4B     		ldr	r3, .L6+8
  84 0016 E522     		movs	r2, #229
  85 0018 1E49     		ldr	r1, .L6+12
  86 001a 1F48     		ldr	r0, .L6+16
  87 001c FFF7FEFF 		bl	printf
  88              	.L3:
 230:Middlewares/Third_Party/LwIP/src/core/ipv4/dhcp.c **** 
 231:Middlewares/Third_Party/LwIP/src/core/ipv4/dhcp.c ****     /* allocate UDP PCB */
 232:Middlewares/Third_Party/LwIP/src/core/ipv4/dhcp.c ****     dhcp_pcb = udp_new();
  89              		.loc 1 232 16 is_stmt 1
  90 0020 FFF7FEFF 		bl	udp_new
  91 0024 0246     		mov	r2, r0
  92              		.loc 1 232 14
  93 0026 194B     		ldr	r3, .L6+4
  94 0028 1A60     		str	r2, [r3]
 233:Middlewares/Third_Party/LwIP/src/core/ipv4/dhcp.c **** 
 234:Middlewares/Third_Party/LwIP/src/core/ipv4/dhcp.c ****     if (dhcp_pcb == NULL) {
  95              		.loc 1 234 18
  96 002a 184B     		ldr	r3, .L6+4
  97 002c 1B68     		ldr	r3, [r3]
  98              		.loc 1 234 8
  99 002e 002B     		cmp	r3, #0
 100 0030 02D1     		bne	.L4
 235:Middlewares/Third_Party/LwIP/src/core/ipv4/dhcp.c ****       return ERR_MEM;
 101              		.loc 1 235 14
 102 0032 4FF0FF33 		mov	r3, #-1
ARM GAS  /tmp/ccsjw2Nr.s 			page 7


 103 0036 24E0     		b	.L5
 104              	.L4:
 236:Middlewares/Third_Party/LwIP/src/core/ipv4/dhcp.c ****     }
 237:Middlewares/Third_Party/LwIP/src/core/ipv4/dhcp.c **** 
 238:Middlewares/Third_Party/LwIP/src/core/ipv4/dhcp.c ****     ip_set_option(dhcp_pcb, SOF_BROADCAST);
 105              		.loc 1 238 5
 106 0038 144B     		ldr	r3, .L6+4
 107 003a 1B68     		ldr	r3, [r3]
 108 003c 5A7A     		ldrb	r2, [r3, #9]	@ zero_extendqisi2
 109 003e 134B     		ldr	r3, .L6+4
 110 0040 1B68     		ldr	r3, [r3]
 111 0042 42F02002 		orr	r2, r2, #32
 112 0046 D2B2     		uxtb	r2, r2
 113 0048 5A72     		strb	r2, [r3, #9]
 239:Middlewares/Third_Party/LwIP/src/core/ipv4/dhcp.c **** 
 240:Middlewares/Third_Party/LwIP/src/core/ipv4/dhcp.c ****     /* set up local and remote port for the pcb -> listen on all interfaces on all src/dest IPs */
 241:Middlewares/Third_Party/LwIP/src/core/ipv4/dhcp.c ****     udp_bind(dhcp_pcb, IP4_ADDR_ANY, LWIP_IANA_PORT_DHCP_CLIENT);
 114              		.loc 1 241 5
 115 004a 104B     		ldr	r3, .L6+4
 116 004c 1B68     		ldr	r3, [r3]
 117 004e 4422     		movs	r2, #68
 118 0050 1249     		ldr	r1, .L6+20
 119 0052 1846     		mov	r0, r3
 120 0054 FFF7FEFF 		bl	udp_bind
 242:Middlewares/Third_Party/LwIP/src/core/ipv4/dhcp.c ****     udp_connect(dhcp_pcb, IP4_ADDR_ANY, LWIP_IANA_PORT_DHCP_SERVER);
 121              		.loc 1 242 5
 122 0058 0C4B     		ldr	r3, .L6+4
 123 005a 1B68     		ldr	r3, [r3]
 124 005c 4322     		movs	r2, #67
 125 005e 0F49     		ldr	r1, .L6+20
 126 0060 1846     		mov	r0, r3
 127 0062 FFF7FEFF 		bl	udp_connect
 243:Middlewares/Third_Party/LwIP/src/core/ipv4/dhcp.c ****     udp_recv(dhcp_pcb, dhcp_recv, NULL);
 128              		.loc 1 243 5
 129 0066 094B     		ldr	r3, .L6+4
 130 0068 1B68     		ldr	r3, [r3]
 131 006a 0022     		movs	r2, #0
 132 006c 0C49     		ldr	r1, .L6+24
 133 006e 1846     		mov	r0, r3
 134 0070 FFF7FEFF 		bl	udp_recv
 135              	.L2:
 244:Middlewares/Third_Party/LwIP/src/core/ipv4/dhcp.c ****   }
 245:Middlewares/Third_Party/LwIP/src/core/ipv4/dhcp.c **** 
 246:Middlewares/Third_Party/LwIP/src/core/ipv4/dhcp.c ****   dhcp_pcb_refcount++;
 136              		.loc 1 246 20
 137 0074 044B     		ldr	r3, .L6
 138 0076 1B78     		ldrb	r3, [r3]	@ zero_extendqisi2
 139 0078 0133     		adds	r3, r3, #1
 140 007a DAB2     		uxtb	r2, r3
 141 007c 024B     		ldr	r3, .L6
 142 007e 1A70     		strb	r2, [r3]
 247:Middlewares/Third_Party/LwIP/src/core/ipv4/dhcp.c **** 
 248:Middlewares/Third_Party/LwIP/src/core/ipv4/dhcp.c ****   return ERR_OK;
 143              		.loc 1 248 10
 144 0080 0023     		movs	r3, #0
 145              	.L5:
 249:Middlewares/Third_Party/LwIP/src/core/ipv4/dhcp.c **** }
ARM GAS  /tmp/ccsjw2Nr.s 			page 8


 146              		.loc 1 249 1
 147 0082 1846     		mov	r0, r3
 148 0084 80BD     		pop	{r7, pc}
 149              	.L7:
 150 0086 00BF     		.align	2
 151              	.L6:
 152 0088 00000000 		.word	dhcp_pcb_refcount
 153 008c 00000000 		.word	dhcp_pcb
 154 0090 00000000 		.word	.LC0
 155 0094 34000000 		.word	.LC1
 156 0098 5C000000 		.word	.LC2
 157 009c 00000000 		.word	ip_addr_any
 158 00a0 00000000 		.word	dhcp_recv
 159              		.cfi_endproc
 160              	.LFE133:
 162              		.section	.rodata
 163              		.align	2
 164              	.LC3:
 165 0084 64686370 		.ascii	"dhcp_pcb_refcount(): refcount error\000"
 165      5F706362 
 165      5F726566 
 165      636F756E 
 165      7428293A 
 166              		.section	.text.dhcp_dec_pcb_refcount,"ax",%progbits
 167              		.align	1
 168              		.syntax unified
 169              		.thumb
 170              		.thumb_func
 171              		.fpu fpv4-sp-d16
 173              	dhcp_dec_pcb_refcount:
 174              	.LFB134:
 250:Middlewares/Third_Party/LwIP/src/core/ipv4/dhcp.c **** 
 251:Middlewares/Third_Party/LwIP/src/core/ipv4/dhcp.c **** /** Free DHCP PCB if the last netif stops using it */
 252:Middlewares/Third_Party/LwIP/src/core/ipv4/dhcp.c **** static void
 253:Middlewares/Third_Party/LwIP/src/core/ipv4/dhcp.c **** dhcp_dec_pcb_refcount(void)
 254:Middlewares/Third_Party/LwIP/src/core/ipv4/dhcp.c **** {
 175              		.loc 1 254 1
 176              		.cfi_startproc
 177              		@ args = 0, pretend = 0, frame = 0
 178              		@ frame_needed = 1, uses_anonymous_args = 0
 179 0000 80B5     		push	{r7, lr}
 180              	.LCFI2:
 181              		.cfi_def_cfa_offset 8
 182              		.cfi_offset 7, -8
 183              		.cfi_offset 14, -4
 184 0002 00AF     		add	r7, sp, #0
 185              	.LCFI3:
 186              		.cfi_def_cfa_register 7
 255:Middlewares/Third_Party/LwIP/src/core/ipv4/dhcp.c ****   LWIP_ASSERT("dhcp_pcb_refcount(): refcount error", (dhcp_pcb_refcount > 0));
 187              		.loc 1 255 3
 188 0004 0E4B     		ldr	r3, .L12
 189 0006 1B78     		ldrb	r3, [r3]	@ zero_extendqisi2
 190 0008 002B     		cmp	r3, #0
 191 000a 05D1     		bne	.L9
 192              		.loc 1 255 3 is_stmt 0 discriminator 1
 193 000c 0D4B     		ldr	r3, .L12+4
 194 000e FF22     		movs	r2, #255
ARM GAS  /tmp/ccsjw2Nr.s 			page 9


 195 0010 0D49     		ldr	r1, .L12+8
 196 0012 0E48     		ldr	r0, .L12+12
 197 0014 FFF7FEFF 		bl	printf
 198              	.L9:
 256:Middlewares/Third_Party/LwIP/src/core/ipv4/dhcp.c ****   dhcp_pcb_refcount--;
 199              		.loc 1 256 20 is_stmt 1
 200 0018 094B     		ldr	r3, .L12
 201 001a 1B78     		ldrb	r3, [r3]	@ zero_extendqisi2
 202 001c 013B     		subs	r3, r3, #1
 203 001e DAB2     		uxtb	r2, r3
 204 0020 074B     		ldr	r3, .L12
 205 0022 1A70     		strb	r2, [r3]
 257:Middlewares/Third_Party/LwIP/src/core/ipv4/dhcp.c **** 
 258:Middlewares/Third_Party/LwIP/src/core/ipv4/dhcp.c ****   if (dhcp_pcb_refcount == 0) {
 206              		.loc 1 258 25
 207 0024 064B     		ldr	r3, .L12
 208 0026 1B78     		ldrb	r3, [r3]	@ zero_extendqisi2
 209              		.loc 1 258 6
 210 0028 002B     		cmp	r3, #0
 211 002a 07D1     		bne	.L11
 259:Middlewares/Third_Party/LwIP/src/core/ipv4/dhcp.c ****     udp_remove(dhcp_pcb);
 212              		.loc 1 259 5
 213 002c 084B     		ldr	r3, .L12+16
 214 002e 1B68     		ldr	r3, [r3]
 215 0030 1846     		mov	r0, r3
 216 0032 FFF7FEFF 		bl	udp_remove
 260:Middlewares/Third_Party/LwIP/src/core/ipv4/dhcp.c ****     dhcp_pcb = NULL;
 217              		.loc 1 260 14
 218 0036 064B     		ldr	r3, .L12+16
 219 0038 0022     		movs	r2, #0
 220 003a 1A60     		str	r2, [r3]
 221              	.L11:
 261:Middlewares/Third_Party/LwIP/src/core/ipv4/dhcp.c ****   }
 262:Middlewares/Third_Party/LwIP/src/core/ipv4/dhcp.c **** }
 222              		.loc 1 262 1
 223 003c 00BF     		nop
 224 003e 80BD     		pop	{r7, pc}
 225              	.L13:
 226              		.align	2
 227              	.L12:
 228 0040 00000000 		.word	dhcp_pcb_refcount
 229 0044 00000000 		.word	.LC0
 230 0048 84000000 		.word	.LC3
 231 004c 5C000000 		.word	.LC2
 232 0050 00000000 		.word	dhcp_pcb
 233              		.cfi_endproc
 234              	.LFE134:
 236              		.section	.text.dhcp_handle_nak,"ax",%progbits
 237              		.align	1
 238              		.syntax unified
 239              		.thumb
 240              		.thumb_func
 241              		.fpu fpv4-sp-d16
 243              	dhcp_handle_nak:
 244              	.LFB135:
 263:Middlewares/Third_Party/LwIP/src/core/ipv4/dhcp.c **** 
 264:Middlewares/Third_Party/LwIP/src/core/ipv4/dhcp.c **** /**
ARM GAS  /tmp/ccsjw2Nr.s 			page 10


 265:Middlewares/Third_Party/LwIP/src/core/ipv4/dhcp.c ****  * Back-off the DHCP client (because of a received NAK response).
 266:Middlewares/Third_Party/LwIP/src/core/ipv4/dhcp.c ****  *
 267:Middlewares/Third_Party/LwIP/src/core/ipv4/dhcp.c ****  * Back-off the DHCP client because of a received NAK. Receiving a
 268:Middlewares/Third_Party/LwIP/src/core/ipv4/dhcp.c ****  * NAK means the client asked for something non-sensible, for
 269:Middlewares/Third_Party/LwIP/src/core/ipv4/dhcp.c ****  * example when it tries to renew a lease obtained on another network.
 270:Middlewares/Third_Party/LwIP/src/core/ipv4/dhcp.c ****  *
 271:Middlewares/Third_Party/LwIP/src/core/ipv4/dhcp.c ****  * We clear any existing set IP address and restart DHCP negotiation
 272:Middlewares/Third_Party/LwIP/src/core/ipv4/dhcp.c ****  * afresh (as per RFC2131 3.2.3).
 273:Middlewares/Third_Party/LwIP/src/core/ipv4/dhcp.c ****  *
 274:Middlewares/Third_Party/LwIP/src/core/ipv4/dhcp.c ****  * @param netif the netif under DHCP control
 275:Middlewares/Third_Party/LwIP/src/core/ipv4/dhcp.c ****  */
 276:Middlewares/Third_Party/LwIP/src/core/ipv4/dhcp.c **** static void
 277:Middlewares/Third_Party/LwIP/src/core/ipv4/dhcp.c **** dhcp_handle_nak(struct netif *netif)
 278:Middlewares/Third_Party/LwIP/src/core/ipv4/dhcp.c **** {
 245              		.loc 1 278 1
 246              		.cfi_startproc
 247              		@ args = 0, pretend = 0, frame = 16
 248              		@ frame_needed = 1, uses_anonymous_args = 0
 249 0000 80B5     		push	{r7, lr}
 250              	.LCFI4:
 251              		.cfi_def_cfa_offset 8
 252              		.cfi_offset 7, -8
 253              		.cfi_offset 14, -4
 254 0002 84B0     		sub	sp, sp, #16
 255              	.LCFI5:
 256              		.cfi_def_cfa_offset 24
 257 0004 00AF     		add	r7, sp, #0
 258              	.LCFI6:
 259              		.cfi_def_cfa_register 7
 260 0006 7860     		str	r0, [r7, #4]
 279:Middlewares/Third_Party/LwIP/src/core/ipv4/dhcp.c ****   struct dhcp *dhcp = netif_dhcp_data(netif);
 261              		.loc 1 279 16
 262 0008 7B68     		ldr	r3, [r7, #4]
 263 000a 5B6A     		ldr	r3, [r3, #36]
 264 000c FB60     		str	r3, [r7, #12]
 280:Middlewares/Third_Party/LwIP/src/core/ipv4/dhcp.c **** 
 281:Middlewares/Third_Party/LwIP/src/core/ipv4/dhcp.c ****   LWIP_DEBUGF(DHCP_DEBUG | LWIP_DBG_TRACE, ("dhcp_handle_nak(netif=%p) %c%c%"U16_F"\n",
 282:Middlewares/Third_Party/LwIP/src/core/ipv4/dhcp.c ****               (void *)netif, netif->name[0], netif->name[1], (u16_t)netif->num));
 283:Middlewares/Third_Party/LwIP/src/core/ipv4/dhcp.c ****   /* Change to a defined state - set this before assigning the address
 284:Middlewares/Third_Party/LwIP/src/core/ipv4/dhcp.c ****      to ensure the callback can use dhcp_supplied_address() */
 285:Middlewares/Third_Party/LwIP/src/core/ipv4/dhcp.c ****   dhcp_set_state(dhcp, DHCP_STATE_BACKING_OFF);
 265              		.loc 1 285 3
 266 000e 0C21     		movs	r1, #12
 267 0010 F868     		ldr	r0, [r7, #12]
 268 0012 FFF7FEFF 		bl	dhcp_set_state
 286:Middlewares/Third_Party/LwIP/src/core/ipv4/dhcp.c ****   /* remove IP address from interface (must no longer be used, as per RFC2131) */
 287:Middlewares/Third_Party/LwIP/src/core/ipv4/dhcp.c ****   netif_set_addr(netif, IP4_ADDR_ANY4, IP4_ADDR_ANY4, IP4_ADDR_ANY4);
 269              		.loc 1 287 3
 270 0016 064B     		ldr	r3, .L15
 271 0018 054A     		ldr	r2, .L15
 272 001a 0549     		ldr	r1, .L15
 273 001c 7868     		ldr	r0, [r7, #4]
 274 001e FFF7FEFF 		bl	netif_set_addr
 288:Middlewares/Third_Party/LwIP/src/core/ipv4/dhcp.c ****   /* We can immediately restart discovery */
 289:Middlewares/Third_Party/LwIP/src/core/ipv4/dhcp.c ****   dhcp_discover(netif);
 275              		.loc 1 289 3
 276 0022 7868     		ldr	r0, [r7, #4]
ARM GAS  /tmp/ccsjw2Nr.s 			page 11


 277 0024 FFF7FEFF 		bl	dhcp_discover
 290:Middlewares/Third_Party/LwIP/src/core/ipv4/dhcp.c **** }
 278              		.loc 1 290 1
 279 0028 00BF     		nop
 280 002a 1037     		adds	r7, r7, #16
 281              	.LCFI7:
 282              		.cfi_def_cfa_offset 8
 283 002c BD46     		mov	sp, r7
 284              	.LCFI8:
 285              		.cfi_def_cfa_register 13
 286              		@ sp needed
 287 002e 80BD     		pop	{r7, pc}
 288              	.L16:
 289              		.align	2
 290              	.L15:
 291 0030 00000000 		.word	ip_addr_any
 292              		.cfi_endproc
 293              	.LFE135:
 295              		.section	.text.dhcp_check,"ax",%progbits
 296              		.align	1
 297              		.syntax unified
 298              		.thumb
 299              		.thumb_func
 300              		.fpu fpv4-sp-d16
 302              	dhcp_check:
 303              	.LFB136:
 291:Middlewares/Third_Party/LwIP/src/core/ipv4/dhcp.c **** 
 292:Middlewares/Third_Party/LwIP/src/core/ipv4/dhcp.c **** #if DHCP_DOES_ARP_CHECK
 293:Middlewares/Third_Party/LwIP/src/core/ipv4/dhcp.c **** /**
 294:Middlewares/Third_Party/LwIP/src/core/ipv4/dhcp.c ****  * Checks if the offered IP address is already in use.
 295:Middlewares/Third_Party/LwIP/src/core/ipv4/dhcp.c ****  *
 296:Middlewares/Third_Party/LwIP/src/core/ipv4/dhcp.c ****  * It does so by sending an ARP request for the offered address and
 297:Middlewares/Third_Party/LwIP/src/core/ipv4/dhcp.c ****  * entering CHECKING state. If no ARP reply is received within a small
 298:Middlewares/Third_Party/LwIP/src/core/ipv4/dhcp.c ****  * interval, the address is assumed to be free for use by us.
 299:Middlewares/Third_Party/LwIP/src/core/ipv4/dhcp.c ****  *
 300:Middlewares/Third_Party/LwIP/src/core/ipv4/dhcp.c ****  * @param netif the netif under DHCP control
 301:Middlewares/Third_Party/LwIP/src/core/ipv4/dhcp.c ****  */
 302:Middlewares/Third_Party/LwIP/src/core/ipv4/dhcp.c **** static void
 303:Middlewares/Third_Party/LwIP/src/core/ipv4/dhcp.c **** dhcp_check(struct netif *netif)
 304:Middlewares/Third_Party/LwIP/src/core/ipv4/dhcp.c **** {
 304              		.loc 1 304 1
 305              		.cfi_startproc
 306              		@ args = 0, pretend = 0, frame = 16
 307              		@ frame_needed = 1, uses_anonymous_args = 0
 308 0000 80B5     		push	{r7, lr}
 309              	.LCFI9:
 310              		.cfi_def_cfa_offset 8
 311              		.cfi_offset 7, -8
 312              		.cfi_offset 14, -4
 313 0002 84B0     		sub	sp, sp, #16
 314              	.LCFI10:
 315              		.cfi_def_cfa_offset 24
 316 0004 00AF     		add	r7, sp, #0
 317              	.LCFI11:
 318              		.cfi_def_cfa_register 7
 319 0006 7860     		str	r0, [r7, #4]
 305:Middlewares/Third_Party/LwIP/src/core/ipv4/dhcp.c ****   struct dhcp *dhcp = netif_dhcp_data(netif);
ARM GAS  /tmp/ccsjw2Nr.s 			page 12


 320              		.loc 1 305 16
 321 0008 7B68     		ldr	r3, [r7, #4]
 322 000a 5B6A     		ldr	r3, [r3, #36]
 323 000c FB60     		str	r3, [r7, #12]
 306:Middlewares/Third_Party/LwIP/src/core/ipv4/dhcp.c ****   err_t result;
 307:Middlewares/Third_Party/LwIP/src/core/ipv4/dhcp.c ****   u16_t msecs;
 308:Middlewares/Third_Party/LwIP/src/core/ipv4/dhcp.c ****   LWIP_DEBUGF(DHCP_DEBUG | LWIP_DBG_TRACE, ("dhcp_check(netif=%p) %c%c\n", (void *)netif, (s16_t)ne
 309:Middlewares/Third_Party/LwIP/src/core/ipv4/dhcp.c ****               (s16_t)netif->name[1]));
 310:Middlewares/Third_Party/LwIP/src/core/ipv4/dhcp.c ****   dhcp_set_state(dhcp, DHCP_STATE_CHECKING);
 324              		.loc 1 310 3
 325 000e 0821     		movs	r1, #8
 326 0010 F868     		ldr	r0, [r7, #12]
 327 0012 FFF7FEFF 		bl	dhcp_set_state
 311:Middlewares/Third_Party/LwIP/src/core/ipv4/dhcp.c ****   /* create an ARP query for the offered IP address, expecting that no host
 312:Middlewares/Third_Party/LwIP/src/core/ipv4/dhcp.c ****      responds, as the IP address should not be in use. */
 313:Middlewares/Third_Party/LwIP/src/core/ipv4/dhcp.c ****   result = etharp_query(netif, &dhcp->offered_ip_addr, NULL);
 328              		.loc 1 313 32
 329 0016 FB68     		ldr	r3, [r7, #12]
 330 0018 1C33     		adds	r3, r3, #28
 331              		.loc 1 313 12
 332 001a 0022     		movs	r2, #0
 333 001c 1946     		mov	r1, r3
 334 001e 7868     		ldr	r0, [r7, #4]
 335 0020 FFF7FEFF 		bl	etharp_query
 336 0024 0346     		mov	r3, r0
 337 0026 FB72     		strb	r3, [r7, #11]
 314:Middlewares/Third_Party/LwIP/src/core/ipv4/dhcp.c ****   if (result != ERR_OK) {
 315:Middlewares/Third_Party/LwIP/src/core/ipv4/dhcp.c ****     LWIP_DEBUGF(DHCP_DEBUG | LWIP_DBG_TRACE | LWIP_DBG_LEVEL_WARNING, ("dhcp_check: could not perfo
 316:Middlewares/Third_Party/LwIP/src/core/ipv4/dhcp.c ****   }
 317:Middlewares/Third_Party/LwIP/src/core/ipv4/dhcp.c ****   if (dhcp->tries < 255) {
 338              		.loc 1 317 11
 339 0028 FB68     		ldr	r3, [r7, #12]
 340 002a 9B79     		ldrb	r3, [r3, #6]	@ zero_extendqisi2
 341              		.loc 1 317 6
 342 002c FF2B     		cmp	r3, #255
 343 002e 05D0     		beq	.L18
 318:Middlewares/Third_Party/LwIP/src/core/ipv4/dhcp.c ****     dhcp->tries++;
 344              		.loc 1 318 9
 345 0030 FB68     		ldr	r3, [r7, #12]
 346 0032 9B79     		ldrb	r3, [r3, #6]	@ zero_extendqisi2
 347              		.loc 1 318 16
 348 0034 0133     		adds	r3, r3, #1
 349 0036 DAB2     		uxtb	r2, r3
 350 0038 FB68     		ldr	r3, [r7, #12]
 351 003a 9A71     		strb	r2, [r3, #6]
 352              	.L18:
 319:Middlewares/Third_Party/LwIP/src/core/ipv4/dhcp.c ****   }
 320:Middlewares/Third_Party/LwIP/src/core/ipv4/dhcp.c ****   msecs = 500;
 353              		.loc 1 320 9
 354 003c 4FF4FA73 		mov	r3, #500
 355 0040 3B81     		strh	r3, [r7, #8]	@ movhi
 321:Middlewares/Third_Party/LwIP/src/core/ipv4/dhcp.c ****   dhcp->request_timeout = (u16_t)((msecs + DHCP_FINE_TIMER_MSECS - 1) / DHCP_FINE_TIMER_MSECS);
 356              		.loc 1 321 66
 357 0042 3B89     		ldrh	r3, [r7, #8]
 358 0044 03F2F313 		addw	r3, r3, #499
 359              		.loc 1 321 71
 360 0048 064A     		ldr	r2, .L19
ARM GAS  /tmp/ccsjw2Nr.s 			page 13


 361 004a 82FB0312 		smull	r1, r2, r2, r3
 362 004e 5211     		asrs	r2, r2, #5
 363 0050 DB17     		asrs	r3, r3, #31
 364 0052 D31A     		subs	r3, r2, r3
 365              		.loc 1 321 27
 366 0054 9AB2     		uxth	r2, r3
 367              		.loc 1 321 25
 368 0056 FB68     		ldr	r3, [r7, #12]
 369 0058 1A81     		strh	r2, [r3, #8]	@ movhi
 322:Middlewares/Third_Party/LwIP/src/core/ipv4/dhcp.c ****   LWIP_DEBUGF(DHCP_DEBUG | LWIP_DBG_TRACE | LWIP_DBG_STATE, ("dhcp_check(): set request timeout %"U
 323:Middlewares/Third_Party/LwIP/src/core/ipv4/dhcp.c **** }
 370              		.loc 1 323 1
 371 005a 00BF     		nop
 372 005c 1037     		adds	r7, r7, #16
 373              	.LCFI12:
 374              		.cfi_def_cfa_offset 8
 375 005e BD46     		mov	sp, r7
 376              	.LCFI13:
 377              		.cfi_def_cfa_register 13
 378              		@ sp needed
 379 0060 80BD     		pop	{r7, pc}
 380              	.L20:
 381 0062 00BF     		.align	2
 382              	.L19:
 383 0064 D34D6210 		.word	274877907
 384              		.cfi_endproc
 385              	.LFE136:
 387              		.section	.text.dhcp_handle_offer,"ax",%progbits
 388              		.align	1
 389              		.syntax unified
 390              		.thumb
 391              		.thumb_func
 392              		.fpu fpv4-sp-d16
 394              	dhcp_handle_offer:
 395              	.LFB137:
 324:Middlewares/Third_Party/LwIP/src/core/ipv4/dhcp.c **** #endif /* DHCP_DOES_ARP_CHECK */
 325:Middlewares/Third_Party/LwIP/src/core/ipv4/dhcp.c **** 
 326:Middlewares/Third_Party/LwIP/src/core/ipv4/dhcp.c **** /**
 327:Middlewares/Third_Party/LwIP/src/core/ipv4/dhcp.c ****  * Remember the configuration offered by a DHCP server.
 328:Middlewares/Third_Party/LwIP/src/core/ipv4/dhcp.c ****  *
 329:Middlewares/Third_Party/LwIP/src/core/ipv4/dhcp.c ****  * @param netif the netif under DHCP control
 330:Middlewares/Third_Party/LwIP/src/core/ipv4/dhcp.c ****  */
 331:Middlewares/Third_Party/LwIP/src/core/ipv4/dhcp.c **** static void
 332:Middlewares/Third_Party/LwIP/src/core/ipv4/dhcp.c **** dhcp_handle_offer(struct netif *netif, struct dhcp_msg *msg_in)
 333:Middlewares/Third_Party/LwIP/src/core/ipv4/dhcp.c **** {
 396              		.loc 1 333 1
 397              		.cfi_startproc
 398              		@ args = 0, pretend = 0, frame = 16
 399              		@ frame_needed = 1, uses_anonymous_args = 0
 400 0000 80B5     		push	{r7, lr}
 401              	.LCFI14:
 402              		.cfi_def_cfa_offset 8
 403              		.cfi_offset 7, -8
 404              		.cfi_offset 14, -4
 405 0002 84B0     		sub	sp, sp, #16
 406              	.LCFI15:
 407              		.cfi_def_cfa_offset 24
ARM GAS  /tmp/ccsjw2Nr.s 			page 14


 408 0004 00AF     		add	r7, sp, #0
 409              	.LCFI16:
 410              		.cfi_def_cfa_register 7
 411 0006 7860     		str	r0, [r7, #4]
 412 0008 3960     		str	r1, [r7]
 334:Middlewares/Third_Party/LwIP/src/core/ipv4/dhcp.c ****   struct dhcp *dhcp = netif_dhcp_data(netif);
 413              		.loc 1 334 16
 414 000a 7B68     		ldr	r3, [r7, #4]
 415 000c 5B6A     		ldr	r3, [r3, #36]
 416 000e FB60     		str	r3, [r7, #12]
 335:Middlewares/Third_Party/LwIP/src/core/ipv4/dhcp.c **** 
 336:Middlewares/Third_Party/LwIP/src/core/ipv4/dhcp.c ****   LWIP_DEBUGF(DHCP_DEBUG | LWIP_DBG_TRACE, ("dhcp_handle_offer(netif=%p) %c%c%"U16_F"\n",
 337:Middlewares/Third_Party/LwIP/src/core/ipv4/dhcp.c ****               (void *)netif, netif->name[0], netif->name[1], (u16_t)netif->num));
 338:Middlewares/Third_Party/LwIP/src/core/ipv4/dhcp.c ****   /* obtain the server address */
 339:Middlewares/Third_Party/LwIP/src/core/ipv4/dhcp.c ****   if (dhcp_option_given(dhcp, DHCP_OPTION_IDX_SERVER_ID)) {
 417              		.loc 1 339 7
 418 0010 0C4B     		ldr	r3, .L24
 419 0012 9B78     		ldrb	r3, [r3, #2]	@ zero_extendqisi2
 420              		.loc 1 339 6
 421 0014 002B     		cmp	r3, #0
 422 0016 11D0     		beq	.L23
 340:Middlewares/Third_Party/LwIP/src/core/ipv4/dhcp.c ****     dhcp->request_timeout = 0; /* stop timer */
 423              		.loc 1 340 27
 424 0018 FB68     		ldr	r3, [r7, #12]
 425 001a 0022     		movs	r2, #0
 426 001c 1A81     		strh	r2, [r3, #8]	@ movhi
 341:Middlewares/Third_Party/LwIP/src/core/ipv4/dhcp.c **** 
 342:Middlewares/Third_Party/LwIP/src/core/ipv4/dhcp.c ****     ip_addr_set_ip4_u32(&dhcp->server_ip_addr, lwip_htonl(dhcp_get_option_value(dhcp, DHCP_OPTION_I
 427              		.loc 1 342 5
 428 001e 0A4B     		ldr	r3, .L24+4
 429 0020 9B68     		ldr	r3, [r3, #8]
 430 0022 1846     		mov	r0, r3
 431 0024 FFF7FEFF 		bl	lwip_htonl
 432 0028 0246     		mov	r2, r0
 433 002a FB68     		ldr	r3, [r7, #12]
 434 002c 9A61     		str	r2, [r3, #24]
 343:Middlewares/Third_Party/LwIP/src/core/ipv4/dhcp.c ****     LWIP_DEBUGF(DHCP_DEBUG | LWIP_DBG_STATE, ("dhcp_handle_offer(): server 0x%08"X32_F"\n",
 344:Middlewares/Third_Party/LwIP/src/core/ipv4/dhcp.c ****                 ip4_addr_get_u32(ip_2_ip4(&dhcp->server_ip_addr))));
 345:Middlewares/Third_Party/LwIP/src/core/ipv4/dhcp.c ****     /* remember offered address */
 346:Middlewares/Third_Party/LwIP/src/core/ipv4/dhcp.c ****     ip4_addr_copy(dhcp->offered_ip_addr, msg_in->yiaddr);
 435              		.loc 1 346 5
 436 002e 3B68     		ldr	r3, [r7]
 437 0030 1A69     		ldr	r2, [r3, #16]	@ unaligned
 438 0032 FB68     		ldr	r3, [r7, #12]
 439 0034 DA61     		str	r2, [r3, #28]
 347:Middlewares/Third_Party/LwIP/src/core/ipv4/dhcp.c ****     LWIP_DEBUGF(DHCP_DEBUG | LWIP_DBG_STATE, ("dhcp_handle_offer(): offer for 0x%08"X32_F"\n",
 348:Middlewares/Third_Party/LwIP/src/core/ipv4/dhcp.c ****                 ip4_addr_get_u32(&dhcp->offered_ip_addr)));
 349:Middlewares/Third_Party/LwIP/src/core/ipv4/dhcp.c **** 
 350:Middlewares/Third_Party/LwIP/src/core/ipv4/dhcp.c ****     dhcp_select(netif);
 440              		.loc 1 350 5
 441 0036 7868     		ldr	r0, [r7, #4]
 442 0038 FFF7FEFF 		bl	dhcp_select
 443              	.L23:
 351:Middlewares/Third_Party/LwIP/src/core/ipv4/dhcp.c ****   } else {
 352:Middlewares/Third_Party/LwIP/src/core/ipv4/dhcp.c ****     LWIP_DEBUGF(DHCP_DEBUG | LWIP_DBG_TRACE | LWIP_DBG_LEVEL_SERIOUS,
 353:Middlewares/Third_Party/LwIP/src/core/ipv4/dhcp.c ****                 ("dhcp_handle_offer(netif=%p) did not get server ID!\n", (void *)netif));
 354:Middlewares/Third_Party/LwIP/src/core/ipv4/dhcp.c ****   }
ARM GAS  /tmp/ccsjw2Nr.s 			page 15


 355:Middlewares/Third_Party/LwIP/src/core/ipv4/dhcp.c **** }
 444              		.loc 1 355 1
 445 003c 00BF     		nop
 446 003e 1037     		adds	r7, r7, #16
 447              	.LCFI17:
 448              		.cfi_def_cfa_offset 8
 449 0040 BD46     		mov	sp, r7
 450              	.LCFI18:
 451              		.cfi_def_cfa_register 13
 452              		@ sp needed
 453 0042 80BD     		pop	{r7, pc}
 454              	.L25:
 455              		.align	2
 456              	.L24:
 457 0044 00000000 		.word	dhcp_rx_options_given
 458 0048 00000000 		.word	dhcp_rx_options_val
 459              		.cfi_endproc
 460              	.LFE137:
 462              		.section	.rodata
 463              		.align	2
 464              	.LC4:
 465 00a8 64686370 		.ascii	"dhcp_select: netif != NULL\000"
 465      5F73656C 
 465      6563743A 
 465      206E6574 
 465      69662021 
 466 00c3 00       		.align	2
 467              	.LC5:
 468 00c4 64686370 		.ascii	"dhcp_select: dhcp != NULL\000"
 468      5F73656C 
 468      6563743A 
 468      20646863 
 468      7020213D 
 469              		.section	.text.dhcp_select,"ax",%progbits
 470              		.align	1
 471              		.syntax unified
 472              		.thumb
 473              		.thumb_func
 474              		.fpu fpv4-sp-d16
 476              	dhcp_select:
 477              	.LFB138:
 356:Middlewares/Third_Party/LwIP/src/core/ipv4/dhcp.c **** 
 357:Middlewares/Third_Party/LwIP/src/core/ipv4/dhcp.c **** /**
 358:Middlewares/Third_Party/LwIP/src/core/ipv4/dhcp.c ****  * Select a DHCP server offer out of all offers.
 359:Middlewares/Third_Party/LwIP/src/core/ipv4/dhcp.c ****  *
 360:Middlewares/Third_Party/LwIP/src/core/ipv4/dhcp.c ****  * Simply select the first offer received.
 361:Middlewares/Third_Party/LwIP/src/core/ipv4/dhcp.c ****  *
 362:Middlewares/Third_Party/LwIP/src/core/ipv4/dhcp.c ****  * @param netif the netif under DHCP control
 363:Middlewares/Third_Party/LwIP/src/core/ipv4/dhcp.c ****  * @return lwIP specific error (see error.h)
 364:Middlewares/Third_Party/LwIP/src/core/ipv4/dhcp.c ****  */
 365:Middlewares/Third_Party/LwIP/src/core/ipv4/dhcp.c **** static err_t
 366:Middlewares/Third_Party/LwIP/src/core/ipv4/dhcp.c **** dhcp_select(struct netif *netif)
 367:Middlewares/Third_Party/LwIP/src/core/ipv4/dhcp.c **** {
 478              		.loc 1 367 1
 479              		.cfi_startproc
 480              		@ args = 0, pretend = 0, frame = 32
 481              		@ frame_needed = 1, uses_anonymous_args = 0
ARM GAS  /tmp/ccsjw2Nr.s 			page 16


 482 0000 B0B5     		push	{r4, r5, r7, lr}
 483              	.LCFI19:
 484              		.cfi_def_cfa_offset 16
 485              		.cfi_offset 4, -16
 486              		.cfi_offset 5, -12
 487              		.cfi_offset 7, -8
 488              		.cfi_offset 14, -4
 489 0002 8AB0     		sub	sp, sp, #40
 490              	.LCFI20:
 491              		.cfi_def_cfa_offset 56
 492 0004 02AF     		add	r7, sp, #8
 493              	.LCFI21:
 494              		.cfi_def_cfa 7, 48
 495 0006 7860     		str	r0, [r7, #4]
 368:Middlewares/Third_Party/LwIP/src/core/ipv4/dhcp.c ****   struct dhcp *dhcp;
 369:Middlewares/Third_Party/LwIP/src/core/ipv4/dhcp.c ****   err_t result;
 370:Middlewares/Third_Party/LwIP/src/core/ipv4/dhcp.c ****   u16_t msecs;
 371:Middlewares/Third_Party/LwIP/src/core/ipv4/dhcp.c ****   u8_t i;
 372:Middlewares/Third_Party/LwIP/src/core/ipv4/dhcp.c ****   struct pbuf *p_out;
 373:Middlewares/Third_Party/LwIP/src/core/ipv4/dhcp.c ****   u16_t options_out_len;
 374:Middlewares/Third_Party/LwIP/src/core/ipv4/dhcp.c **** 
 375:Middlewares/Third_Party/LwIP/src/core/ipv4/dhcp.c ****   LWIP_ERROR("dhcp_select: netif != NULL", (netif != NULL), return ERR_ARG;);
 496              		.loc 1 375 3
 497 0008 7B68     		ldr	r3, [r7, #4]
 498 000a 002B     		cmp	r3, #0
 499 000c 09D1     		bne	.L27
 500              		.loc 1 375 3 is_stmt 0 discriminator 1
 501 000e 714B     		ldr	r3, .L38
 502 0010 40F27712 		movw	r2, #375
 503 0014 7049     		ldr	r1, .L38+4
 504 0016 7148     		ldr	r0, .L38+8
 505 0018 FFF7FEFF 		bl	printf
 506 001c 6FF00F03 		mvn	r3, #15
 507 0020 D3E0     		b	.L37
 508              	.L27:
 376:Middlewares/Third_Party/LwIP/src/core/ipv4/dhcp.c ****   dhcp = netif_dhcp_data(netif);
 509              		.loc 1 376 8 is_stmt 1
 510 0022 7B68     		ldr	r3, [r7, #4]
 511 0024 5B6A     		ldr	r3, [r3, #36]
 512 0026 BB61     		str	r3, [r7, #24]
 377:Middlewares/Third_Party/LwIP/src/core/ipv4/dhcp.c ****   LWIP_ERROR("dhcp_select: dhcp != NULL", (dhcp != NULL), return ERR_VAL;);
 513              		.loc 1 377 3
 514 0028 BB69     		ldr	r3, [r7, #24]
 515 002a 002B     		cmp	r3, #0
 516 002c 09D1     		bne	.L29
 517              		.loc 1 377 3 is_stmt 0 discriminator 1
 518 002e 694B     		ldr	r3, .L38
 519 0030 40F27912 		movw	r2, #377
 520 0034 6A49     		ldr	r1, .L38+12
 521 0036 6948     		ldr	r0, .L38+8
 522 0038 FFF7FEFF 		bl	printf
 523 003c 6FF00503 		mvn	r3, #5
 524 0040 C3E0     		b	.L37
 525              	.L29:
 378:Middlewares/Third_Party/LwIP/src/core/ipv4/dhcp.c **** 
 379:Middlewares/Third_Party/LwIP/src/core/ipv4/dhcp.c ****   LWIP_DEBUGF(DHCP_DEBUG | LWIP_DBG_TRACE, ("dhcp_select(netif=%p) %c%c%"U16_F"\n", (void *)netif, 
 380:Middlewares/Third_Party/LwIP/src/core/ipv4/dhcp.c ****   dhcp_set_state(dhcp, DHCP_STATE_REQUESTING);
ARM GAS  /tmp/ccsjw2Nr.s 			page 17


 526              		.loc 1 380 3 is_stmt 1
 527 0042 0121     		movs	r1, #1
 528 0044 B869     		ldr	r0, [r7, #24]
 529 0046 FFF7FEFF 		bl	dhcp_set_state
 381:Middlewares/Third_Party/LwIP/src/core/ipv4/dhcp.c **** 
 382:Middlewares/Third_Party/LwIP/src/core/ipv4/dhcp.c ****   /* create and initialize the DHCP message header */
 383:Middlewares/Third_Party/LwIP/src/core/ipv4/dhcp.c ****   p_out = dhcp_create_msg(netif, dhcp, DHCP_REQUEST, &options_out_len);
 530              		.loc 1 383 11
 531 004a 07F10C03 		add	r3, r7, #12
 532 004e 0322     		movs	r2, #3
 533 0050 B969     		ldr	r1, [r7, #24]
 534 0052 7868     		ldr	r0, [r7, #4]
 535 0054 FFF7FEFF 		bl	dhcp_create_msg
 536 0058 7861     		str	r0, [r7, #20]
 384:Middlewares/Third_Party/LwIP/src/core/ipv4/dhcp.c ****   if (p_out != NULL) {
 537              		.loc 1 384 6
 538 005a 7B69     		ldr	r3, [r7, #20]
 539 005c 002B     		cmp	r3, #0
 540 005e 00F08580 		beq	.L30
 541              	.LBB2:
 385:Middlewares/Third_Party/LwIP/src/core/ipv4/dhcp.c ****     struct dhcp_msg *msg_out = (struct dhcp_msg *)p_out->payload;
 542              		.loc 1 385 22
 543 0062 7B69     		ldr	r3, [r7, #20]
 544 0064 5B68     		ldr	r3, [r3, #4]
 545 0066 3B61     		str	r3, [r7, #16]
 386:Middlewares/Third_Party/LwIP/src/core/ipv4/dhcp.c ****     options_out_len = dhcp_option(options_out_len, msg_out->options, DHCP_OPTION_MAX_MSG_SIZE, DHCP
 546              		.loc 1 386 23
 547 0068 B889     		ldrh	r0, [r7, #12]
 548              		.loc 1 386 59
 549 006a 3B69     		ldr	r3, [r7, #16]
 550 006c 03F1F001 		add	r1, r3, #240
 551              		.loc 1 386 23
 552 0070 0223     		movs	r3, #2
 553 0072 3922     		movs	r2, #57
 554 0074 FFF7FEFF 		bl	dhcp_option
 555 0078 0346     		mov	r3, r0
 556              		.loc 1 386 21
 557 007a BB81     		strh	r3, [r7, #12]	@ movhi
 387:Middlewares/Third_Party/LwIP/src/core/ipv4/dhcp.c ****     options_out_len = dhcp_option_short(options_out_len, msg_out->options, DHCP_MAX_MSG_LEN(netif))
 558              		.loc 1 387 23
 559 007c B889     		ldrh	r0, [r7, #12]
 560              		.loc 1 387 65
 561 007e 3B69     		ldr	r3, [r7, #16]
 562 0080 03F1F001 		add	r1, r3, #240
 563              		.loc 1 387 23
 564 0084 7B68     		ldr	r3, [r7, #4]
 565 0086 1B8D     		ldrh	r3, [r3, #40]
 566 0088 1A46     		mov	r2, r3
 567 008a FFF7FEFF 		bl	dhcp_option_short
 568 008e 0346     		mov	r3, r0
 569              		.loc 1 387 21
 570 0090 BB81     		strh	r3, [r7, #12]	@ movhi
 388:Middlewares/Third_Party/LwIP/src/core/ipv4/dhcp.c **** 
 389:Middlewares/Third_Party/LwIP/src/core/ipv4/dhcp.c ****     /* MUST request the offered IP address */
 390:Middlewares/Third_Party/LwIP/src/core/ipv4/dhcp.c ****     options_out_len = dhcp_option(options_out_len, msg_out->options, DHCP_OPTION_REQUESTED_IP, 4);
 571              		.loc 1 390 23
 572 0092 B889     		ldrh	r0, [r7, #12]
ARM GAS  /tmp/ccsjw2Nr.s 			page 18


 573              		.loc 1 390 59
 574 0094 3B69     		ldr	r3, [r7, #16]
 575 0096 03F1F001 		add	r1, r3, #240
 576              		.loc 1 390 23
 577 009a 0423     		movs	r3, #4
 578 009c 3222     		movs	r2, #50
 579 009e FFF7FEFF 		bl	dhcp_option
 580 00a2 0346     		mov	r3, r0
 581              		.loc 1 390 21
 582 00a4 BB81     		strh	r3, [r7, #12]	@ movhi
 391:Middlewares/Third_Party/LwIP/src/core/ipv4/dhcp.c ****     options_out_len = dhcp_option_long(options_out_len, msg_out->options, lwip_ntohl(ip4_addr_get_u
 583              		.loc 1 391 23
 584 00a6 BC89     		ldrh	r4, [r7, #12]
 585              		.loc 1 391 64
 586 00a8 3B69     		ldr	r3, [r7, #16]
 587 00aa 03F1F005 		add	r5, r3, #240
 588              		.loc 1 391 23
 589 00ae BB69     		ldr	r3, [r7, #24]
 590 00b0 DB69     		ldr	r3, [r3, #28]
 591 00b2 1846     		mov	r0, r3
 592 00b4 FFF7FEFF 		bl	lwip_htonl
 593 00b8 0346     		mov	r3, r0
 594 00ba 1A46     		mov	r2, r3
 595 00bc 2946     		mov	r1, r5
 596 00be 2046     		mov	r0, r4
 597 00c0 FFF7FEFF 		bl	dhcp_option_long
 598 00c4 0346     		mov	r3, r0
 599              		.loc 1 391 21
 600 00c6 BB81     		strh	r3, [r7, #12]	@ movhi
 392:Middlewares/Third_Party/LwIP/src/core/ipv4/dhcp.c **** 
 393:Middlewares/Third_Party/LwIP/src/core/ipv4/dhcp.c ****     options_out_len = dhcp_option(options_out_len, msg_out->options, DHCP_OPTION_SERVER_ID, 4);
 601              		.loc 1 393 23
 602 00c8 B889     		ldrh	r0, [r7, #12]
 603              		.loc 1 393 59
 604 00ca 3B69     		ldr	r3, [r7, #16]
 605 00cc 03F1F001 		add	r1, r3, #240
 606              		.loc 1 393 23
 607 00d0 0423     		movs	r3, #4
 608 00d2 3622     		movs	r2, #54
 609 00d4 FFF7FEFF 		bl	dhcp_option
 610 00d8 0346     		mov	r3, r0
 611              		.loc 1 393 21
 612 00da BB81     		strh	r3, [r7, #12]	@ movhi
 394:Middlewares/Third_Party/LwIP/src/core/ipv4/dhcp.c ****     options_out_len = dhcp_option_long(options_out_len, msg_out->options, lwip_ntohl(ip4_addr_get_u
 613              		.loc 1 394 23
 614 00dc BC89     		ldrh	r4, [r7, #12]
 615              		.loc 1 394 64
 616 00de 3B69     		ldr	r3, [r7, #16]
 617 00e0 03F1F005 		add	r5, r3, #240
 618              		.loc 1 394 23
 619 00e4 BB69     		ldr	r3, [r7, #24]
 620 00e6 9B69     		ldr	r3, [r3, #24]
 621 00e8 1846     		mov	r0, r3
 622 00ea FFF7FEFF 		bl	lwip_htonl
 623 00ee 0346     		mov	r3, r0
 624 00f0 1A46     		mov	r2, r3
 625 00f2 2946     		mov	r1, r5
ARM GAS  /tmp/ccsjw2Nr.s 			page 19


 626 00f4 2046     		mov	r0, r4
 627 00f6 FFF7FEFF 		bl	dhcp_option_long
 628 00fa 0346     		mov	r3, r0
 629              		.loc 1 394 21
 630 00fc BB81     		strh	r3, [r7, #12]	@ movhi
 395:Middlewares/Third_Party/LwIP/src/core/ipv4/dhcp.c **** 
 396:Middlewares/Third_Party/LwIP/src/core/ipv4/dhcp.c ****     options_out_len = dhcp_option(options_out_len, msg_out->options, DHCP_OPTION_PARAMETER_REQUEST_
 631              		.loc 1 396 23
 632 00fe B889     		ldrh	r0, [r7, #12]
 633              		.loc 1 396 59
 634 0100 3B69     		ldr	r3, [r7, #16]
 635 0102 03F1F001 		add	r1, r3, #240
 636              		.loc 1 396 23
 637 0106 0323     		movs	r3, #3
 638 0108 3722     		movs	r2, #55
 639 010a FFF7FEFF 		bl	dhcp_option
 640 010e 0346     		mov	r3, r0
 641              		.loc 1 396 21
 642 0110 BB81     		strh	r3, [r7, #12]	@ movhi
 397:Middlewares/Third_Party/LwIP/src/core/ipv4/dhcp.c ****     for (i = 0; i < LWIP_ARRAYSIZE(dhcp_discover_request_options); i++) {
 643              		.loc 1 397 12
 644 0112 0023     		movs	r3, #0
 645 0114 BB77     		strb	r3, [r7, #30]
 646              		.loc 1 397 5
 647 0116 0EE0     		b	.L31
 648              	.L32:
 398:Middlewares/Third_Party/LwIP/src/core/ipv4/dhcp.c ****       options_out_len = dhcp_option_byte(options_out_len, msg_out->options, dhcp_discover_request_o
 649              		.loc 1 398 25 discriminator 3
 650 0118 B889     		ldrh	r0, [r7, #12]
 651              		.loc 1 398 66 discriminator 3
 652 011a 3B69     		ldr	r3, [r7, #16]
 653 011c 03F1F001 		add	r1, r3, #240
 654              		.loc 1 398 25 discriminator 3
 655 0120 BB7F     		ldrb	r3, [r7, #30]	@ zero_extendqisi2
 656 0122 304A     		ldr	r2, .L38+16
 657 0124 D35C     		ldrb	r3, [r2, r3]	@ zero_extendqisi2
 658 0126 1A46     		mov	r2, r3
 659 0128 FFF7FEFF 		bl	dhcp_option_byte
 660 012c 0346     		mov	r3, r0
 661              		.loc 1 398 23 discriminator 3
 662 012e BB81     		strh	r3, [r7, #12]	@ movhi
 397:Middlewares/Third_Party/LwIP/src/core/ipv4/dhcp.c ****     for (i = 0; i < LWIP_ARRAYSIZE(dhcp_discover_request_options); i++) {
 663              		.loc 1 397 69 discriminator 3
 664 0130 BB7F     		ldrb	r3, [r7, #30]	@ zero_extendqisi2
 665 0132 0133     		adds	r3, r3, #1
 666 0134 BB77     		strb	r3, [r7, #30]
 667              	.L31:
 397:Middlewares/Third_Party/LwIP/src/core/ipv4/dhcp.c ****     for (i = 0; i < LWIP_ARRAYSIZE(dhcp_discover_request_options); i++) {
 668              		.loc 1 397 5 discriminator 1
 669 0136 BB7F     		ldrb	r3, [r7, #30]	@ zero_extendqisi2
 670 0138 022B     		cmp	r3, #2
 671 013a EDD9     		bls	.L32
 399:Middlewares/Third_Party/LwIP/src/core/ipv4/dhcp.c ****     }
 400:Middlewares/Third_Party/LwIP/src/core/ipv4/dhcp.c **** 
 401:Middlewares/Third_Party/LwIP/src/core/ipv4/dhcp.c **** #if LWIP_NETIF_HOSTNAME
 402:Middlewares/Third_Party/LwIP/src/core/ipv4/dhcp.c ****     options_out_len = dhcp_option_hostname(options_out_len, msg_out->options, netif);
 403:Middlewares/Third_Party/LwIP/src/core/ipv4/dhcp.c **** #endif /* LWIP_NETIF_HOSTNAME */
ARM GAS  /tmp/ccsjw2Nr.s 			page 20


 404:Middlewares/Third_Party/LwIP/src/core/ipv4/dhcp.c **** 
 405:Middlewares/Third_Party/LwIP/src/core/ipv4/dhcp.c ****     LWIP_HOOK_DHCP_APPEND_OPTIONS(netif, dhcp, DHCP_STATE_REQUESTING, msg_out, DHCP_REQUEST, &optio
 406:Middlewares/Third_Party/LwIP/src/core/ipv4/dhcp.c ****     dhcp_option_trailer(options_out_len, msg_out->options, p_out);
 672              		.loc 1 406 5
 673 013c B889     		ldrh	r0, [r7, #12]
 674              		.loc 1 406 49
 675 013e 3B69     		ldr	r3, [r7, #16]
 676 0140 F033     		adds	r3, r3, #240
 677              		.loc 1 406 5
 678 0142 7A69     		ldr	r2, [r7, #20]
 679 0144 1946     		mov	r1, r3
 680 0146 FFF7FEFF 		bl	dhcp_option_trailer
 407:Middlewares/Third_Party/LwIP/src/core/ipv4/dhcp.c **** 
 408:Middlewares/Third_Party/LwIP/src/core/ipv4/dhcp.c ****     /* send broadcast to any DHCP server */
 409:Middlewares/Third_Party/LwIP/src/core/ipv4/dhcp.c ****     result = udp_sendto_if_src(dhcp_pcb, p_out, IP_ADDR_BROADCAST, LWIP_IANA_PORT_DHCP_SERVER, neti
 681              		.loc 1 409 14
 682 014a 274B     		ldr	r3, .L38+20
 683 014c 1868     		ldr	r0, [r3]
 684 014e 274B     		ldr	r3, .L38+24
 685 0150 0193     		str	r3, [sp, #4]
 686 0152 7B68     		ldr	r3, [r7, #4]
 687 0154 0093     		str	r3, [sp]
 688 0156 4323     		movs	r3, #67
 689 0158 254A     		ldr	r2, .L38+28
 690 015a 7969     		ldr	r1, [r7, #20]
 691 015c FFF7FEFF 		bl	udp_sendto_if_src
 692 0160 0346     		mov	r3, r0
 693 0162 FB77     		strb	r3, [r7, #31]
 410:Middlewares/Third_Party/LwIP/src/core/ipv4/dhcp.c ****     pbuf_free(p_out);
 694              		.loc 1 410 5
 695 0164 7869     		ldr	r0, [r7, #20]
 696 0166 FFF7FEFF 		bl	pbuf_free
 697              	.LBE2:
 698 016a 01E0     		b	.L33
 699              	.L30:
 411:Middlewares/Third_Party/LwIP/src/core/ipv4/dhcp.c ****     LWIP_DEBUGF(DHCP_DEBUG | LWIP_DBG_TRACE | LWIP_DBG_STATE, ("dhcp_select: REQUESTING\n"));
 412:Middlewares/Third_Party/LwIP/src/core/ipv4/dhcp.c ****   } else {
 413:Middlewares/Third_Party/LwIP/src/core/ipv4/dhcp.c ****     LWIP_DEBUGF(DHCP_DEBUG | LWIP_DBG_TRACE | LWIP_DBG_LEVEL_WARNING, ("dhcp_select: could not allo
 414:Middlewares/Third_Party/LwIP/src/core/ipv4/dhcp.c ****     result = ERR_MEM;
 700              		.loc 1 414 12
 701 016c FF23     		movs	r3, #255
 702 016e FB77     		strb	r3, [r7, #31]
 703              	.L33:
 415:Middlewares/Third_Party/LwIP/src/core/ipv4/dhcp.c ****   }
 416:Middlewares/Third_Party/LwIP/src/core/ipv4/dhcp.c ****   if (dhcp->tries < 255) {
 704              		.loc 1 416 11
 705 0170 BB69     		ldr	r3, [r7, #24]
 706 0172 9B79     		ldrb	r3, [r3, #6]	@ zero_extendqisi2
 707              		.loc 1 416 6
 708 0174 FF2B     		cmp	r3, #255
 709 0176 05D0     		beq	.L34
 417:Middlewares/Third_Party/LwIP/src/core/ipv4/dhcp.c ****     dhcp->tries++;
 710              		.loc 1 417 9
 711 0178 BB69     		ldr	r3, [r7, #24]
 712 017a 9B79     		ldrb	r3, [r3, #6]	@ zero_extendqisi2
 713              		.loc 1 417 16
 714 017c 0133     		adds	r3, r3, #1
ARM GAS  /tmp/ccsjw2Nr.s 			page 21


 715 017e DAB2     		uxtb	r2, r3
 716 0180 BB69     		ldr	r3, [r7, #24]
 717 0182 9A71     		strb	r2, [r3, #6]
 718              	.L34:
 418:Middlewares/Third_Party/LwIP/src/core/ipv4/dhcp.c ****   }
 419:Middlewares/Third_Party/LwIP/src/core/ipv4/dhcp.c ****   msecs = (u16_t)((dhcp->tries < 6 ? 1 << dhcp->tries : 60) * 1000);
 719              		.loc 1 419 24
 720 0184 BB69     		ldr	r3, [r7, #24]
 721 0186 9B79     		ldrb	r3, [r3, #6]	@ zero_extendqisi2
 722              		.loc 1 419 11
 723 0188 052B     		cmp	r3, #5
 724 018a 0DD8     		bhi	.L35
 725              		.loc 1 419 47 discriminator 1
 726 018c BB69     		ldr	r3, [r7, #24]
 727 018e 9B79     		ldrb	r3, [r3, #6]	@ zero_extendqisi2
 728 0190 1A46     		mov	r2, r3
 729              		.loc 1 419 40 discriminator 1
 730 0192 0123     		movs	r3, #1
 731 0194 9340     		lsls	r3, r3, r2
 732              		.loc 1 419 11 discriminator 1
 733 0196 9BB2     		uxth	r3, r3
 734 0198 1A46     		mov	r2, r3	@ movhi
 735 019a 5201     		lsls	r2, r2, #5
 736 019c D21A     		subs	r2, r2, r3
 737 019e 9200     		lsls	r2, r2, #2
 738 01a0 1344     		add	r3, r3, r2
 739 01a2 DB00     		lsls	r3, r3, #3
 740 01a4 9BB2     		uxth	r3, r3
 741 01a6 01E0     		b	.L36
 742              	.L35:
 743              		.loc 1 419 11 is_stmt 0 discriminator 2
 744 01a8 4EF66023 		movw	r3, #60000
 745              	.L36:
 746              		.loc 1 419 9 is_stmt 1 discriminator 4
 747 01ac FB81     		strh	r3, [r7, #14]	@ movhi
 420:Middlewares/Third_Party/LwIP/src/core/ipv4/dhcp.c ****   dhcp->request_timeout = (u16_t)((msecs + DHCP_FINE_TIMER_MSECS - 1) / DHCP_FINE_TIMER_MSECS);
 748              		.loc 1 420 66 discriminator 4
 749 01ae FB89     		ldrh	r3, [r7, #14]
 750 01b0 03F2F313 		addw	r3, r3, #499
 751              		.loc 1 420 71 discriminator 4
 752 01b4 0F4A     		ldr	r2, .L38+32
 753 01b6 82FB0312 		smull	r1, r2, r2, r3
 754 01ba 5211     		asrs	r2, r2, #5
 755 01bc DB17     		asrs	r3, r3, #31
 756 01be D31A     		subs	r3, r2, r3
 757              		.loc 1 420 27 discriminator 4
 758 01c0 9AB2     		uxth	r2, r3
 759              		.loc 1 420 25 discriminator 4
 760 01c2 BB69     		ldr	r3, [r7, #24]
 761 01c4 1A81     		strh	r2, [r3, #8]	@ movhi
 421:Middlewares/Third_Party/LwIP/src/core/ipv4/dhcp.c ****   LWIP_DEBUGF(DHCP_DEBUG | LWIP_DBG_STATE, ("dhcp_select(): set request timeout %"U16_F" msecs\n", 
 422:Middlewares/Third_Party/LwIP/src/core/ipv4/dhcp.c ****   return result;
 762              		.loc 1 422 10 discriminator 4
 763 01c6 97F91F30 		ldrsb	r3, [r7, #31]
 764              	.L37:
 423:Middlewares/Third_Party/LwIP/src/core/ipv4/dhcp.c **** }
 765              		.loc 1 423 1 discriminator 1
ARM GAS  /tmp/ccsjw2Nr.s 			page 22


 766 01ca 1846     		mov	r0, r3
 767 01cc 2037     		adds	r7, r7, #32
 768              	.LCFI22:
 769              		.cfi_def_cfa_offset 16
 770 01ce BD46     		mov	sp, r7
 771              	.LCFI23:
 772              		.cfi_def_cfa_register 13
 773              		@ sp needed
 774 01d0 B0BD     		pop	{r4, r5, r7, pc}
 775              	.L39:
 776 01d2 00BF     		.align	2
 777              	.L38:
 778 01d4 00000000 		.word	.LC0
 779 01d8 A8000000 		.word	.LC4
 780 01dc 5C000000 		.word	.LC2
 781 01e0 C4000000 		.word	.LC5
 782 01e4 00000000 		.word	dhcp_discover_request_options
 783 01e8 00000000 		.word	dhcp_pcb
 784 01ec 00000000 		.word	ip_addr_any
 785 01f0 00000000 		.word	ip_addr_broadcast
 786 01f4 D34D6210 		.word	274877907
 787              		.cfi_endproc
 788              	.LFE138:
 790              		.section	.text.dhcp_coarse_tmr,"ax",%progbits
 791              		.align	1
 792              		.global	dhcp_coarse_tmr
 793              		.syntax unified
 794              		.thumb
 795              		.thumb_func
 796              		.fpu fpv4-sp-d16
 798              	dhcp_coarse_tmr:
 799              	.LFB139:
 424:Middlewares/Third_Party/LwIP/src/core/ipv4/dhcp.c **** 
 425:Middlewares/Third_Party/LwIP/src/core/ipv4/dhcp.c **** /**
 426:Middlewares/Third_Party/LwIP/src/core/ipv4/dhcp.c ****  * The DHCP timer that checks for lease renewal/rebind timeouts.
 427:Middlewares/Third_Party/LwIP/src/core/ipv4/dhcp.c ****  * Must be called once a minute (see @ref DHCP_COARSE_TIMER_SECS).
 428:Middlewares/Third_Party/LwIP/src/core/ipv4/dhcp.c ****  */
 429:Middlewares/Third_Party/LwIP/src/core/ipv4/dhcp.c **** void
 430:Middlewares/Third_Party/LwIP/src/core/ipv4/dhcp.c **** dhcp_coarse_tmr(void)
 431:Middlewares/Third_Party/LwIP/src/core/ipv4/dhcp.c **** {
 800              		.loc 1 431 1
 801              		.cfi_startproc
 802              		@ args = 0, pretend = 0, frame = 8
 803              		@ frame_needed = 1, uses_anonymous_args = 0
 804 0000 80B5     		push	{r7, lr}
 805              	.LCFI24:
 806              		.cfi_def_cfa_offset 8
 807              		.cfi_offset 7, -8
 808              		.cfi_offset 14, -4
 809 0002 82B0     		sub	sp, sp, #8
 810              	.LCFI25:
 811              		.cfi_def_cfa_offset 16
 812 0004 00AF     		add	r7, sp, #0
 813              	.LCFI26:
 814              		.cfi_def_cfa_register 7
 432:Middlewares/Third_Party/LwIP/src/core/ipv4/dhcp.c ****   struct netif *netif;
 433:Middlewares/Third_Party/LwIP/src/core/ipv4/dhcp.c ****   LWIP_DEBUGF(DHCP_DEBUG | LWIP_DBG_TRACE, ("dhcp_coarse_tmr()\n"));
ARM GAS  /tmp/ccsjw2Nr.s 			page 23


 434:Middlewares/Third_Party/LwIP/src/core/ipv4/dhcp.c ****   /* iterate through all network interfaces */
 435:Middlewares/Third_Party/LwIP/src/core/ipv4/dhcp.c ****   NETIF_FOREACH(netif) {
 815              		.loc 1 435 3
 816 0006 274B     		ldr	r3, .L46
 817 0008 1B68     		ldr	r3, [r3]
 818 000a 7B60     		str	r3, [r7, #4]
 819 000c 42E0     		b	.L41
 820              	.L45:
 821              	.LBB3:
 436:Middlewares/Third_Party/LwIP/src/core/ipv4/dhcp.c ****     /* only act on DHCP configured interfaces */
 437:Middlewares/Third_Party/LwIP/src/core/ipv4/dhcp.c ****     struct dhcp *dhcp = netif_dhcp_data(netif);
 822              		.loc 1 437 18
 823 000e 7B68     		ldr	r3, [r7, #4]
 824 0010 5B6A     		ldr	r3, [r3, #36]
 825 0012 3B60     		str	r3, [r7]
 438:Middlewares/Third_Party/LwIP/src/core/ipv4/dhcp.c ****     if ((dhcp != NULL) && (dhcp->state != DHCP_STATE_OFF)) {
 826              		.loc 1 438 8
 827 0014 3B68     		ldr	r3, [r7]
 828 0016 002B     		cmp	r3, #0
 829 0018 39D0     		beq	.L42
 830              		.loc 1 438 32 discriminator 1
 831 001a 3B68     		ldr	r3, [r7]
 832 001c 5B79     		ldrb	r3, [r3, #5]	@ zero_extendqisi2
 833              		.loc 1 438 24 discriminator 1
 834 001e 002B     		cmp	r3, #0
 835 0020 35D0     		beq	.L42
 439:Middlewares/Third_Party/LwIP/src/core/ipv4/dhcp.c ****       /* compare lease time to expire timeout */
 440:Middlewares/Third_Party/LwIP/src/core/ipv4/dhcp.c ****       if (dhcp->t0_timeout && (++dhcp->lease_used == dhcp->t0_timeout)) {
 836              		.loc 1 440 15
 837 0022 3B68     		ldr	r3, [r7]
 838 0024 9B8A     		ldrh	r3, [r3, #20]
 839              		.loc 1 440 10
 840 0026 002B     		cmp	r3, #0
 841 0028 12D0     		beq	.L43
 842              		.loc 1 440 38 discriminator 1
 843 002a 3B68     		ldr	r3, [r7]
 844 002c 5B8A     		ldrh	r3, [r3, #18]
 845              		.loc 1 440 32 discriminator 1
 846 002e 0133     		adds	r3, r3, #1
 847 0030 9AB2     		uxth	r2, r3
 848              		.loc 1 440 28 discriminator 1
 849 0032 3B68     		ldr	r3, [r7]
 850 0034 5A82     		strh	r2, [r3, #18]	@ movhi
 851              		.loc 1 440 38 discriminator 1
 852 0036 3B68     		ldr	r3, [r7]
 853 0038 5A8A     		ldrh	r2, [r3, #18]
 854              		.loc 1 440 58 discriminator 1
 855 003a 3B68     		ldr	r3, [r7]
 856 003c 9B8A     		ldrh	r3, [r3, #20]
 857              		.loc 1 440 28 discriminator 1
 858 003e 9A42     		cmp	r2, r3
 859 0040 06D1     		bne	.L43
 441:Middlewares/Third_Party/LwIP/src/core/ipv4/dhcp.c ****         LWIP_DEBUGF(DHCP_DEBUG | LWIP_DBG_TRACE | LWIP_DBG_STATE, ("dhcp_coarse_tmr(): t0 timeout\n
 442:Middlewares/Third_Party/LwIP/src/core/ipv4/dhcp.c ****         /* this clients' lease time has expired */
 443:Middlewares/Third_Party/LwIP/src/core/ipv4/dhcp.c ****         dhcp_release_and_stop(netif);
 860              		.loc 1 443 9
 861 0042 7868     		ldr	r0, [r7, #4]
ARM GAS  /tmp/ccsjw2Nr.s 			page 24


 862 0044 FFF7FEFF 		bl	dhcp_release_and_stop
 444:Middlewares/Third_Party/LwIP/src/core/ipv4/dhcp.c ****         dhcp_start(netif);
 863              		.loc 1 444 9
 864 0048 7868     		ldr	r0, [r7, #4]
 865 004a FFF7FEFF 		bl	dhcp_start
 866 004e 1EE0     		b	.L42
 867              	.L43:
 445:Middlewares/Third_Party/LwIP/src/core/ipv4/dhcp.c ****         /* timer is active (non zero), and triggers (zeroes) now? */
 446:Middlewares/Third_Party/LwIP/src/core/ipv4/dhcp.c ****       } else if (dhcp->t2_rebind_time && (dhcp->t2_rebind_time-- == 1)) {
 868              		.loc 1 446 22
 869 0050 3B68     		ldr	r3, [r7]
 870 0052 1B8A     		ldrh	r3, [r3, #16]
 871              		.loc 1 446 17
 872 0054 002B     		cmp	r3, #0
 873 0056 0BD0     		beq	.L44
 874              		.loc 1 446 47 discriminator 1
 875 0058 3B68     		ldr	r3, [r7]
 876 005a 1B8A     		ldrh	r3, [r3, #16]
 877              		.loc 1 446 63 discriminator 1
 878 005c 5A1E     		subs	r2, r3, #1
 879 005e 91B2     		uxth	r1, r2
 880 0060 3A68     		ldr	r2, [r7]
 881 0062 1182     		strh	r1, [r2, #16]	@ movhi
 882              		.loc 1 446 39 discriminator 1
 883 0064 012B     		cmp	r3, #1
 884 0066 03D1     		bne	.L44
 447:Middlewares/Third_Party/LwIP/src/core/ipv4/dhcp.c ****         LWIP_DEBUGF(DHCP_DEBUG | LWIP_DBG_TRACE | LWIP_DBG_STATE, ("dhcp_coarse_tmr(): t2 timeout\n
 448:Middlewares/Third_Party/LwIP/src/core/ipv4/dhcp.c ****         /* this clients' rebind timeout triggered */
 449:Middlewares/Third_Party/LwIP/src/core/ipv4/dhcp.c ****         dhcp_t2_timeout(netif);
 885              		.loc 1 449 9
 886 0068 7868     		ldr	r0, [r7, #4]
 887 006a FFF7FEFF 		bl	dhcp_t2_timeout
 888 006e 0EE0     		b	.L42
 889              	.L44:
 450:Middlewares/Third_Party/LwIP/src/core/ipv4/dhcp.c ****         /* timer is active (non zero), and triggers (zeroes) now */
 451:Middlewares/Third_Party/LwIP/src/core/ipv4/dhcp.c ****       } else if (dhcp->t1_renew_time && (dhcp->t1_renew_time-- == 1)) {
 890              		.loc 1 451 22
 891 0070 3B68     		ldr	r3, [r7]
 892 0072 DB89     		ldrh	r3, [r3, #14]
 893              		.loc 1 451 17
 894 0074 002B     		cmp	r3, #0
 895 0076 0AD0     		beq	.L42
 896              		.loc 1 451 46 discriminator 1
 897 0078 3B68     		ldr	r3, [r7]
 898 007a DB89     		ldrh	r3, [r3, #14]
 899              		.loc 1 451 61 discriminator 1
 900 007c 5A1E     		subs	r2, r3, #1
 901 007e 91B2     		uxth	r1, r2
 902 0080 3A68     		ldr	r2, [r7]
 903 0082 D181     		strh	r1, [r2, #14]	@ movhi
 904              		.loc 1 451 38 discriminator 1
 905 0084 012B     		cmp	r3, #1
 906 0086 02D1     		bne	.L42
 452:Middlewares/Third_Party/LwIP/src/core/ipv4/dhcp.c ****         LWIP_DEBUGF(DHCP_DEBUG | LWIP_DBG_TRACE | LWIP_DBG_STATE, ("dhcp_coarse_tmr(): t1 timeout\n
 453:Middlewares/Third_Party/LwIP/src/core/ipv4/dhcp.c ****         /* this clients' renewal timeout triggered */
 454:Middlewares/Third_Party/LwIP/src/core/ipv4/dhcp.c ****         dhcp_t1_timeout(netif);
 907              		.loc 1 454 9
ARM GAS  /tmp/ccsjw2Nr.s 			page 25


 908 0088 7868     		ldr	r0, [r7, #4]
 909 008a FFF7FEFF 		bl	dhcp_t1_timeout
 910              	.L42:
 911              	.LBE3:
 435:Middlewares/Third_Party/LwIP/src/core/ipv4/dhcp.c ****     /* only act on DHCP configured interfaces */
 912              		.loc 1 435 3 discriminator 2
 913 008e 7B68     		ldr	r3, [r7, #4]
 914 0090 1B68     		ldr	r3, [r3]
 915 0092 7B60     		str	r3, [r7, #4]
 916              	.L41:
 435:Middlewares/Third_Party/LwIP/src/core/ipv4/dhcp.c ****     /* only act on DHCP configured interfaces */
 917              		.loc 1 435 3 is_stmt 0 discriminator 1
 918 0094 7B68     		ldr	r3, [r7, #4]
 919 0096 002B     		cmp	r3, #0
 920 0098 B9D1     		bne	.L45
 455:Middlewares/Third_Party/LwIP/src/core/ipv4/dhcp.c ****       }
 456:Middlewares/Third_Party/LwIP/src/core/ipv4/dhcp.c ****     }
 457:Middlewares/Third_Party/LwIP/src/core/ipv4/dhcp.c ****   }
 458:Middlewares/Third_Party/LwIP/src/core/ipv4/dhcp.c **** }
 921              		.loc 1 458 1 is_stmt 1
 922 009a 00BF     		nop
 923 009c 0837     		adds	r7, r7, #8
 924              	.LCFI27:
 925              		.cfi_def_cfa_offset 8
 926 009e BD46     		mov	sp, r7
 927              	.LCFI28:
 928              		.cfi_def_cfa_register 13
 929              		@ sp needed
 930 00a0 80BD     		pop	{r7, pc}
 931              	.L47:
 932 00a2 00BF     		.align	2
 933              	.L46:
 934 00a4 00000000 		.word	netif_list
 935              		.cfi_endproc
 936              	.LFE139:
 938              		.section	.text.dhcp_fine_tmr,"ax",%progbits
 939              		.align	1
 940              		.global	dhcp_fine_tmr
 941              		.syntax unified
 942              		.thumb
 943              		.thumb_func
 944              		.fpu fpv4-sp-d16
 946              	dhcp_fine_tmr:
 947              	.LFB140:
 459:Middlewares/Third_Party/LwIP/src/core/ipv4/dhcp.c **** 
 460:Middlewares/Third_Party/LwIP/src/core/ipv4/dhcp.c **** /**
 461:Middlewares/Third_Party/LwIP/src/core/ipv4/dhcp.c ****  * DHCP transaction timeout handling (this function must be called every 500ms,
 462:Middlewares/Third_Party/LwIP/src/core/ipv4/dhcp.c ****  * see @ref DHCP_FINE_TIMER_MSECS).
 463:Middlewares/Third_Party/LwIP/src/core/ipv4/dhcp.c ****  *
 464:Middlewares/Third_Party/LwIP/src/core/ipv4/dhcp.c ****  * A DHCP server is expected to respond within a short period of time.
 465:Middlewares/Third_Party/LwIP/src/core/ipv4/dhcp.c ****  * This timer checks whether an outstanding DHCP request is timed out.
 466:Middlewares/Third_Party/LwIP/src/core/ipv4/dhcp.c ****  */
 467:Middlewares/Third_Party/LwIP/src/core/ipv4/dhcp.c **** void
 468:Middlewares/Third_Party/LwIP/src/core/ipv4/dhcp.c **** dhcp_fine_tmr(void)
 469:Middlewares/Third_Party/LwIP/src/core/ipv4/dhcp.c **** {
 948              		.loc 1 469 1
 949              		.cfi_startproc
ARM GAS  /tmp/ccsjw2Nr.s 			page 26


 950              		@ args = 0, pretend = 0, frame = 8
 951              		@ frame_needed = 1, uses_anonymous_args = 0
 952 0000 80B5     		push	{r7, lr}
 953              	.LCFI29:
 954              		.cfi_def_cfa_offset 8
 955              		.cfi_offset 7, -8
 956              		.cfi_offset 14, -4
 957 0002 82B0     		sub	sp, sp, #8
 958              	.LCFI30:
 959              		.cfi_def_cfa_offset 16
 960 0004 00AF     		add	r7, sp, #0
 961              	.LCFI31:
 962              		.cfi_def_cfa_register 7
 470:Middlewares/Third_Party/LwIP/src/core/ipv4/dhcp.c ****   struct netif *netif;
 471:Middlewares/Third_Party/LwIP/src/core/ipv4/dhcp.c ****   /* loop through netif's */
 472:Middlewares/Third_Party/LwIP/src/core/ipv4/dhcp.c ****   NETIF_FOREACH(netif) {
 963              		.loc 1 472 3
 964 0006 164B     		ldr	r3, .L53
 965 0008 1B68     		ldr	r3, [r3]
 966 000a 7B60     		str	r3, [r7, #4]
 967 000c 20E0     		b	.L49
 968              	.L52:
 969              	.LBB4:
 473:Middlewares/Third_Party/LwIP/src/core/ipv4/dhcp.c ****     struct dhcp *dhcp = netif_dhcp_data(netif);
 970              		.loc 1 473 18
 971 000e 7B68     		ldr	r3, [r7, #4]
 972 0010 5B6A     		ldr	r3, [r3, #36]
 973 0012 3B60     		str	r3, [r7]
 474:Middlewares/Third_Party/LwIP/src/core/ipv4/dhcp.c ****     /* only act on DHCP configured interfaces */
 475:Middlewares/Third_Party/LwIP/src/core/ipv4/dhcp.c ****     if (dhcp != NULL) {
 974              		.loc 1 475 8
 975 0014 3B68     		ldr	r3, [r7]
 976 0016 002B     		cmp	r3, #0
 977 0018 17D0     		beq	.L50
 476:Middlewares/Third_Party/LwIP/src/core/ipv4/dhcp.c ****       /* timer is active (non zero), and is about to trigger now */
 477:Middlewares/Third_Party/LwIP/src/core/ipv4/dhcp.c ****       if (dhcp->request_timeout > 1) {
 978              		.loc 1 477 15
 979 001a 3B68     		ldr	r3, [r7]
 980 001c 1B89     		ldrh	r3, [r3, #8]
 981              		.loc 1 477 10
 982 001e 012B     		cmp	r3, #1
 983 0020 06D9     		bls	.L51
 478:Middlewares/Third_Party/LwIP/src/core/ipv4/dhcp.c ****         dhcp->request_timeout--;
 984              		.loc 1 478 13
 985 0022 3B68     		ldr	r3, [r7]
 986 0024 1B89     		ldrh	r3, [r3, #8]
 987              		.loc 1 478 30
 988 0026 013B     		subs	r3, r3, #1
 989 0028 9AB2     		uxth	r2, r3
 990 002a 3B68     		ldr	r3, [r7]
 991 002c 1A81     		strh	r2, [r3, #8]	@ movhi
 992 002e 0CE0     		b	.L50
 993              	.L51:
 479:Middlewares/Third_Party/LwIP/src/core/ipv4/dhcp.c ****       } else if (dhcp->request_timeout == 1) {
 994              		.loc 1 479 22
 995 0030 3B68     		ldr	r3, [r7]
 996 0032 1B89     		ldrh	r3, [r3, #8]
ARM GAS  /tmp/ccsjw2Nr.s 			page 27


 997              		.loc 1 479 17
 998 0034 012B     		cmp	r3, #1
 999 0036 08D1     		bne	.L50
 480:Middlewares/Third_Party/LwIP/src/core/ipv4/dhcp.c ****         dhcp->request_timeout--;
 1000              		.loc 1 480 13
 1001 0038 3B68     		ldr	r3, [r7]
 1002 003a 1B89     		ldrh	r3, [r3, #8]
 1003              		.loc 1 480 30
 1004 003c 013B     		subs	r3, r3, #1
 1005 003e 9AB2     		uxth	r2, r3
 1006 0040 3B68     		ldr	r3, [r7]
 1007 0042 1A81     		strh	r2, [r3, #8]	@ movhi
 481:Middlewares/Third_Party/LwIP/src/core/ipv4/dhcp.c ****         /* { dhcp->request_timeout == 0 } */
 482:Middlewares/Third_Party/LwIP/src/core/ipv4/dhcp.c ****         LWIP_DEBUGF(DHCP_DEBUG | LWIP_DBG_TRACE | LWIP_DBG_STATE, ("dhcp_fine_tmr(): request timeou
 483:Middlewares/Third_Party/LwIP/src/core/ipv4/dhcp.c ****         /* this client's request timeout triggered */
 484:Middlewares/Third_Party/LwIP/src/core/ipv4/dhcp.c ****         dhcp_timeout(netif);
 1008              		.loc 1 484 9
 1009 0044 7868     		ldr	r0, [r7, #4]
 1010 0046 FFF7FEFF 		bl	dhcp_timeout
 1011              	.L50:
 1012              	.LBE4:
 472:Middlewares/Third_Party/LwIP/src/core/ipv4/dhcp.c ****     struct dhcp *dhcp = netif_dhcp_data(netif);
 1013              		.loc 1 472 3 discriminator 2
 1014 004a 7B68     		ldr	r3, [r7, #4]
 1015 004c 1B68     		ldr	r3, [r3]
 1016 004e 7B60     		str	r3, [r7, #4]
 1017              	.L49:
 472:Middlewares/Third_Party/LwIP/src/core/ipv4/dhcp.c ****     struct dhcp *dhcp = netif_dhcp_data(netif);
 1018              		.loc 1 472 3 is_stmt 0 discriminator 1
 1019 0050 7B68     		ldr	r3, [r7, #4]
 1020 0052 002B     		cmp	r3, #0
 1021 0054 DBD1     		bne	.L52
 485:Middlewares/Third_Party/LwIP/src/core/ipv4/dhcp.c ****       }
 486:Middlewares/Third_Party/LwIP/src/core/ipv4/dhcp.c ****     }
 487:Middlewares/Third_Party/LwIP/src/core/ipv4/dhcp.c ****   }
 488:Middlewares/Third_Party/LwIP/src/core/ipv4/dhcp.c **** }
 1022              		.loc 1 488 1 is_stmt 1
 1023 0056 00BF     		nop
 1024 0058 0837     		adds	r7, r7, #8
 1025              	.LCFI32:
 1026              		.cfi_def_cfa_offset 8
 1027 005a BD46     		mov	sp, r7
 1028              	.LCFI33:
 1029              		.cfi_def_cfa_register 13
 1030              		@ sp needed
 1031 005c 80BD     		pop	{r7, pc}
 1032              	.L54:
 1033 005e 00BF     		.align	2
 1034              	.L53:
 1035 0060 00000000 		.word	netif_list
 1036              		.cfi_endproc
 1037              	.LFE140:
 1039              		.section	.text.dhcp_timeout,"ax",%progbits
 1040              		.align	1
 1041              		.syntax unified
 1042              		.thumb
 1043              		.thumb_func
ARM GAS  /tmp/ccsjw2Nr.s 			page 28


 1044              		.fpu fpv4-sp-d16
 1046              	dhcp_timeout:
 1047              	.LFB141:
 489:Middlewares/Third_Party/LwIP/src/core/ipv4/dhcp.c **** 
 490:Middlewares/Third_Party/LwIP/src/core/ipv4/dhcp.c **** /**
 491:Middlewares/Third_Party/LwIP/src/core/ipv4/dhcp.c ****  * A DHCP negotiation transaction, or ARP request, has timed out.
 492:Middlewares/Third_Party/LwIP/src/core/ipv4/dhcp.c ****  *
 493:Middlewares/Third_Party/LwIP/src/core/ipv4/dhcp.c ****  * The timer that was started with the DHCP or ARP request has
 494:Middlewares/Third_Party/LwIP/src/core/ipv4/dhcp.c ****  * timed out, indicating no response was received in time.
 495:Middlewares/Third_Party/LwIP/src/core/ipv4/dhcp.c ****  *
 496:Middlewares/Third_Party/LwIP/src/core/ipv4/dhcp.c ****  * @param netif the netif under DHCP control
 497:Middlewares/Third_Party/LwIP/src/core/ipv4/dhcp.c ****  */
 498:Middlewares/Third_Party/LwIP/src/core/ipv4/dhcp.c **** static void
 499:Middlewares/Third_Party/LwIP/src/core/ipv4/dhcp.c **** dhcp_timeout(struct netif *netif)
 500:Middlewares/Third_Party/LwIP/src/core/ipv4/dhcp.c **** {
 1048              		.loc 1 500 1
 1049              		.cfi_startproc
 1050              		@ args = 0, pretend = 0, frame = 16
 1051              		@ frame_needed = 1, uses_anonymous_args = 0
 1052 0000 80B5     		push	{r7, lr}
 1053              	.LCFI34:
 1054              		.cfi_def_cfa_offset 8
 1055              		.cfi_offset 7, -8
 1056              		.cfi_offset 14, -4
 1057 0002 84B0     		sub	sp, sp, #16
 1058              	.LCFI35:
 1059              		.cfi_def_cfa_offset 24
 1060 0004 00AF     		add	r7, sp, #0
 1061              	.LCFI36:
 1062              		.cfi_def_cfa_register 7
 1063 0006 7860     		str	r0, [r7, #4]
 501:Middlewares/Third_Party/LwIP/src/core/ipv4/dhcp.c ****   struct dhcp *dhcp = netif_dhcp_data(netif);
 1064              		.loc 1 501 16
 1065 0008 7B68     		ldr	r3, [r7, #4]
 1066 000a 5B6A     		ldr	r3, [r3, #36]
 1067 000c FB60     		str	r3, [r7, #12]
 502:Middlewares/Third_Party/LwIP/src/core/ipv4/dhcp.c **** 
 503:Middlewares/Third_Party/LwIP/src/core/ipv4/dhcp.c ****   LWIP_DEBUGF(DHCP_DEBUG | LWIP_DBG_TRACE, ("dhcp_timeout()\n"));
 504:Middlewares/Third_Party/LwIP/src/core/ipv4/dhcp.c ****   /* back-off period has passed, or server selection timed out */
 505:Middlewares/Third_Party/LwIP/src/core/ipv4/dhcp.c ****   if ((dhcp->state == DHCP_STATE_BACKING_OFF) || (dhcp->state == DHCP_STATE_SELECTING)) {
 1068              		.loc 1 505 12
 1069 000e FB68     		ldr	r3, [r7, #12]
 1070 0010 5B79     		ldrb	r3, [r3, #5]	@ zero_extendqisi2
 1071              		.loc 1 505 6
 1072 0012 0C2B     		cmp	r3, #12
 1073 0014 03D0     		beq	.L56
 1074              		.loc 1 505 55 discriminator 1
 1075 0016 FB68     		ldr	r3, [r7, #12]
 1076 0018 5B79     		ldrb	r3, [r3, #5]	@ zero_extendqisi2
 1077              		.loc 1 505 47 discriminator 1
 1078 001a 062B     		cmp	r3, #6
 1079 001c 03D1     		bne	.L57
 1080              	.L56:
 506:Middlewares/Third_Party/LwIP/src/core/ipv4/dhcp.c ****     LWIP_DEBUGF(DHCP_DEBUG | LWIP_DBG_TRACE, ("dhcp_timeout(): restarting discovery\n"));
 507:Middlewares/Third_Party/LwIP/src/core/ipv4/dhcp.c ****     dhcp_discover(netif);
 1081              		.loc 1 507 5
 1082 001e 7868     		ldr	r0, [r7, #4]
ARM GAS  /tmp/ccsjw2Nr.s 			page 29


 1083 0020 FFF7FEFF 		bl	dhcp_discover
 508:Middlewares/Third_Party/LwIP/src/core/ipv4/dhcp.c ****     /* receiving the requested lease timed out */
 509:Middlewares/Third_Party/LwIP/src/core/ipv4/dhcp.c ****   } else if (dhcp->state == DHCP_STATE_REQUESTING) {
 510:Middlewares/Third_Party/LwIP/src/core/ipv4/dhcp.c ****     LWIP_DEBUGF(DHCP_DEBUG | LWIP_DBG_TRACE | LWIP_DBG_STATE, ("dhcp_timeout(): REQUESTING, DHCP re
 511:Middlewares/Third_Party/LwIP/src/core/ipv4/dhcp.c ****     if (dhcp->tries <= 5) {
 512:Middlewares/Third_Party/LwIP/src/core/ipv4/dhcp.c ****       dhcp_select(netif);
 513:Middlewares/Third_Party/LwIP/src/core/ipv4/dhcp.c ****     } else {
 514:Middlewares/Third_Party/LwIP/src/core/ipv4/dhcp.c ****       LWIP_DEBUGF(DHCP_DEBUG | LWIP_DBG_TRACE | LWIP_DBG_STATE, ("dhcp_timeout(): REQUESTING, relea
 515:Middlewares/Third_Party/LwIP/src/core/ipv4/dhcp.c ****       dhcp_release_and_stop(netif);
 516:Middlewares/Third_Party/LwIP/src/core/ipv4/dhcp.c ****       dhcp_start(netif);
 517:Middlewares/Third_Party/LwIP/src/core/ipv4/dhcp.c ****     }
 518:Middlewares/Third_Party/LwIP/src/core/ipv4/dhcp.c **** #if DHCP_DOES_ARP_CHECK
 519:Middlewares/Third_Party/LwIP/src/core/ipv4/dhcp.c ****     /* received no ARP reply for the offered address (which is good) */
 520:Middlewares/Third_Party/LwIP/src/core/ipv4/dhcp.c ****   } else if (dhcp->state == DHCP_STATE_CHECKING) {
 521:Middlewares/Third_Party/LwIP/src/core/ipv4/dhcp.c ****     LWIP_DEBUGF(DHCP_DEBUG | LWIP_DBG_TRACE | LWIP_DBG_STATE, ("dhcp_timeout(): CHECKING, ARP reque
 522:Middlewares/Third_Party/LwIP/src/core/ipv4/dhcp.c ****     if (dhcp->tries <= 1) {
 523:Middlewares/Third_Party/LwIP/src/core/ipv4/dhcp.c ****       dhcp_check(netif);
 524:Middlewares/Third_Party/LwIP/src/core/ipv4/dhcp.c ****       /* no ARP replies on the offered address,
 525:Middlewares/Third_Party/LwIP/src/core/ipv4/dhcp.c ****          looks like the IP address is indeed free */
 526:Middlewares/Third_Party/LwIP/src/core/ipv4/dhcp.c ****     } else {
 527:Middlewares/Third_Party/LwIP/src/core/ipv4/dhcp.c ****       /* bind the interface to the offered address */
 528:Middlewares/Third_Party/LwIP/src/core/ipv4/dhcp.c ****       dhcp_bind(netif);
 529:Middlewares/Third_Party/LwIP/src/core/ipv4/dhcp.c ****     }
 530:Middlewares/Third_Party/LwIP/src/core/ipv4/dhcp.c **** #endif /* DHCP_DOES_ARP_CHECK */
 531:Middlewares/Third_Party/LwIP/src/core/ipv4/dhcp.c ****   } else if (dhcp->state == DHCP_STATE_REBOOTING) {
 532:Middlewares/Third_Party/LwIP/src/core/ipv4/dhcp.c ****     if (dhcp->tries < REBOOT_TRIES) {
 533:Middlewares/Third_Party/LwIP/src/core/ipv4/dhcp.c ****       dhcp_reboot(netif);
 534:Middlewares/Third_Party/LwIP/src/core/ipv4/dhcp.c ****     } else {
 535:Middlewares/Third_Party/LwIP/src/core/ipv4/dhcp.c ****       dhcp_discover(netif);
 536:Middlewares/Third_Party/LwIP/src/core/ipv4/dhcp.c ****     }
 537:Middlewares/Third_Party/LwIP/src/core/ipv4/dhcp.c ****   }
 538:Middlewares/Third_Party/LwIP/src/core/ipv4/dhcp.c **** }
 1084              		.loc 1 538 1
 1085 0024 31E0     		b	.L66
 1086              	.L57:
 509:Middlewares/Third_Party/LwIP/src/core/ipv4/dhcp.c ****     LWIP_DEBUGF(DHCP_DEBUG | LWIP_DBG_TRACE | LWIP_DBG_STATE, ("dhcp_timeout(): REQUESTING, DHCP re
 1087              		.loc 1 509 18
 1088 0026 FB68     		ldr	r3, [r7, #12]
 1089 0028 5B79     		ldrb	r3, [r3, #5]	@ zero_extendqisi2
 509:Middlewares/Third_Party/LwIP/src/core/ipv4/dhcp.c ****     LWIP_DEBUGF(DHCP_DEBUG | LWIP_DBG_TRACE | LWIP_DBG_STATE, ("dhcp_timeout(): REQUESTING, DHCP re
 1090              		.loc 1 509 13
 1091 002a 012B     		cmp	r3, #1
 1092 002c 0ED1     		bne	.L59
 511:Middlewares/Third_Party/LwIP/src/core/ipv4/dhcp.c ****       dhcp_select(netif);
 1093              		.loc 1 511 13
 1094 002e FB68     		ldr	r3, [r7, #12]
 1095 0030 9B79     		ldrb	r3, [r3, #6]	@ zero_extendqisi2
 511:Middlewares/Third_Party/LwIP/src/core/ipv4/dhcp.c ****       dhcp_select(netif);
 1096              		.loc 1 511 8
 1097 0032 052B     		cmp	r3, #5
 1098 0034 03D8     		bhi	.L60
 512:Middlewares/Third_Party/LwIP/src/core/ipv4/dhcp.c ****     } else {
 1099              		.loc 1 512 7
 1100 0036 7868     		ldr	r0, [r7, #4]
 1101 0038 FFF7FEFF 		bl	dhcp_select
 1102              		.loc 1 538 1
 1103 003c 25E0     		b	.L66
ARM GAS  /tmp/ccsjw2Nr.s 			page 30


 1104              	.L60:
 515:Middlewares/Third_Party/LwIP/src/core/ipv4/dhcp.c ****       dhcp_start(netif);
 1105              		.loc 1 515 7
 1106 003e 7868     		ldr	r0, [r7, #4]
 1107 0040 FFF7FEFF 		bl	dhcp_release_and_stop
 516:Middlewares/Third_Party/LwIP/src/core/ipv4/dhcp.c ****     }
 1108              		.loc 1 516 7
 1109 0044 7868     		ldr	r0, [r7, #4]
 1110 0046 FFF7FEFF 		bl	dhcp_start
 1111              		.loc 1 538 1
 1112 004a 1EE0     		b	.L66
 1113              	.L59:
 520:Middlewares/Third_Party/LwIP/src/core/ipv4/dhcp.c ****     LWIP_DEBUGF(DHCP_DEBUG | LWIP_DBG_TRACE | LWIP_DBG_STATE, ("dhcp_timeout(): CHECKING, ARP reque
 1114              		.loc 1 520 18
 1115 004c FB68     		ldr	r3, [r7, #12]
 1116 004e 5B79     		ldrb	r3, [r3, #5]	@ zero_extendqisi2
 520:Middlewares/Third_Party/LwIP/src/core/ipv4/dhcp.c ****     LWIP_DEBUGF(DHCP_DEBUG | LWIP_DBG_TRACE | LWIP_DBG_STATE, ("dhcp_timeout(): CHECKING, ARP reque
 1117              		.loc 1 520 13
 1118 0050 082B     		cmp	r3, #8
 1119 0052 0BD1     		bne	.L62
 522:Middlewares/Third_Party/LwIP/src/core/ipv4/dhcp.c ****       dhcp_check(netif);
 1120              		.loc 1 522 13
 1121 0054 FB68     		ldr	r3, [r7, #12]
 1122 0056 9B79     		ldrb	r3, [r3, #6]	@ zero_extendqisi2
 522:Middlewares/Third_Party/LwIP/src/core/ipv4/dhcp.c ****       dhcp_check(netif);
 1123              		.loc 1 522 8
 1124 0058 012B     		cmp	r3, #1
 1125 005a 03D8     		bhi	.L63
 523:Middlewares/Third_Party/LwIP/src/core/ipv4/dhcp.c ****       /* no ARP replies on the offered address,
 1126              		.loc 1 523 7
 1127 005c 7868     		ldr	r0, [r7, #4]
 1128 005e FFF7FEFF 		bl	dhcp_check
 1129              		.loc 1 538 1
 1130 0062 12E0     		b	.L66
 1131              	.L63:
 528:Middlewares/Third_Party/LwIP/src/core/ipv4/dhcp.c ****     }
 1132              		.loc 1 528 7
 1133 0064 7868     		ldr	r0, [r7, #4]
 1134 0066 FFF7FEFF 		bl	dhcp_bind
 1135              		.loc 1 538 1
 1136 006a 0EE0     		b	.L66
 1137              	.L62:
 531:Middlewares/Third_Party/LwIP/src/core/ipv4/dhcp.c ****     if (dhcp->tries < REBOOT_TRIES) {
 1138              		.loc 1 531 18
 1139 006c FB68     		ldr	r3, [r7, #12]
 1140 006e 5B79     		ldrb	r3, [r3, #5]	@ zero_extendqisi2
 531:Middlewares/Third_Party/LwIP/src/core/ipv4/dhcp.c ****     if (dhcp->tries < REBOOT_TRIES) {
 1141              		.loc 1 531 13
 1142 0070 032B     		cmp	r3, #3
 1143 0072 0AD1     		bne	.L66
 532:Middlewares/Third_Party/LwIP/src/core/ipv4/dhcp.c ****       dhcp_reboot(netif);
 1144              		.loc 1 532 13
 1145 0074 FB68     		ldr	r3, [r7, #12]
 1146 0076 9B79     		ldrb	r3, [r3, #6]	@ zero_extendqisi2
 532:Middlewares/Third_Party/LwIP/src/core/ipv4/dhcp.c ****       dhcp_reboot(netif);
 1147              		.loc 1 532 8
 1148 0078 012B     		cmp	r3, #1
ARM GAS  /tmp/ccsjw2Nr.s 			page 31


 1149 007a 03D8     		bhi	.L65
 533:Middlewares/Third_Party/LwIP/src/core/ipv4/dhcp.c ****     } else {
 1150              		.loc 1 533 7
 1151 007c 7868     		ldr	r0, [r7, #4]
 1152 007e FFF7FEFF 		bl	dhcp_reboot
 1153              		.loc 1 538 1
 1154 0082 02E0     		b	.L66
 1155              	.L65:
 535:Middlewares/Third_Party/LwIP/src/core/ipv4/dhcp.c ****     }
 1156              		.loc 1 535 7
 1157 0084 7868     		ldr	r0, [r7, #4]
 1158 0086 FFF7FEFF 		bl	dhcp_discover
 1159              	.L66:
 1160              		.loc 1 538 1
 1161 008a 00BF     		nop
 1162 008c 1037     		adds	r7, r7, #16
 1163              	.LCFI37:
 1164              		.cfi_def_cfa_offset 8
 1165 008e BD46     		mov	sp, r7
 1166              	.LCFI38:
 1167              		.cfi_def_cfa_register 13
 1168              		@ sp needed
 1169 0090 80BD     		pop	{r7, pc}
 1170              		.cfi_endproc
 1171              	.LFE141:
 1173              		.section	.text.dhcp_t1_timeout,"ax",%progbits
 1174              		.align	1
 1175              		.syntax unified
 1176              		.thumb
 1177              		.thumb_func
 1178              		.fpu fpv4-sp-d16
 1180              	dhcp_t1_timeout:
 1181              	.LFB142:
 539:Middlewares/Third_Party/LwIP/src/core/ipv4/dhcp.c **** 
 540:Middlewares/Third_Party/LwIP/src/core/ipv4/dhcp.c **** /**
 541:Middlewares/Third_Party/LwIP/src/core/ipv4/dhcp.c ****  * The renewal period has timed out.
 542:Middlewares/Third_Party/LwIP/src/core/ipv4/dhcp.c ****  *
 543:Middlewares/Third_Party/LwIP/src/core/ipv4/dhcp.c ****  * @param netif the netif under DHCP control
 544:Middlewares/Third_Party/LwIP/src/core/ipv4/dhcp.c ****  */
 545:Middlewares/Third_Party/LwIP/src/core/ipv4/dhcp.c **** static void
 546:Middlewares/Third_Party/LwIP/src/core/ipv4/dhcp.c **** dhcp_t1_timeout(struct netif *netif)
 547:Middlewares/Third_Party/LwIP/src/core/ipv4/dhcp.c **** {
 1182              		.loc 1 547 1
 1183              		.cfi_startproc
 1184              		@ args = 0, pretend = 0, frame = 16
 1185              		@ frame_needed = 1, uses_anonymous_args = 0
 1186 0000 80B5     		push	{r7, lr}
 1187              	.LCFI39:
 1188              		.cfi_def_cfa_offset 8
 1189              		.cfi_offset 7, -8
 1190              		.cfi_offset 14, -4
 1191 0002 84B0     		sub	sp, sp, #16
 1192              	.LCFI40:
 1193              		.cfi_def_cfa_offset 24
 1194 0004 00AF     		add	r7, sp, #0
 1195              	.LCFI41:
 1196              		.cfi_def_cfa_register 7
ARM GAS  /tmp/ccsjw2Nr.s 			page 32


 1197 0006 7860     		str	r0, [r7, #4]
 548:Middlewares/Third_Party/LwIP/src/core/ipv4/dhcp.c ****   struct dhcp *dhcp = netif_dhcp_data(netif);
 1198              		.loc 1 548 16
 1199 0008 7B68     		ldr	r3, [r7, #4]
 1200 000a 5B6A     		ldr	r3, [r3, #36]
 1201 000c FB60     		str	r3, [r7, #12]
 549:Middlewares/Third_Party/LwIP/src/core/ipv4/dhcp.c **** 
 550:Middlewares/Third_Party/LwIP/src/core/ipv4/dhcp.c ****   LWIP_DEBUGF(DHCP_DEBUG | LWIP_DBG_STATE, ("dhcp_t1_timeout()\n"));
 551:Middlewares/Third_Party/LwIP/src/core/ipv4/dhcp.c ****   if ((dhcp->state == DHCP_STATE_REQUESTING) || (dhcp->state == DHCP_STATE_BOUND) ||
 1202              		.loc 1 551 12
 1203 000e FB68     		ldr	r3, [r7, #12]
 1204 0010 5B79     		ldrb	r3, [r3, #5]	@ zero_extendqisi2
 1205              		.loc 1 551 6
 1206 0012 012B     		cmp	r3, #1
 1207 0014 07D0     		beq	.L68
 1208              		.loc 1 551 54 discriminator 1
 1209 0016 FB68     		ldr	r3, [r7, #12]
 1210 0018 5B79     		ldrb	r3, [r3, #5]	@ zero_extendqisi2
 1211              		.loc 1 551 46 discriminator 1
 1212 001a 0A2B     		cmp	r3, #10
 1213 001c 03D0     		beq	.L68
 552:Middlewares/Third_Party/LwIP/src/core/ipv4/dhcp.c ****       (dhcp->state == DHCP_STATE_RENEWING)) {
 1214              		.loc 1 552 12 discriminator 2
 1215 001e FB68     		ldr	r3, [r7, #12]
 1216 0020 5B79     		ldrb	r3, [r3, #5]	@ zero_extendqisi2
 551:Middlewares/Third_Party/LwIP/src/core/ipv4/dhcp.c ****       (dhcp->state == DHCP_STATE_RENEWING)) {
 1217              		.loc 1 551 83 discriminator 2
 1218 0022 052B     		cmp	r3, #5
 1219 0024 16D1     		bne	.L70
 1220              	.L68:
 553:Middlewares/Third_Party/LwIP/src/core/ipv4/dhcp.c ****     /* just retry to renew - note that the rebind timer (t2) will
 554:Middlewares/Third_Party/LwIP/src/core/ipv4/dhcp.c ****      * eventually time-out if renew tries fail. */
 555:Middlewares/Third_Party/LwIP/src/core/ipv4/dhcp.c ****     LWIP_DEBUGF(DHCP_DEBUG | LWIP_DBG_TRACE | LWIP_DBG_STATE,
 556:Middlewares/Third_Party/LwIP/src/core/ipv4/dhcp.c ****                 ("dhcp_t1_timeout(): must renew\n"));
 557:Middlewares/Third_Party/LwIP/src/core/ipv4/dhcp.c ****     /* This slightly different to RFC2131: DHCPREQUEST will be sent from state
 558:Middlewares/Third_Party/LwIP/src/core/ipv4/dhcp.c ****        DHCP_STATE_RENEWING, not DHCP_STATE_BOUND */
 559:Middlewares/Third_Party/LwIP/src/core/ipv4/dhcp.c ****     dhcp_renew(netif);
 1221              		.loc 1 559 5
 1222 0026 7868     		ldr	r0, [r7, #4]
 1223 0028 FFF7FEFF 		bl	dhcp_renew
 560:Middlewares/Third_Party/LwIP/src/core/ipv4/dhcp.c ****     /* Calculate next timeout */
 561:Middlewares/Third_Party/LwIP/src/core/ipv4/dhcp.c ****     if (((dhcp->t2_timeout - dhcp->lease_used) / 2) >= ((60 + DHCP_COARSE_TIMER_SECS / 2) / DHCP_CO
 1224              		.loc 1 561 15
 1225 002c FB68     		ldr	r3, [r7, #12]
 1226 002e 9B89     		ldrh	r3, [r3, #12]
 1227 0030 1A46     		mov	r2, r3
 1228              		.loc 1 561 34
 1229 0032 FB68     		ldr	r3, [r7, #12]
 1230 0034 5B8A     		ldrh	r3, [r3, #18]
 1231              		.loc 1 561 28
 1232 0036 D31A     		subs	r3, r2, r3
 1233              		.loc 1 561 8
 1234 0038 012B     		cmp	r3, #1
 1235 003a 0BDD     		ble	.L70
 562:Middlewares/Third_Party/LwIP/src/core/ipv4/dhcp.c ****       dhcp->t1_renew_time = (u16_t)((dhcp->t2_timeout - dhcp->lease_used) / 2);
 1236              		.loc 1 562 42
 1237 003c FB68     		ldr	r3, [r7, #12]
ARM GAS  /tmp/ccsjw2Nr.s 			page 33


 1238 003e 9B89     		ldrh	r3, [r3, #12]
 1239 0040 1A46     		mov	r2, r3
 1240              		.loc 1 562 61
 1241 0042 FB68     		ldr	r3, [r7, #12]
 1242 0044 5B8A     		ldrh	r3, [r3, #18]
 1243              		.loc 1 562 55
 1244 0046 D31A     		subs	r3, r2, r3
 1245              		.loc 1 562 75
 1246 0048 DA0F     		lsrs	r2, r3, #31
 1247 004a 1344     		add	r3, r3, r2
 1248 004c 5B10     		asrs	r3, r3, #1
 1249              		.loc 1 562 29
 1250 004e 9AB2     		uxth	r2, r3
 1251              		.loc 1 562 27
 1252 0050 FB68     		ldr	r3, [r7, #12]
 1253 0052 DA81     		strh	r2, [r3, #14]	@ movhi
 1254              	.L70:
 563:Middlewares/Third_Party/LwIP/src/core/ipv4/dhcp.c ****     }
 564:Middlewares/Third_Party/LwIP/src/core/ipv4/dhcp.c ****   }
 565:Middlewares/Third_Party/LwIP/src/core/ipv4/dhcp.c **** }
 1255              		.loc 1 565 1
 1256 0054 00BF     		nop
 1257 0056 1037     		adds	r7, r7, #16
 1258              	.LCFI42:
 1259              		.cfi_def_cfa_offset 8
 1260 0058 BD46     		mov	sp, r7
 1261              	.LCFI43:
 1262              		.cfi_def_cfa_register 13
 1263              		@ sp needed
 1264 005a 80BD     		pop	{r7, pc}
 1265              		.cfi_endproc
 1266              	.LFE142:
 1268              		.section	.text.dhcp_t2_timeout,"ax",%progbits
 1269              		.align	1
 1270              		.syntax unified
 1271              		.thumb
 1272              		.thumb_func
 1273              		.fpu fpv4-sp-d16
 1275              	dhcp_t2_timeout:
 1276              	.LFB143:
 566:Middlewares/Third_Party/LwIP/src/core/ipv4/dhcp.c **** 
 567:Middlewares/Third_Party/LwIP/src/core/ipv4/dhcp.c **** /**
 568:Middlewares/Third_Party/LwIP/src/core/ipv4/dhcp.c ****  * The rebind period has timed out.
 569:Middlewares/Third_Party/LwIP/src/core/ipv4/dhcp.c ****  *
 570:Middlewares/Third_Party/LwIP/src/core/ipv4/dhcp.c ****  * @param netif the netif under DHCP control
 571:Middlewares/Third_Party/LwIP/src/core/ipv4/dhcp.c ****  */
 572:Middlewares/Third_Party/LwIP/src/core/ipv4/dhcp.c **** static void
 573:Middlewares/Third_Party/LwIP/src/core/ipv4/dhcp.c **** dhcp_t2_timeout(struct netif *netif)
 574:Middlewares/Third_Party/LwIP/src/core/ipv4/dhcp.c **** {
 1277              		.loc 1 574 1
 1278              		.cfi_startproc
 1279              		@ args = 0, pretend = 0, frame = 16
 1280              		@ frame_needed = 1, uses_anonymous_args = 0
 1281 0000 80B5     		push	{r7, lr}
 1282              	.LCFI44:
 1283              		.cfi_def_cfa_offset 8
 1284              		.cfi_offset 7, -8
ARM GAS  /tmp/ccsjw2Nr.s 			page 34


 1285              		.cfi_offset 14, -4
 1286 0002 84B0     		sub	sp, sp, #16
 1287              	.LCFI45:
 1288              		.cfi_def_cfa_offset 24
 1289 0004 00AF     		add	r7, sp, #0
 1290              	.LCFI46:
 1291              		.cfi_def_cfa_register 7
 1292 0006 7860     		str	r0, [r7, #4]
 575:Middlewares/Third_Party/LwIP/src/core/ipv4/dhcp.c ****   struct dhcp *dhcp = netif_dhcp_data(netif);
 1293              		.loc 1 575 16
 1294 0008 7B68     		ldr	r3, [r7, #4]
 1295 000a 5B6A     		ldr	r3, [r3, #36]
 1296 000c FB60     		str	r3, [r7, #12]
 576:Middlewares/Third_Party/LwIP/src/core/ipv4/dhcp.c **** 
 577:Middlewares/Third_Party/LwIP/src/core/ipv4/dhcp.c ****   LWIP_DEBUGF(DHCP_DEBUG | LWIP_DBG_TRACE | LWIP_DBG_STATE, ("dhcp_t2_timeout()\n"));
 578:Middlewares/Third_Party/LwIP/src/core/ipv4/dhcp.c ****   if ((dhcp->state == DHCP_STATE_REQUESTING) || (dhcp->state == DHCP_STATE_BOUND) ||
 1297              		.loc 1 578 12
 1298 000e FB68     		ldr	r3, [r7, #12]
 1299 0010 5B79     		ldrb	r3, [r3, #5]	@ zero_extendqisi2
 1300              		.loc 1 578 6
 1301 0012 012B     		cmp	r3, #1
 1302 0014 0BD0     		beq	.L72
 1303              		.loc 1 578 54 discriminator 1
 1304 0016 FB68     		ldr	r3, [r7, #12]
 1305 0018 5B79     		ldrb	r3, [r3, #5]	@ zero_extendqisi2
 1306              		.loc 1 578 46 discriminator 1
 1307 001a 0A2B     		cmp	r3, #10
 1308 001c 07D0     		beq	.L72
 579:Middlewares/Third_Party/LwIP/src/core/ipv4/dhcp.c ****       (dhcp->state == DHCP_STATE_RENEWING) || (dhcp->state == DHCP_STATE_REBINDING)) {
 1309              		.loc 1 579 12 discriminator 2
 1310 001e FB68     		ldr	r3, [r7, #12]
 1311 0020 5B79     		ldrb	r3, [r3, #5]	@ zero_extendqisi2
 578:Middlewares/Third_Party/LwIP/src/core/ipv4/dhcp.c ****       (dhcp->state == DHCP_STATE_RENEWING) || (dhcp->state == DHCP_STATE_REBINDING)) {
 1312              		.loc 1 578 83 discriminator 2
 1313 0022 052B     		cmp	r3, #5
 1314 0024 03D0     		beq	.L72
 1315              		.loc 1 579 52
 1316 0026 FB68     		ldr	r3, [r7, #12]
 1317 0028 5B79     		ldrb	r3, [r3, #5]	@ zero_extendqisi2
 1318              		.loc 1 579 44
 1319 002a 042B     		cmp	r3, #4
 1320 002c 16D1     		bne	.L74
 1321              	.L72:
 580:Middlewares/Third_Party/LwIP/src/core/ipv4/dhcp.c ****     /* just retry to rebind */
 581:Middlewares/Third_Party/LwIP/src/core/ipv4/dhcp.c ****     LWIP_DEBUGF(DHCP_DEBUG | LWIP_DBG_TRACE | LWIP_DBG_STATE,
 582:Middlewares/Third_Party/LwIP/src/core/ipv4/dhcp.c ****                 ("dhcp_t2_timeout(): must rebind\n"));
 583:Middlewares/Third_Party/LwIP/src/core/ipv4/dhcp.c ****     /* This slightly different to RFC2131: DHCPREQUEST will be sent from state
 584:Middlewares/Third_Party/LwIP/src/core/ipv4/dhcp.c ****        DHCP_STATE_REBINDING, not DHCP_STATE_BOUND */
 585:Middlewares/Third_Party/LwIP/src/core/ipv4/dhcp.c ****     dhcp_rebind(netif);
 1322              		.loc 1 585 5
 1323 002e 7868     		ldr	r0, [r7, #4]
 1324 0030 FFF7FEFF 		bl	dhcp_rebind
 586:Middlewares/Third_Party/LwIP/src/core/ipv4/dhcp.c ****     /* Calculate next timeout */
 587:Middlewares/Third_Party/LwIP/src/core/ipv4/dhcp.c ****     if (((dhcp->t0_timeout - dhcp->lease_used) / 2) >= ((60 + DHCP_COARSE_TIMER_SECS / 2) / DHCP_CO
 1325              		.loc 1 587 15
 1326 0034 FB68     		ldr	r3, [r7, #12]
 1327 0036 9B8A     		ldrh	r3, [r3, #20]
ARM GAS  /tmp/ccsjw2Nr.s 			page 35


 1328 0038 1A46     		mov	r2, r3
 1329              		.loc 1 587 34
 1330 003a FB68     		ldr	r3, [r7, #12]
 1331 003c 5B8A     		ldrh	r3, [r3, #18]
 1332              		.loc 1 587 28
 1333 003e D31A     		subs	r3, r2, r3
 1334              		.loc 1 587 8
 1335 0040 012B     		cmp	r3, #1
 1336 0042 0BDD     		ble	.L74
 588:Middlewares/Third_Party/LwIP/src/core/ipv4/dhcp.c ****       dhcp->t2_rebind_time = (u16_t)((dhcp->t0_timeout - dhcp->lease_used) / 2);
 1337              		.loc 1 588 43
 1338 0044 FB68     		ldr	r3, [r7, #12]
 1339 0046 9B8A     		ldrh	r3, [r3, #20]
 1340 0048 1A46     		mov	r2, r3
 1341              		.loc 1 588 62
 1342 004a FB68     		ldr	r3, [r7, #12]
 1343 004c 5B8A     		ldrh	r3, [r3, #18]
 1344              		.loc 1 588 56
 1345 004e D31A     		subs	r3, r2, r3
 1346              		.loc 1 588 76
 1347 0050 DA0F     		lsrs	r2, r3, #31
 1348 0052 1344     		add	r3, r3, r2
 1349 0054 5B10     		asrs	r3, r3, #1
 1350              		.loc 1 588 30
 1351 0056 9AB2     		uxth	r2, r3
 1352              		.loc 1 588 28
 1353 0058 FB68     		ldr	r3, [r7, #12]
 1354 005a 1A82     		strh	r2, [r3, #16]	@ movhi
 1355              	.L74:
 589:Middlewares/Third_Party/LwIP/src/core/ipv4/dhcp.c ****     }
 590:Middlewares/Third_Party/LwIP/src/core/ipv4/dhcp.c ****   }
 591:Middlewares/Third_Party/LwIP/src/core/ipv4/dhcp.c **** }
 1356              		.loc 1 591 1
 1357 005c 00BF     		nop
 1358 005e 1037     		adds	r7, r7, #16
 1359              	.LCFI47:
 1360              		.cfi_def_cfa_offset 8
 1361 0060 BD46     		mov	sp, r7
 1362              	.LCFI48:
 1363              		.cfi_def_cfa_register 13
 1364              		@ sp needed
 1365 0062 80BD     		pop	{r7, pc}
 1366              		.cfi_endproc
 1367              	.LFE143:
 1369              		.section	.text.dhcp_handle_ack,"ax",%progbits
 1370              		.align	1
 1371              		.syntax unified
 1372              		.thumb
 1373              		.thumb_func
 1374              		.fpu fpv4-sp-d16
 1376              	dhcp_handle_ack:
 1377              	.LFB144:
 592:Middlewares/Third_Party/LwIP/src/core/ipv4/dhcp.c **** 
 593:Middlewares/Third_Party/LwIP/src/core/ipv4/dhcp.c **** /**
 594:Middlewares/Third_Party/LwIP/src/core/ipv4/dhcp.c ****  * Handle a DHCP ACK packet
 595:Middlewares/Third_Party/LwIP/src/core/ipv4/dhcp.c ****  *
 596:Middlewares/Third_Party/LwIP/src/core/ipv4/dhcp.c ****  * @param netif the netif under DHCP control
ARM GAS  /tmp/ccsjw2Nr.s 			page 36


 597:Middlewares/Third_Party/LwIP/src/core/ipv4/dhcp.c ****  */
 598:Middlewares/Third_Party/LwIP/src/core/ipv4/dhcp.c **** static void
 599:Middlewares/Third_Party/LwIP/src/core/ipv4/dhcp.c **** dhcp_handle_ack(struct netif *netif, struct dhcp_msg *msg_in)
 600:Middlewares/Third_Party/LwIP/src/core/ipv4/dhcp.c **** {
 1378              		.loc 1 600 1
 1379              		.cfi_startproc
 1380              		@ args = 0, pretend = 0, frame = 16
 1381              		@ frame_needed = 1, uses_anonymous_args = 0
 1382 0000 80B5     		push	{r7, lr}
 1383              	.LCFI49:
 1384              		.cfi_def_cfa_offset 8
 1385              		.cfi_offset 7, -8
 1386              		.cfi_offset 14, -4
 1387 0002 84B0     		sub	sp, sp, #16
 1388              	.LCFI50:
 1389              		.cfi_def_cfa_offset 24
 1390 0004 00AF     		add	r7, sp, #0
 1391              	.LCFI51:
 1392              		.cfi_def_cfa_register 7
 1393 0006 7860     		str	r0, [r7, #4]
 1394 0008 3960     		str	r1, [r7]
 601:Middlewares/Third_Party/LwIP/src/core/ipv4/dhcp.c ****   struct dhcp *dhcp = netif_dhcp_data(netif);
 1395              		.loc 1 601 16
 1396 000a 7B68     		ldr	r3, [r7, #4]
 1397 000c 5B6A     		ldr	r3, [r3, #36]
 1398 000e FB60     		str	r3, [r7, #12]
 602:Middlewares/Third_Party/LwIP/src/core/ipv4/dhcp.c **** 
 603:Middlewares/Third_Party/LwIP/src/core/ipv4/dhcp.c **** #if LWIP_DHCP_PROVIDE_DNS_SERVERS || LWIP_DHCP_GET_NTP_SRV
 604:Middlewares/Third_Party/LwIP/src/core/ipv4/dhcp.c ****   u8_t n;
 605:Middlewares/Third_Party/LwIP/src/core/ipv4/dhcp.c **** #endif /* LWIP_DHCP_PROVIDE_DNS_SERVERS || LWIP_DHCP_GET_NTP_SRV */
 606:Middlewares/Third_Party/LwIP/src/core/ipv4/dhcp.c **** #if LWIP_DHCP_GET_NTP_SRV
 607:Middlewares/Third_Party/LwIP/src/core/ipv4/dhcp.c ****   ip4_addr_t ntp_server_addrs[LWIP_DHCP_MAX_NTP_SERVERS];
 608:Middlewares/Third_Party/LwIP/src/core/ipv4/dhcp.c **** #endif
 609:Middlewares/Third_Party/LwIP/src/core/ipv4/dhcp.c **** 
 610:Middlewares/Third_Party/LwIP/src/core/ipv4/dhcp.c ****   /* clear options we might not get from the ACK */
 611:Middlewares/Third_Party/LwIP/src/core/ipv4/dhcp.c ****   ip4_addr_set_zero(&dhcp->offered_sn_mask);
 1399              		.loc 1 611 3
 1400 0010 FB68     		ldr	r3, [r7, #12]
 1401 0012 0022     		movs	r2, #0
 1402 0014 1A62     		str	r2, [r3, #32]
 612:Middlewares/Third_Party/LwIP/src/core/ipv4/dhcp.c ****   ip4_addr_set_zero(&dhcp->offered_gw_addr);
 1403              		.loc 1 612 3
 1404 0016 FB68     		ldr	r3, [r7, #12]
 1405 0018 0022     		movs	r2, #0
 1406 001a 5A62     		str	r2, [r3, #36]
 613:Middlewares/Third_Party/LwIP/src/core/ipv4/dhcp.c **** #if LWIP_DHCP_BOOTP_FILE
 614:Middlewares/Third_Party/LwIP/src/core/ipv4/dhcp.c ****   ip4_addr_set_zero(&dhcp->offered_si_addr);
 615:Middlewares/Third_Party/LwIP/src/core/ipv4/dhcp.c **** #endif /* LWIP_DHCP_BOOTP_FILE */
 616:Middlewares/Third_Party/LwIP/src/core/ipv4/dhcp.c **** 
 617:Middlewares/Third_Party/LwIP/src/core/ipv4/dhcp.c ****   /* lease time given? */
 618:Middlewares/Third_Party/LwIP/src/core/ipv4/dhcp.c ****   if (dhcp_option_given(dhcp, DHCP_OPTION_IDX_LEASE_TIME)) {
 1407              		.loc 1 618 7
 1408 001c 264B     		ldr	r3, .L85
 1409 001e DB78     		ldrb	r3, [r3, #3]	@ zero_extendqisi2
 1410              		.loc 1 618 6
 1411 0020 002B     		cmp	r3, #0
 1412 0022 03D0     		beq	.L76
ARM GAS  /tmp/ccsjw2Nr.s 			page 37


 619:Middlewares/Third_Party/LwIP/src/core/ipv4/dhcp.c ****     /* remember offered lease time */
 620:Middlewares/Third_Party/LwIP/src/core/ipv4/dhcp.c ****     dhcp->offered_t0_lease = dhcp_get_option_value(dhcp, DHCP_OPTION_IDX_LEASE_TIME);
 1413              		.loc 1 620 30
 1414 0024 254B     		ldr	r3, .L85+4
 1415 0026 DA68     		ldr	r2, [r3, #12]
 1416              		.loc 1 620 28
 1417 0028 FB68     		ldr	r3, [r7, #12]
 1418 002a 9A62     		str	r2, [r3, #40]
 1419              	.L76:
 621:Middlewares/Third_Party/LwIP/src/core/ipv4/dhcp.c ****   }
 622:Middlewares/Third_Party/LwIP/src/core/ipv4/dhcp.c ****   /* renewal period given? */
 623:Middlewares/Third_Party/LwIP/src/core/ipv4/dhcp.c ****   if (dhcp_option_given(dhcp, DHCP_OPTION_IDX_T1)) {
 1420              		.loc 1 623 7
 1421 002c 224B     		ldr	r3, .L85
 1422 002e 1B79     		ldrb	r3, [r3, #4]	@ zero_extendqisi2
 1423              		.loc 1 623 6
 1424 0030 002B     		cmp	r3, #0
 1425 0032 04D0     		beq	.L77
 624:Middlewares/Third_Party/LwIP/src/core/ipv4/dhcp.c ****     /* remember given renewal period */
 625:Middlewares/Third_Party/LwIP/src/core/ipv4/dhcp.c ****     dhcp->offered_t1_renew = dhcp_get_option_value(dhcp, DHCP_OPTION_IDX_T1);
 1426              		.loc 1 625 30
 1427 0034 214B     		ldr	r3, .L85+4
 1428 0036 1A69     		ldr	r2, [r3, #16]
 1429              		.loc 1 625 28
 1430 0038 FB68     		ldr	r3, [r7, #12]
 1431 003a DA62     		str	r2, [r3, #44]
 1432 003c 04E0     		b	.L78
 1433              	.L77:
 626:Middlewares/Third_Party/LwIP/src/core/ipv4/dhcp.c ****   } else {
 627:Middlewares/Third_Party/LwIP/src/core/ipv4/dhcp.c ****     /* calculate safe periods for renewal */
 628:Middlewares/Third_Party/LwIP/src/core/ipv4/dhcp.c ****     dhcp->offered_t1_renew = dhcp->offered_t0_lease / 2;
 1434              		.loc 1 628 34
 1435 003e FB68     		ldr	r3, [r7, #12]
 1436 0040 9B6A     		ldr	r3, [r3, #40]
 1437              		.loc 1 628 53
 1438 0042 5A08     		lsrs	r2, r3, #1
 1439              		.loc 1 628 28
 1440 0044 FB68     		ldr	r3, [r7, #12]
 1441 0046 DA62     		str	r2, [r3, #44]
 1442              	.L78:
 629:Middlewares/Third_Party/LwIP/src/core/ipv4/dhcp.c ****   }
 630:Middlewares/Third_Party/LwIP/src/core/ipv4/dhcp.c **** 
 631:Middlewares/Third_Party/LwIP/src/core/ipv4/dhcp.c ****   /* renewal period given? */
 632:Middlewares/Third_Party/LwIP/src/core/ipv4/dhcp.c ****   if (dhcp_option_given(dhcp, DHCP_OPTION_IDX_T2)) {
 1443              		.loc 1 632 7
 1444 0048 1B4B     		ldr	r3, .L85
 1445 004a 5B79     		ldrb	r3, [r3, #5]	@ zero_extendqisi2
 1446              		.loc 1 632 6
 1447 004c 002B     		cmp	r3, #0
 1448 004e 04D0     		beq	.L79
 633:Middlewares/Third_Party/LwIP/src/core/ipv4/dhcp.c ****     /* remember given rebind period */
 634:Middlewares/Third_Party/LwIP/src/core/ipv4/dhcp.c ****     dhcp->offered_t2_rebind = dhcp_get_option_value(dhcp, DHCP_OPTION_IDX_T2);
 1449              		.loc 1 634 31
 1450 0050 1A4B     		ldr	r3, .L85+4
 1451 0052 5A69     		ldr	r2, [r3, #20]
 1452              		.loc 1 634 29
 1453 0054 FB68     		ldr	r3, [r7, #12]
ARM GAS  /tmp/ccsjw2Nr.s 			page 38


 1454 0056 1A63     		str	r2, [r3, #48]
 1455 0058 07E0     		b	.L80
 1456              	.L79:
 635:Middlewares/Third_Party/LwIP/src/core/ipv4/dhcp.c ****   } else {
 636:Middlewares/Third_Party/LwIP/src/core/ipv4/dhcp.c ****     /* calculate safe periods for rebinding (offered_t0_lease * 0.875 -> 87.5%)*/
 637:Middlewares/Third_Party/LwIP/src/core/ipv4/dhcp.c ****     dhcp->offered_t2_rebind = (dhcp->offered_t0_lease * 7U) / 8U;
 1457              		.loc 1 637 36
 1458 005a FB68     		ldr	r3, [r7, #12]
 1459 005c 9A6A     		ldr	r2, [r3, #40]
 1460              		.loc 1 637 55
 1461 005e 1346     		mov	r3, r2
 1462 0060 DB00     		lsls	r3, r3, #3
 1463 0062 9B1A     		subs	r3, r3, r2
 1464              		.loc 1 637 61
 1465 0064 DA08     		lsrs	r2, r3, #3
 1466              		.loc 1 637 29
 1467 0066 FB68     		ldr	r3, [r7, #12]
 1468 0068 1A63     		str	r2, [r3, #48]
 1469              	.L80:
 638:Middlewares/Third_Party/LwIP/src/core/ipv4/dhcp.c ****   }
 639:Middlewares/Third_Party/LwIP/src/core/ipv4/dhcp.c **** 
 640:Middlewares/Third_Party/LwIP/src/core/ipv4/dhcp.c ****   /* (y)our internet address */
 641:Middlewares/Third_Party/LwIP/src/core/ipv4/dhcp.c ****   ip4_addr_copy(dhcp->offered_ip_addr, msg_in->yiaddr);
 1470              		.loc 1 641 3
 1471 006a 3B68     		ldr	r3, [r7]
 1472 006c 1A69     		ldr	r2, [r3, #16]	@ unaligned
 1473 006e FB68     		ldr	r3, [r7, #12]
 1474 0070 DA61     		str	r2, [r3, #28]
 642:Middlewares/Third_Party/LwIP/src/core/ipv4/dhcp.c **** 
 643:Middlewares/Third_Party/LwIP/src/core/ipv4/dhcp.c **** #if LWIP_DHCP_BOOTP_FILE
 644:Middlewares/Third_Party/LwIP/src/core/ipv4/dhcp.c ****   /* copy boot server address,
 645:Middlewares/Third_Party/LwIP/src/core/ipv4/dhcp.c ****      boot file name copied in dhcp_parse_reply if not overloaded */
 646:Middlewares/Third_Party/LwIP/src/core/ipv4/dhcp.c ****   ip4_addr_copy(dhcp->offered_si_addr, msg_in->siaddr);
 647:Middlewares/Third_Party/LwIP/src/core/ipv4/dhcp.c **** #endif /* LWIP_DHCP_BOOTP_FILE */
 648:Middlewares/Third_Party/LwIP/src/core/ipv4/dhcp.c **** 
 649:Middlewares/Third_Party/LwIP/src/core/ipv4/dhcp.c ****   /* subnet mask given? */
 650:Middlewares/Third_Party/LwIP/src/core/ipv4/dhcp.c ****   if (dhcp_option_given(dhcp, DHCP_OPTION_IDX_SUBNET_MASK)) {
 1475              		.loc 1 650 7
 1476 0072 114B     		ldr	r3, .L85
 1477 0074 9B79     		ldrb	r3, [r3, #6]	@ zero_extendqisi2
 1478              		.loc 1 650 6
 1479 0076 002B     		cmp	r3, #0
 1480 0078 0BD0     		beq	.L81
 651:Middlewares/Third_Party/LwIP/src/core/ipv4/dhcp.c ****     /* remember given subnet mask */
 652:Middlewares/Third_Party/LwIP/src/core/ipv4/dhcp.c ****     ip4_addr_set_u32(&dhcp->offered_sn_mask, lwip_htonl(dhcp_get_option_value(dhcp, DHCP_OPTION_IDX
 1481              		.loc 1 652 5
 1482 007a 104B     		ldr	r3, .L85+4
 1483 007c 9B69     		ldr	r3, [r3, #24]
 1484 007e 1846     		mov	r0, r3
 1485 0080 FFF7FEFF 		bl	lwip_htonl
 1486 0084 0246     		mov	r2, r0
 1487 0086 FB68     		ldr	r3, [r7, #12]
 1488 0088 1A62     		str	r2, [r3, #32]
 653:Middlewares/Third_Party/LwIP/src/core/ipv4/dhcp.c ****     dhcp->subnet_mask_given = 1;
 1489              		.loc 1 653 29
 1490 008a FB68     		ldr	r3, [r7, #12]
 1491 008c 0122     		movs	r2, #1
ARM GAS  /tmp/ccsjw2Nr.s 			page 39


 1492 008e DA71     		strb	r2, [r3, #7]
 1493 0090 02E0     		b	.L82
 1494              	.L81:
 654:Middlewares/Third_Party/LwIP/src/core/ipv4/dhcp.c ****   } else {
 655:Middlewares/Third_Party/LwIP/src/core/ipv4/dhcp.c ****     dhcp->subnet_mask_given = 0;
 1495              		.loc 1 655 29
 1496 0092 FB68     		ldr	r3, [r7, #12]
 1497 0094 0022     		movs	r2, #0
 1498 0096 DA71     		strb	r2, [r3, #7]
 1499              	.L82:
 656:Middlewares/Third_Party/LwIP/src/core/ipv4/dhcp.c ****   }
 657:Middlewares/Third_Party/LwIP/src/core/ipv4/dhcp.c **** 
 658:Middlewares/Third_Party/LwIP/src/core/ipv4/dhcp.c ****   /* gateway router */
 659:Middlewares/Third_Party/LwIP/src/core/ipv4/dhcp.c ****   if (dhcp_option_given(dhcp, DHCP_OPTION_IDX_ROUTER)) {
 1500              		.loc 1 659 7
 1501 0098 074B     		ldr	r3, .L85
 1502 009a DB79     		ldrb	r3, [r3, #7]	@ zero_extendqisi2
 1503              		.loc 1 659 6
 1504 009c 002B     		cmp	r3, #0
 1505 009e 07D0     		beq	.L84
 660:Middlewares/Third_Party/LwIP/src/core/ipv4/dhcp.c ****     ip4_addr_set_u32(&dhcp->offered_gw_addr, lwip_htonl(dhcp_get_option_value(dhcp, DHCP_OPTION_IDX
 1506              		.loc 1 660 5
 1507 00a0 064B     		ldr	r3, .L85+4
 1508 00a2 DB69     		ldr	r3, [r3, #28]
 1509 00a4 1846     		mov	r0, r3
 1510 00a6 FFF7FEFF 		bl	lwip_htonl
 1511 00aa 0246     		mov	r2, r0
 1512 00ac FB68     		ldr	r3, [r7, #12]
 1513 00ae 5A62     		str	r2, [r3, #36]
 1514              	.L84:
 661:Middlewares/Third_Party/LwIP/src/core/ipv4/dhcp.c ****   }
 662:Middlewares/Third_Party/LwIP/src/core/ipv4/dhcp.c **** 
 663:Middlewares/Third_Party/LwIP/src/core/ipv4/dhcp.c **** #if LWIP_DHCP_GET_NTP_SRV
 664:Middlewares/Third_Party/LwIP/src/core/ipv4/dhcp.c ****   /* NTP servers */
 665:Middlewares/Third_Party/LwIP/src/core/ipv4/dhcp.c ****   for (n = 0; (n < LWIP_DHCP_MAX_NTP_SERVERS) && dhcp_option_given(dhcp, DHCP_OPTION_IDX_NTP_SERVER
 666:Middlewares/Third_Party/LwIP/src/core/ipv4/dhcp.c ****     ip4_addr_set_u32(&ntp_server_addrs[n], lwip_htonl(dhcp_get_option_value(dhcp, DHCP_OPTION_IDX_N
 667:Middlewares/Third_Party/LwIP/src/core/ipv4/dhcp.c ****   }
 668:Middlewares/Third_Party/LwIP/src/core/ipv4/dhcp.c ****   dhcp_set_ntp_servers(n, ntp_server_addrs);
 669:Middlewares/Third_Party/LwIP/src/core/ipv4/dhcp.c **** #endif /* LWIP_DHCP_GET_NTP_SRV */
 670:Middlewares/Third_Party/LwIP/src/core/ipv4/dhcp.c **** 
 671:Middlewares/Third_Party/LwIP/src/core/ipv4/dhcp.c **** #if LWIP_DHCP_PROVIDE_DNS_SERVERS
 672:Middlewares/Third_Party/LwIP/src/core/ipv4/dhcp.c ****   /* DNS servers */
 673:Middlewares/Third_Party/LwIP/src/core/ipv4/dhcp.c ****   for (n = 0; (n < LWIP_DHCP_PROVIDE_DNS_SERVERS) && dhcp_option_given(dhcp, DHCP_OPTION_IDX_DNS_SE
 674:Middlewares/Third_Party/LwIP/src/core/ipv4/dhcp.c ****     ip_addr_t dns_addr;
 675:Middlewares/Third_Party/LwIP/src/core/ipv4/dhcp.c ****     ip_addr_set_ip4_u32_val(dns_addr, lwip_htonl(dhcp_get_option_value(dhcp, DHCP_OPTION_IDX_DNS_SE
 676:Middlewares/Third_Party/LwIP/src/core/ipv4/dhcp.c ****     dns_setserver(n, &dns_addr);
 677:Middlewares/Third_Party/LwIP/src/core/ipv4/dhcp.c ****   }
 678:Middlewares/Third_Party/LwIP/src/core/ipv4/dhcp.c **** #endif /* LWIP_DHCP_PROVIDE_DNS_SERVERS */
 679:Middlewares/Third_Party/LwIP/src/core/ipv4/dhcp.c **** }
 1515              		.loc 1 679 1
 1516 00b0 00BF     		nop
 1517 00b2 1037     		adds	r7, r7, #16
 1518              	.LCFI52:
 1519              		.cfi_def_cfa_offset 8
 1520 00b4 BD46     		mov	sp, r7
 1521              	.LCFI53:
 1522              		.cfi_def_cfa_register 13
ARM GAS  /tmp/ccsjw2Nr.s 			page 40


 1523              		@ sp needed
 1524 00b6 80BD     		pop	{r7, pc}
 1525              	.L86:
 1526              		.align	2
 1527              	.L85:
 1528 00b8 00000000 		.word	dhcp_rx_options_given
 1529 00bc 00000000 		.word	dhcp_rx_options_val
 1530              		.cfi_endproc
 1531              	.LFE144:
 1533              		.section	.rodata
 1534 00de 0000     		.align	2
 1535              	.LC6:
 1536 00e0 6E657469 		.ascii	"netif != NULL\000"
 1536      6620213D 
 1536      204E554C 
 1536      4C00
 1537 00ee 0000     		.align	2
 1538              	.LC7:
 1539 00f0 64686370 		.ascii	"dhcp != NULL\000"
 1539      20213D20 
 1539      4E554C4C 
 1539      00
 1540 00fd 000000   		.align	2
 1541              	.LC8:
 1542 0100 6E657469 		.ascii	"netif already has a struct dhcp set\000"
 1542      6620616C 
 1542      72656164 
 1542      79206861 
 1542      73206120 
 1543              		.section	.text.dhcp_set_struct,"ax",%progbits
 1544              		.align	1
 1545              		.global	dhcp_set_struct
 1546              		.syntax unified
 1547              		.thumb
 1548              		.thumb_func
 1549              		.fpu fpv4-sp-d16
 1551              	dhcp_set_struct:
 1552              	.LFB145:
 680:Middlewares/Third_Party/LwIP/src/core/ipv4/dhcp.c **** 
 681:Middlewares/Third_Party/LwIP/src/core/ipv4/dhcp.c **** /**
 682:Middlewares/Third_Party/LwIP/src/core/ipv4/dhcp.c ****  * @ingroup dhcp4
 683:Middlewares/Third_Party/LwIP/src/core/ipv4/dhcp.c ****  * Set a statically allocated struct dhcp to work with.
 684:Middlewares/Third_Party/LwIP/src/core/ipv4/dhcp.c ****  * Using this prevents dhcp_start to allocate it using mem_malloc.
 685:Middlewares/Third_Party/LwIP/src/core/ipv4/dhcp.c ****  *
 686:Middlewares/Third_Party/LwIP/src/core/ipv4/dhcp.c ****  * @param netif the netif for which to set the struct dhcp
 687:Middlewares/Third_Party/LwIP/src/core/ipv4/dhcp.c ****  * @param dhcp (uninitialised) dhcp struct allocated by the application
 688:Middlewares/Third_Party/LwIP/src/core/ipv4/dhcp.c ****  */
 689:Middlewares/Third_Party/LwIP/src/core/ipv4/dhcp.c **** void
 690:Middlewares/Third_Party/LwIP/src/core/ipv4/dhcp.c **** dhcp_set_struct(struct netif *netif, struct dhcp *dhcp)
 691:Middlewares/Third_Party/LwIP/src/core/ipv4/dhcp.c **** {
 1553              		.loc 1 691 1
 1554              		.cfi_startproc
 1555              		@ args = 0, pretend = 0, frame = 8
 1556              		@ frame_needed = 1, uses_anonymous_args = 0
 1557 0000 80B5     		push	{r7, lr}
 1558              	.LCFI54:
 1559              		.cfi_def_cfa_offset 8
ARM GAS  /tmp/ccsjw2Nr.s 			page 41


 1560              		.cfi_offset 7, -8
 1561              		.cfi_offset 14, -4
 1562 0002 82B0     		sub	sp, sp, #8
 1563              	.LCFI55:
 1564              		.cfi_def_cfa_offset 16
 1565 0004 00AF     		add	r7, sp, #0
 1566              	.LCFI56:
 1567              		.cfi_def_cfa_register 7
 1568 0006 7860     		str	r0, [r7, #4]
 1569 0008 3960     		str	r1, [r7]
 692:Middlewares/Third_Party/LwIP/src/core/ipv4/dhcp.c ****   LWIP_ASSERT_CORE_LOCKED();
 693:Middlewares/Third_Party/LwIP/src/core/ipv4/dhcp.c ****   LWIP_ASSERT("netif != NULL", netif != NULL);
 1570              		.loc 1 693 3
 1571 000a 7B68     		ldr	r3, [r7, #4]
 1572 000c 002B     		cmp	r3, #0
 1573 000e 06D1     		bne	.L88
 1574              		.loc 1 693 3 is_stmt 0 discriminator 1
 1575 0010 134B     		ldr	r3, .L91
 1576 0012 40F2B522 		movw	r2, #693
 1577 0016 1349     		ldr	r1, .L91+4
 1578 0018 1348     		ldr	r0, .L91+8
 1579 001a FFF7FEFF 		bl	printf
 1580              	.L88:
 694:Middlewares/Third_Party/LwIP/src/core/ipv4/dhcp.c ****   LWIP_ASSERT("dhcp != NULL", dhcp != NULL);
 1581              		.loc 1 694 3 is_stmt 1
 1582 001e 3B68     		ldr	r3, [r7]
 1583 0020 002B     		cmp	r3, #0
 1584 0022 06D1     		bne	.L89
 1585              		.loc 1 694 3 is_stmt 0 discriminator 1
 1586 0024 0E4B     		ldr	r3, .L91
 1587 0026 40F2B622 		movw	r2, #694
 1588 002a 1049     		ldr	r1, .L91+12
 1589 002c 0E48     		ldr	r0, .L91+8
 1590 002e FFF7FEFF 		bl	printf
 1591              	.L89:
 695:Middlewares/Third_Party/LwIP/src/core/ipv4/dhcp.c ****   LWIP_ASSERT("netif already has a struct dhcp set", netif_dhcp_data(netif) == NULL);
 1592              		.loc 1 695 3 is_stmt 1
 1593 0032 7B68     		ldr	r3, [r7, #4]
 1594 0034 5B6A     		ldr	r3, [r3, #36]
 1595 0036 002B     		cmp	r3, #0
 1596 0038 06D0     		beq	.L90
 1597              		.loc 1 695 3 is_stmt 0 discriminator 1
 1598 003a 094B     		ldr	r3, .L91
 1599 003c 40F2B722 		movw	r2, #695
 1600 0040 0B49     		ldr	r1, .L91+16
 1601 0042 0948     		ldr	r0, .L91+8
 1602 0044 FFF7FEFF 		bl	printf
 1603              	.L90:
 696:Middlewares/Third_Party/LwIP/src/core/ipv4/dhcp.c **** 
 697:Middlewares/Third_Party/LwIP/src/core/ipv4/dhcp.c ****   /* clear data structure */
 698:Middlewares/Third_Party/LwIP/src/core/ipv4/dhcp.c ****   memset(dhcp, 0, sizeof(struct dhcp));
 1604              		.loc 1 698 3 is_stmt 1
 1605 0048 3422     		movs	r2, #52
 1606 004a 0021     		movs	r1, #0
 1607 004c 3868     		ldr	r0, [r7]
 1608 004e FFF7FEFF 		bl	memset
 699:Middlewares/Third_Party/LwIP/src/core/ipv4/dhcp.c ****   /* dhcp_set_state(&dhcp, DHCP_STATE_OFF); */
ARM GAS  /tmp/ccsjw2Nr.s 			page 42


 700:Middlewares/Third_Party/LwIP/src/core/ipv4/dhcp.c ****   netif_set_client_data(netif, LWIP_NETIF_CLIENT_DATA_INDEX_DHCP, dhcp);
 1609              		.loc 1 700 3
 1610 0052 7B68     		ldr	r3, [r7, #4]
 1611 0054 3A68     		ldr	r2, [r7]
 1612 0056 5A62     		str	r2, [r3, #36]
 701:Middlewares/Third_Party/LwIP/src/core/ipv4/dhcp.c **** }
 1613              		.loc 1 701 1
 1614 0058 00BF     		nop
 1615 005a 0837     		adds	r7, r7, #8
 1616              	.LCFI57:
 1617              		.cfi_def_cfa_offset 8
 1618 005c BD46     		mov	sp, r7
 1619              	.LCFI58:
 1620              		.cfi_def_cfa_register 13
 1621              		@ sp needed
 1622 005e 80BD     		pop	{r7, pc}
 1623              	.L92:
 1624              		.align	2
 1625              	.L91:
 1626 0060 00000000 		.word	.LC0
 1627 0064 E0000000 		.word	.LC6
 1628 0068 5C000000 		.word	.LC2
 1629 006c F0000000 		.word	.LC7
 1630 0070 00010000 		.word	.LC8
 1631              		.cfi_endproc
 1632              	.LFE145:
 1634              		.section	.text.dhcp_cleanup,"ax",%progbits
 1635              		.align	1
 1636              		.global	dhcp_cleanup
 1637              		.syntax unified
 1638              		.thumb
 1639              		.thumb_func
 1640              		.fpu fpv4-sp-d16
 1642              	dhcp_cleanup:
 1643              	.LFB146:
 702:Middlewares/Third_Party/LwIP/src/core/ipv4/dhcp.c **** 
 703:Middlewares/Third_Party/LwIP/src/core/ipv4/dhcp.c **** /**
 704:Middlewares/Third_Party/LwIP/src/core/ipv4/dhcp.c ****  * @ingroup dhcp4
 705:Middlewares/Third_Party/LwIP/src/core/ipv4/dhcp.c ****  * Removes a struct dhcp from a netif.
 706:Middlewares/Third_Party/LwIP/src/core/ipv4/dhcp.c ****  *
 707:Middlewares/Third_Party/LwIP/src/core/ipv4/dhcp.c ****  * ATTENTION: Only use this when not using dhcp_set_struct() to allocate the
 708:Middlewares/Third_Party/LwIP/src/core/ipv4/dhcp.c ****  *            struct dhcp since the memory is passed back to the heap.
 709:Middlewares/Third_Party/LwIP/src/core/ipv4/dhcp.c ****  *
 710:Middlewares/Third_Party/LwIP/src/core/ipv4/dhcp.c ****  * @param netif the netif from which to remove the struct dhcp
 711:Middlewares/Third_Party/LwIP/src/core/ipv4/dhcp.c ****  */
 712:Middlewares/Third_Party/LwIP/src/core/ipv4/dhcp.c **** void dhcp_cleanup(struct netif *netif)
 713:Middlewares/Third_Party/LwIP/src/core/ipv4/dhcp.c **** {
 1644              		.loc 1 713 1
 1645              		.cfi_startproc
 1646              		@ args = 0, pretend = 0, frame = 8
 1647              		@ frame_needed = 1, uses_anonymous_args = 0
 1648 0000 80B5     		push	{r7, lr}
 1649              	.LCFI59:
 1650              		.cfi_def_cfa_offset 8
 1651              		.cfi_offset 7, -8
 1652              		.cfi_offset 14, -4
 1653 0002 82B0     		sub	sp, sp, #8
ARM GAS  /tmp/ccsjw2Nr.s 			page 43


 1654              	.LCFI60:
 1655              		.cfi_def_cfa_offset 16
 1656 0004 00AF     		add	r7, sp, #0
 1657              	.LCFI61:
 1658              		.cfi_def_cfa_register 7
 1659 0006 7860     		str	r0, [r7, #4]
 714:Middlewares/Third_Party/LwIP/src/core/ipv4/dhcp.c ****   LWIP_ASSERT_CORE_LOCKED();
 715:Middlewares/Third_Party/LwIP/src/core/ipv4/dhcp.c ****   LWIP_ASSERT("netif != NULL", netif != NULL);
 1660              		.loc 1 715 3
 1661 0008 7B68     		ldr	r3, [r7, #4]
 1662 000a 002B     		cmp	r3, #0
 1663 000c 06D1     		bne	.L94
 1664              		.loc 1 715 3 is_stmt 0 discriminator 1
 1665 000e 0B4B     		ldr	r3, .L97
 1666 0010 40F2CB22 		movw	r2, #715
 1667 0014 0A49     		ldr	r1, .L97+4
 1668 0016 0B48     		ldr	r0, .L97+8
 1669 0018 FFF7FEFF 		bl	printf
 1670              	.L94:
 716:Middlewares/Third_Party/LwIP/src/core/ipv4/dhcp.c **** 
 717:Middlewares/Third_Party/LwIP/src/core/ipv4/dhcp.c ****   if (netif_dhcp_data(netif) != NULL) {
 1671              		.loc 1 717 7 is_stmt 1
 1672 001c 7B68     		ldr	r3, [r7, #4]
 1673 001e 5B6A     		ldr	r3, [r3, #36]
 1674              		.loc 1 717 6
 1675 0020 002B     		cmp	r3, #0
 1676 0022 07D0     		beq	.L96
 718:Middlewares/Third_Party/LwIP/src/core/ipv4/dhcp.c ****     mem_free(netif_dhcp_data(netif));
 1677              		.loc 1 718 5
 1678 0024 7B68     		ldr	r3, [r7, #4]
 1679 0026 5B6A     		ldr	r3, [r3, #36]
 1680 0028 1846     		mov	r0, r3
 1681 002a FFF7FEFF 		bl	mem_free
 719:Middlewares/Third_Party/LwIP/src/core/ipv4/dhcp.c ****     netif_set_client_data(netif, LWIP_NETIF_CLIENT_DATA_INDEX_DHCP, NULL);
 1682              		.loc 1 719 5
 1683 002e 7B68     		ldr	r3, [r7, #4]
 1684 0030 0022     		movs	r2, #0
 1685 0032 5A62     		str	r2, [r3, #36]
 1686              	.L96:
 720:Middlewares/Third_Party/LwIP/src/core/ipv4/dhcp.c ****   }
 721:Middlewares/Third_Party/LwIP/src/core/ipv4/dhcp.c **** }
 1687              		.loc 1 721 1
 1688 0034 00BF     		nop
 1689 0036 0837     		adds	r7, r7, #8
 1690              	.LCFI62:
 1691              		.cfi_def_cfa_offset 8
 1692 0038 BD46     		mov	sp, r7
 1693              	.LCFI63:
 1694              		.cfi_def_cfa_register 13
 1695              		@ sp needed
 1696 003a 80BD     		pop	{r7, pc}
 1697              	.L98:
 1698              		.align	2
 1699              	.L97:
 1700 003c 00000000 		.word	.LC0
 1701 0040 E0000000 		.word	.LC6
 1702 0044 5C000000 		.word	.LC2
ARM GAS  /tmp/ccsjw2Nr.s 			page 44


 1703              		.cfi_endproc
 1704              	.LFE146:
 1706              		.section	.rodata
 1707              		.align	2
 1708              	.LC9:
 1709 0124 6E657469 		.ascii	"netif is not up, old style port?\000"
 1709      66206973 
 1709      206E6F74 
 1709      2075702C 
 1709      206F6C64 
 1710              		.section	.text.dhcp_start,"ax",%progbits
 1711              		.align	1
 1712              		.global	dhcp_start
 1713              		.syntax unified
 1714              		.thumb
 1715              		.thumb_func
 1716              		.fpu fpv4-sp-d16
 1718              	dhcp_start:
 1719              	.LFB147:
 722:Middlewares/Third_Party/LwIP/src/core/ipv4/dhcp.c **** 
 723:Middlewares/Third_Party/LwIP/src/core/ipv4/dhcp.c **** /**
 724:Middlewares/Third_Party/LwIP/src/core/ipv4/dhcp.c ****  * @ingroup dhcp4
 725:Middlewares/Third_Party/LwIP/src/core/ipv4/dhcp.c ****  * Start DHCP negotiation for a network interface.
 726:Middlewares/Third_Party/LwIP/src/core/ipv4/dhcp.c ****  *
 727:Middlewares/Third_Party/LwIP/src/core/ipv4/dhcp.c ****  * If no DHCP client instance was attached to this interface,
 728:Middlewares/Third_Party/LwIP/src/core/ipv4/dhcp.c ****  * a new client is created first. If a DHCP client instance
 729:Middlewares/Third_Party/LwIP/src/core/ipv4/dhcp.c ****  * was already present, it restarts negotiation.
 730:Middlewares/Third_Party/LwIP/src/core/ipv4/dhcp.c ****  *
 731:Middlewares/Third_Party/LwIP/src/core/ipv4/dhcp.c ****  * @param netif The lwIP network interface
 732:Middlewares/Third_Party/LwIP/src/core/ipv4/dhcp.c ****  * @return lwIP error code
 733:Middlewares/Third_Party/LwIP/src/core/ipv4/dhcp.c ****  * - ERR_OK - No error
 734:Middlewares/Third_Party/LwIP/src/core/ipv4/dhcp.c ****  * - ERR_MEM - Out of memory
 735:Middlewares/Third_Party/LwIP/src/core/ipv4/dhcp.c ****  */
 736:Middlewares/Third_Party/LwIP/src/core/ipv4/dhcp.c **** err_t
 737:Middlewares/Third_Party/LwIP/src/core/ipv4/dhcp.c **** dhcp_start(struct netif *netif)
 738:Middlewares/Third_Party/LwIP/src/core/ipv4/dhcp.c **** {
 1720              		.loc 1 738 1
 1721              		.cfi_startproc
 1722              		@ args = 0, pretend = 0, frame = 16
 1723              		@ frame_needed = 1, uses_anonymous_args = 0
 1724 0000 80B5     		push	{r7, lr}
 1725              	.LCFI64:
 1726              		.cfi_def_cfa_offset 8
 1727              		.cfi_offset 7, -8
 1728              		.cfi_offset 14, -4
 1729 0002 84B0     		sub	sp, sp, #16
 1730              	.LCFI65:
 1731              		.cfi_def_cfa_offset 24
 1732 0004 00AF     		add	r7, sp, #0
 1733              	.LCFI66:
 1734              		.cfi_def_cfa_register 7
 1735 0006 7860     		str	r0, [r7, #4]
 739:Middlewares/Third_Party/LwIP/src/core/ipv4/dhcp.c ****   struct dhcp *dhcp;
 740:Middlewares/Third_Party/LwIP/src/core/ipv4/dhcp.c ****   err_t result;
 741:Middlewares/Third_Party/LwIP/src/core/ipv4/dhcp.c **** 
 742:Middlewares/Third_Party/LwIP/src/core/ipv4/dhcp.c ****   LWIP_ASSERT_CORE_LOCKED();
 743:Middlewares/Third_Party/LwIP/src/core/ipv4/dhcp.c ****   LWIP_ERROR("netif != NULL", (netif != NULL), return ERR_ARG;);
ARM GAS  /tmp/ccsjw2Nr.s 			page 45


 1736              		.loc 1 743 3
 1737 0008 7B68     		ldr	r3, [r7, #4]
 1738 000a 002B     		cmp	r3, #0
 1739 000c 09D1     		bne	.L100
 1740              		.loc 1 743 3 is_stmt 0 discriminator 1
 1741 000e 374B     		ldr	r3, .L110
 1742 0010 40F2E722 		movw	r2, #743
 1743 0014 3649     		ldr	r1, .L110+4
 1744 0016 3748     		ldr	r0, .L110+8
 1745 0018 FFF7FEFF 		bl	printf
 1746 001c 6FF00F03 		mvn	r3, #15
 1747 0020 60E0     		b	.L101
 1748              	.L100:
 744:Middlewares/Third_Party/LwIP/src/core/ipv4/dhcp.c ****   LWIP_ERROR("netif is not up, old style port?", netif_is_up(netif), return ERR_ARG;);
 1749              		.loc 1 744 3 is_stmt 1
 1750 0022 7B68     		ldr	r3, [r7, #4]
 1751 0024 93F83130 		ldrb	r3, [r3, #49]	@ zero_extendqisi2
 1752 0028 03F00103 		and	r3, r3, #1
 1753 002c 002B     		cmp	r3, #0
 1754 002e 09D1     		bne	.L102
 1755              		.loc 1 744 3 is_stmt 0 discriminator 1
 1756 0030 2E4B     		ldr	r3, .L110
 1757 0032 4FF43A72 		mov	r2, #744
 1758 0036 3049     		ldr	r1, .L110+12
 1759 0038 2E48     		ldr	r0, .L110+8
 1760 003a FFF7FEFF 		bl	printf
 1761 003e 6FF00F03 		mvn	r3, #15
 1762 0042 4FE0     		b	.L101
 1763              	.L102:
 745:Middlewares/Third_Party/LwIP/src/core/ipv4/dhcp.c ****   dhcp = netif_dhcp_data(netif);
 1764              		.loc 1 745 8 is_stmt 1
 1765 0044 7B68     		ldr	r3, [r7, #4]
 1766 0046 5B6A     		ldr	r3, [r3, #36]
 1767 0048 FB60     		str	r3, [r7, #12]
 746:Middlewares/Third_Party/LwIP/src/core/ipv4/dhcp.c ****   LWIP_DEBUGF(DHCP_DEBUG | LWIP_DBG_TRACE | LWIP_DBG_STATE, ("dhcp_start(netif=%p) %c%c%"U16_F"\n",
 747:Middlewares/Third_Party/LwIP/src/core/ipv4/dhcp.c **** 
 748:Middlewares/Third_Party/LwIP/src/core/ipv4/dhcp.c ****   /* check MTU of the netif */
 749:Middlewares/Third_Party/LwIP/src/core/ipv4/dhcp.c ****   if (netif->mtu < DHCP_MAX_MSG_LEN_MIN_REQUIRED) {
 1768              		.loc 1 749 12
 1769 004a 7B68     		ldr	r3, [r7, #4]
 1770 004c 1B8D     		ldrh	r3, [r3, #40]
 1771              		.loc 1 749 6
 1772 004e B3F5107F 		cmp	r3, #576
 1773 0052 02D2     		bcs	.L103
 750:Middlewares/Third_Party/LwIP/src/core/ipv4/dhcp.c ****     LWIP_DEBUGF(DHCP_DEBUG | LWIP_DBG_TRACE, ("dhcp_start(): Cannot use this netif with DHCP: MTU i
 751:Middlewares/Third_Party/LwIP/src/core/ipv4/dhcp.c ****     return ERR_MEM;
 1774              		.loc 1 751 12
 1775 0054 4FF0FF33 		mov	r3, #-1
 1776 0058 44E0     		b	.L101
 1777              	.L103:
 752:Middlewares/Third_Party/LwIP/src/core/ipv4/dhcp.c ****   }
 753:Middlewares/Third_Party/LwIP/src/core/ipv4/dhcp.c **** 
 754:Middlewares/Third_Party/LwIP/src/core/ipv4/dhcp.c ****   /* no DHCP client attached yet? */
 755:Middlewares/Third_Party/LwIP/src/core/ipv4/dhcp.c ****   if (dhcp == NULL) {
 1778              		.loc 1 755 6
 1779 005a FB68     		ldr	r3, [r7, #12]
 1780 005c 002B     		cmp	r3, #0
ARM GAS  /tmp/ccsjw2Nr.s 			page 46


 1781 005e 0DD1     		bne	.L104
 756:Middlewares/Third_Party/LwIP/src/core/ipv4/dhcp.c ****     LWIP_DEBUGF(DHCP_DEBUG | LWIP_DBG_TRACE, ("dhcp_start(): mallocing new DHCP client\n"));
 757:Middlewares/Third_Party/LwIP/src/core/ipv4/dhcp.c ****     dhcp = (struct dhcp *)mem_malloc(sizeof(struct dhcp));
 1782              		.loc 1 757 27
 1783 0060 3420     		movs	r0, #52
 1784 0062 FFF7FEFF 		bl	mem_malloc
 1785 0066 F860     		str	r0, [r7, #12]
 758:Middlewares/Third_Party/LwIP/src/core/ipv4/dhcp.c ****     if (dhcp == NULL) {
 1786              		.loc 1 758 8
 1787 0068 FB68     		ldr	r3, [r7, #12]
 1788 006a 002B     		cmp	r3, #0
 1789 006c 02D1     		bne	.L105
 759:Middlewares/Third_Party/LwIP/src/core/ipv4/dhcp.c ****       LWIP_DEBUGF(DHCP_DEBUG | LWIP_DBG_TRACE, ("dhcp_start(): could not allocate dhcp\n"));
 760:Middlewares/Third_Party/LwIP/src/core/ipv4/dhcp.c ****       return ERR_MEM;
 1790              		.loc 1 760 14
 1791 006e 4FF0FF33 		mov	r3, #-1
 1792 0072 37E0     		b	.L101
 1793              	.L105:
 761:Middlewares/Third_Party/LwIP/src/core/ipv4/dhcp.c ****     }
 762:Middlewares/Third_Party/LwIP/src/core/ipv4/dhcp.c **** 
 763:Middlewares/Third_Party/LwIP/src/core/ipv4/dhcp.c ****     /* store this dhcp client in the netif */
 764:Middlewares/Third_Party/LwIP/src/core/ipv4/dhcp.c ****     netif_set_client_data(netif, LWIP_NETIF_CLIENT_DATA_INDEX_DHCP, dhcp);
 1794              		.loc 1 764 5
 1795 0074 7B68     		ldr	r3, [r7, #4]
 1796 0076 FA68     		ldr	r2, [r7, #12]
 1797 0078 5A62     		str	r2, [r3, #36]
 1798 007a 05E0     		b	.L106
 1799              	.L104:
 765:Middlewares/Third_Party/LwIP/src/core/ipv4/dhcp.c ****     LWIP_DEBUGF(DHCP_DEBUG | LWIP_DBG_TRACE, ("dhcp_start(): allocated dhcp"));
 766:Middlewares/Third_Party/LwIP/src/core/ipv4/dhcp.c ****     /* already has DHCP client attached */
 767:Middlewares/Third_Party/LwIP/src/core/ipv4/dhcp.c ****   } else {
 768:Middlewares/Third_Party/LwIP/src/core/ipv4/dhcp.c ****     LWIP_DEBUGF(DHCP_DEBUG | LWIP_DBG_TRACE | LWIP_DBG_STATE, ("dhcp_start(): restarting DHCP confi
 769:Middlewares/Third_Party/LwIP/src/core/ipv4/dhcp.c **** 
 770:Middlewares/Third_Party/LwIP/src/core/ipv4/dhcp.c ****     if (dhcp->pcb_allocated != 0) {
 1800              		.loc 1 770 13
 1801 007c FB68     		ldr	r3, [r7, #12]
 1802 007e 1B79     		ldrb	r3, [r3, #4]	@ zero_extendqisi2
 1803              		.loc 1 770 8
 1804 0080 002B     		cmp	r3, #0
 1805 0082 01D0     		beq	.L106
 771:Middlewares/Third_Party/LwIP/src/core/ipv4/dhcp.c ****       dhcp_dec_pcb_refcount(); /* free DHCP PCB if not needed any more */
 1806              		.loc 1 771 7
 1807 0084 FFF7FEFF 		bl	dhcp_dec_pcb_refcount
 1808              	.L106:
 772:Middlewares/Third_Party/LwIP/src/core/ipv4/dhcp.c ****     }
 773:Middlewares/Third_Party/LwIP/src/core/ipv4/dhcp.c ****     /* dhcp is cleared below, no need to reset flag*/
 774:Middlewares/Third_Party/LwIP/src/core/ipv4/dhcp.c ****   }
 775:Middlewares/Third_Party/LwIP/src/core/ipv4/dhcp.c **** 
 776:Middlewares/Third_Party/LwIP/src/core/ipv4/dhcp.c ****   /* clear data structure */
 777:Middlewares/Third_Party/LwIP/src/core/ipv4/dhcp.c ****   memset(dhcp, 0, sizeof(struct dhcp));
 1809              		.loc 1 777 3
 1810 0088 3422     		movs	r2, #52
 1811 008a 0021     		movs	r1, #0
 1812 008c F868     		ldr	r0, [r7, #12]
 1813 008e FFF7FEFF 		bl	memset
 778:Middlewares/Third_Party/LwIP/src/core/ipv4/dhcp.c ****   /* dhcp_set_state(&dhcp, DHCP_STATE_OFF); */
 779:Middlewares/Third_Party/LwIP/src/core/ipv4/dhcp.c **** 
ARM GAS  /tmp/ccsjw2Nr.s 			page 47


 780:Middlewares/Third_Party/LwIP/src/core/ipv4/dhcp.c ****   LWIP_DEBUGF(DHCP_DEBUG | LWIP_DBG_TRACE, ("dhcp_start(): starting DHCP configuration\n"));
 781:Middlewares/Third_Party/LwIP/src/core/ipv4/dhcp.c **** 
 782:Middlewares/Third_Party/LwIP/src/core/ipv4/dhcp.c ****   if (dhcp_inc_pcb_refcount() != ERR_OK) { /* ensure DHCP PCB is allocated */
 1814              		.loc 1 782 7
 1815 0092 FFF7FEFF 		bl	dhcp_inc_pcb_refcount
 1816 0096 0346     		mov	r3, r0
 1817              		.loc 1 782 6
 1818 0098 002B     		cmp	r3, #0
 1819 009a 02D0     		beq	.L107
 783:Middlewares/Third_Party/LwIP/src/core/ipv4/dhcp.c ****     return ERR_MEM;
 1820              		.loc 1 783 12
 1821 009c 4FF0FF33 		mov	r3, #-1
 1822 00a0 20E0     		b	.L101
 1823              	.L107:
 784:Middlewares/Third_Party/LwIP/src/core/ipv4/dhcp.c ****   }
 785:Middlewares/Third_Party/LwIP/src/core/ipv4/dhcp.c ****   dhcp->pcb_allocated = 1;
 1824              		.loc 1 785 23
 1825 00a2 FB68     		ldr	r3, [r7, #12]
 1826 00a4 0122     		movs	r2, #1
 1827 00a6 1A71     		strb	r2, [r3, #4]
 786:Middlewares/Third_Party/LwIP/src/core/ipv4/dhcp.c **** 
 787:Middlewares/Third_Party/LwIP/src/core/ipv4/dhcp.c ****   if (!netif_is_link_up(netif)) {
 1828              		.loc 1 787 8
 1829 00a8 7B68     		ldr	r3, [r7, #4]
 1830 00aa 93F83130 		ldrb	r3, [r3, #49]	@ zero_extendqisi2
 1831 00ae 03F00403 		and	r3, r3, #4
 1832              		.loc 1 787 6
 1833 00b2 002B     		cmp	r3, #0
 1834 00b4 05D1     		bne	.L108
 788:Middlewares/Third_Party/LwIP/src/core/ipv4/dhcp.c ****     /* set state INIT and wait for dhcp_network_changed() to call dhcp_discover() */
 789:Middlewares/Third_Party/LwIP/src/core/ipv4/dhcp.c ****     dhcp_set_state(dhcp, DHCP_STATE_INIT);
 1835              		.loc 1 789 5
 1836 00b6 0221     		movs	r1, #2
 1837 00b8 F868     		ldr	r0, [r7, #12]
 1838 00ba FFF7FEFF 		bl	dhcp_set_state
 790:Middlewares/Third_Party/LwIP/src/core/ipv4/dhcp.c ****     return ERR_OK;
 1839              		.loc 1 790 12
 1840 00be 0023     		movs	r3, #0
 1841 00c0 10E0     		b	.L101
 1842              	.L108:
 791:Middlewares/Third_Party/LwIP/src/core/ipv4/dhcp.c ****   }
 792:Middlewares/Third_Party/LwIP/src/core/ipv4/dhcp.c **** 
 793:Middlewares/Third_Party/LwIP/src/core/ipv4/dhcp.c ****   /* (re)start the DHCP negotiation */
 794:Middlewares/Third_Party/LwIP/src/core/ipv4/dhcp.c ****   result = dhcp_discover(netif);
 1843              		.loc 1 794 12
 1844 00c2 7868     		ldr	r0, [r7, #4]
 1845 00c4 FFF7FEFF 		bl	dhcp_discover
 1846 00c8 0346     		mov	r3, r0
 1847 00ca FB72     		strb	r3, [r7, #11]
 795:Middlewares/Third_Party/LwIP/src/core/ipv4/dhcp.c ****   if (result != ERR_OK) {
 1848              		.loc 1 795 6
 1849 00cc 97F90B30 		ldrsb	r3, [r7, #11]
 1850 00d0 002B     		cmp	r3, #0
 1851 00d2 05D0     		beq	.L109
 796:Middlewares/Third_Party/LwIP/src/core/ipv4/dhcp.c ****     /* free resources allocated above */
 797:Middlewares/Third_Party/LwIP/src/core/ipv4/dhcp.c ****     dhcp_release_and_stop(netif);
 1852              		.loc 1 797 5
ARM GAS  /tmp/ccsjw2Nr.s 			page 48


 1853 00d4 7868     		ldr	r0, [r7, #4]
 1854 00d6 FFF7FEFF 		bl	dhcp_release_and_stop
 798:Middlewares/Third_Party/LwIP/src/core/ipv4/dhcp.c ****     return ERR_MEM;
 1855              		.loc 1 798 12
 1856 00da 4FF0FF33 		mov	r3, #-1
 1857 00de 01E0     		b	.L101
 1858              	.L109:
 799:Middlewares/Third_Party/LwIP/src/core/ipv4/dhcp.c ****   }
 800:Middlewares/Third_Party/LwIP/src/core/ipv4/dhcp.c ****   return result;
 1859              		.loc 1 800 10
 1860 00e0 97F90B30 		ldrsb	r3, [r7, #11]
 1861              	.L101:
 801:Middlewares/Third_Party/LwIP/src/core/ipv4/dhcp.c **** }
 1862              		.loc 1 801 1
 1863 00e4 1846     		mov	r0, r3
 1864 00e6 1037     		adds	r7, r7, #16
 1865              	.LCFI67:
 1866              		.cfi_def_cfa_offset 8
 1867 00e8 BD46     		mov	sp, r7
 1868              	.LCFI68:
 1869              		.cfi_def_cfa_register 13
 1870              		@ sp needed
 1871 00ea 80BD     		pop	{r7, pc}
 1872              	.L111:
 1873              		.align	2
 1874              	.L110:
 1875 00ec 00000000 		.word	.LC0
 1876 00f0 E0000000 		.word	.LC6
 1877 00f4 5C000000 		.word	.LC2
 1878 00f8 24010000 		.word	.LC9
 1879              		.cfi_endproc
 1880              	.LFE147:
 1882              		.section	.text.dhcp_inform,"ax",%progbits
 1883              		.align	1
 1884              		.global	dhcp_inform
 1885              		.syntax unified
 1886              		.thumb
 1887              		.thumb_func
 1888              		.fpu fpv4-sp-d16
 1890              	dhcp_inform:
 1891              	.LFB148:
 802:Middlewares/Third_Party/LwIP/src/core/ipv4/dhcp.c **** 
 803:Middlewares/Third_Party/LwIP/src/core/ipv4/dhcp.c **** /**
 804:Middlewares/Third_Party/LwIP/src/core/ipv4/dhcp.c ****  * @ingroup dhcp4
 805:Middlewares/Third_Party/LwIP/src/core/ipv4/dhcp.c ****  * Inform a DHCP server of our manual configuration.
 806:Middlewares/Third_Party/LwIP/src/core/ipv4/dhcp.c ****  *
 807:Middlewares/Third_Party/LwIP/src/core/ipv4/dhcp.c ****  * This informs DHCP servers of our fixed IP address configuration
 808:Middlewares/Third_Party/LwIP/src/core/ipv4/dhcp.c ****  * by sending an INFORM message. It does not involve DHCP address
 809:Middlewares/Third_Party/LwIP/src/core/ipv4/dhcp.c ****  * configuration, it is just here to be nice to the network.
 810:Middlewares/Third_Party/LwIP/src/core/ipv4/dhcp.c ****  *
 811:Middlewares/Third_Party/LwIP/src/core/ipv4/dhcp.c ****  * @param netif The lwIP network interface
 812:Middlewares/Third_Party/LwIP/src/core/ipv4/dhcp.c ****  */
 813:Middlewares/Third_Party/LwIP/src/core/ipv4/dhcp.c **** void
 814:Middlewares/Third_Party/LwIP/src/core/ipv4/dhcp.c **** dhcp_inform(struct netif *netif)
 815:Middlewares/Third_Party/LwIP/src/core/ipv4/dhcp.c **** {
 1892              		.loc 1 815 1
 1893              		.cfi_startproc
ARM GAS  /tmp/ccsjw2Nr.s 			page 49


 1894              		@ args = 0, pretend = 0, frame = 72
 1895              		@ frame_needed = 1, uses_anonymous_args = 0
 1896 0000 80B5     		push	{r7, lr}
 1897              	.LCFI69:
 1898              		.cfi_def_cfa_offset 8
 1899              		.cfi_offset 7, -8
 1900              		.cfi_offset 14, -4
 1901 0002 94B0     		sub	sp, sp, #80
 1902              	.LCFI70:
 1903              		.cfi_def_cfa_offset 88
 1904 0004 02AF     		add	r7, sp, #8
 1905              	.LCFI71:
 1906              		.cfi_def_cfa 7, 80
 1907 0006 7860     		str	r0, [r7, #4]
 816:Middlewares/Third_Party/LwIP/src/core/ipv4/dhcp.c ****   struct dhcp dhcp;
 817:Middlewares/Third_Party/LwIP/src/core/ipv4/dhcp.c ****   struct pbuf *p_out;
 818:Middlewares/Third_Party/LwIP/src/core/ipv4/dhcp.c ****   u16_t options_out_len;
 819:Middlewares/Third_Party/LwIP/src/core/ipv4/dhcp.c **** 
 820:Middlewares/Third_Party/LwIP/src/core/ipv4/dhcp.c ****   LWIP_ASSERT_CORE_LOCKED();
 821:Middlewares/Third_Party/LwIP/src/core/ipv4/dhcp.c ****   LWIP_ERROR("netif != NULL", (netif != NULL), return;);
 1908              		.loc 1 821 3
 1909 0008 7B68     		ldr	r3, [r7, #4]
 1910 000a 002B     		cmp	r3, #0
 1911 000c 07D1     		bne	.L113
 1912              		.loc 1 821 3 is_stmt 0 discriminator 1
 1913 000e 2C4B     		ldr	r3, .L119
 1914 0010 40F23532 		movw	r2, #821
 1915 0014 2B49     		ldr	r1, .L119+4
 1916 0016 2C48     		ldr	r0, .L119+8
 1917 0018 FFF7FEFF 		bl	printf
 1918 001c 4CE0     		b	.L112
 1919              	.L113:
 822:Middlewares/Third_Party/LwIP/src/core/ipv4/dhcp.c **** 
 823:Middlewares/Third_Party/LwIP/src/core/ipv4/dhcp.c ****   if (dhcp_inc_pcb_refcount() != ERR_OK) { /* ensure DHCP PCB is allocated */
 1920              		.loc 1 823 7 is_stmt 1
 1921 001e FFF7FEFF 		bl	dhcp_inc_pcb_refcount
 1922 0022 0346     		mov	r3, r0
 1923              		.loc 1 823 6
 1924 0024 002B     		cmp	r3, #0
 1925 0026 46D1     		bne	.L118
 824:Middlewares/Third_Party/LwIP/src/core/ipv4/dhcp.c ****     return;
 825:Middlewares/Third_Party/LwIP/src/core/ipv4/dhcp.c ****   }
 826:Middlewares/Third_Party/LwIP/src/core/ipv4/dhcp.c **** 
 827:Middlewares/Third_Party/LwIP/src/core/ipv4/dhcp.c ****   memset(&dhcp, 0, sizeof(struct dhcp));
 1926              		.loc 1 827 3
 1927 0028 07F10C03 		add	r3, r7, #12
 1928 002c 3422     		movs	r2, #52
 1929 002e 0021     		movs	r1, #0
 1930 0030 1846     		mov	r0, r3
 1931 0032 FFF7FEFF 		bl	memset
 828:Middlewares/Third_Party/LwIP/src/core/ipv4/dhcp.c ****   dhcp_set_state(&dhcp, DHCP_STATE_INFORMING);
 1932              		.loc 1 828 3
 1933 0036 07F10C03 		add	r3, r7, #12
 1934 003a 0721     		movs	r1, #7
 1935 003c 1846     		mov	r0, r3
 1936 003e FFF7FEFF 		bl	dhcp_set_state
 829:Middlewares/Third_Party/LwIP/src/core/ipv4/dhcp.c **** 
ARM GAS  /tmp/ccsjw2Nr.s 			page 50


 830:Middlewares/Third_Party/LwIP/src/core/ipv4/dhcp.c ****   /* create and initialize the DHCP message header */
 831:Middlewares/Third_Party/LwIP/src/core/ipv4/dhcp.c ****   p_out = dhcp_create_msg(netif, &dhcp, DHCP_INFORM, &options_out_len);
 1937              		.loc 1 831 11
 1938 0042 07F10A03 		add	r3, r7, #10
 1939 0046 07F10C01 		add	r1, r7, #12
 1940 004a 0822     		movs	r2, #8
 1941 004c 7868     		ldr	r0, [r7, #4]
 1942 004e FFF7FEFF 		bl	dhcp_create_msg
 1943 0052 7864     		str	r0, [r7, #68]
 832:Middlewares/Third_Party/LwIP/src/core/ipv4/dhcp.c ****   if (p_out != NULL) {
 1944              		.loc 1 832 6
 1945 0054 7B6C     		ldr	r3, [r7, #68]
 1946 0056 002B     		cmp	r3, #0
 1947 0058 2AD0     		beq	.L116
 1948              	.LBB5:
 833:Middlewares/Third_Party/LwIP/src/core/ipv4/dhcp.c ****     struct dhcp_msg *msg_out = (struct dhcp_msg *)p_out->payload;
 1949              		.loc 1 833 22
 1950 005a 7B6C     		ldr	r3, [r7, #68]
 1951 005c 5B68     		ldr	r3, [r3, #4]
 1952 005e 3B64     		str	r3, [r7, #64]
 834:Middlewares/Third_Party/LwIP/src/core/ipv4/dhcp.c ****     options_out_len = dhcp_option(options_out_len, msg_out->options, DHCP_OPTION_MAX_MSG_SIZE, DHCP
 1953              		.loc 1 834 23
 1954 0060 7889     		ldrh	r0, [r7, #10]
 1955              		.loc 1 834 59
 1956 0062 3B6C     		ldr	r3, [r7, #64]
 1957 0064 03F1F001 		add	r1, r3, #240
 1958              		.loc 1 834 23
 1959 0068 0223     		movs	r3, #2
 1960 006a 3922     		movs	r2, #57
 1961 006c FFF7FEFF 		bl	dhcp_option
 1962 0070 0346     		mov	r3, r0
 1963              		.loc 1 834 21
 1964 0072 7B81     		strh	r3, [r7, #10]	@ movhi
 835:Middlewares/Third_Party/LwIP/src/core/ipv4/dhcp.c ****     options_out_len = dhcp_option_short(options_out_len, msg_out->options, DHCP_MAX_MSG_LEN(netif))
 1965              		.loc 1 835 23
 1966 0074 7889     		ldrh	r0, [r7, #10]
 1967              		.loc 1 835 65
 1968 0076 3B6C     		ldr	r3, [r7, #64]
 1969 0078 03F1F001 		add	r1, r3, #240
 1970              		.loc 1 835 23
 1971 007c 7B68     		ldr	r3, [r7, #4]
 1972 007e 1B8D     		ldrh	r3, [r3, #40]
 1973 0080 1A46     		mov	r2, r3
 1974 0082 FFF7FEFF 		bl	dhcp_option_short
 1975 0086 0346     		mov	r3, r0
 1976              		.loc 1 835 21
 1977 0088 7B81     		strh	r3, [r7, #10]	@ movhi
 836:Middlewares/Third_Party/LwIP/src/core/ipv4/dhcp.c **** 
 837:Middlewares/Third_Party/LwIP/src/core/ipv4/dhcp.c ****     LWIP_HOOK_DHCP_APPEND_OPTIONS(netif, &dhcp, DHCP_STATE_INFORMING, msg_out, DHCP_INFORM, &option
 838:Middlewares/Third_Party/LwIP/src/core/ipv4/dhcp.c ****     dhcp_option_trailer(options_out_len, msg_out->options, p_out);
 1978              		.loc 1 838 5
 1979 008a 7889     		ldrh	r0, [r7, #10]
 1980              		.loc 1 838 49
 1981 008c 3B6C     		ldr	r3, [r7, #64]
 1982 008e F033     		adds	r3, r3, #240
 1983              		.loc 1 838 5
 1984 0090 7A6C     		ldr	r2, [r7, #68]
ARM GAS  /tmp/ccsjw2Nr.s 			page 51


 1985 0092 1946     		mov	r1, r3
 1986 0094 FFF7FEFF 		bl	dhcp_option_trailer
 839:Middlewares/Third_Party/LwIP/src/core/ipv4/dhcp.c **** 
 840:Middlewares/Third_Party/LwIP/src/core/ipv4/dhcp.c ****     LWIP_DEBUGF(DHCP_DEBUG | LWIP_DBG_TRACE | LWIP_DBG_STATE, ("dhcp_inform: INFORMING\n"));
 841:Middlewares/Third_Party/LwIP/src/core/ipv4/dhcp.c **** 
 842:Middlewares/Third_Party/LwIP/src/core/ipv4/dhcp.c ****     udp_sendto_if(dhcp_pcb, p_out, IP_ADDR_BROADCAST, LWIP_IANA_PORT_DHCP_SERVER, netif);
 1987              		.loc 1 842 5
 1988 0098 0C4B     		ldr	r3, .L119+12
 1989 009a 1868     		ldr	r0, [r3]
 1990 009c 7B68     		ldr	r3, [r7, #4]
 1991 009e 0093     		str	r3, [sp]
 1992 00a0 4323     		movs	r3, #67
 1993 00a2 0B4A     		ldr	r2, .L119+16
 1994 00a4 796C     		ldr	r1, [r7, #68]
 1995 00a6 FFF7FEFF 		bl	udp_sendto_if
 843:Middlewares/Third_Party/LwIP/src/core/ipv4/dhcp.c **** 
 844:Middlewares/Third_Party/LwIP/src/core/ipv4/dhcp.c ****     pbuf_free(p_out);
 1996              		.loc 1 844 5
 1997 00aa 786C     		ldr	r0, [r7, #68]
 1998 00ac FFF7FEFF 		bl	pbuf_free
 1999              	.L116:
 2000              	.LBE5:
 845:Middlewares/Third_Party/LwIP/src/core/ipv4/dhcp.c ****   } else {
 846:Middlewares/Third_Party/LwIP/src/core/ipv4/dhcp.c ****     LWIP_DEBUGF(DHCP_DEBUG | LWIP_DBG_TRACE | LWIP_DBG_LEVEL_SERIOUS, ("dhcp_inform: could not allo
 847:Middlewares/Third_Party/LwIP/src/core/ipv4/dhcp.c ****   }
 848:Middlewares/Third_Party/LwIP/src/core/ipv4/dhcp.c **** 
 849:Middlewares/Third_Party/LwIP/src/core/ipv4/dhcp.c ****   dhcp_dec_pcb_refcount(); /* delete DHCP PCB if not needed any more */
 2001              		.loc 1 849 3
 2002 00b0 FFF7FEFF 		bl	dhcp_dec_pcb_refcount
 2003 00b4 00E0     		b	.L112
 2004              	.L118:
 824:Middlewares/Third_Party/LwIP/src/core/ipv4/dhcp.c ****   }
 2005              		.loc 1 824 5
 2006 00b6 00BF     		nop
 2007              	.L112:
 850:Middlewares/Third_Party/LwIP/src/core/ipv4/dhcp.c **** }
 2008              		.loc 1 850 1
 2009 00b8 4837     		adds	r7, r7, #72
 2010              	.LCFI72:
 2011              		.cfi_def_cfa_offset 8
 2012 00ba BD46     		mov	sp, r7
 2013              	.LCFI73:
 2014              		.cfi_def_cfa_register 13
 2015              		@ sp needed
 2016 00bc 80BD     		pop	{r7, pc}
 2017              	.L120:
 2018 00be 00BF     		.align	2
 2019              	.L119:
 2020 00c0 00000000 		.word	.LC0
 2021 00c4 E0000000 		.word	.LC6
 2022 00c8 5C000000 		.word	.LC2
 2023 00cc 00000000 		.word	dhcp_pcb
 2024 00d0 00000000 		.word	ip_addr_broadcast
 2025              		.cfi_endproc
 2026              	.LFE148:
 2028              		.section	.rodata
 2029 0145 000000   		.align	2
ARM GAS  /tmp/ccsjw2Nr.s 			page 52


 2030              	.LC10:
 2031 0148 696E7661 		.ascii	"invalid dhcp->state\000"
 2031      6C696420 
 2031      64686370 
 2031      2D3E7374 
 2031      61746500 
 2032              		.section	.text.dhcp_network_changed,"ax",%progbits
 2033              		.align	1
 2034              		.global	dhcp_network_changed
 2035              		.syntax unified
 2036              		.thumb
 2037              		.thumb_func
 2038              		.fpu fpv4-sp-d16
 2040              	dhcp_network_changed:
 2041              	.LFB149:
 851:Middlewares/Third_Party/LwIP/src/core/ipv4/dhcp.c **** 
 852:Middlewares/Third_Party/LwIP/src/core/ipv4/dhcp.c **** /** Handle a possible change in the network configuration.
 853:Middlewares/Third_Party/LwIP/src/core/ipv4/dhcp.c ****  *
 854:Middlewares/Third_Party/LwIP/src/core/ipv4/dhcp.c ****  * This enters the REBOOTING state to verify that the currently bound
 855:Middlewares/Third_Party/LwIP/src/core/ipv4/dhcp.c ****  * address is still valid.
 856:Middlewares/Third_Party/LwIP/src/core/ipv4/dhcp.c ****  */
 857:Middlewares/Third_Party/LwIP/src/core/ipv4/dhcp.c **** void
 858:Middlewares/Third_Party/LwIP/src/core/ipv4/dhcp.c **** dhcp_network_changed(struct netif *netif)
 859:Middlewares/Third_Party/LwIP/src/core/ipv4/dhcp.c **** {
 2042              		.loc 1 859 1
 2043              		.cfi_startproc
 2044              		@ args = 0, pretend = 0, frame = 16
 2045              		@ frame_needed = 1, uses_anonymous_args = 0
 2046 0000 80B5     		push	{r7, lr}
 2047              	.LCFI74:
 2048              		.cfi_def_cfa_offset 8
 2049              		.cfi_offset 7, -8
 2050              		.cfi_offset 14, -4
 2051 0002 84B0     		sub	sp, sp, #16
 2052              	.LCFI75:
 2053              		.cfi_def_cfa_offset 24
 2054 0004 00AF     		add	r7, sp, #0
 2055              	.LCFI76:
 2056              		.cfi_def_cfa_register 7
 2057 0006 7860     		str	r0, [r7, #4]
 860:Middlewares/Third_Party/LwIP/src/core/ipv4/dhcp.c ****   struct dhcp *dhcp = netif_dhcp_data(netif);
 2058              		.loc 1 860 16
 2059 0008 7B68     		ldr	r3, [r7, #4]
 2060 000a 5B6A     		ldr	r3, [r3, #36]
 2061 000c FB60     		str	r3, [r7, #12]
 861:Middlewares/Third_Party/LwIP/src/core/ipv4/dhcp.c **** 
 862:Middlewares/Third_Party/LwIP/src/core/ipv4/dhcp.c ****   if (!dhcp) {
 2062              		.loc 1 862 6
 2063 000e FB68     		ldr	r3, [r7, #12]
 2064 0010 002B     		cmp	r3, #0
 2065 0012 37D0     		beq	.L129
 863:Middlewares/Third_Party/LwIP/src/core/ipv4/dhcp.c ****     return;
 864:Middlewares/Third_Party/LwIP/src/core/ipv4/dhcp.c ****   }
 865:Middlewares/Third_Party/LwIP/src/core/ipv4/dhcp.c ****   switch (dhcp->state) {
 2066              		.loc 1 865 15
 2067 0014 FB68     		ldr	r3, [r7, #12]
 2068 0016 5B79     		ldrb	r3, [r3, #5]	@ zero_extendqisi2
ARM GAS  /tmp/ccsjw2Nr.s 			page 53


 2069              		.loc 1 865 3
 2070 0018 0A2B     		cmp	r3, #10
 2071 001a 20D8     		bhi	.L124
 2072 001c 01A2     		adr	r2, .L126
 2073 001e 52F823F0 		ldr	pc, [r2, r3, lsl #2]
 2074 0022 00BF     		.p2align 2
 2075              	.L126:
 2076 0024 89000000 		.word	.L130+1
 2077 0028 5F000000 		.word	.L124+1
 2078 002c 5F000000 		.word	.L124+1
 2079 0030 51000000 		.word	.L125+1
 2080 0034 51000000 		.word	.L125+1
 2081 0038 51000000 		.word	.L125+1
 2082 003c 5F000000 		.word	.L124+1
 2083 0040 5F000000 		.word	.L124+1
 2084 0044 5F000000 		.word	.L124+1
 2085 0048 5F000000 		.word	.L124+1
 2086 004c 51000000 		.word	.L125+1
 2087              		.p2align 1
 2088              	.L125:
 866:Middlewares/Third_Party/LwIP/src/core/ipv4/dhcp.c ****     case DHCP_STATE_REBINDING:
 867:Middlewares/Third_Party/LwIP/src/core/ipv4/dhcp.c ****     case DHCP_STATE_RENEWING:
 868:Middlewares/Third_Party/LwIP/src/core/ipv4/dhcp.c ****     case DHCP_STATE_BOUND:
 869:Middlewares/Third_Party/LwIP/src/core/ipv4/dhcp.c ****     case DHCP_STATE_REBOOTING:
 870:Middlewares/Third_Party/LwIP/src/core/ipv4/dhcp.c ****       dhcp->tries = 0;
 2089              		.loc 1 870 19
 2090 0050 FB68     		ldr	r3, [r7, #12]
 2091 0052 0022     		movs	r2, #0
 2092 0054 9A71     		strb	r2, [r3, #6]
 871:Middlewares/Third_Party/LwIP/src/core/ipv4/dhcp.c ****       dhcp_reboot(netif);
 2093              		.loc 1 871 7
 2094 0056 7868     		ldr	r0, [r7, #4]
 2095 0058 FFF7FEFF 		bl	dhcp_reboot
 872:Middlewares/Third_Party/LwIP/src/core/ipv4/dhcp.c ****       break;
 2096              		.loc 1 872 7
 2097 005c 15E0     		b	.L121
 2098              	.L124:
 873:Middlewares/Third_Party/LwIP/src/core/ipv4/dhcp.c ****     case DHCP_STATE_OFF:
 874:Middlewares/Third_Party/LwIP/src/core/ipv4/dhcp.c ****       /* stay off */
 875:Middlewares/Third_Party/LwIP/src/core/ipv4/dhcp.c ****       break;
 876:Middlewares/Third_Party/LwIP/src/core/ipv4/dhcp.c ****     default:
 877:Middlewares/Third_Party/LwIP/src/core/ipv4/dhcp.c ****       LWIP_ASSERT("invalid dhcp->state", dhcp->state <= DHCP_STATE_BACKING_OFF);
 2099              		.loc 1 877 7
 2100 005e FB68     		ldr	r3, [r7, #12]
 2101 0060 5B79     		ldrb	r3, [r3, #5]	@ zero_extendqisi2
 2102 0062 0C2B     		cmp	r3, #12
 2103 0064 06D9     		bls	.L128
 2104              		.loc 1 877 7 is_stmt 0 discriminator 1
 2105 0066 0A4B     		ldr	r3, .L131
 2106 0068 40F26D32 		movw	r2, #877
 2107 006c 0949     		ldr	r1, .L131+4
 2108 006e 0A48     		ldr	r0, .L131+8
 2109 0070 FFF7FEFF 		bl	printf
 2110              	.L128:
 878:Middlewares/Third_Party/LwIP/src/core/ipv4/dhcp.c ****       /* INIT/REQUESTING/CHECKING/BACKING_OFF restart with new 'rid' because the
 879:Middlewares/Third_Party/LwIP/src/core/ipv4/dhcp.c ****          state changes, SELECTING: continue with current 'rid' as we stay in the
 880:Middlewares/Third_Party/LwIP/src/core/ipv4/dhcp.c ****          same state */
ARM GAS  /tmp/ccsjw2Nr.s 			page 54


 881:Middlewares/Third_Party/LwIP/src/core/ipv4/dhcp.c **** #if LWIP_DHCP_AUTOIP_COOP
 882:Middlewares/Third_Party/LwIP/src/core/ipv4/dhcp.c ****       if (dhcp->autoip_coop_state == DHCP_AUTOIP_COOP_STATE_ON) {
 883:Middlewares/Third_Party/LwIP/src/core/ipv4/dhcp.c ****         autoip_stop(netif);
 884:Middlewares/Third_Party/LwIP/src/core/ipv4/dhcp.c ****         dhcp->autoip_coop_state = DHCP_AUTOIP_COOP_STATE_OFF;
 885:Middlewares/Third_Party/LwIP/src/core/ipv4/dhcp.c ****       }
 886:Middlewares/Third_Party/LwIP/src/core/ipv4/dhcp.c **** #endif /* LWIP_DHCP_AUTOIP_COOP */
 887:Middlewares/Third_Party/LwIP/src/core/ipv4/dhcp.c ****       /* ensure we start with short timeouts, even if already discovering */
 888:Middlewares/Third_Party/LwIP/src/core/ipv4/dhcp.c ****       dhcp->tries = 0;
 2111              		.loc 1 888 19 is_stmt 1
 2112 0074 FB68     		ldr	r3, [r7, #12]
 2113 0076 0022     		movs	r2, #0
 2114 0078 9A71     		strb	r2, [r3, #6]
 889:Middlewares/Third_Party/LwIP/src/core/ipv4/dhcp.c ****       dhcp_discover(netif);
 2115              		.loc 1 889 7
 2116 007a 7868     		ldr	r0, [r7, #4]
 2117 007c FFF7FEFF 		bl	dhcp_discover
 890:Middlewares/Third_Party/LwIP/src/core/ipv4/dhcp.c ****       break;
 2118              		.loc 1 890 7
 2119 0080 00BF     		nop
 2120 0082 02E0     		b	.L121
 2121              	.L129:
 863:Middlewares/Third_Party/LwIP/src/core/ipv4/dhcp.c ****   }
 2122              		.loc 1 863 5
 2123 0084 00BF     		nop
 2124 0086 00E0     		b	.L121
 2125              	.L130:
 875:Middlewares/Third_Party/LwIP/src/core/ipv4/dhcp.c ****     default:
 2126              		.loc 1 875 7
 2127 0088 00BF     		nop
 2128              	.L121:
 891:Middlewares/Third_Party/LwIP/src/core/ipv4/dhcp.c ****   }
 892:Middlewares/Third_Party/LwIP/src/core/ipv4/dhcp.c **** }
 2129              		.loc 1 892 1
 2130 008a 1037     		adds	r7, r7, #16
 2131              	.LCFI77:
 2132              		.cfi_def_cfa_offset 8
 2133 008c BD46     		mov	sp, r7
 2134              	.LCFI78:
 2135              		.cfi_def_cfa_register 13
 2136              		@ sp needed
 2137 008e 80BD     		pop	{r7, pc}
 2138              	.L132:
 2139              		.align	2
 2140              	.L131:
 2141 0090 00000000 		.word	.LC0
 2142 0094 48010000 		.word	.LC10
 2143 0098 5C000000 		.word	.LC2
 2144              		.cfi_endproc
 2145              	.LFE149:
 2147              		.section	.text.dhcp_arp_reply,"ax",%progbits
 2148              		.align	1
 2149              		.global	dhcp_arp_reply
 2150              		.syntax unified
 2151              		.thumb
 2152              		.thumb_func
 2153              		.fpu fpv4-sp-d16
 2155              	dhcp_arp_reply:
ARM GAS  /tmp/ccsjw2Nr.s 			page 55


 2156              	.LFB150:
 893:Middlewares/Third_Party/LwIP/src/core/ipv4/dhcp.c **** 
 894:Middlewares/Third_Party/LwIP/src/core/ipv4/dhcp.c **** #if DHCP_DOES_ARP_CHECK
 895:Middlewares/Third_Party/LwIP/src/core/ipv4/dhcp.c **** /**
 896:Middlewares/Third_Party/LwIP/src/core/ipv4/dhcp.c ****  * Match an ARP reply with the offered IP address:
 897:Middlewares/Third_Party/LwIP/src/core/ipv4/dhcp.c ****  * check whether the offered IP address is not in use using ARP
 898:Middlewares/Third_Party/LwIP/src/core/ipv4/dhcp.c ****  *
 899:Middlewares/Third_Party/LwIP/src/core/ipv4/dhcp.c ****  * @param netif the network interface on which the reply was received
 900:Middlewares/Third_Party/LwIP/src/core/ipv4/dhcp.c ****  * @param addr The IP address we received a reply from
 901:Middlewares/Third_Party/LwIP/src/core/ipv4/dhcp.c ****  */
 902:Middlewares/Third_Party/LwIP/src/core/ipv4/dhcp.c **** void
 903:Middlewares/Third_Party/LwIP/src/core/ipv4/dhcp.c **** dhcp_arp_reply(struct netif *netif, const ip4_addr_t *addr)
 904:Middlewares/Third_Party/LwIP/src/core/ipv4/dhcp.c **** {
 2157              		.loc 1 904 1
 2158              		.cfi_startproc
 2159              		@ args = 0, pretend = 0, frame = 16
 2160              		@ frame_needed = 1, uses_anonymous_args = 0
 2161 0000 80B5     		push	{r7, lr}
 2162              	.LCFI79:
 2163              		.cfi_def_cfa_offset 8
 2164              		.cfi_offset 7, -8
 2165              		.cfi_offset 14, -4
 2166 0002 84B0     		sub	sp, sp, #16
 2167              	.LCFI80:
 2168              		.cfi_def_cfa_offset 24
 2169 0004 00AF     		add	r7, sp, #0
 2170              	.LCFI81:
 2171              		.cfi_def_cfa_register 7
 2172 0006 7860     		str	r0, [r7, #4]
 2173 0008 3960     		str	r1, [r7]
 905:Middlewares/Third_Party/LwIP/src/core/ipv4/dhcp.c ****   struct dhcp *dhcp;
 906:Middlewares/Third_Party/LwIP/src/core/ipv4/dhcp.c **** 
 907:Middlewares/Third_Party/LwIP/src/core/ipv4/dhcp.c ****   LWIP_ERROR("netif != NULL", (netif != NULL), return;);
 2174              		.loc 1 907 3
 2175 000a 7B68     		ldr	r3, [r7, #4]
 2176 000c 002B     		cmp	r3, #0
 2177 000e 07D1     		bne	.L134
 2178              		.loc 1 907 3 is_stmt 0 discriminator 1
 2179 0010 0E4B     		ldr	r3, .L136
 2180 0012 40F28B32 		movw	r2, #907
 2181 0016 0E49     		ldr	r1, .L136+4
 2182 0018 0E48     		ldr	r0, .L136+8
 2183 001a FFF7FEFF 		bl	printf
 2184 001e 12E0     		b	.L133
 2185              	.L134:
 908:Middlewares/Third_Party/LwIP/src/core/ipv4/dhcp.c ****   dhcp = netif_dhcp_data(netif);
 2186              		.loc 1 908 8 is_stmt 1
 2187 0020 7B68     		ldr	r3, [r7, #4]
 2188 0022 5B6A     		ldr	r3, [r3, #36]
 2189 0024 FB60     		str	r3, [r7, #12]
 909:Middlewares/Third_Party/LwIP/src/core/ipv4/dhcp.c ****   LWIP_DEBUGF(DHCP_DEBUG | LWIP_DBG_TRACE, ("dhcp_arp_reply()\n"));
 910:Middlewares/Third_Party/LwIP/src/core/ipv4/dhcp.c ****   /* is a DHCP client doing an ARP check? */
 911:Middlewares/Third_Party/LwIP/src/core/ipv4/dhcp.c ****   if ((dhcp != NULL) && (dhcp->state == DHCP_STATE_CHECKING)) {
 2190              		.loc 1 911 6
 2191 0026 FB68     		ldr	r3, [r7, #12]
 2192 0028 002B     		cmp	r3, #0
 2193 002a 0CD0     		beq	.L133
ARM GAS  /tmp/ccsjw2Nr.s 			page 56


 2194              		.loc 1 911 30 discriminator 1
 2195 002c FB68     		ldr	r3, [r7, #12]
 2196 002e 5B79     		ldrb	r3, [r3, #5]	@ zero_extendqisi2
 2197              		.loc 1 911 22 discriminator 1
 2198 0030 082B     		cmp	r3, #8
 2199 0032 08D1     		bne	.L133
 912:Middlewares/Third_Party/LwIP/src/core/ipv4/dhcp.c ****     LWIP_DEBUGF(DHCP_DEBUG | LWIP_DBG_TRACE | LWIP_DBG_STATE, ("dhcp_arp_reply(): CHECKING, arp rep
 913:Middlewares/Third_Party/LwIP/src/core/ipv4/dhcp.c ****                 ip4_addr_get_u32(addr)));
 914:Middlewares/Third_Party/LwIP/src/core/ipv4/dhcp.c ****     /* did a host respond with the address we
 915:Middlewares/Third_Party/LwIP/src/core/ipv4/dhcp.c ****        were offered by the DHCP server? */
 916:Middlewares/Third_Party/LwIP/src/core/ipv4/dhcp.c ****     if (ip4_addr_cmp(addr, &dhcp->offered_ip_addr)) {
 2200              		.loc 1 916 9
 2201 0034 3B68     		ldr	r3, [r7]
 2202 0036 1A68     		ldr	r2, [r3]
 2203 0038 FB68     		ldr	r3, [r7, #12]
 2204 003a DB69     		ldr	r3, [r3, #28]
 2205              		.loc 1 916 8
 2206 003c 9A42     		cmp	r2, r3
 2207 003e 02D1     		bne	.L133
 917:Middlewares/Third_Party/LwIP/src/core/ipv4/dhcp.c ****       /* we will not accept the offered address */
 918:Middlewares/Third_Party/LwIP/src/core/ipv4/dhcp.c ****       LWIP_DEBUGF(DHCP_DEBUG | LWIP_DBG_TRACE | LWIP_DBG_STATE | LWIP_DBG_LEVEL_WARNING,
 919:Middlewares/Third_Party/LwIP/src/core/ipv4/dhcp.c ****                   ("dhcp_arp_reply(): arp reply matched with offered address, declining\n"));
 920:Middlewares/Third_Party/LwIP/src/core/ipv4/dhcp.c ****       dhcp_decline(netif);
 2208              		.loc 1 920 7
 2209 0040 7868     		ldr	r0, [r7, #4]
 2210 0042 FFF7FEFF 		bl	dhcp_decline
 2211              	.L133:
 921:Middlewares/Third_Party/LwIP/src/core/ipv4/dhcp.c ****     }
 922:Middlewares/Third_Party/LwIP/src/core/ipv4/dhcp.c ****   }
 923:Middlewares/Third_Party/LwIP/src/core/ipv4/dhcp.c **** }
 2212              		.loc 1 923 1
 2213 0046 1037     		adds	r7, r7, #16
 2214              	.LCFI82:
 2215              		.cfi_def_cfa_offset 8
 2216 0048 BD46     		mov	sp, r7
 2217              	.LCFI83:
 2218              		.cfi_def_cfa_register 13
 2219              		@ sp needed
 2220 004a 80BD     		pop	{r7, pc}
 2221              	.L137:
 2222              		.align	2
 2223              	.L136:
 2224 004c 00000000 		.word	.LC0
 2225 0050 E0000000 		.word	.LC6
 2226 0054 5C000000 		.word	.LC2
 2227              		.cfi_endproc
 2228              	.LFE150:
 2230              		.section	.text.dhcp_decline,"ax",%progbits
 2231              		.align	1
 2232              		.syntax unified
 2233              		.thumb
 2234              		.thumb_func
 2235              		.fpu fpv4-sp-d16
 2237              	dhcp_decline:
 2238              	.LFB151:
 924:Middlewares/Third_Party/LwIP/src/core/ipv4/dhcp.c **** 
 925:Middlewares/Third_Party/LwIP/src/core/ipv4/dhcp.c **** /**
ARM GAS  /tmp/ccsjw2Nr.s 			page 57


 926:Middlewares/Third_Party/LwIP/src/core/ipv4/dhcp.c ****  * Decline an offered lease.
 927:Middlewares/Third_Party/LwIP/src/core/ipv4/dhcp.c ****  *
 928:Middlewares/Third_Party/LwIP/src/core/ipv4/dhcp.c ****  * Tell the DHCP server we do not accept the offered address.
 929:Middlewares/Third_Party/LwIP/src/core/ipv4/dhcp.c ****  * One reason to decline the lease is when we find out the address
 930:Middlewares/Third_Party/LwIP/src/core/ipv4/dhcp.c ****  * is already in use by another host (through ARP).
 931:Middlewares/Third_Party/LwIP/src/core/ipv4/dhcp.c ****  *
 932:Middlewares/Third_Party/LwIP/src/core/ipv4/dhcp.c ****  * @param netif the netif under DHCP control
 933:Middlewares/Third_Party/LwIP/src/core/ipv4/dhcp.c ****  */
 934:Middlewares/Third_Party/LwIP/src/core/ipv4/dhcp.c **** static err_t
 935:Middlewares/Third_Party/LwIP/src/core/ipv4/dhcp.c **** dhcp_decline(struct netif *netif)
 936:Middlewares/Third_Party/LwIP/src/core/ipv4/dhcp.c **** {
 2239              		.loc 1 936 1
 2240              		.cfi_startproc
 2241              		@ args = 0, pretend = 0, frame = 32
 2242              		@ frame_needed = 1, uses_anonymous_args = 0
 2243 0000 B0B5     		push	{r4, r5, r7, lr}
 2244              	.LCFI84:
 2245              		.cfi_def_cfa_offset 16
 2246              		.cfi_offset 4, -16
 2247              		.cfi_offset 5, -12
 2248              		.cfi_offset 7, -8
 2249              		.cfi_offset 14, -4
 2250 0002 8AB0     		sub	sp, sp, #40
 2251              	.LCFI85:
 2252              		.cfi_def_cfa_offset 56
 2253 0004 02AF     		add	r7, sp, #8
 2254              	.LCFI86:
 2255              		.cfi_def_cfa 7, 48
 2256 0006 7860     		str	r0, [r7, #4]
 937:Middlewares/Third_Party/LwIP/src/core/ipv4/dhcp.c ****   struct dhcp *dhcp = netif_dhcp_data(netif);
 2257              		.loc 1 937 16
 2258 0008 7B68     		ldr	r3, [r7, #4]
 2259 000a 5B6A     		ldr	r3, [r3, #36]
 2260 000c BB61     		str	r3, [r7, #24]
 938:Middlewares/Third_Party/LwIP/src/core/ipv4/dhcp.c ****   err_t result;
 939:Middlewares/Third_Party/LwIP/src/core/ipv4/dhcp.c ****   u16_t msecs;
 940:Middlewares/Third_Party/LwIP/src/core/ipv4/dhcp.c ****   struct pbuf *p_out;
 941:Middlewares/Third_Party/LwIP/src/core/ipv4/dhcp.c ****   u16_t options_out_len;
 942:Middlewares/Third_Party/LwIP/src/core/ipv4/dhcp.c **** 
 943:Middlewares/Third_Party/LwIP/src/core/ipv4/dhcp.c ****   LWIP_DEBUGF(DHCP_DEBUG | LWIP_DBG_TRACE, ("dhcp_decline()\n"));
 944:Middlewares/Third_Party/LwIP/src/core/ipv4/dhcp.c ****   dhcp_set_state(dhcp, DHCP_STATE_BACKING_OFF);
 2261              		.loc 1 944 3
 2262 000e 0C21     		movs	r1, #12
 2263 0010 B869     		ldr	r0, [r7, #24]
 2264 0012 FFF7FEFF 		bl	dhcp_set_state
 945:Middlewares/Third_Party/LwIP/src/core/ipv4/dhcp.c ****   /* create and initialize the DHCP message header */
 946:Middlewares/Third_Party/LwIP/src/core/ipv4/dhcp.c ****   p_out = dhcp_create_msg(netif, dhcp, DHCP_DECLINE, &options_out_len);
 2265              		.loc 1 946 11
 2266 0016 07F10C03 		add	r3, r7, #12
 2267 001a 0422     		movs	r2, #4
 2268 001c B969     		ldr	r1, [r7, #24]
 2269 001e 7868     		ldr	r0, [r7, #4]
 2270 0020 FFF7FEFF 		bl	dhcp_create_msg
 2271 0024 7861     		str	r0, [r7, #20]
 947:Middlewares/Third_Party/LwIP/src/core/ipv4/dhcp.c ****   if (p_out != NULL) {
 2272              		.loc 1 947 6
 2273 0026 7B69     		ldr	r3, [r7, #20]
ARM GAS  /tmp/ccsjw2Nr.s 			page 58


 2274 0028 002B     		cmp	r3, #0
 2275 002a 35D0     		beq	.L139
 2276              	.LBB6:
 948:Middlewares/Third_Party/LwIP/src/core/ipv4/dhcp.c ****     struct dhcp_msg *msg_out = (struct dhcp_msg *)p_out->payload;
 2277              		.loc 1 948 22
 2278 002c 7B69     		ldr	r3, [r7, #20]
 2279 002e 5B68     		ldr	r3, [r3, #4]
 2280 0030 3B61     		str	r3, [r7, #16]
 949:Middlewares/Third_Party/LwIP/src/core/ipv4/dhcp.c ****     options_out_len = dhcp_option(options_out_len, msg_out->options, DHCP_OPTION_REQUESTED_IP, 4);
 2281              		.loc 1 949 23
 2282 0032 B889     		ldrh	r0, [r7, #12]
 2283              		.loc 1 949 59
 2284 0034 3B69     		ldr	r3, [r7, #16]
 2285 0036 03F1F001 		add	r1, r3, #240
 2286              		.loc 1 949 23
 2287 003a 0423     		movs	r3, #4
 2288 003c 3222     		movs	r2, #50
 2289 003e FFF7FEFF 		bl	dhcp_option
 2290 0042 0346     		mov	r3, r0
 2291              		.loc 1 949 21
 2292 0044 BB81     		strh	r3, [r7, #12]	@ movhi
 950:Middlewares/Third_Party/LwIP/src/core/ipv4/dhcp.c ****     options_out_len = dhcp_option_long(options_out_len, msg_out->options, lwip_ntohl(ip4_addr_get_u
 2293              		.loc 1 950 23
 2294 0046 BC89     		ldrh	r4, [r7, #12]
 2295              		.loc 1 950 64
 2296 0048 3B69     		ldr	r3, [r7, #16]
 2297 004a 03F1F005 		add	r5, r3, #240
 2298              		.loc 1 950 23
 2299 004e BB69     		ldr	r3, [r7, #24]
 2300 0050 DB69     		ldr	r3, [r3, #28]
 2301 0052 1846     		mov	r0, r3
 2302 0054 FFF7FEFF 		bl	lwip_htonl
 2303 0058 0346     		mov	r3, r0
 2304 005a 1A46     		mov	r2, r3
 2305 005c 2946     		mov	r1, r5
 2306 005e 2046     		mov	r0, r4
 2307 0060 FFF7FEFF 		bl	dhcp_option_long
 2308 0064 0346     		mov	r3, r0
 2309              		.loc 1 950 21
 2310 0066 BB81     		strh	r3, [r7, #12]	@ movhi
 951:Middlewares/Third_Party/LwIP/src/core/ipv4/dhcp.c **** 
 952:Middlewares/Third_Party/LwIP/src/core/ipv4/dhcp.c ****     LWIP_HOOK_DHCP_APPEND_OPTIONS(netif, dhcp, DHCP_STATE_BACKING_OFF, msg_out, DHCP_DECLINE, &opti
 953:Middlewares/Third_Party/LwIP/src/core/ipv4/dhcp.c ****     dhcp_option_trailer(options_out_len, msg_out->options, p_out);
 2311              		.loc 1 953 5
 2312 0068 B889     		ldrh	r0, [r7, #12]
 2313              		.loc 1 953 49
 2314 006a 3B69     		ldr	r3, [r7, #16]
 2315 006c F033     		adds	r3, r3, #240
 2316              		.loc 1 953 5
 2317 006e 7A69     		ldr	r2, [r7, #20]
 2318 0070 1946     		mov	r1, r3
 2319 0072 FFF7FEFF 		bl	dhcp_option_trailer
 954:Middlewares/Third_Party/LwIP/src/core/ipv4/dhcp.c **** 
 955:Middlewares/Third_Party/LwIP/src/core/ipv4/dhcp.c ****     /* per section 4.4.4, broadcast DECLINE messages */
 956:Middlewares/Third_Party/LwIP/src/core/ipv4/dhcp.c ****     result = udp_sendto_if_src(dhcp_pcb, p_out, IP_ADDR_BROADCAST, LWIP_IANA_PORT_DHCP_SERVER, neti
 2320              		.loc 1 956 14
 2321 0076 194B     		ldr	r3, .L143
ARM GAS  /tmp/ccsjw2Nr.s 			page 59


 2322 0078 1868     		ldr	r0, [r3]
 2323 007a 194B     		ldr	r3, .L143+4
 2324 007c 0193     		str	r3, [sp, #4]
 2325 007e 7B68     		ldr	r3, [r7, #4]
 2326 0080 0093     		str	r3, [sp]
 2327 0082 4323     		movs	r3, #67
 2328 0084 174A     		ldr	r2, .L143+8
 2329 0086 7969     		ldr	r1, [r7, #20]
 2330 0088 FFF7FEFF 		bl	udp_sendto_if_src
 2331 008c 0346     		mov	r3, r0
 2332 008e FB77     		strb	r3, [r7, #31]
 957:Middlewares/Third_Party/LwIP/src/core/ipv4/dhcp.c ****     pbuf_free(p_out);
 2333              		.loc 1 957 5
 2334 0090 7869     		ldr	r0, [r7, #20]
 2335 0092 FFF7FEFF 		bl	pbuf_free
 2336              	.LBE6:
 2337 0096 01E0     		b	.L140
 2338              	.L139:
 958:Middlewares/Third_Party/LwIP/src/core/ipv4/dhcp.c ****     LWIP_DEBUGF(DHCP_DEBUG | LWIP_DBG_TRACE | LWIP_DBG_STATE, ("dhcp_decline: BACKING OFF\n"));
 959:Middlewares/Third_Party/LwIP/src/core/ipv4/dhcp.c ****   } else {
 960:Middlewares/Third_Party/LwIP/src/core/ipv4/dhcp.c ****     LWIP_DEBUGF(DHCP_DEBUG | LWIP_DBG_TRACE | LWIP_DBG_LEVEL_SERIOUS,
 961:Middlewares/Third_Party/LwIP/src/core/ipv4/dhcp.c ****                 ("dhcp_decline: could not allocate DHCP request\n"));
 962:Middlewares/Third_Party/LwIP/src/core/ipv4/dhcp.c ****     result = ERR_MEM;
 2339              		.loc 1 962 12
 2340 0098 FF23     		movs	r3, #255
 2341 009a FB77     		strb	r3, [r7, #31]
 2342              	.L140:
 963:Middlewares/Third_Party/LwIP/src/core/ipv4/dhcp.c ****   }
 964:Middlewares/Third_Party/LwIP/src/core/ipv4/dhcp.c ****   if (dhcp->tries < 255) {
 2343              		.loc 1 964 11
 2344 009c BB69     		ldr	r3, [r7, #24]
 2345 009e 9B79     		ldrb	r3, [r3, #6]	@ zero_extendqisi2
 2346              		.loc 1 964 6
 2347 00a0 FF2B     		cmp	r3, #255
 2348 00a2 05D0     		beq	.L141
 965:Middlewares/Third_Party/LwIP/src/core/ipv4/dhcp.c ****     dhcp->tries++;
 2349              		.loc 1 965 9
 2350 00a4 BB69     		ldr	r3, [r7, #24]
 2351 00a6 9B79     		ldrb	r3, [r3, #6]	@ zero_extendqisi2
 2352              		.loc 1 965 16
 2353 00a8 0133     		adds	r3, r3, #1
 2354 00aa DAB2     		uxtb	r2, r3
 2355 00ac BB69     		ldr	r3, [r7, #24]
 2356 00ae 9A71     		strb	r2, [r3, #6]
 2357              	.L141:
 966:Middlewares/Third_Party/LwIP/src/core/ipv4/dhcp.c ****   }
 967:Middlewares/Third_Party/LwIP/src/core/ipv4/dhcp.c ****   msecs = 10 * 1000;
 2358              		.loc 1 967 9
 2359 00b0 42F21073 		movw	r3, #10000
 2360 00b4 FB81     		strh	r3, [r7, #14]	@ movhi
 968:Middlewares/Third_Party/LwIP/src/core/ipv4/dhcp.c ****   dhcp->request_timeout = (u16_t)((msecs + DHCP_FINE_TIMER_MSECS - 1) / DHCP_FINE_TIMER_MSECS);
 2361              		.loc 1 968 66
 2362 00b6 FB89     		ldrh	r3, [r7, #14]
 2363 00b8 03F2F313 		addw	r3, r3, #499
 2364              		.loc 1 968 71
 2365 00bc 0A4A     		ldr	r2, .L143+12
 2366 00be 82FB0312 		smull	r1, r2, r2, r3
ARM GAS  /tmp/ccsjw2Nr.s 			page 60


 2367 00c2 5211     		asrs	r2, r2, #5
 2368 00c4 DB17     		asrs	r3, r3, #31
 2369 00c6 D31A     		subs	r3, r2, r3
 2370              		.loc 1 968 27
 2371 00c8 9AB2     		uxth	r2, r3
 2372              		.loc 1 968 25
 2373 00ca BB69     		ldr	r3, [r7, #24]
 2374 00cc 1A81     		strh	r2, [r3, #8]	@ movhi
 969:Middlewares/Third_Party/LwIP/src/core/ipv4/dhcp.c ****   LWIP_DEBUGF(DHCP_DEBUG | LWIP_DBG_TRACE, ("dhcp_decline(): set request timeout %"U16_F" msecs\n",
 970:Middlewares/Third_Party/LwIP/src/core/ipv4/dhcp.c ****   return result;
 2375              		.loc 1 970 10
 2376 00ce 97F91F30 		ldrsb	r3, [r7, #31]
 971:Middlewares/Third_Party/LwIP/src/core/ipv4/dhcp.c **** }
 2377              		.loc 1 971 1
 2378 00d2 1846     		mov	r0, r3
 2379 00d4 2037     		adds	r7, r7, #32
 2380              	.LCFI87:
 2381              		.cfi_def_cfa_offset 16
 2382 00d6 BD46     		mov	sp, r7
 2383              	.LCFI88:
 2384              		.cfi_def_cfa_register 13
 2385              		@ sp needed
 2386 00d8 B0BD     		pop	{r4, r5, r7, pc}
 2387              	.L144:
 2388 00da 00BF     		.align	2
 2389              	.L143:
 2390 00dc 00000000 		.word	dhcp_pcb
 2391 00e0 00000000 		.word	ip_addr_any
 2392 00e4 00000000 		.word	ip_addr_broadcast
 2393 00e8 D34D6210 		.word	274877907
 2394              		.cfi_endproc
 2395              	.LFE151:
 2397              		.section	.text.dhcp_discover,"ax",%progbits
 2398              		.align	1
 2399              		.syntax unified
 2400              		.thumb
 2401              		.thumb_func
 2402              		.fpu fpv4-sp-d16
 2404              	dhcp_discover:
 2405              	.LFB152:
 972:Middlewares/Third_Party/LwIP/src/core/ipv4/dhcp.c **** #endif /* DHCP_DOES_ARP_CHECK */
 973:Middlewares/Third_Party/LwIP/src/core/ipv4/dhcp.c **** 
 974:Middlewares/Third_Party/LwIP/src/core/ipv4/dhcp.c **** 
 975:Middlewares/Third_Party/LwIP/src/core/ipv4/dhcp.c **** /**
 976:Middlewares/Third_Party/LwIP/src/core/ipv4/dhcp.c ****  * Start the DHCP process, discover a DHCP server.
 977:Middlewares/Third_Party/LwIP/src/core/ipv4/dhcp.c ****  *
 978:Middlewares/Third_Party/LwIP/src/core/ipv4/dhcp.c ****  * @param netif the netif under DHCP control
 979:Middlewares/Third_Party/LwIP/src/core/ipv4/dhcp.c ****  */
 980:Middlewares/Third_Party/LwIP/src/core/ipv4/dhcp.c **** static err_t
 981:Middlewares/Third_Party/LwIP/src/core/ipv4/dhcp.c **** dhcp_discover(struct netif *netif)
 982:Middlewares/Third_Party/LwIP/src/core/ipv4/dhcp.c **** {
 2406              		.loc 1 982 1
 2407              		.cfi_startproc
 2408              		@ args = 0, pretend = 0, frame = 32
 2409              		@ frame_needed = 1, uses_anonymous_args = 0
 2410 0000 80B5     		push	{r7, lr}
 2411              	.LCFI89:
ARM GAS  /tmp/ccsjw2Nr.s 			page 61


 2412              		.cfi_def_cfa_offset 8
 2413              		.cfi_offset 7, -8
 2414              		.cfi_offset 14, -4
 2415 0002 8AB0     		sub	sp, sp, #40
 2416              	.LCFI90:
 2417              		.cfi_def_cfa_offset 48
 2418 0004 02AF     		add	r7, sp, #8
 2419              	.LCFI91:
 2420              		.cfi_def_cfa 7, 40
 2421 0006 7860     		str	r0, [r7, #4]
 983:Middlewares/Third_Party/LwIP/src/core/ipv4/dhcp.c ****   struct dhcp *dhcp = netif_dhcp_data(netif);
 2422              		.loc 1 983 16
 2423 0008 7B68     		ldr	r3, [r7, #4]
 2424 000a 5B6A     		ldr	r3, [r3, #36]
 2425 000c BB61     		str	r3, [r7, #24]
 984:Middlewares/Third_Party/LwIP/src/core/ipv4/dhcp.c ****   err_t result = ERR_OK;
 2426              		.loc 1 984 9
 2427 000e 0023     		movs	r3, #0
 2428 0010 FB75     		strb	r3, [r7, #23]
 985:Middlewares/Third_Party/LwIP/src/core/ipv4/dhcp.c ****   u16_t msecs;
 986:Middlewares/Third_Party/LwIP/src/core/ipv4/dhcp.c ****   u8_t i;
 987:Middlewares/Third_Party/LwIP/src/core/ipv4/dhcp.c ****   struct pbuf *p_out;
 988:Middlewares/Third_Party/LwIP/src/core/ipv4/dhcp.c ****   u16_t options_out_len;
 989:Middlewares/Third_Party/LwIP/src/core/ipv4/dhcp.c **** 
 990:Middlewares/Third_Party/LwIP/src/core/ipv4/dhcp.c ****   LWIP_DEBUGF(DHCP_DEBUG | LWIP_DBG_TRACE, ("dhcp_discover()\n"));
 991:Middlewares/Third_Party/LwIP/src/core/ipv4/dhcp.c **** 
 992:Middlewares/Third_Party/LwIP/src/core/ipv4/dhcp.c ****   ip4_addr_set_any(&dhcp->offered_ip_addr);
 2429              		.loc 1 992 3
 2430 0012 BB69     		ldr	r3, [r7, #24]
 2431 0014 0022     		movs	r2, #0
 2432 0016 DA61     		str	r2, [r3, #28]
 993:Middlewares/Third_Party/LwIP/src/core/ipv4/dhcp.c ****   dhcp_set_state(dhcp, DHCP_STATE_SELECTING);
 2433              		.loc 1 993 3
 2434 0018 0621     		movs	r1, #6
 2435 001a B869     		ldr	r0, [r7, #24]
 2436 001c FFF7FEFF 		bl	dhcp_set_state
 994:Middlewares/Third_Party/LwIP/src/core/ipv4/dhcp.c ****   /* create and initialize the DHCP message header */
 995:Middlewares/Third_Party/LwIP/src/core/ipv4/dhcp.c ****   p_out = dhcp_create_msg(netif, dhcp, DHCP_DISCOVER, &options_out_len);
 2437              		.loc 1 995 11
 2438 0020 07F10803 		add	r3, r7, #8
 2439 0024 0122     		movs	r2, #1
 2440 0026 B969     		ldr	r1, [r7, #24]
 2441 0028 7868     		ldr	r0, [r7, #4]
 2442 002a FFF7FEFF 		bl	dhcp_create_msg
 2443 002e 3861     		str	r0, [r7, #16]
 996:Middlewares/Third_Party/LwIP/src/core/ipv4/dhcp.c ****   if (p_out != NULL) {
 2444              		.loc 1 996 6
 2445 0030 3B69     		ldr	r3, [r7, #16]
 2446 0032 002B     		cmp	r3, #0
 2447 0034 4BD0     		beq	.L146
 2448              	.LBB7:
 997:Middlewares/Third_Party/LwIP/src/core/ipv4/dhcp.c ****     struct dhcp_msg *msg_out = (struct dhcp_msg *)p_out->payload;
 2449              		.loc 1 997 22
 2450 0036 3B69     		ldr	r3, [r7, #16]
 2451 0038 5B68     		ldr	r3, [r3, #4]
 2452 003a FB60     		str	r3, [r7, #12]
 998:Middlewares/Third_Party/LwIP/src/core/ipv4/dhcp.c ****     LWIP_DEBUGF(DHCP_DEBUG | LWIP_DBG_TRACE, ("dhcp_discover: making request\n"));
ARM GAS  /tmp/ccsjw2Nr.s 			page 62


 999:Middlewares/Third_Party/LwIP/src/core/ipv4/dhcp.c **** 
1000:Middlewares/Third_Party/LwIP/src/core/ipv4/dhcp.c ****     options_out_len = dhcp_option(options_out_len, msg_out->options, DHCP_OPTION_MAX_MSG_SIZE, DHCP
 2453              		.loc 1 1000 23
 2454 003c 3889     		ldrh	r0, [r7, #8]
 2455              		.loc 1 1000 59
 2456 003e FB68     		ldr	r3, [r7, #12]
 2457 0040 03F1F001 		add	r1, r3, #240
 2458              		.loc 1 1000 23
 2459 0044 0223     		movs	r3, #2
 2460 0046 3922     		movs	r2, #57
 2461 0048 FFF7FEFF 		bl	dhcp_option
 2462 004c 0346     		mov	r3, r0
 2463              		.loc 1 1000 21
 2464 004e 3B81     		strh	r3, [r7, #8]	@ movhi
1001:Middlewares/Third_Party/LwIP/src/core/ipv4/dhcp.c ****     options_out_len = dhcp_option_short(options_out_len, msg_out->options, DHCP_MAX_MSG_LEN(netif))
 2465              		.loc 1 1001 23
 2466 0050 3889     		ldrh	r0, [r7, #8]
 2467              		.loc 1 1001 65
 2468 0052 FB68     		ldr	r3, [r7, #12]
 2469 0054 03F1F001 		add	r1, r3, #240
 2470              		.loc 1 1001 23
 2471 0058 7B68     		ldr	r3, [r7, #4]
 2472 005a 1B8D     		ldrh	r3, [r3, #40]
 2473 005c 1A46     		mov	r2, r3
 2474 005e FFF7FEFF 		bl	dhcp_option_short
 2475 0062 0346     		mov	r3, r0
 2476              		.loc 1 1001 21
 2477 0064 3B81     		strh	r3, [r7, #8]	@ movhi
1002:Middlewares/Third_Party/LwIP/src/core/ipv4/dhcp.c **** 
1003:Middlewares/Third_Party/LwIP/src/core/ipv4/dhcp.c ****     options_out_len = dhcp_option(options_out_len, msg_out->options, DHCP_OPTION_PARAMETER_REQUEST_
 2478              		.loc 1 1003 23
 2479 0066 3889     		ldrh	r0, [r7, #8]
 2480              		.loc 1 1003 59
 2481 0068 FB68     		ldr	r3, [r7, #12]
 2482 006a 03F1F001 		add	r1, r3, #240
 2483              		.loc 1 1003 23
 2484 006e 0323     		movs	r3, #3
 2485 0070 3722     		movs	r2, #55
 2486 0072 FFF7FEFF 		bl	dhcp_option
 2487 0076 0346     		mov	r3, r0
 2488              		.loc 1 1003 21
 2489 0078 3B81     		strh	r3, [r7, #8]	@ movhi
1004:Middlewares/Third_Party/LwIP/src/core/ipv4/dhcp.c ****     for (i = 0; i < LWIP_ARRAYSIZE(dhcp_discover_request_options); i++) {
 2490              		.loc 1 1004 12
 2491 007a 0023     		movs	r3, #0
 2492 007c FB77     		strb	r3, [r7, #31]
 2493              		.loc 1 1004 5
 2494 007e 0EE0     		b	.L147
 2495              	.L148:
1005:Middlewares/Third_Party/LwIP/src/core/ipv4/dhcp.c ****       options_out_len = dhcp_option_byte(options_out_len, msg_out->options, dhcp_discover_request_o
 2496              		.loc 1 1005 25 discriminator 3
 2497 0080 3889     		ldrh	r0, [r7, #8]
 2498              		.loc 1 1005 66 discriminator 3
 2499 0082 FB68     		ldr	r3, [r7, #12]
 2500 0084 03F1F001 		add	r1, r3, #240
 2501              		.loc 1 1005 25 discriminator 3
 2502 0088 FB7F     		ldrb	r3, [r7, #31]	@ zero_extendqisi2
ARM GAS  /tmp/ccsjw2Nr.s 			page 63


 2503 008a 294A     		ldr	r2, .L153
 2504 008c D35C     		ldrb	r3, [r2, r3]	@ zero_extendqisi2
 2505 008e 1A46     		mov	r2, r3
 2506 0090 FFF7FEFF 		bl	dhcp_option_byte
 2507 0094 0346     		mov	r3, r0
 2508              		.loc 1 1005 23 discriminator 3
 2509 0096 3B81     		strh	r3, [r7, #8]	@ movhi
1004:Middlewares/Third_Party/LwIP/src/core/ipv4/dhcp.c ****     for (i = 0; i < LWIP_ARRAYSIZE(dhcp_discover_request_options); i++) {
 2510              		.loc 1 1004 69 discriminator 3
 2511 0098 FB7F     		ldrb	r3, [r7, #31]	@ zero_extendqisi2
 2512 009a 0133     		adds	r3, r3, #1
 2513 009c FB77     		strb	r3, [r7, #31]
 2514              	.L147:
1004:Middlewares/Third_Party/LwIP/src/core/ipv4/dhcp.c ****     for (i = 0; i < LWIP_ARRAYSIZE(dhcp_discover_request_options); i++) {
 2515              		.loc 1 1004 5 discriminator 1
 2516 009e FB7F     		ldrb	r3, [r7, #31]	@ zero_extendqisi2
 2517 00a0 022B     		cmp	r3, #2
 2518 00a2 EDD9     		bls	.L148
1006:Middlewares/Third_Party/LwIP/src/core/ipv4/dhcp.c ****     }
1007:Middlewares/Third_Party/LwIP/src/core/ipv4/dhcp.c ****     LWIP_HOOK_DHCP_APPEND_OPTIONS(netif, dhcp, DHCP_STATE_SELECTING, msg_out, DHCP_DISCOVER, &optio
1008:Middlewares/Third_Party/LwIP/src/core/ipv4/dhcp.c ****     dhcp_option_trailer(options_out_len, msg_out->options, p_out);
 2519              		.loc 1 1008 5
 2520 00a4 3889     		ldrh	r0, [r7, #8]
 2521              		.loc 1 1008 49
 2522 00a6 FB68     		ldr	r3, [r7, #12]
 2523 00a8 F033     		adds	r3, r3, #240
 2524              		.loc 1 1008 5
 2525 00aa 3A69     		ldr	r2, [r7, #16]
 2526 00ac 1946     		mov	r1, r3
 2527 00ae FFF7FEFF 		bl	dhcp_option_trailer
1009:Middlewares/Third_Party/LwIP/src/core/ipv4/dhcp.c **** 
1010:Middlewares/Third_Party/LwIP/src/core/ipv4/dhcp.c ****     LWIP_DEBUGF(DHCP_DEBUG | LWIP_DBG_TRACE, ("dhcp_discover: sendto(DISCOVER, IP_ADDR_BROADCAST, L
1011:Middlewares/Third_Party/LwIP/src/core/ipv4/dhcp.c ****     udp_sendto_if_src(dhcp_pcb, p_out, IP_ADDR_BROADCAST, LWIP_IANA_PORT_DHCP_SERVER, netif, IP4_AD
 2528              		.loc 1 1011 5
 2529 00b2 204B     		ldr	r3, .L153+4
 2530 00b4 1868     		ldr	r0, [r3]
 2531 00b6 204B     		ldr	r3, .L153+8
 2532 00b8 0193     		str	r3, [sp, #4]
 2533 00ba 7B68     		ldr	r3, [r7, #4]
 2534 00bc 0093     		str	r3, [sp]
 2535 00be 4323     		movs	r3, #67
 2536 00c0 1E4A     		ldr	r2, .L153+12
 2537 00c2 3969     		ldr	r1, [r7, #16]
 2538 00c4 FFF7FEFF 		bl	udp_sendto_if_src
1012:Middlewares/Third_Party/LwIP/src/core/ipv4/dhcp.c ****     LWIP_DEBUGF(DHCP_DEBUG | LWIP_DBG_TRACE, ("dhcp_discover: deleting()ing\n"));
1013:Middlewares/Third_Party/LwIP/src/core/ipv4/dhcp.c ****     pbuf_free(p_out);
 2539              		.loc 1 1013 5
 2540 00c8 3869     		ldr	r0, [r7, #16]
 2541 00ca FFF7FEFF 		bl	pbuf_free
 2542              	.L146:
 2543              	.LBE7:
1014:Middlewares/Third_Party/LwIP/src/core/ipv4/dhcp.c ****     LWIP_DEBUGF(DHCP_DEBUG | LWIP_DBG_TRACE | LWIP_DBG_STATE, ("dhcp_discover: SELECTING\n"));
1015:Middlewares/Third_Party/LwIP/src/core/ipv4/dhcp.c ****   } else {
1016:Middlewares/Third_Party/LwIP/src/core/ipv4/dhcp.c ****     LWIP_DEBUGF(DHCP_DEBUG | LWIP_DBG_TRACE | LWIP_DBG_LEVEL_SERIOUS, ("dhcp_discover: could not al
1017:Middlewares/Third_Party/LwIP/src/core/ipv4/dhcp.c ****   }
1018:Middlewares/Third_Party/LwIP/src/core/ipv4/dhcp.c ****   if (dhcp->tries < 255) {
 2544              		.loc 1 1018 11
ARM GAS  /tmp/ccsjw2Nr.s 			page 64


 2545 00ce BB69     		ldr	r3, [r7, #24]
 2546 00d0 9B79     		ldrb	r3, [r3, #6]	@ zero_extendqisi2
 2547              		.loc 1 1018 6
 2548 00d2 FF2B     		cmp	r3, #255
 2549 00d4 05D0     		beq	.L149
1019:Middlewares/Third_Party/LwIP/src/core/ipv4/dhcp.c ****     dhcp->tries++;
 2550              		.loc 1 1019 9
 2551 00d6 BB69     		ldr	r3, [r7, #24]
 2552 00d8 9B79     		ldrb	r3, [r3, #6]	@ zero_extendqisi2
 2553              		.loc 1 1019 16
 2554 00da 0133     		adds	r3, r3, #1
 2555 00dc DAB2     		uxtb	r2, r3
 2556 00de BB69     		ldr	r3, [r7, #24]
 2557 00e0 9A71     		strb	r2, [r3, #6]
 2558              	.L149:
1020:Middlewares/Third_Party/LwIP/src/core/ipv4/dhcp.c ****   }
1021:Middlewares/Third_Party/LwIP/src/core/ipv4/dhcp.c **** #if LWIP_DHCP_AUTOIP_COOP
1022:Middlewares/Third_Party/LwIP/src/core/ipv4/dhcp.c ****   if (dhcp->tries >= LWIP_DHCP_AUTOIP_COOP_TRIES && dhcp->autoip_coop_state == DHCP_AUTOIP_COOP_STA
1023:Middlewares/Third_Party/LwIP/src/core/ipv4/dhcp.c ****     dhcp->autoip_coop_state = DHCP_AUTOIP_COOP_STATE_ON;
1024:Middlewares/Third_Party/LwIP/src/core/ipv4/dhcp.c ****     autoip_start(netif);
1025:Middlewares/Third_Party/LwIP/src/core/ipv4/dhcp.c ****   }
1026:Middlewares/Third_Party/LwIP/src/core/ipv4/dhcp.c **** #endif /* LWIP_DHCP_AUTOIP_COOP */
1027:Middlewares/Third_Party/LwIP/src/core/ipv4/dhcp.c ****   msecs = (u16_t)((dhcp->tries < 6 ? 1 << dhcp->tries : 60) * 1000);
 2559              		.loc 1 1027 24
 2560 00e2 BB69     		ldr	r3, [r7, #24]
 2561 00e4 9B79     		ldrb	r3, [r3, #6]	@ zero_extendqisi2
 2562              		.loc 1 1027 11
 2563 00e6 052B     		cmp	r3, #5
 2564 00e8 0DD8     		bhi	.L150
 2565              		.loc 1 1027 47 discriminator 1
 2566 00ea BB69     		ldr	r3, [r7, #24]
 2567 00ec 9B79     		ldrb	r3, [r3, #6]	@ zero_extendqisi2
 2568 00ee 1A46     		mov	r2, r3
 2569              		.loc 1 1027 40 discriminator 1
 2570 00f0 0123     		movs	r3, #1
 2571 00f2 9340     		lsls	r3, r3, r2
 2572              		.loc 1 1027 11 discriminator 1
 2573 00f4 9BB2     		uxth	r3, r3
 2574 00f6 1A46     		mov	r2, r3	@ movhi
 2575 00f8 5201     		lsls	r2, r2, #5
 2576 00fa D21A     		subs	r2, r2, r3
 2577 00fc 9200     		lsls	r2, r2, #2
 2578 00fe 1344     		add	r3, r3, r2
 2579 0100 DB00     		lsls	r3, r3, #3
 2580 0102 9BB2     		uxth	r3, r3
 2581 0104 01E0     		b	.L151
 2582              	.L150:
 2583              		.loc 1 1027 11 is_stmt 0 discriminator 2
 2584 0106 4EF66023 		movw	r3, #60000
 2585              	.L151:
 2586              		.loc 1 1027 9 is_stmt 1 discriminator 4
 2587 010a 7B81     		strh	r3, [r7, #10]	@ movhi
1028:Middlewares/Third_Party/LwIP/src/core/ipv4/dhcp.c ****   dhcp->request_timeout = (u16_t)((msecs + DHCP_FINE_TIMER_MSECS - 1) / DHCP_FINE_TIMER_MSECS);
 2588              		.loc 1 1028 66 discriminator 4
 2589 010c 7B89     		ldrh	r3, [r7, #10]
 2590 010e 03F2F313 		addw	r3, r3, #499
 2591              		.loc 1 1028 71 discriminator 4
ARM GAS  /tmp/ccsjw2Nr.s 			page 65


 2592 0112 0B4A     		ldr	r2, .L153+16
 2593 0114 82FB0312 		smull	r1, r2, r2, r3
 2594 0118 5211     		asrs	r2, r2, #5
 2595 011a DB17     		asrs	r3, r3, #31
 2596 011c D31A     		subs	r3, r2, r3
 2597              		.loc 1 1028 27 discriminator 4
 2598 011e 9AB2     		uxth	r2, r3
 2599              		.loc 1 1028 25 discriminator 4
 2600 0120 BB69     		ldr	r3, [r7, #24]
 2601 0122 1A81     		strh	r2, [r3, #8]	@ movhi
1029:Middlewares/Third_Party/LwIP/src/core/ipv4/dhcp.c ****   LWIP_DEBUGF(DHCP_DEBUG | LWIP_DBG_TRACE | LWIP_DBG_STATE, ("dhcp_discover(): set request timeout 
1030:Middlewares/Third_Party/LwIP/src/core/ipv4/dhcp.c ****   return result;
 2602              		.loc 1 1030 10 discriminator 4
 2603 0124 97F91730 		ldrsb	r3, [r7, #23]
1031:Middlewares/Third_Party/LwIP/src/core/ipv4/dhcp.c **** }
 2604              		.loc 1 1031 1 discriminator 4
 2605 0128 1846     		mov	r0, r3
 2606 012a 2037     		adds	r7, r7, #32
 2607              	.LCFI92:
 2608              		.cfi_def_cfa_offset 8
 2609 012c BD46     		mov	sp, r7
 2610              	.LCFI93:
 2611              		.cfi_def_cfa_register 13
 2612              		@ sp needed
 2613 012e 80BD     		pop	{r7, pc}
 2614              	.L154:
 2615              		.align	2
 2616              	.L153:
 2617 0130 00000000 		.word	dhcp_discover_request_options
 2618 0134 00000000 		.word	dhcp_pcb
 2619 0138 00000000 		.word	ip_addr_any
 2620 013c 00000000 		.word	ip_addr_broadcast
 2621 0140 D34D6210 		.word	274877907
 2622              		.cfi_endproc
 2623              	.LFE152:
 2625              		.section	.rodata
 2626              		.align	2
 2627              	.LC11:
 2628 015c 64686370 		.ascii	"dhcp_bind: netif != NULL\000"
 2628      5F62696E 
 2628      643A206E 
 2628      65746966 
 2628      20213D20 
 2629 0175 000000   		.align	2
 2630              	.LC12:
 2631 0178 64686370 		.ascii	"dhcp_bind: dhcp != NULL\000"
 2631      5F62696E 
 2631      643A2064 
 2631      68637020 
 2631      213D204E 
 2632              		.section	.text.dhcp_bind,"ax",%progbits
 2633              		.align	1
 2634              		.syntax unified
 2635              		.thumb
 2636              		.thumb_func
 2637              		.fpu fpv4-sp-d16
 2639              	dhcp_bind:
ARM GAS  /tmp/ccsjw2Nr.s 			page 66


 2640              	.LFB153:
1032:Middlewares/Third_Party/LwIP/src/core/ipv4/dhcp.c **** 
1033:Middlewares/Third_Party/LwIP/src/core/ipv4/dhcp.c **** 
1034:Middlewares/Third_Party/LwIP/src/core/ipv4/dhcp.c **** /**
1035:Middlewares/Third_Party/LwIP/src/core/ipv4/dhcp.c ****  * Bind the interface to the offered IP address.
1036:Middlewares/Third_Party/LwIP/src/core/ipv4/dhcp.c ****  *
1037:Middlewares/Third_Party/LwIP/src/core/ipv4/dhcp.c ****  * @param netif network interface to bind to the offered address
1038:Middlewares/Third_Party/LwIP/src/core/ipv4/dhcp.c ****  */
1039:Middlewares/Third_Party/LwIP/src/core/ipv4/dhcp.c **** static void
1040:Middlewares/Third_Party/LwIP/src/core/ipv4/dhcp.c **** dhcp_bind(struct netif *netif)
1041:Middlewares/Third_Party/LwIP/src/core/ipv4/dhcp.c **** {
 2641              		.loc 1 1041 1
 2642              		.cfi_startproc
 2643              		@ args = 0, pretend = 0, frame = 32
 2644              		@ frame_needed = 1, uses_anonymous_args = 0
 2645 0000 80B5     		push	{r7, lr}
 2646              	.LCFI94:
 2647              		.cfi_def_cfa_offset 8
 2648              		.cfi_offset 7, -8
 2649              		.cfi_offset 14, -4
 2650 0002 88B0     		sub	sp, sp, #32
 2651              	.LCFI95:
 2652              		.cfi_def_cfa_offset 40
 2653 0004 00AF     		add	r7, sp, #0
 2654              	.LCFI96:
 2655              		.cfi_def_cfa_register 7
 2656 0006 7860     		str	r0, [r7, #4]
1042:Middlewares/Third_Party/LwIP/src/core/ipv4/dhcp.c ****   u32_t timeout;
1043:Middlewares/Third_Party/LwIP/src/core/ipv4/dhcp.c ****   struct dhcp *dhcp;
1044:Middlewares/Third_Party/LwIP/src/core/ipv4/dhcp.c ****   ip4_addr_t sn_mask, gw_addr;
1045:Middlewares/Third_Party/LwIP/src/core/ipv4/dhcp.c ****   LWIP_ERROR("dhcp_bind: netif != NULL", (netif != NULL), return;);
 2657              		.loc 1 1045 3
 2658 0008 7B68     		ldr	r3, [r7, #4]
 2659 000a 002B     		cmp	r3, #0
 2660 000c 07D1     		bne	.L156
 2661              		.loc 1 1045 3 is_stmt 0 discriminator 1
 2662 000e 644B     		ldr	r3, .L174
 2663 0010 40F21542 		movw	r2, #1045
 2664 0014 6349     		ldr	r1, .L174+4
 2665 0016 6448     		ldr	r0, .L174+8
 2666 0018 FFF7FEFF 		bl	printf
 2667 001c BCE0     		b	.L155
 2668              	.L156:
1046:Middlewares/Third_Party/LwIP/src/core/ipv4/dhcp.c ****   dhcp = netif_dhcp_data(netif);
 2669              		.loc 1 1046 8 is_stmt 1
 2670 001e 7B68     		ldr	r3, [r7, #4]
 2671 0020 5B6A     		ldr	r3, [r3, #36]
 2672 0022 BB61     		str	r3, [r7, #24]
1047:Middlewares/Third_Party/LwIP/src/core/ipv4/dhcp.c ****   LWIP_ERROR("dhcp_bind: dhcp != NULL", (dhcp != NULL), return;);
 2673              		.loc 1 1047 3
 2674 0024 BB69     		ldr	r3, [r7, #24]
 2675 0026 002B     		cmp	r3, #0
 2676 0028 07D1     		bne	.L158
 2677              		.loc 1 1047 3 is_stmt 0 discriminator 1
 2678 002a 5D4B     		ldr	r3, .L174
 2679 002c 40F21742 		movw	r2, #1047
 2680 0030 5E49     		ldr	r1, .L174+12
ARM GAS  /tmp/ccsjw2Nr.s 			page 67


 2681 0032 5D48     		ldr	r0, .L174+8
 2682 0034 FFF7FEFF 		bl	printf
 2683 0038 AEE0     		b	.L155
 2684              	.L158:
1048:Middlewares/Third_Party/LwIP/src/core/ipv4/dhcp.c ****   LWIP_DEBUGF(DHCP_DEBUG | LWIP_DBG_TRACE, ("dhcp_bind(netif=%p) %c%c%"U16_F"\n", (void *)netif, ne
1049:Middlewares/Third_Party/LwIP/src/core/ipv4/dhcp.c **** 
1050:Middlewares/Third_Party/LwIP/src/core/ipv4/dhcp.c ****   /* reset time used of lease */
1051:Middlewares/Third_Party/LwIP/src/core/ipv4/dhcp.c ****   dhcp->lease_used = 0;
 2685              		.loc 1 1051 20 is_stmt 1
 2686 003a BB69     		ldr	r3, [r7, #24]
 2687 003c 0022     		movs	r2, #0
 2688 003e 5A82     		strh	r2, [r3, #18]	@ movhi
1052:Middlewares/Third_Party/LwIP/src/core/ipv4/dhcp.c **** 
1053:Middlewares/Third_Party/LwIP/src/core/ipv4/dhcp.c ****   if (dhcp->offered_t0_lease != 0xffffffffUL) {
 2689              		.loc 1 1053 11
 2690 0040 BB69     		ldr	r3, [r7, #24]
 2691 0042 9B6A     		ldr	r3, [r3, #40]
 2692              		.loc 1 1053 6
 2693 0044 B3F1FF3F 		cmp	r3, #-1
 2694 0048 19D0     		beq	.L159
1054:Middlewares/Third_Party/LwIP/src/core/ipv4/dhcp.c ****     /* set renewal period timer */
1055:Middlewares/Third_Party/LwIP/src/core/ipv4/dhcp.c ****     LWIP_DEBUGF(DHCP_DEBUG | LWIP_DBG_TRACE, ("dhcp_bind(): t0 renewal timer %"U32_F" secs\n", dhcp
1056:Middlewares/Third_Party/LwIP/src/core/ipv4/dhcp.c ****     timeout = (dhcp->offered_t0_lease + DHCP_COARSE_TIMER_SECS / 2) / DHCP_COARSE_TIMER_SECS;
 2695              		.loc 1 1056 20
 2696 004a BB69     		ldr	r3, [r7, #24]
 2697 004c 9B6A     		ldr	r3, [r3, #40]
 2698              		.loc 1 1056 39
 2699 004e 1E33     		adds	r3, r3, #30
 2700              		.loc 1 1056 13
 2701 0050 574A     		ldr	r2, .L174+16
 2702 0052 A2FB0323 		umull	r2, r3, r2, r3
 2703 0056 5B09     		lsrs	r3, r3, #5
 2704 0058 FB61     		str	r3, [r7, #28]
1057:Middlewares/Third_Party/LwIP/src/core/ipv4/dhcp.c ****     if (timeout > 0xffff) {
 2705              		.loc 1 1057 8
 2706 005a FB69     		ldr	r3, [r7, #28]
 2707 005c B3F5803F 		cmp	r3, #65536
 2708 0060 02D3     		bcc	.L160
1058:Middlewares/Third_Party/LwIP/src/core/ipv4/dhcp.c ****       timeout = 0xffff;
 2709              		.loc 1 1058 15
 2710 0062 4FF6FF73 		movw	r3, #65535
 2711 0066 FB61     		str	r3, [r7, #28]
 2712              	.L160:
1059:Middlewares/Third_Party/LwIP/src/core/ipv4/dhcp.c ****     }
1060:Middlewares/Third_Party/LwIP/src/core/ipv4/dhcp.c ****     dhcp->t0_timeout = (u16_t)timeout;
 2713              		.loc 1 1060 24
 2714 0068 FB69     		ldr	r3, [r7, #28]
 2715 006a 9AB2     		uxth	r2, r3
 2716              		.loc 1 1060 22
 2717 006c BB69     		ldr	r3, [r7, #24]
 2718 006e 9A82     		strh	r2, [r3, #20]	@ movhi
1061:Middlewares/Third_Party/LwIP/src/core/ipv4/dhcp.c ****     if (dhcp->t0_timeout == 0) {
 2719              		.loc 1 1061 13
 2720 0070 BB69     		ldr	r3, [r7, #24]
 2721 0072 9B8A     		ldrh	r3, [r3, #20]
 2722              		.loc 1 1061 8
 2723 0074 002B     		cmp	r3, #0
ARM GAS  /tmp/ccsjw2Nr.s 			page 68


 2724 0076 02D1     		bne	.L159
1062:Middlewares/Third_Party/LwIP/src/core/ipv4/dhcp.c ****       dhcp->t0_timeout = 1;
 2725              		.loc 1 1062 24
 2726 0078 BB69     		ldr	r3, [r7, #24]
 2727 007a 0122     		movs	r2, #1
 2728 007c 9A82     		strh	r2, [r3, #20]	@ movhi
 2729              	.L159:
1063:Middlewares/Third_Party/LwIP/src/core/ipv4/dhcp.c ****     }
1064:Middlewares/Third_Party/LwIP/src/core/ipv4/dhcp.c ****     LWIP_DEBUGF(DHCP_DEBUG | LWIP_DBG_TRACE | LWIP_DBG_STATE, ("dhcp_bind(): set request timeout %"
1065:Middlewares/Third_Party/LwIP/src/core/ipv4/dhcp.c ****   }
1066:Middlewares/Third_Party/LwIP/src/core/ipv4/dhcp.c **** 
1067:Middlewares/Third_Party/LwIP/src/core/ipv4/dhcp.c ****   /* temporary DHCP lease? */
1068:Middlewares/Third_Party/LwIP/src/core/ipv4/dhcp.c ****   if (dhcp->offered_t1_renew != 0xffffffffUL) {
 2730              		.loc 1 1068 11
 2731 007e BB69     		ldr	r3, [r7, #24]
 2732 0080 DB6A     		ldr	r3, [r3, #44]
 2733              		.loc 1 1068 6
 2734 0082 B3F1FF3F 		cmp	r3, #-1
 2735 0086 1DD0     		beq	.L161
1069:Middlewares/Third_Party/LwIP/src/core/ipv4/dhcp.c ****     /* set renewal period timer */
1070:Middlewares/Third_Party/LwIP/src/core/ipv4/dhcp.c ****     LWIP_DEBUGF(DHCP_DEBUG | LWIP_DBG_TRACE, ("dhcp_bind(): t1 renewal timer %"U32_F" secs\n", dhcp
1071:Middlewares/Third_Party/LwIP/src/core/ipv4/dhcp.c ****     timeout = (dhcp->offered_t1_renew + DHCP_COARSE_TIMER_SECS / 2) / DHCP_COARSE_TIMER_SECS;
 2736              		.loc 1 1071 20
 2737 0088 BB69     		ldr	r3, [r7, #24]
 2738 008a DB6A     		ldr	r3, [r3, #44]
 2739              		.loc 1 1071 39
 2740 008c 1E33     		adds	r3, r3, #30
 2741              		.loc 1 1071 13
 2742 008e 484A     		ldr	r2, .L174+16
 2743 0090 A2FB0323 		umull	r2, r3, r2, r3
 2744 0094 5B09     		lsrs	r3, r3, #5
 2745 0096 FB61     		str	r3, [r7, #28]
1072:Middlewares/Third_Party/LwIP/src/core/ipv4/dhcp.c ****     if (timeout > 0xffff) {
 2746              		.loc 1 1072 8
 2747 0098 FB69     		ldr	r3, [r7, #28]
 2748 009a B3F5803F 		cmp	r3, #65536
 2749 009e 02D3     		bcc	.L162
1073:Middlewares/Third_Party/LwIP/src/core/ipv4/dhcp.c ****       timeout = 0xffff;
 2750              		.loc 1 1073 15
 2751 00a0 4FF6FF73 		movw	r3, #65535
 2752 00a4 FB61     		str	r3, [r7, #28]
 2753              	.L162:
1074:Middlewares/Third_Party/LwIP/src/core/ipv4/dhcp.c ****     }
1075:Middlewares/Third_Party/LwIP/src/core/ipv4/dhcp.c ****     dhcp->t1_timeout = (u16_t)timeout;
 2754              		.loc 1 1075 24
 2755 00a6 FB69     		ldr	r3, [r7, #28]
 2756 00a8 9AB2     		uxth	r2, r3
 2757              		.loc 1 1075 22
 2758 00aa BB69     		ldr	r3, [r7, #24]
 2759 00ac 5A81     		strh	r2, [r3, #10]	@ movhi
1076:Middlewares/Third_Party/LwIP/src/core/ipv4/dhcp.c ****     if (dhcp->t1_timeout == 0) {
 2760              		.loc 1 1076 13
 2761 00ae BB69     		ldr	r3, [r7, #24]
 2762 00b0 5B89     		ldrh	r3, [r3, #10]
 2763              		.loc 1 1076 8
 2764 00b2 002B     		cmp	r3, #0
 2765 00b4 02D1     		bne	.L163
ARM GAS  /tmp/ccsjw2Nr.s 			page 69


1077:Middlewares/Third_Party/LwIP/src/core/ipv4/dhcp.c ****       dhcp->t1_timeout = 1;
 2766              		.loc 1 1077 24
 2767 00b6 BB69     		ldr	r3, [r7, #24]
 2768 00b8 0122     		movs	r2, #1
 2769 00ba 5A81     		strh	r2, [r3, #10]	@ movhi
 2770              	.L163:
1078:Middlewares/Third_Party/LwIP/src/core/ipv4/dhcp.c ****     }
1079:Middlewares/Third_Party/LwIP/src/core/ipv4/dhcp.c ****     LWIP_DEBUGF(DHCP_DEBUG | LWIP_DBG_TRACE | LWIP_DBG_STATE, ("dhcp_bind(): set request timeout %"
1080:Middlewares/Third_Party/LwIP/src/core/ipv4/dhcp.c ****     dhcp->t1_renew_time = dhcp->t1_timeout;
 2771              		.loc 1 1080 31
 2772 00bc BB69     		ldr	r3, [r7, #24]
 2773 00be 5A89     		ldrh	r2, [r3, #10]
 2774              		.loc 1 1080 25
 2775 00c0 BB69     		ldr	r3, [r7, #24]
 2776 00c2 DA81     		strh	r2, [r3, #14]	@ movhi
 2777              	.L161:
1081:Middlewares/Third_Party/LwIP/src/core/ipv4/dhcp.c ****   }
1082:Middlewares/Third_Party/LwIP/src/core/ipv4/dhcp.c ****   /* set renewal period timer */
1083:Middlewares/Third_Party/LwIP/src/core/ipv4/dhcp.c ****   if (dhcp->offered_t2_rebind != 0xffffffffUL) {
 2778              		.loc 1 1083 11
 2779 00c4 BB69     		ldr	r3, [r7, #24]
 2780 00c6 1B6B     		ldr	r3, [r3, #48]
 2781              		.loc 1 1083 6
 2782 00c8 B3F1FF3F 		cmp	r3, #-1
 2783 00cc 1DD0     		beq	.L164
1084:Middlewares/Third_Party/LwIP/src/core/ipv4/dhcp.c ****     LWIP_DEBUGF(DHCP_DEBUG | LWIP_DBG_TRACE, ("dhcp_bind(): t2 rebind timer %"U32_F" secs\n", dhcp-
1085:Middlewares/Third_Party/LwIP/src/core/ipv4/dhcp.c ****     timeout = (dhcp->offered_t2_rebind + DHCP_COARSE_TIMER_SECS / 2) / DHCP_COARSE_TIMER_SECS;
 2784              		.loc 1 1085 20
 2785 00ce BB69     		ldr	r3, [r7, #24]
 2786 00d0 1B6B     		ldr	r3, [r3, #48]
 2787              		.loc 1 1085 40
 2788 00d2 1E33     		adds	r3, r3, #30
 2789              		.loc 1 1085 13
 2790 00d4 364A     		ldr	r2, .L174+16
 2791 00d6 A2FB0323 		umull	r2, r3, r2, r3
 2792 00da 5B09     		lsrs	r3, r3, #5
 2793 00dc FB61     		str	r3, [r7, #28]
1086:Middlewares/Third_Party/LwIP/src/core/ipv4/dhcp.c ****     if (timeout > 0xffff) {
 2794              		.loc 1 1086 8
 2795 00de FB69     		ldr	r3, [r7, #28]
 2796 00e0 B3F5803F 		cmp	r3, #65536
 2797 00e4 02D3     		bcc	.L165
1087:Middlewares/Third_Party/LwIP/src/core/ipv4/dhcp.c ****       timeout = 0xffff;
 2798              		.loc 1 1087 15
 2799 00e6 4FF6FF73 		movw	r3, #65535
 2800 00ea FB61     		str	r3, [r7, #28]
 2801              	.L165:
1088:Middlewares/Third_Party/LwIP/src/core/ipv4/dhcp.c ****     }
1089:Middlewares/Third_Party/LwIP/src/core/ipv4/dhcp.c ****     dhcp->t2_timeout = (u16_t)timeout;
 2802              		.loc 1 1089 24
 2803 00ec FB69     		ldr	r3, [r7, #28]
 2804 00ee 9AB2     		uxth	r2, r3
 2805              		.loc 1 1089 22
 2806 00f0 BB69     		ldr	r3, [r7, #24]
 2807 00f2 9A81     		strh	r2, [r3, #12]	@ movhi
1090:Middlewares/Third_Party/LwIP/src/core/ipv4/dhcp.c ****     if (dhcp->t2_timeout == 0) {
 2808              		.loc 1 1090 13
ARM GAS  /tmp/ccsjw2Nr.s 			page 70


 2809 00f4 BB69     		ldr	r3, [r7, #24]
 2810 00f6 9B89     		ldrh	r3, [r3, #12]
 2811              		.loc 1 1090 8
 2812 00f8 002B     		cmp	r3, #0
 2813 00fa 02D1     		bne	.L166
1091:Middlewares/Third_Party/LwIP/src/core/ipv4/dhcp.c ****       dhcp->t2_timeout = 1;
 2814              		.loc 1 1091 24
 2815 00fc BB69     		ldr	r3, [r7, #24]
 2816 00fe 0122     		movs	r2, #1
 2817 0100 9A81     		strh	r2, [r3, #12]	@ movhi
 2818              	.L166:
1092:Middlewares/Third_Party/LwIP/src/core/ipv4/dhcp.c ****     }
1093:Middlewares/Third_Party/LwIP/src/core/ipv4/dhcp.c ****     LWIP_DEBUGF(DHCP_DEBUG | LWIP_DBG_TRACE | LWIP_DBG_STATE, ("dhcp_bind(): set request timeout %"
1094:Middlewares/Third_Party/LwIP/src/core/ipv4/dhcp.c ****     dhcp->t2_rebind_time = dhcp->t2_timeout;
 2819              		.loc 1 1094 32
 2820 0102 BB69     		ldr	r3, [r7, #24]
 2821 0104 9A89     		ldrh	r2, [r3, #12]
 2822              		.loc 1 1094 26
 2823 0106 BB69     		ldr	r3, [r7, #24]
 2824 0108 1A82     		strh	r2, [r3, #16]	@ movhi
 2825              	.L164:
1095:Middlewares/Third_Party/LwIP/src/core/ipv4/dhcp.c ****   }
1096:Middlewares/Third_Party/LwIP/src/core/ipv4/dhcp.c **** 
1097:Middlewares/Third_Party/LwIP/src/core/ipv4/dhcp.c ****   /* If we have sub 1 minute lease, t2 and t1 will kick in at the same time. */
1098:Middlewares/Third_Party/LwIP/src/core/ipv4/dhcp.c ****   if ((dhcp->t1_timeout >= dhcp->t2_timeout) && (dhcp->t2_timeout > 0)) {
 2826              		.loc 1 1098 12
 2827 010a BB69     		ldr	r3, [r7, #24]
 2828 010c 5A89     		ldrh	r2, [r3, #10]
 2829              		.loc 1 1098 32
 2830 010e BB69     		ldr	r3, [r7, #24]
 2831 0110 9B89     		ldrh	r3, [r3, #12]
 2832              		.loc 1 1098 6
 2833 0112 9A42     		cmp	r2, r3
 2834 0114 06D3     		bcc	.L167
 2835              		.loc 1 1098 54 discriminator 1
 2836 0116 BB69     		ldr	r3, [r7, #24]
 2837 0118 9B89     		ldrh	r3, [r3, #12]
 2838              		.loc 1 1098 46 discriminator 1
 2839 011a 002B     		cmp	r3, #0
 2840 011c 02D0     		beq	.L167
1099:Middlewares/Third_Party/LwIP/src/core/ipv4/dhcp.c ****     dhcp->t1_timeout = 0;
 2841              		.loc 1 1099 22
 2842 011e BB69     		ldr	r3, [r7, #24]
 2843 0120 0022     		movs	r2, #0
 2844 0122 5A81     		strh	r2, [r3, #10]	@ movhi
 2845              	.L167:
1100:Middlewares/Third_Party/LwIP/src/core/ipv4/dhcp.c ****   }
1101:Middlewares/Third_Party/LwIP/src/core/ipv4/dhcp.c **** 
1102:Middlewares/Third_Party/LwIP/src/core/ipv4/dhcp.c ****   if (dhcp->subnet_mask_given) {
 2846              		.loc 1 1102 11
 2847 0124 BB69     		ldr	r3, [r7, #24]
 2848 0126 DB79     		ldrb	r3, [r3, #7]	@ zero_extendqisi2
 2849              		.loc 1 1102 6
 2850 0128 002B     		cmp	r3, #0
 2851 012a 03D0     		beq	.L168
1103:Middlewares/Third_Party/LwIP/src/core/ipv4/dhcp.c ****     /* copy offered network mask */
1104:Middlewares/Third_Party/LwIP/src/core/ipv4/dhcp.c ****     ip4_addr_copy(sn_mask, dhcp->offered_sn_mask);
ARM GAS  /tmp/ccsjw2Nr.s 			page 71


 2852              		.loc 1 1104 5
 2853 012c BB69     		ldr	r3, [r7, #24]
 2854 012e 1B6A     		ldr	r3, [r3, #32]
 2855 0130 3B61     		str	r3, [r7, #16]
 2856 0132 14E0     		b	.L169
 2857              	.L168:
 2858              	.LBB8:
1105:Middlewares/Third_Party/LwIP/src/core/ipv4/dhcp.c ****   } else {
1106:Middlewares/Third_Party/LwIP/src/core/ipv4/dhcp.c ****     /* subnet mask not given, choose a safe subnet mask given the network class */
1107:Middlewares/Third_Party/LwIP/src/core/ipv4/dhcp.c ****     u8_t first_octet = ip4_addr1(&dhcp->offered_ip_addr);
 2859              		.loc 1 1107 24
 2860 0134 BB69     		ldr	r3, [r7, #24]
 2861 0136 1C33     		adds	r3, r3, #28
 2862              		.loc 1 1107 10
 2863 0138 1B78     		ldrb	r3, [r3]
 2864 013a FB75     		strb	r3, [r7, #23]
1108:Middlewares/Third_Party/LwIP/src/core/ipv4/dhcp.c ****     if (first_octet <= 127) {
 2865              		.loc 1 1108 21
 2866 013c 97F91730 		ldrsb	r3, [r7, #23]
 2867              		.loc 1 1108 8
 2868 0140 002B     		cmp	r3, #0
 2869 0142 02DB     		blt	.L170
1109:Middlewares/Third_Party/LwIP/src/core/ipv4/dhcp.c ****       ip4_addr_set_u32(&sn_mask, PP_HTONL(0xff000000UL));
 2870              		.loc 1 1109 7
 2871 0144 FF23     		movs	r3, #255
 2872 0146 3B61     		str	r3, [r7, #16]
 2873 0148 09E0     		b	.L169
 2874              	.L170:
1110:Middlewares/Third_Party/LwIP/src/core/ipv4/dhcp.c ****     } else if (first_octet >= 192) {
 2875              		.loc 1 1110 15
 2876 014a FB7D     		ldrb	r3, [r7, #23]	@ zero_extendqisi2
 2877 014c BF2B     		cmp	r3, #191
 2878 014e 03D9     		bls	.L171
1111:Middlewares/Third_Party/LwIP/src/core/ipv4/dhcp.c ****       ip4_addr_set_u32(&sn_mask, PP_HTONL(0xffffff00UL));
 2879              		.loc 1 1111 7
 2880 0150 6FF07F43 		mvn	r3, #-16777216
 2881 0154 3B61     		str	r3, [r7, #16]
 2882 0156 02E0     		b	.L169
 2883              	.L171:
1112:Middlewares/Third_Party/LwIP/src/core/ipv4/dhcp.c ****     } else {
1113:Middlewares/Third_Party/LwIP/src/core/ipv4/dhcp.c ****       ip4_addr_set_u32(&sn_mask, PP_HTONL(0xffff0000UL));
 2884              		.loc 1 1113 7
 2885 0158 4FF6FF73 		movw	r3, #65535
 2886 015c 3B61     		str	r3, [r7, #16]
 2887              	.L169:
 2888              	.LBE8:
1114:Middlewares/Third_Party/LwIP/src/core/ipv4/dhcp.c ****     }
1115:Middlewares/Third_Party/LwIP/src/core/ipv4/dhcp.c ****   }
1116:Middlewares/Third_Party/LwIP/src/core/ipv4/dhcp.c **** 
1117:Middlewares/Third_Party/LwIP/src/core/ipv4/dhcp.c ****   ip4_addr_copy(gw_addr, dhcp->offered_gw_addr);
 2889              		.loc 1 1117 3
 2890 015e BB69     		ldr	r3, [r7, #24]
 2891 0160 5B6A     		ldr	r3, [r3, #36]
 2892 0162 FB60     		str	r3, [r7, #12]
1118:Middlewares/Third_Party/LwIP/src/core/ipv4/dhcp.c ****   /* gateway address not given? */
1119:Middlewares/Third_Party/LwIP/src/core/ipv4/dhcp.c ****   if (ip4_addr_isany_val(gw_addr)) {
 2893              		.loc 1 1119 7
ARM GAS  /tmp/ccsjw2Nr.s 			page 72


 2894 0164 FB68     		ldr	r3, [r7, #12]
 2895              		.loc 1 1119 6
 2896 0166 002B     		cmp	r3, #0
 2897 0168 08D1     		bne	.L172
1120:Middlewares/Third_Party/LwIP/src/core/ipv4/dhcp.c ****     /* copy network address */
1121:Middlewares/Third_Party/LwIP/src/core/ipv4/dhcp.c ****     ip4_addr_get_network(&gw_addr, &dhcp->offered_ip_addr, &sn_mask);
 2898              		.loc 1 1121 5
 2899 016a BB69     		ldr	r3, [r7, #24]
 2900 016c DA69     		ldr	r2, [r3, #28]
 2901 016e 3B69     		ldr	r3, [r7, #16]
 2902 0170 1340     		ands	r3, r3, r2
 2903 0172 FB60     		str	r3, [r7, #12]
1122:Middlewares/Third_Party/LwIP/src/core/ipv4/dhcp.c ****     /* use first host address on network as gateway */
1123:Middlewares/Third_Party/LwIP/src/core/ipv4/dhcp.c ****     ip4_addr_set_u32(&gw_addr, ip4_addr_get_u32(&gw_addr) | PP_HTONL(0x00000001UL));
 2904              		.loc 1 1123 5
 2905 0174 FB68     		ldr	r3, [r7, #12]
 2906 0176 43F08073 		orr	r3, r3, #16777216
 2907 017a FB60     		str	r3, [r7, #12]
 2908              	.L172:
1124:Middlewares/Third_Party/LwIP/src/core/ipv4/dhcp.c ****   }
1125:Middlewares/Third_Party/LwIP/src/core/ipv4/dhcp.c **** 
1126:Middlewares/Third_Party/LwIP/src/core/ipv4/dhcp.c **** #if LWIP_DHCP_AUTOIP_COOP
1127:Middlewares/Third_Party/LwIP/src/core/ipv4/dhcp.c ****   if (dhcp->autoip_coop_state == DHCP_AUTOIP_COOP_STATE_ON) {
1128:Middlewares/Third_Party/LwIP/src/core/ipv4/dhcp.c ****     autoip_stop(netif);
1129:Middlewares/Third_Party/LwIP/src/core/ipv4/dhcp.c ****     dhcp->autoip_coop_state = DHCP_AUTOIP_COOP_STATE_OFF;
1130:Middlewares/Third_Party/LwIP/src/core/ipv4/dhcp.c ****   }
1131:Middlewares/Third_Party/LwIP/src/core/ipv4/dhcp.c **** #endif /* LWIP_DHCP_AUTOIP_COOP */
1132:Middlewares/Third_Party/LwIP/src/core/ipv4/dhcp.c **** 
1133:Middlewares/Third_Party/LwIP/src/core/ipv4/dhcp.c ****   LWIP_DEBUGF(DHCP_DEBUG | LWIP_DBG_STATE, ("dhcp_bind(): IP: 0x%08"X32_F" SN: 0x%08"X32_F" GW: 0x%
1134:Middlewares/Third_Party/LwIP/src/core/ipv4/dhcp.c ****               ip4_addr_get_u32(&dhcp->offered_ip_addr), ip4_addr_get_u32(&sn_mask), ip4_addr_get_u3
1135:Middlewares/Third_Party/LwIP/src/core/ipv4/dhcp.c ****   /* netif is now bound to DHCP leased address - set this before assigning the address
1136:Middlewares/Third_Party/LwIP/src/core/ipv4/dhcp.c ****      to ensure the callback can use dhcp_supplied_address() */
1137:Middlewares/Third_Party/LwIP/src/core/ipv4/dhcp.c ****   dhcp_set_state(dhcp, DHCP_STATE_BOUND);
 2909              		.loc 1 1137 3
 2910 017c 0A21     		movs	r1, #10
 2911 017e B869     		ldr	r0, [r7, #24]
 2912 0180 FFF7FEFF 		bl	dhcp_set_state
1138:Middlewares/Third_Party/LwIP/src/core/ipv4/dhcp.c **** 
1139:Middlewares/Third_Party/LwIP/src/core/ipv4/dhcp.c ****   netif_set_addr(netif, &dhcp->offered_ip_addr, &sn_mask, &gw_addr);
 2913              		.loc 1 1139 25
 2914 0184 BB69     		ldr	r3, [r7, #24]
 2915 0186 03F11C01 		add	r1, r3, #28
 2916              		.loc 1 1139 3
 2917 018a 07F10C03 		add	r3, r7, #12
 2918 018e 07F11002 		add	r2, r7, #16
 2919 0192 7868     		ldr	r0, [r7, #4]
 2920 0194 FFF7FEFF 		bl	netif_set_addr
 2921              	.L155:
1140:Middlewares/Third_Party/LwIP/src/core/ipv4/dhcp.c ****   /* interface is used by routing now that an address is set */
1141:Middlewares/Third_Party/LwIP/src/core/ipv4/dhcp.c **** }
 2922              		.loc 1 1141 1
 2923 0198 2037     		adds	r7, r7, #32
 2924              	.LCFI97:
 2925              		.cfi_def_cfa_offset 8
 2926 019a BD46     		mov	sp, r7
 2927              	.LCFI98:
 2928              		.cfi_def_cfa_register 13
ARM GAS  /tmp/ccsjw2Nr.s 			page 73


 2929              		@ sp needed
 2930 019c 80BD     		pop	{r7, pc}
 2931              	.L175:
 2932 019e 00BF     		.align	2
 2933              	.L174:
 2934 01a0 00000000 		.word	.LC0
 2935 01a4 5C010000 		.word	.LC11
 2936 01a8 5C000000 		.word	.LC2
 2937 01ac 78010000 		.word	.LC12
 2938 01b0 89888888 		.word	-2004318071
 2939              		.cfi_endproc
 2940              	.LFE153:
 2942              		.section	.text.dhcp_renew,"ax",%progbits
 2943              		.align	1
 2944              		.global	dhcp_renew
 2945              		.syntax unified
 2946              		.thumb
 2947              		.thumb_func
 2948              		.fpu fpv4-sp-d16
 2950              	dhcp_renew:
 2951              	.LFB154:
1142:Middlewares/Third_Party/LwIP/src/core/ipv4/dhcp.c **** 
1143:Middlewares/Third_Party/LwIP/src/core/ipv4/dhcp.c **** /**
1144:Middlewares/Third_Party/LwIP/src/core/ipv4/dhcp.c ****  * @ingroup dhcp4
1145:Middlewares/Third_Party/LwIP/src/core/ipv4/dhcp.c ****  * Renew an existing DHCP lease at the involved DHCP server.
1146:Middlewares/Third_Party/LwIP/src/core/ipv4/dhcp.c ****  *
1147:Middlewares/Third_Party/LwIP/src/core/ipv4/dhcp.c ****  * @param netif network interface which must renew its lease
1148:Middlewares/Third_Party/LwIP/src/core/ipv4/dhcp.c ****  */
1149:Middlewares/Third_Party/LwIP/src/core/ipv4/dhcp.c **** err_t
1150:Middlewares/Third_Party/LwIP/src/core/ipv4/dhcp.c **** dhcp_renew(struct netif *netif)
1151:Middlewares/Third_Party/LwIP/src/core/ipv4/dhcp.c **** {
 2952              		.loc 1 1151 1
 2953              		.cfi_startproc
 2954              		@ args = 0, pretend = 0, frame = 32
 2955              		@ frame_needed = 1, uses_anonymous_args = 0
 2956 0000 80B5     		push	{r7, lr}
 2957              	.LCFI99:
 2958              		.cfi_def_cfa_offset 8
 2959              		.cfi_offset 7, -8
 2960              		.cfi_offset 14, -4
 2961 0002 8AB0     		sub	sp, sp, #40
 2962              	.LCFI100:
 2963              		.cfi_def_cfa_offset 48
 2964 0004 02AF     		add	r7, sp, #8
 2965              	.LCFI101:
 2966              		.cfi_def_cfa 7, 40
 2967 0006 7860     		str	r0, [r7, #4]
1152:Middlewares/Third_Party/LwIP/src/core/ipv4/dhcp.c ****   struct dhcp *dhcp = netif_dhcp_data(netif);
 2968              		.loc 1 1152 16
 2969 0008 7B68     		ldr	r3, [r7, #4]
 2970 000a 5B6A     		ldr	r3, [r3, #36]
 2971 000c BB61     		str	r3, [r7, #24]
1153:Middlewares/Third_Party/LwIP/src/core/ipv4/dhcp.c ****   err_t result;
1154:Middlewares/Third_Party/LwIP/src/core/ipv4/dhcp.c ****   u16_t msecs;
1155:Middlewares/Third_Party/LwIP/src/core/ipv4/dhcp.c ****   u8_t i;
1156:Middlewares/Third_Party/LwIP/src/core/ipv4/dhcp.c ****   struct pbuf *p_out;
1157:Middlewares/Third_Party/LwIP/src/core/ipv4/dhcp.c ****   u16_t options_out_len;
ARM GAS  /tmp/ccsjw2Nr.s 			page 74


1158:Middlewares/Third_Party/LwIP/src/core/ipv4/dhcp.c **** 
1159:Middlewares/Third_Party/LwIP/src/core/ipv4/dhcp.c ****   LWIP_ASSERT_CORE_LOCKED();
1160:Middlewares/Third_Party/LwIP/src/core/ipv4/dhcp.c ****   LWIP_DEBUGF(DHCP_DEBUG | LWIP_DBG_TRACE, ("dhcp_renew()\n"));
1161:Middlewares/Third_Party/LwIP/src/core/ipv4/dhcp.c ****   dhcp_set_state(dhcp, DHCP_STATE_RENEWING);
 2972              		.loc 1 1161 3
 2973 000e 0521     		movs	r1, #5
 2974 0010 B869     		ldr	r0, [r7, #24]
 2975 0012 FFF7FEFF 		bl	dhcp_set_state
1162:Middlewares/Third_Party/LwIP/src/core/ipv4/dhcp.c **** 
1163:Middlewares/Third_Party/LwIP/src/core/ipv4/dhcp.c ****   /* create and initialize the DHCP message header */
1164:Middlewares/Third_Party/LwIP/src/core/ipv4/dhcp.c ****   p_out = dhcp_create_msg(netif, dhcp, DHCP_REQUEST, &options_out_len);
 2976              		.loc 1 1164 11
 2977 0016 07F10C03 		add	r3, r7, #12
 2978 001a 0322     		movs	r2, #3
 2979 001c B969     		ldr	r1, [r7, #24]
 2980 001e 7868     		ldr	r0, [r7, #4]
 2981 0020 FFF7FEFF 		bl	dhcp_create_msg
 2982 0024 7861     		str	r0, [r7, #20]
1165:Middlewares/Third_Party/LwIP/src/core/ipv4/dhcp.c ****   if (p_out != NULL) {
 2983              		.loc 1 1165 6
 2984 0026 7B69     		ldr	r3, [r7, #20]
 2985 0028 002B     		cmp	r3, #0
 2986 002a 4ED0     		beq	.L177
 2987              	.LBB9:
1166:Middlewares/Third_Party/LwIP/src/core/ipv4/dhcp.c ****     struct dhcp_msg *msg_out = (struct dhcp_msg *)p_out->payload;
 2988              		.loc 1 1166 22
 2989 002c 7B69     		ldr	r3, [r7, #20]
 2990 002e 5B68     		ldr	r3, [r3, #4]
 2991 0030 3B61     		str	r3, [r7, #16]
1167:Middlewares/Third_Party/LwIP/src/core/ipv4/dhcp.c ****     options_out_len = dhcp_option(options_out_len, msg_out->options, DHCP_OPTION_MAX_MSG_SIZE, DHCP
 2992              		.loc 1 1167 23
 2993 0032 B889     		ldrh	r0, [r7, #12]
 2994              		.loc 1 1167 59
 2995 0034 3B69     		ldr	r3, [r7, #16]
 2996 0036 03F1F001 		add	r1, r3, #240
 2997              		.loc 1 1167 23
 2998 003a 0223     		movs	r3, #2
 2999 003c 3922     		movs	r2, #57
 3000 003e FFF7FEFF 		bl	dhcp_option
 3001 0042 0346     		mov	r3, r0
 3002              		.loc 1 1167 21
 3003 0044 BB81     		strh	r3, [r7, #12]	@ movhi
1168:Middlewares/Third_Party/LwIP/src/core/ipv4/dhcp.c ****     options_out_len = dhcp_option_short(options_out_len, msg_out->options, DHCP_MAX_MSG_LEN(netif))
 3004              		.loc 1 1168 23
 3005 0046 B889     		ldrh	r0, [r7, #12]
 3006              		.loc 1 1168 65
 3007 0048 3B69     		ldr	r3, [r7, #16]
 3008 004a 03F1F001 		add	r1, r3, #240
 3009              		.loc 1 1168 23
 3010 004e 7B68     		ldr	r3, [r7, #4]
 3011 0050 1B8D     		ldrh	r3, [r3, #40]
 3012 0052 1A46     		mov	r2, r3
 3013 0054 FFF7FEFF 		bl	dhcp_option_short
 3014 0058 0346     		mov	r3, r0
 3015              		.loc 1 1168 21
 3016 005a BB81     		strh	r3, [r7, #12]	@ movhi
1169:Middlewares/Third_Party/LwIP/src/core/ipv4/dhcp.c **** 
ARM GAS  /tmp/ccsjw2Nr.s 			page 75


1170:Middlewares/Third_Party/LwIP/src/core/ipv4/dhcp.c ****     options_out_len = dhcp_option(options_out_len, msg_out->options, DHCP_OPTION_PARAMETER_REQUEST_
 3017              		.loc 1 1170 23
 3018 005c B889     		ldrh	r0, [r7, #12]
 3019              		.loc 1 1170 59
 3020 005e 3B69     		ldr	r3, [r7, #16]
 3021 0060 03F1F001 		add	r1, r3, #240
 3022              		.loc 1 1170 23
 3023 0064 0323     		movs	r3, #3
 3024 0066 3722     		movs	r2, #55
 3025 0068 FFF7FEFF 		bl	dhcp_option
 3026 006c 0346     		mov	r3, r0
 3027              		.loc 1 1170 21
 3028 006e BB81     		strh	r3, [r7, #12]	@ movhi
1171:Middlewares/Third_Party/LwIP/src/core/ipv4/dhcp.c ****     for (i = 0; i < LWIP_ARRAYSIZE(dhcp_discover_request_options); i++) {
 3029              		.loc 1 1171 12
 3030 0070 0023     		movs	r3, #0
 3031 0072 BB77     		strb	r3, [r7, #30]
 3032              		.loc 1 1171 5
 3033 0074 0EE0     		b	.L178
 3034              	.L179:
1172:Middlewares/Third_Party/LwIP/src/core/ipv4/dhcp.c ****       options_out_len = dhcp_option_byte(options_out_len, msg_out->options, dhcp_discover_request_o
 3035              		.loc 1 1172 25 discriminator 3
 3036 0076 B889     		ldrh	r0, [r7, #12]
 3037              		.loc 1 1172 66 discriminator 3
 3038 0078 3B69     		ldr	r3, [r7, #16]
 3039 007a 03F1F001 		add	r1, r3, #240
 3040              		.loc 1 1172 25 discriminator 3
 3041 007e BB7F     		ldrb	r3, [r7, #30]	@ zero_extendqisi2
 3042 0080 2A4A     		ldr	r2, .L185
 3043 0082 D35C     		ldrb	r3, [r2, r3]	@ zero_extendqisi2
 3044 0084 1A46     		mov	r2, r3
 3045 0086 FFF7FEFF 		bl	dhcp_option_byte
 3046 008a 0346     		mov	r3, r0
 3047              		.loc 1 1172 23 discriminator 3
 3048 008c BB81     		strh	r3, [r7, #12]	@ movhi
1171:Middlewares/Third_Party/LwIP/src/core/ipv4/dhcp.c ****     for (i = 0; i < LWIP_ARRAYSIZE(dhcp_discover_request_options); i++) {
 3049              		.loc 1 1171 69 discriminator 3
 3050 008e BB7F     		ldrb	r3, [r7, #30]	@ zero_extendqisi2
 3051 0090 0133     		adds	r3, r3, #1
 3052 0092 BB77     		strb	r3, [r7, #30]
 3053              	.L178:
1171:Middlewares/Third_Party/LwIP/src/core/ipv4/dhcp.c ****     for (i = 0; i < LWIP_ARRAYSIZE(dhcp_discover_request_options); i++) {
 3054              		.loc 1 1171 5 discriminator 1
 3055 0094 BB7F     		ldrb	r3, [r7, #30]	@ zero_extendqisi2
 3056 0096 022B     		cmp	r3, #2
 3057 0098 EDD9     		bls	.L179
1173:Middlewares/Third_Party/LwIP/src/core/ipv4/dhcp.c ****     }
1174:Middlewares/Third_Party/LwIP/src/core/ipv4/dhcp.c **** 
1175:Middlewares/Third_Party/LwIP/src/core/ipv4/dhcp.c **** #if LWIP_NETIF_HOSTNAME
1176:Middlewares/Third_Party/LwIP/src/core/ipv4/dhcp.c ****     options_out_len = dhcp_option_hostname(options_out_len, msg_out->options, netif);
1177:Middlewares/Third_Party/LwIP/src/core/ipv4/dhcp.c **** #endif /* LWIP_NETIF_HOSTNAME */
1178:Middlewares/Third_Party/LwIP/src/core/ipv4/dhcp.c **** 
1179:Middlewares/Third_Party/LwIP/src/core/ipv4/dhcp.c ****     LWIP_HOOK_DHCP_APPEND_OPTIONS(netif, dhcp, DHCP_STATE_RENEWING, msg_out, DHCP_REQUEST, &options
1180:Middlewares/Third_Party/LwIP/src/core/ipv4/dhcp.c ****     dhcp_option_trailer(options_out_len, msg_out->options, p_out);
 3058              		.loc 1 1180 5
 3059 009a B889     		ldrh	r0, [r7, #12]
 3060              		.loc 1 1180 49
ARM GAS  /tmp/ccsjw2Nr.s 			page 76


 3061 009c 3B69     		ldr	r3, [r7, #16]
 3062 009e F033     		adds	r3, r3, #240
 3063              		.loc 1 1180 5
 3064 00a0 7A69     		ldr	r2, [r7, #20]
 3065 00a2 1946     		mov	r1, r3
 3066 00a4 FFF7FEFF 		bl	dhcp_option_trailer
1181:Middlewares/Third_Party/LwIP/src/core/ipv4/dhcp.c **** 
1182:Middlewares/Third_Party/LwIP/src/core/ipv4/dhcp.c ****     result = udp_sendto_if(dhcp_pcb, p_out, &dhcp->server_ip_addr, LWIP_IANA_PORT_DHCP_SERVER, neti
 3067              		.loc 1 1182 14
 3068 00a8 214B     		ldr	r3, .L185+4
 3069 00aa 1868     		ldr	r0, [r3]
 3070              		.loc 1 1182 45
 3071 00ac BB69     		ldr	r3, [r7, #24]
 3072 00ae 03F11802 		add	r2, r3, #24
 3073              		.loc 1 1182 14
 3074 00b2 7B68     		ldr	r3, [r7, #4]
 3075 00b4 0093     		str	r3, [sp]
 3076 00b6 4323     		movs	r3, #67
 3077 00b8 7969     		ldr	r1, [r7, #20]
 3078 00ba FFF7FEFF 		bl	udp_sendto_if
 3079 00be 0346     		mov	r3, r0
 3080 00c0 FB77     		strb	r3, [r7, #31]
1183:Middlewares/Third_Party/LwIP/src/core/ipv4/dhcp.c ****     pbuf_free(p_out);
 3081              		.loc 1 1183 5
 3082 00c2 7869     		ldr	r0, [r7, #20]
 3083 00c4 FFF7FEFF 		bl	pbuf_free
 3084              	.LBE9:
 3085 00c8 01E0     		b	.L180
 3086              	.L177:
1184:Middlewares/Third_Party/LwIP/src/core/ipv4/dhcp.c **** 
1185:Middlewares/Third_Party/LwIP/src/core/ipv4/dhcp.c ****     LWIP_DEBUGF(DHCP_DEBUG | LWIP_DBG_TRACE | LWIP_DBG_STATE, ("dhcp_renew: RENEWING\n"));
1186:Middlewares/Third_Party/LwIP/src/core/ipv4/dhcp.c ****   } else {
1187:Middlewares/Third_Party/LwIP/src/core/ipv4/dhcp.c ****     LWIP_DEBUGF(DHCP_DEBUG | LWIP_DBG_TRACE | LWIP_DBG_LEVEL_SERIOUS, ("dhcp_renew: could not alloc
1188:Middlewares/Third_Party/LwIP/src/core/ipv4/dhcp.c ****     result = ERR_MEM;
 3087              		.loc 1 1188 12
 3088 00ca FF23     		movs	r3, #255
 3089 00cc FB77     		strb	r3, [r7, #31]
 3090              	.L180:
1189:Middlewares/Third_Party/LwIP/src/core/ipv4/dhcp.c ****   }
1190:Middlewares/Third_Party/LwIP/src/core/ipv4/dhcp.c ****   if (dhcp->tries < 255) {
 3091              		.loc 1 1190 11
 3092 00ce BB69     		ldr	r3, [r7, #24]
 3093 00d0 9B79     		ldrb	r3, [r3, #6]	@ zero_extendqisi2
 3094              		.loc 1 1190 6
 3095 00d2 FF2B     		cmp	r3, #255
 3096 00d4 05D0     		beq	.L181
1191:Middlewares/Third_Party/LwIP/src/core/ipv4/dhcp.c ****     dhcp->tries++;
 3097              		.loc 1 1191 9
 3098 00d6 BB69     		ldr	r3, [r7, #24]
 3099 00d8 9B79     		ldrb	r3, [r3, #6]	@ zero_extendqisi2
 3100              		.loc 1 1191 16
 3101 00da 0133     		adds	r3, r3, #1
 3102 00dc DAB2     		uxtb	r2, r3
 3103 00de BB69     		ldr	r3, [r7, #24]
 3104 00e0 9A71     		strb	r2, [r3, #6]
 3105              	.L181:
1192:Middlewares/Third_Party/LwIP/src/core/ipv4/dhcp.c ****   }
ARM GAS  /tmp/ccsjw2Nr.s 			page 77


1193:Middlewares/Third_Party/LwIP/src/core/ipv4/dhcp.c ****   /* back-off on retries, but to a maximum of 20 seconds */
1194:Middlewares/Third_Party/LwIP/src/core/ipv4/dhcp.c ****   msecs = (u16_t)(dhcp->tries < 10 ? dhcp->tries * 2000 : 20 * 1000);
 3106              		.loc 1 1194 23
 3107 00e2 BB69     		ldr	r3, [r7, #24]
 3108 00e4 9B79     		ldrb	r3, [r3, #6]	@ zero_extendqisi2
 3109              		.loc 1 1194 11
 3110 00e6 092B     		cmp	r3, #9
 3111 00e8 0AD8     		bhi	.L182
 3112              		.loc 1 1194 42 discriminator 1
 3113 00ea BB69     		ldr	r3, [r7, #24]
 3114 00ec 9B79     		ldrb	r3, [r3, #6]	@ zero_extendqisi2
 3115              		.loc 1 1194 11 discriminator 1
 3116 00ee 9BB2     		uxth	r3, r3
 3117 00f0 1A46     		mov	r2, r3	@ movhi
 3118 00f2 5201     		lsls	r2, r2, #5
 3119 00f4 D21A     		subs	r2, r2, r3
 3120 00f6 9200     		lsls	r2, r2, #2
 3121 00f8 1344     		add	r3, r3, r2
 3122 00fa 1B01     		lsls	r3, r3, #4
 3123 00fc 9BB2     		uxth	r3, r3
 3124 00fe 01E0     		b	.L183
 3125              	.L182:
 3126              		.loc 1 1194 11 is_stmt 0 discriminator 2
 3127 0100 44F62063 		movw	r3, #20000
 3128              	.L183:
 3129              		.loc 1 1194 9 is_stmt 1 discriminator 4
 3130 0104 FB81     		strh	r3, [r7, #14]	@ movhi
1195:Middlewares/Third_Party/LwIP/src/core/ipv4/dhcp.c ****   dhcp->request_timeout = (u16_t)((msecs + DHCP_FINE_TIMER_MSECS - 1) / DHCP_FINE_TIMER_MSECS);
 3131              		.loc 1 1195 66 discriminator 4
 3132 0106 FB89     		ldrh	r3, [r7, #14]
 3133 0108 03F2F313 		addw	r3, r3, #499
 3134              		.loc 1 1195 71 discriminator 4
 3135 010c 094A     		ldr	r2, .L185+8
 3136 010e 82FB0312 		smull	r1, r2, r2, r3
 3137 0112 5211     		asrs	r2, r2, #5
 3138 0114 DB17     		asrs	r3, r3, #31
 3139 0116 D31A     		subs	r3, r2, r3
 3140              		.loc 1 1195 27 discriminator 4
 3141 0118 9AB2     		uxth	r2, r3
 3142              		.loc 1 1195 25 discriminator 4
 3143 011a BB69     		ldr	r3, [r7, #24]
 3144 011c 1A81     		strh	r2, [r3, #8]	@ movhi
1196:Middlewares/Third_Party/LwIP/src/core/ipv4/dhcp.c ****   LWIP_DEBUGF(DHCP_DEBUG | LWIP_DBG_TRACE | LWIP_DBG_STATE, ("dhcp_renew(): set request timeout %"U
1197:Middlewares/Third_Party/LwIP/src/core/ipv4/dhcp.c ****   return result;
 3145              		.loc 1 1197 10 discriminator 4
 3146 011e 97F91F30 		ldrsb	r3, [r7, #31]
1198:Middlewares/Third_Party/LwIP/src/core/ipv4/dhcp.c **** }
 3147              		.loc 1 1198 1 discriminator 4
 3148 0122 1846     		mov	r0, r3
 3149 0124 2037     		adds	r7, r7, #32
 3150              	.LCFI102:
 3151              		.cfi_def_cfa_offset 8
 3152 0126 BD46     		mov	sp, r7
 3153              	.LCFI103:
 3154              		.cfi_def_cfa_register 13
 3155              		@ sp needed
 3156 0128 80BD     		pop	{r7, pc}
ARM GAS  /tmp/ccsjw2Nr.s 			page 78


 3157              	.L186:
 3158 012a 00BF     		.align	2
 3159              	.L185:
 3160 012c 00000000 		.word	dhcp_discover_request_options
 3161 0130 00000000 		.word	dhcp_pcb
 3162 0134 D34D6210 		.word	274877907
 3163              		.cfi_endproc
 3164              	.LFE154:
 3166              		.section	.text.dhcp_rebind,"ax",%progbits
 3167              		.align	1
 3168              		.syntax unified
 3169              		.thumb
 3170              		.thumb_func
 3171              		.fpu fpv4-sp-d16
 3173              	dhcp_rebind:
 3174              	.LFB155:
1199:Middlewares/Third_Party/LwIP/src/core/ipv4/dhcp.c **** 
1200:Middlewares/Third_Party/LwIP/src/core/ipv4/dhcp.c **** /**
1201:Middlewares/Third_Party/LwIP/src/core/ipv4/dhcp.c ****  * Rebind with a DHCP server for an existing DHCP lease.
1202:Middlewares/Third_Party/LwIP/src/core/ipv4/dhcp.c ****  *
1203:Middlewares/Third_Party/LwIP/src/core/ipv4/dhcp.c ****  * @param netif network interface which must rebind with a DHCP server
1204:Middlewares/Third_Party/LwIP/src/core/ipv4/dhcp.c ****  */
1205:Middlewares/Third_Party/LwIP/src/core/ipv4/dhcp.c **** static err_t
1206:Middlewares/Third_Party/LwIP/src/core/ipv4/dhcp.c **** dhcp_rebind(struct netif *netif)
1207:Middlewares/Third_Party/LwIP/src/core/ipv4/dhcp.c **** {
 3175              		.loc 1 1207 1
 3176              		.cfi_startproc
 3177              		@ args = 0, pretend = 0, frame = 32
 3178              		@ frame_needed = 1, uses_anonymous_args = 0
 3179 0000 80B5     		push	{r7, lr}
 3180              	.LCFI104:
 3181              		.cfi_def_cfa_offset 8
 3182              		.cfi_offset 7, -8
 3183              		.cfi_offset 14, -4
 3184 0002 8AB0     		sub	sp, sp, #40
 3185              	.LCFI105:
 3186              		.cfi_def_cfa_offset 48
 3187 0004 02AF     		add	r7, sp, #8
 3188              	.LCFI106:
 3189              		.cfi_def_cfa 7, 40
 3190 0006 7860     		str	r0, [r7, #4]
1208:Middlewares/Third_Party/LwIP/src/core/ipv4/dhcp.c ****   struct dhcp *dhcp = netif_dhcp_data(netif);
 3191              		.loc 1 1208 16
 3192 0008 7B68     		ldr	r3, [r7, #4]
 3193 000a 5B6A     		ldr	r3, [r3, #36]
 3194 000c BB61     		str	r3, [r7, #24]
1209:Middlewares/Third_Party/LwIP/src/core/ipv4/dhcp.c ****   err_t result;
1210:Middlewares/Third_Party/LwIP/src/core/ipv4/dhcp.c ****   u16_t msecs;
1211:Middlewares/Third_Party/LwIP/src/core/ipv4/dhcp.c ****   u8_t i;
1212:Middlewares/Third_Party/LwIP/src/core/ipv4/dhcp.c ****   struct pbuf *p_out;
1213:Middlewares/Third_Party/LwIP/src/core/ipv4/dhcp.c ****   u16_t options_out_len;
1214:Middlewares/Third_Party/LwIP/src/core/ipv4/dhcp.c **** 
1215:Middlewares/Third_Party/LwIP/src/core/ipv4/dhcp.c ****   LWIP_DEBUGF(DHCP_DEBUG | LWIP_DBG_TRACE | LWIP_DBG_STATE, ("dhcp_rebind()\n"));
1216:Middlewares/Third_Party/LwIP/src/core/ipv4/dhcp.c ****   dhcp_set_state(dhcp, DHCP_STATE_REBINDING);
 3195              		.loc 1 1216 3
 3196 000e 0421     		movs	r1, #4
 3197 0010 B869     		ldr	r0, [r7, #24]
ARM GAS  /tmp/ccsjw2Nr.s 			page 79


 3198 0012 FFF7FEFF 		bl	dhcp_set_state
1217:Middlewares/Third_Party/LwIP/src/core/ipv4/dhcp.c **** 
1218:Middlewares/Third_Party/LwIP/src/core/ipv4/dhcp.c ****   /* create and initialize the DHCP message header */
1219:Middlewares/Third_Party/LwIP/src/core/ipv4/dhcp.c ****   p_out = dhcp_create_msg(netif, dhcp, DHCP_REQUEST, &options_out_len);
 3199              		.loc 1 1219 11
 3200 0016 07F10C03 		add	r3, r7, #12
 3201 001a 0322     		movs	r2, #3
 3202 001c B969     		ldr	r1, [r7, #24]
 3203 001e 7868     		ldr	r0, [r7, #4]
 3204 0020 FFF7FEFF 		bl	dhcp_create_msg
 3205 0024 7861     		str	r0, [r7, #20]
1220:Middlewares/Third_Party/LwIP/src/core/ipv4/dhcp.c ****   if (p_out != NULL) {
 3206              		.loc 1 1220 6
 3207 0026 7B69     		ldr	r3, [r7, #20]
 3208 0028 002B     		cmp	r3, #0
 3209 002a 4CD0     		beq	.L188
 3210              	.LBB10:
1221:Middlewares/Third_Party/LwIP/src/core/ipv4/dhcp.c ****     struct dhcp_msg *msg_out = (struct dhcp_msg *)p_out->payload;
 3211              		.loc 1 1221 22
 3212 002c 7B69     		ldr	r3, [r7, #20]
 3213 002e 5B68     		ldr	r3, [r3, #4]
 3214 0030 3B61     		str	r3, [r7, #16]
1222:Middlewares/Third_Party/LwIP/src/core/ipv4/dhcp.c ****     options_out_len = dhcp_option(options_out_len, msg_out->options, DHCP_OPTION_MAX_MSG_SIZE, DHCP
 3215              		.loc 1 1222 23
 3216 0032 B889     		ldrh	r0, [r7, #12]
 3217              		.loc 1 1222 59
 3218 0034 3B69     		ldr	r3, [r7, #16]
 3219 0036 03F1F001 		add	r1, r3, #240
 3220              		.loc 1 1222 23
 3221 003a 0223     		movs	r3, #2
 3222 003c 3922     		movs	r2, #57
 3223 003e FFF7FEFF 		bl	dhcp_option
 3224 0042 0346     		mov	r3, r0
 3225              		.loc 1 1222 21
 3226 0044 BB81     		strh	r3, [r7, #12]	@ movhi
1223:Middlewares/Third_Party/LwIP/src/core/ipv4/dhcp.c ****     options_out_len = dhcp_option_short(options_out_len, msg_out->options, DHCP_MAX_MSG_LEN(netif))
 3227              		.loc 1 1223 23
 3228 0046 B889     		ldrh	r0, [r7, #12]
 3229              		.loc 1 1223 65
 3230 0048 3B69     		ldr	r3, [r7, #16]
 3231 004a 03F1F001 		add	r1, r3, #240
 3232              		.loc 1 1223 23
 3233 004e 7B68     		ldr	r3, [r7, #4]
 3234 0050 1B8D     		ldrh	r3, [r3, #40]
 3235 0052 1A46     		mov	r2, r3
 3236 0054 FFF7FEFF 		bl	dhcp_option_short
 3237 0058 0346     		mov	r3, r0
 3238              		.loc 1 1223 21
 3239 005a BB81     		strh	r3, [r7, #12]	@ movhi
1224:Middlewares/Third_Party/LwIP/src/core/ipv4/dhcp.c **** 
1225:Middlewares/Third_Party/LwIP/src/core/ipv4/dhcp.c ****     options_out_len = dhcp_option(options_out_len, msg_out->options, DHCP_OPTION_PARAMETER_REQUEST_
 3240              		.loc 1 1225 23
 3241 005c B889     		ldrh	r0, [r7, #12]
 3242              		.loc 1 1225 59
 3243 005e 3B69     		ldr	r3, [r7, #16]
 3244 0060 03F1F001 		add	r1, r3, #240
 3245              		.loc 1 1225 23
ARM GAS  /tmp/ccsjw2Nr.s 			page 80


 3246 0064 0323     		movs	r3, #3
 3247 0066 3722     		movs	r2, #55
 3248 0068 FFF7FEFF 		bl	dhcp_option
 3249 006c 0346     		mov	r3, r0
 3250              		.loc 1 1225 21
 3251 006e BB81     		strh	r3, [r7, #12]	@ movhi
1226:Middlewares/Third_Party/LwIP/src/core/ipv4/dhcp.c ****     for (i = 0; i < LWIP_ARRAYSIZE(dhcp_discover_request_options); i++) {
 3252              		.loc 1 1226 12
 3253 0070 0023     		movs	r3, #0
 3254 0072 BB77     		strb	r3, [r7, #30]
 3255              		.loc 1 1226 5
 3256 0074 0EE0     		b	.L189
 3257              	.L190:
1227:Middlewares/Third_Party/LwIP/src/core/ipv4/dhcp.c ****       options_out_len = dhcp_option_byte(options_out_len, msg_out->options, dhcp_discover_request_o
 3258              		.loc 1 1227 25 discriminator 3
 3259 0076 B889     		ldrh	r0, [r7, #12]
 3260              		.loc 1 1227 66 discriminator 3
 3261 0078 3B69     		ldr	r3, [r7, #16]
 3262 007a 03F1F001 		add	r1, r3, #240
 3263              		.loc 1 1227 25 discriminator 3
 3264 007e BB7F     		ldrb	r3, [r7, #30]	@ zero_extendqisi2
 3265 0080 294A     		ldr	r2, .L196
 3266 0082 D35C     		ldrb	r3, [r2, r3]	@ zero_extendqisi2
 3267 0084 1A46     		mov	r2, r3
 3268 0086 FFF7FEFF 		bl	dhcp_option_byte
 3269 008a 0346     		mov	r3, r0
 3270              		.loc 1 1227 23 discriminator 3
 3271 008c BB81     		strh	r3, [r7, #12]	@ movhi
1226:Middlewares/Third_Party/LwIP/src/core/ipv4/dhcp.c ****     for (i = 0; i < LWIP_ARRAYSIZE(dhcp_discover_request_options); i++) {
 3272              		.loc 1 1226 69 discriminator 3
 3273 008e BB7F     		ldrb	r3, [r7, #30]	@ zero_extendqisi2
 3274 0090 0133     		adds	r3, r3, #1
 3275 0092 BB77     		strb	r3, [r7, #30]
 3276              	.L189:
1226:Middlewares/Third_Party/LwIP/src/core/ipv4/dhcp.c ****     for (i = 0; i < LWIP_ARRAYSIZE(dhcp_discover_request_options); i++) {
 3277              		.loc 1 1226 5 discriminator 1
 3278 0094 BB7F     		ldrb	r3, [r7, #30]	@ zero_extendqisi2
 3279 0096 022B     		cmp	r3, #2
 3280 0098 EDD9     		bls	.L190
1228:Middlewares/Third_Party/LwIP/src/core/ipv4/dhcp.c ****     }
1229:Middlewares/Third_Party/LwIP/src/core/ipv4/dhcp.c **** 
1230:Middlewares/Third_Party/LwIP/src/core/ipv4/dhcp.c **** #if LWIP_NETIF_HOSTNAME
1231:Middlewares/Third_Party/LwIP/src/core/ipv4/dhcp.c ****     options_out_len = dhcp_option_hostname(options_out_len, msg_out->options, netif);
1232:Middlewares/Third_Party/LwIP/src/core/ipv4/dhcp.c **** #endif /* LWIP_NETIF_HOSTNAME */
1233:Middlewares/Third_Party/LwIP/src/core/ipv4/dhcp.c **** 
1234:Middlewares/Third_Party/LwIP/src/core/ipv4/dhcp.c ****     LWIP_HOOK_DHCP_APPEND_OPTIONS(netif, dhcp, DHCP_STATE_REBINDING, msg_out, DHCP_DISCOVER, &optio
1235:Middlewares/Third_Party/LwIP/src/core/ipv4/dhcp.c ****     dhcp_option_trailer(options_out_len, msg_out->options, p_out);
 3281              		.loc 1 1235 5
 3282 009a B889     		ldrh	r0, [r7, #12]
 3283              		.loc 1 1235 49
 3284 009c 3B69     		ldr	r3, [r7, #16]
 3285 009e F033     		adds	r3, r3, #240
 3286              		.loc 1 1235 5
 3287 00a0 7A69     		ldr	r2, [r7, #20]
 3288 00a2 1946     		mov	r1, r3
 3289 00a4 FFF7FEFF 		bl	dhcp_option_trailer
1236:Middlewares/Third_Party/LwIP/src/core/ipv4/dhcp.c **** 
ARM GAS  /tmp/ccsjw2Nr.s 			page 81


1237:Middlewares/Third_Party/LwIP/src/core/ipv4/dhcp.c ****     /* broadcast to server */
1238:Middlewares/Third_Party/LwIP/src/core/ipv4/dhcp.c ****     result = udp_sendto_if(dhcp_pcb, p_out, IP_ADDR_BROADCAST, LWIP_IANA_PORT_DHCP_SERVER, netif);
 3290              		.loc 1 1238 14
 3291 00a8 204B     		ldr	r3, .L196+4
 3292 00aa 1868     		ldr	r0, [r3]
 3293 00ac 7B68     		ldr	r3, [r7, #4]
 3294 00ae 0093     		str	r3, [sp]
 3295 00b0 4323     		movs	r3, #67
 3296 00b2 1F4A     		ldr	r2, .L196+8
 3297 00b4 7969     		ldr	r1, [r7, #20]
 3298 00b6 FFF7FEFF 		bl	udp_sendto_if
 3299 00ba 0346     		mov	r3, r0
 3300 00bc FB77     		strb	r3, [r7, #31]
1239:Middlewares/Third_Party/LwIP/src/core/ipv4/dhcp.c ****     pbuf_free(p_out);
 3301              		.loc 1 1239 5
 3302 00be 7869     		ldr	r0, [r7, #20]
 3303 00c0 FFF7FEFF 		bl	pbuf_free
 3304              	.LBE10:
 3305 00c4 01E0     		b	.L191
 3306              	.L188:
1240:Middlewares/Third_Party/LwIP/src/core/ipv4/dhcp.c ****     LWIP_DEBUGF(DHCP_DEBUG | LWIP_DBG_TRACE | LWIP_DBG_STATE, ("dhcp_rebind: REBINDING\n"));
1241:Middlewares/Third_Party/LwIP/src/core/ipv4/dhcp.c ****   } else {
1242:Middlewares/Third_Party/LwIP/src/core/ipv4/dhcp.c ****     LWIP_DEBUGF(DHCP_DEBUG | LWIP_DBG_TRACE | LWIP_DBG_LEVEL_SERIOUS, ("dhcp_rebind: could not allo
1243:Middlewares/Third_Party/LwIP/src/core/ipv4/dhcp.c ****     result = ERR_MEM;
 3307              		.loc 1 1243 12
 3308 00c6 FF23     		movs	r3, #255
 3309 00c8 FB77     		strb	r3, [r7, #31]
 3310              	.L191:
1244:Middlewares/Third_Party/LwIP/src/core/ipv4/dhcp.c ****   }
