ARM GAS  /tmp/ccXQGcXv.s 			page 1


   1              		.cpu cortex-m4
   2              		.eabi_attribute 27, 1
   3              		.eabi_attribute 28, 1
   4              		.eabi_attribute 20, 1
   5              		.eabi_attribute 21, 1
   6              		.eabi_attribute 23, 3
   7              		.eabi_attribute 24, 1
   8              		.eabi_attribute 25, 1
   9              		.eabi_attribute 26, 1
  10              		.eabi_attribute 30, 6
  11              		.eabi_attribute 34, 1
  12              		.eabi_attribute 18, 4
  13              		.file	"etharp.c"
  14              		.text
  15              	.Ltext0:
  16              		.cfi_sections	.debug_frame
  17              		.section	.bss.arp_table,"aw",%nobits
  18              		.align	2
  21              	arp_table:
  22 0000 00000000 		.space	240
  22      00000000 
  22      00000000 
  22      00000000 
  22      00000000 
  23              		.section	.bss.etharp_cached_entry,"aw",%nobits
  26              	etharp_cached_entry:
  27 0000 00       		.space	1
  28              		.section	.text.etharp_free_entry,"ax",%progbits
  29              		.align	1
  30              		.arch armv7e-m
  31              		.syntax unified
  32              		.thumb
  33              		.thumb_func
  34              		.fpu fpv4-sp-d16
  36              	etharp_free_entry:
  37              	.LFB133:
  38              		.file 1 "Middlewares/Third_Party/LwIP/src/core/ipv4/etharp.c"
   1:Middlewares/Third_Party/LwIP/src/core/ipv4/etharp.c **** /**
   2:Middlewares/Third_Party/LwIP/src/core/ipv4/etharp.c ****  * @file
   3:Middlewares/Third_Party/LwIP/src/core/ipv4/etharp.c ****  * Address Resolution Protocol module for IP over Ethernet
   4:Middlewares/Third_Party/LwIP/src/core/ipv4/etharp.c ****  *
   5:Middlewares/Third_Party/LwIP/src/core/ipv4/etharp.c ****  * Functionally, ARP is divided into two parts. The first maps an IP address
   6:Middlewares/Third_Party/LwIP/src/core/ipv4/etharp.c ****  * to a physical address when sending a packet, and the second part answers
   7:Middlewares/Third_Party/LwIP/src/core/ipv4/etharp.c ****  * requests from other machines for our physical address.
   8:Middlewares/Third_Party/LwIP/src/core/ipv4/etharp.c ****  *
   9:Middlewares/Third_Party/LwIP/src/core/ipv4/etharp.c ****  * This implementation complies with RFC 826 (Ethernet ARP). It supports
  10:Middlewares/Third_Party/LwIP/src/core/ipv4/etharp.c ****  * Gratuitious ARP from RFC3220 (IP Mobility Support for IPv4) section 4.6
  11:Middlewares/Third_Party/LwIP/src/core/ipv4/etharp.c ****  * if an interface calls etharp_gratuitous(our_netif) upon address change.
  12:Middlewares/Third_Party/LwIP/src/core/ipv4/etharp.c ****  */
  13:Middlewares/Third_Party/LwIP/src/core/ipv4/etharp.c **** 
  14:Middlewares/Third_Party/LwIP/src/core/ipv4/etharp.c **** /*
  15:Middlewares/Third_Party/LwIP/src/core/ipv4/etharp.c ****  * Copyright (c) 2001-2003 Swedish Institute of Computer Science.
  16:Middlewares/Third_Party/LwIP/src/core/ipv4/etharp.c ****  * Copyright (c) 2003-2004 Leon Woestenberg <leon.woestenberg@axon.tv>
  17:Middlewares/Third_Party/LwIP/src/core/ipv4/etharp.c ****  * Copyright (c) 2003-2004 Axon Digital Design B.V., The Netherlands.
  18:Middlewares/Third_Party/LwIP/src/core/ipv4/etharp.c ****  * All rights reserved.
  19:Middlewares/Third_Party/LwIP/src/core/ipv4/etharp.c ****  *
  20:Middlewares/Third_Party/LwIP/src/core/ipv4/etharp.c ****  * Redistribution and use in source and binary forms, with or without modification,
ARM GAS  /tmp/ccXQGcXv.s 			page 2


  21:Middlewares/Third_Party/LwIP/src/core/ipv4/etharp.c ****  * are permitted provided that the following conditions are met:
  22:Middlewares/Third_Party/LwIP/src/core/ipv4/etharp.c ****  *
  23:Middlewares/Third_Party/LwIP/src/core/ipv4/etharp.c ****  * 1. Redistributions of source code must retain the above copyright notice,
  24:Middlewares/Third_Party/LwIP/src/core/ipv4/etharp.c ****  *    this list of conditions and the following disclaimer.
  25:Middlewares/Third_Party/LwIP/src/core/ipv4/etharp.c ****  * 2. Redistributions in binary form must reproduce the above copyright notice,
  26:Middlewares/Third_Party/LwIP/src/core/ipv4/etharp.c ****  *    this list of conditions and the following disclaimer in the documentation
  27:Middlewares/Third_Party/LwIP/src/core/ipv4/etharp.c ****  *    and/or other materials provided with the distribution.
  28:Middlewares/Third_Party/LwIP/src/core/ipv4/etharp.c ****  * 3. The name of the author may not be used to endorse or promote products
  29:Middlewares/Third_Party/LwIP/src/core/ipv4/etharp.c ****  *    derived from this software without specific prior written permission.
  30:Middlewares/Third_Party/LwIP/src/core/ipv4/etharp.c ****  *
  31:Middlewares/Third_Party/LwIP/src/core/ipv4/etharp.c ****  * THIS SOFTWARE IS PROVIDED BY THE AUTHOR ``AS IS'' AND ANY EXPRESS OR IMPLIED
  32:Middlewares/Third_Party/LwIP/src/core/ipv4/etharp.c ****  * WARRANTIES, INCLUDING, BUT NOT LIMITED TO, THE IMPLIED WARRANTIES OF
  33:Middlewares/Third_Party/LwIP/src/core/ipv4/etharp.c ****  * MERCHANTABILITY AND FITNESS FOR A PARTICULAR PURPOSE ARE DISCLAIMED. IN NO EVENT
  34:Middlewares/Third_Party/LwIP/src/core/ipv4/etharp.c ****  * SHALL THE AUTHOR BE LIABLE FOR ANY DIRECT, INDIRECT, INCIDENTAL, SPECIAL,
  35:Middlewares/Third_Party/LwIP/src/core/ipv4/etharp.c ****  * EXEMPLARY, OR CONSEQUENTIAL DAMAGES (INCLUDING, BUT NOT LIMITED TO, PROCUREMENT
  36:Middlewares/Third_Party/LwIP/src/core/ipv4/etharp.c ****  * OF SUBSTITUTE GOODS OR SERVICES; LOSS OF USE, DATA, OR PROFITS; OR BUSINESS
  37:Middlewares/Third_Party/LwIP/src/core/ipv4/etharp.c ****  * INTERRUPTION) HOWEVER CAUSED AND ON ANY THEORY OF LIABILITY, WHETHER IN
  38:Middlewares/Third_Party/LwIP/src/core/ipv4/etharp.c ****  * CONTRACT, STRICT LIABILITY, OR TORT (INCLUDING NEGLIGENCE OR OTHERWISE) ARISING
  39:Middlewares/Third_Party/LwIP/src/core/ipv4/etharp.c ****  * IN ANY WAY OUT OF THE USE OF THIS SOFTWARE, EVEN IF ADVISED OF THE POSSIBILITY
  40:Middlewares/Third_Party/LwIP/src/core/ipv4/etharp.c ****  * OF SUCH DAMAGE.
  41:Middlewares/Third_Party/LwIP/src/core/ipv4/etharp.c ****  *
  42:Middlewares/Third_Party/LwIP/src/core/ipv4/etharp.c ****  * This file is part of the lwIP TCP/IP stack.
  43:Middlewares/Third_Party/LwIP/src/core/ipv4/etharp.c ****  *
  44:Middlewares/Third_Party/LwIP/src/core/ipv4/etharp.c ****  */
  45:Middlewares/Third_Party/LwIP/src/core/ipv4/etharp.c **** 
  46:Middlewares/Third_Party/LwIP/src/core/ipv4/etharp.c **** #include "lwip/opt.h"
  47:Middlewares/Third_Party/LwIP/src/core/ipv4/etharp.c **** 
  48:Middlewares/Third_Party/LwIP/src/core/ipv4/etharp.c **** #if LWIP_IPV4 && LWIP_ARP /* don't build if not configured for use in lwipopts.h */
  49:Middlewares/Third_Party/LwIP/src/core/ipv4/etharp.c **** 
  50:Middlewares/Third_Party/LwIP/src/core/ipv4/etharp.c **** #include "lwip/etharp.h"
  51:Middlewares/Third_Party/LwIP/src/core/ipv4/etharp.c **** #include "lwip/stats.h"
  52:Middlewares/Third_Party/LwIP/src/core/ipv4/etharp.c **** #include "lwip/snmp.h"
  53:Middlewares/Third_Party/LwIP/src/core/ipv4/etharp.c **** #include "lwip/dhcp.h"
  54:Middlewares/Third_Party/LwIP/src/core/ipv4/etharp.c **** #include "lwip/autoip.h"
  55:Middlewares/Third_Party/LwIP/src/core/ipv4/etharp.c **** #include "lwip/prot/iana.h"
  56:Middlewares/Third_Party/LwIP/src/core/ipv4/etharp.c **** #include "netif/ethernet.h"
  57:Middlewares/Third_Party/LwIP/src/core/ipv4/etharp.c **** 
  58:Middlewares/Third_Party/LwIP/src/core/ipv4/etharp.c **** #include <string.h>
  59:Middlewares/Third_Party/LwIP/src/core/ipv4/etharp.c **** 
  60:Middlewares/Third_Party/LwIP/src/core/ipv4/etharp.c **** #ifdef LWIP_HOOK_FILENAME
  61:Middlewares/Third_Party/LwIP/src/core/ipv4/etharp.c **** #include LWIP_HOOK_FILENAME
  62:Middlewares/Third_Party/LwIP/src/core/ipv4/etharp.c **** #endif
  63:Middlewares/Third_Party/LwIP/src/core/ipv4/etharp.c **** 
  64:Middlewares/Third_Party/LwIP/src/core/ipv4/etharp.c **** /** Re-request a used ARP entry 1 minute before it would expire to prevent
  65:Middlewares/Third_Party/LwIP/src/core/ipv4/etharp.c ****  *  breaking a steadily used connection because the ARP entry timed out. */
  66:Middlewares/Third_Party/LwIP/src/core/ipv4/etharp.c **** #define ARP_AGE_REREQUEST_USED_UNICAST   (ARP_MAXAGE - 30)
  67:Middlewares/Third_Party/LwIP/src/core/ipv4/etharp.c **** #define ARP_AGE_REREQUEST_USED_BROADCAST (ARP_MAXAGE - 15)
  68:Middlewares/Third_Party/LwIP/src/core/ipv4/etharp.c **** 
  69:Middlewares/Third_Party/LwIP/src/core/ipv4/etharp.c **** /** the time an ARP entry stays pending after first request,
  70:Middlewares/Third_Party/LwIP/src/core/ipv4/etharp.c ****  *  for ARP_TMR_INTERVAL = 1000, this is
  71:Middlewares/Third_Party/LwIP/src/core/ipv4/etharp.c ****  *  10 seconds.
  72:Middlewares/Third_Party/LwIP/src/core/ipv4/etharp.c ****  *
  73:Middlewares/Third_Party/LwIP/src/core/ipv4/etharp.c ****  *  @internal Keep this number at least 2, otherwise it might
  74:Middlewares/Third_Party/LwIP/src/core/ipv4/etharp.c ****  *  run out instantly if the timeout occurs directly after a request.
  75:Middlewares/Third_Party/LwIP/src/core/ipv4/etharp.c ****  */
  76:Middlewares/Third_Party/LwIP/src/core/ipv4/etharp.c **** #define ARP_MAXPENDING 5
  77:Middlewares/Third_Party/LwIP/src/core/ipv4/etharp.c **** 
ARM GAS  /tmp/ccXQGcXv.s 			page 3


  78:Middlewares/Third_Party/LwIP/src/core/ipv4/etharp.c **** /** ARP states */
  79:Middlewares/Third_Party/LwIP/src/core/ipv4/etharp.c **** enum etharp_state {
  80:Middlewares/Third_Party/LwIP/src/core/ipv4/etharp.c ****   ETHARP_STATE_EMPTY = 0,
  81:Middlewares/Third_Party/LwIP/src/core/ipv4/etharp.c ****   ETHARP_STATE_PENDING,
  82:Middlewares/Third_Party/LwIP/src/core/ipv4/etharp.c ****   ETHARP_STATE_STABLE,
  83:Middlewares/Third_Party/LwIP/src/core/ipv4/etharp.c ****   ETHARP_STATE_STABLE_REREQUESTING_1,
  84:Middlewares/Third_Party/LwIP/src/core/ipv4/etharp.c ****   ETHARP_STATE_STABLE_REREQUESTING_2
  85:Middlewares/Third_Party/LwIP/src/core/ipv4/etharp.c **** #if ETHARP_SUPPORT_STATIC_ENTRIES
  86:Middlewares/Third_Party/LwIP/src/core/ipv4/etharp.c ****   , ETHARP_STATE_STATIC
  87:Middlewares/Third_Party/LwIP/src/core/ipv4/etharp.c **** #endif /* ETHARP_SUPPORT_STATIC_ENTRIES */
  88:Middlewares/Third_Party/LwIP/src/core/ipv4/etharp.c **** };
  89:Middlewares/Third_Party/LwIP/src/core/ipv4/etharp.c **** 
  90:Middlewares/Third_Party/LwIP/src/core/ipv4/etharp.c **** struct etharp_entry {
  91:Middlewares/Third_Party/LwIP/src/core/ipv4/etharp.c **** #if ARP_QUEUEING
  92:Middlewares/Third_Party/LwIP/src/core/ipv4/etharp.c ****   /** Pointer to queue of pending outgoing packets on this ARP entry. */
  93:Middlewares/Third_Party/LwIP/src/core/ipv4/etharp.c ****   struct etharp_q_entry *q;
  94:Middlewares/Third_Party/LwIP/src/core/ipv4/etharp.c **** #else /* ARP_QUEUEING */
  95:Middlewares/Third_Party/LwIP/src/core/ipv4/etharp.c ****   /** Pointer to a single pending outgoing packet on this ARP entry. */
  96:Middlewares/Third_Party/LwIP/src/core/ipv4/etharp.c ****   struct pbuf *q;
  97:Middlewares/Third_Party/LwIP/src/core/ipv4/etharp.c **** #endif /* ARP_QUEUEING */
  98:Middlewares/Third_Party/LwIP/src/core/ipv4/etharp.c ****   ip4_addr_t ipaddr;
  99:Middlewares/Third_Party/LwIP/src/core/ipv4/etharp.c ****   struct netif *netif;
 100:Middlewares/Third_Party/LwIP/src/core/ipv4/etharp.c ****   struct eth_addr ethaddr;
 101:Middlewares/Third_Party/LwIP/src/core/ipv4/etharp.c ****   u16_t ctime;
 102:Middlewares/Third_Party/LwIP/src/core/ipv4/etharp.c ****   u8_t state;
 103:Middlewares/Third_Party/LwIP/src/core/ipv4/etharp.c **** };
 104:Middlewares/Third_Party/LwIP/src/core/ipv4/etharp.c **** 
 105:Middlewares/Third_Party/LwIP/src/core/ipv4/etharp.c **** static struct etharp_entry arp_table[ARP_TABLE_SIZE];
 106:Middlewares/Third_Party/LwIP/src/core/ipv4/etharp.c **** 
 107:Middlewares/Third_Party/LwIP/src/core/ipv4/etharp.c **** #if !LWIP_NETIF_HWADDRHINT
 108:Middlewares/Third_Party/LwIP/src/core/ipv4/etharp.c **** static netif_addr_idx_t etharp_cached_entry;
 109:Middlewares/Third_Party/LwIP/src/core/ipv4/etharp.c **** #endif /* !LWIP_NETIF_HWADDRHINT */
 110:Middlewares/Third_Party/LwIP/src/core/ipv4/etharp.c **** 
 111:Middlewares/Third_Party/LwIP/src/core/ipv4/etharp.c **** /** Try hard to create a new entry - we want the IP address to appear in
 112:Middlewares/Third_Party/LwIP/src/core/ipv4/etharp.c ****     the cache (even if this means removing an active entry or so). */
 113:Middlewares/Third_Party/LwIP/src/core/ipv4/etharp.c **** #define ETHARP_FLAG_TRY_HARD     1
 114:Middlewares/Third_Party/LwIP/src/core/ipv4/etharp.c **** #define ETHARP_FLAG_FIND_ONLY    2
 115:Middlewares/Third_Party/LwIP/src/core/ipv4/etharp.c **** #if ETHARP_SUPPORT_STATIC_ENTRIES
 116:Middlewares/Third_Party/LwIP/src/core/ipv4/etharp.c **** #define ETHARP_FLAG_STATIC_ENTRY 4
 117:Middlewares/Third_Party/LwIP/src/core/ipv4/etharp.c **** #endif /* ETHARP_SUPPORT_STATIC_ENTRIES */
 118:Middlewares/Third_Party/LwIP/src/core/ipv4/etharp.c **** 
 119:Middlewares/Third_Party/LwIP/src/core/ipv4/etharp.c **** #if LWIP_NETIF_HWADDRHINT
 120:Middlewares/Third_Party/LwIP/src/core/ipv4/etharp.c **** #define ETHARP_SET_ADDRHINT(netif, addrhint)  do { if (((netif) != NULL) && ((netif)->hints != NULL
 121:Middlewares/Third_Party/LwIP/src/core/ipv4/etharp.c ****                                               (netif)->hints->addr_hint = (addrhint); }} while(0)
 122:Middlewares/Third_Party/LwIP/src/core/ipv4/etharp.c **** #else /* LWIP_NETIF_HWADDRHINT */
 123:Middlewares/Third_Party/LwIP/src/core/ipv4/etharp.c **** #define ETHARP_SET_ADDRHINT(netif, addrhint)  (etharp_cached_entry = (addrhint))
 124:Middlewares/Third_Party/LwIP/src/core/ipv4/etharp.c **** #endif /* LWIP_NETIF_HWADDRHINT */
 125:Middlewares/Third_Party/LwIP/src/core/ipv4/etharp.c **** 
 126:Middlewares/Third_Party/LwIP/src/core/ipv4/etharp.c **** 
 127:Middlewares/Third_Party/LwIP/src/core/ipv4/etharp.c **** /* Check for maximum ARP_TABLE_SIZE */
 128:Middlewares/Third_Party/LwIP/src/core/ipv4/etharp.c **** #if (ARP_TABLE_SIZE > NETIF_ADDR_IDX_MAX)
 129:Middlewares/Third_Party/LwIP/src/core/ipv4/etharp.c **** #error "ARP_TABLE_SIZE must fit in an s16_t, you have to reduce it in your lwipopts.h"
 130:Middlewares/Third_Party/LwIP/src/core/ipv4/etharp.c **** #endif
 131:Middlewares/Third_Party/LwIP/src/core/ipv4/etharp.c **** 
 132:Middlewares/Third_Party/LwIP/src/core/ipv4/etharp.c **** 
 133:Middlewares/Third_Party/LwIP/src/core/ipv4/etharp.c **** static err_t etharp_request_dst(struct netif *netif, const ip4_addr_t *ipaddr, const struct eth_add
 134:Middlewares/Third_Party/LwIP/src/core/ipv4/etharp.c **** static err_t etharp_raw(struct netif *netif,
ARM GAS  /tmp/ccXQGcXv.s 			page 4


 135:Middlewares/Third_Party/LwIP/src/core/ipv4/etharp.c ****                         const struct eth_addr *ethsrc_addr, const struct eth_addr *ethdst_addr,
 136:Middlewares/Third_Party/LwIP/src/core/ipv4/etharp.c ****                         const struct eth_addr *hwsrc_addr, const ip4_addr_t *ipsrc_addr,
 137:Middlewares/Third_Party/LwIP/src/core/ipv4/etharp.c ****                         const struct eth_addr *hwdst_addr, const ip4_addr_t *ipdst_addr,
 138:Middlewares/Third_Party/LwIP/src/core/ipv4/etharp.c ****                         const u16_t opcode);
 139:Middlewares/Third_Party/LwIP/src/core/ipv4/etharp.c **** 
 140:Middlewares/Third_Party/LwIP/src/core/ipv4/etharp.c **** #if ARP_QUEUEING
 141:Middlewares/Third_Party/LwIP/src/core/ipv4/etharp.c **** /**
 142:Middlewares/Third_Party/LwIP/src/core/ipv4/etharp.c ****  * Free a complete queue of etharp entries
 143:Middlewares/Third_Party/LwIP/src/core/ipv4/etharp.c ****  *
 144:Middlewares/Third_Party/LwIP/src/core/ipv4/etharp.c ****  * @param q a qeueue of etharp_q_entry's to free
 145:Middlewares/Third_Party/LwIP/src/core/ipv4/etharp.c ****  */
 146:Middlewares/Third_Party/LwIP/src/core/ipv4/etharp.c **** static void
 147:Middlewares/Third_Party/LwIP/src/core/ipv4/etharp.c **** free_etharp_q(struct etharp_q_entry *q)
 148:Middlewares/Third_Party/LwIP/src/core/ipv4/etharp.c **** {
 149:Middlewares/Third_Party/LwIP/src/core/ipv4/etharp.c ****   struct etharp_q_entry *r;
 150:Middlewares/Third_Party/LwIP/src/core/ipv4/etharp.c ****   LWIP_ASSERT("q != NULL", q != NULL);
 151:Middlewares/Third_Party/LwIP/src/core/ipv4/etharp.c ****   while (q) {
 152:Middlewares/Third_Party/LwIP/src/core/ipv4/etharp.c ****     r = q;
 153:Middlewares/Third_Party/LwIP/src/core/ipv4/etharp.c ****     q = q->next;
 154:Middlewares/Third_Party/LwIP/src/core/ipv4/etharp.c ****     LWIP_ASSERT("r->p != NULL", (r->p != NULL));
 155:Middlewares/Third_Party/LwIP/src/core/ipv4/etharp.c ****     pbuf_free(r->p);
 156:Middlewares/Third_Party/LwIP/src/core/ipv4/etharp.c ****     memp_free(MEMP_ARP_QUEUE, r);
 157:Middlewares/Third_Party/LwIP/src/core/ipv4/etharp.c ****   }
 158:Middlewares/Third_Party/LwIP/src/core/ipv4/etharp.c **** }
 159:Middlewares/Third_Party/LwIP/src/core/ipv4/etharp.c **** #else /* ARP_QUEUEING */
 160:Middlewares/Third_Party/LwIP/src/core/ipv4/etharp.c **** 
 161:Middlewares/Third_Party/LwIP/src/core/ipv4/etharp.c **** /** Compatibility define: free the queued pbuf */
 162:Middlewares/Third_Party/LwIP/src/core/ipv4/etharp.c **** #define free_etharp_q(q) pbuf_free(q)
 163:Middlewares/Third_Party/LwIP/src/core/ipv4/etharp.c **** 
 164:Middlewares/Third_Party/LwIP/src/core/ipv4/etharp.c **** #endif /* ARP_QUEUEING */
 165:Middlewares/Third_Party/LwIP/src/core/ipv4/etharp.c **** 
 166:Middlewares/Third_Party/LwIP/src/core/ipv4/etharp.c **** /** Clean up ARP table entries */
 167:Middlewares/Third_Party/LwIP/src/core/ipv4/etharp.c **** static void
 168:Middlewares/Third_Party/LwIP/src/core/ipv4/etharp.c **** etharp_free_entry(int i)
 169:Middlewares/Third_Party/LwIP/src/core/ipv4/etharp.c **** {
  39              		.loc 1 169 1
  40              		.cfi_startproc
  41              		@ args = 0, pretend = 0, frame = 8
  42              		@ frame_needed = 1, uses_anonymous_args = 0
  43 0000 80B5     		push	{r7, lr}
  44              	.LCFI0:
  45              		.cfi_def_cfa_offset 8
  46              		.cfi_offset 7, -8
  47              		.cfi_offset 14, -4
  48 0002 82B0     		sub	sp, sp, #8
  49              	.LCFI1:
  50              		.cfi_def_cfa_offset 16
  51 0004 00AF     		add	r7, sp, #0
  52              	.LCFI2:
  53              		.cfi_def_cfa_register 7
  54 0006 7860     		str	r0, [r7, #4]
 170:Middlewares/Third_Party/LwIP/src/core/ipv4/etharp.c ****   /* remove from SNMP ARP index tree */
 171:Middlewares/Third_Party/LwIP/src/core/ipv4/etharp.c ****   mib2_remove_arp_entry(arp_table[i].netif, &arp_table[i].ipaddr);
 172:Middlewares/Third_Party/LwIP/src/core/ipv4/etharp.c ****   /* and empty packet queue */
 173:Middlewares/Third_Party/LwIP/src/core/ipv4/etharp.c ****   if (arp_table[i].q != NULL) {
  55              		.loc 1 173 19
  56 0008 1549     		ldr	r1, .L3
ARM GAS  /tmp/ccXQGcXv.s 			page 5


  57 000a 7A68     		ldr	r2, [r7, #4]
  58 000c 1346     		mov	r3, r2
  59 000e 5B00     		lsls	r3, r3, #1
  60 0010 1344     		add	r3, r3, r2
  61 0012 DB00     		lsls	r3, r3, #3
  62 0014 0B44     		add	r3, r3, r1
  63 0016 1B68     		ldr	r3, [r3]
  64              		.loc 1 173 6
  65 0018 002B     		cmp	r3, #0
  66 001a 13D0     		beq	.L2
 174:Middlewares/Third_Party/LwIP/src/core/ipv4/etharp.c ****     /* remove all queued packets */
 175:Middlewares/Third_Party/LwIP/src/core/ipv4/etharp.c ****     LWIP_DEBUGF(ETHARP_DEBUG, ("etharp_free_entry: freeing entry %"U16_F", packet queue %p.\n", (u1
 176:Middlewares/Third_Party/LwIP/src/core/ipv4/etharp.c ****     free_etharp_q(arp_table[i].q);
  67              		.loc 1 176 5
  68 001c 1049     		ldr	r1, .L3
  69 001e 7A68     		ldr	r2, [r7, #4]
  70 0020 1346     		mov	r3, r2
  71 0022 5B00     		lsls	r3, r3, #1
  72 0024 1344     		add	r3, r3, r2
  73 0026 DB00     		lsls	r3, r3, #3
  74 0028 0B44     		add	r3, r3, r1
  75 002a 1B68     		ldr	r3, [r3]
  76 002c 1846     		mov	r0, r3
  77 002e FFF7FEFF 		bl	pbuf_free
 177:Middlewares/Third_Party/LwIP/src/core/ipv4/etharp.c ****     arp_table[i].q = NULL;
  78              		.loc 1 177 20
  79 0032 0B49     		ldr	r1, .L3
  80 0034 7A68     		ldr	r2, [r7, #4]
  81 0036 1346     		mov	r3, r2
  82 0038 5B00     		lsls	r3, r3, #1
  83 003a 1344     		add	r3, r3, r2
  84 003c DB00     		lsls	r3, r3, #3
  85 003e 0B44     		add	r3, r3, r1
  86 0040 0022     		movs	r2, #0
  87 0042 1A60     		str	r2, [r3]
  88              	.L2:
 178:Middlewares/Third_Party/LwIP/src/core/ipv4/etharp.c ****   }
 179:Middlewares/Third_Party/LwIP/src/core/ipv4/etharp.c ****   /* recycle entry for re-use */
 180:Middlewares/Third_Party/LwIP/src/core/ipv4/etharp.c ****   arp_table[i].state = ETHARP_STATE_EMPTY;
  89              		.loc 1 180 22
  90 0044 0649     		ldr	r1, .L3
  91 0046 7A68     		ldr	r2, [r7, #4]
  92 0048 1346     		mov	r3, r2
  93 004a 5B00     		lsls	r3, r3, #1
  94 004c 1344     		add	r3, r3, r2
  95 004e DB00     		lsls	r3, r3, #3
  96 0050 0B44     		add	r3, r3, r1
  97 0052 1433     		adds	r3, r3, #20
  98 0054 0022     		movs	r2, #0
  99 0056 1A70     		strb	r2, [r3]
 181:Middlewares/Third_Party/LwIP/src/core/ipv4/etharp.c **** #ifdef LWIP_DEBUG
 182:Middlewares/Third_Party/LwIP/src/core/ipv4/etharp.c ****   /* for debugging, clean out the complete entry */
 183:Middlewares/Third_Party/LwIP/src/core/ipv4/etharp.c ****   arp_table[i].ctime = 0;
 184:Middlewares/Third_Party/LwIP/src/core/ipv4/etharp.c ****   arp_table[i].netif = NULL;
 185:Middlewares/Third_Party/LwIP/src/core/ipv4/etharp.c ****   ip4_addr_set_zero(&arp_table[i].ipaddr);
 186:Middlewares/Third_Party/LwIP/src/core/ipv4/etharp.c ****   arp_table[i].ethaddr = ethzero;
 187:Middlewares/Third_Party/LwIP/src/core/ipv4/etharp.c **** #endif /* LWIP_DEBUG */
ARM GAS  /tmp/ccXQGcXv.s 			page 6


 188:Middlewares/Third_Party/LwIP/src/core/ipv4/etharp.c **** }
 100              		.loc 1 188 1
 101 0058 00BF     		nop
 102 005a 0837     		adds	r7, r7, #8
 103              	.LCFI3:
 104              		.cfi_def_cfa_offset 8
 105 005c BD46     		mov	sp, r7
 106              	.LCFI4:
 107              		.cfi_def_cfa_register 13
 108              		@ sp needed
 109 005e 80BD     		pop	{r7, pc}
 110              	.L4:
 111              		.align	2
 112              	.L3:
 113 0060 00000000 		.word	arp_table
 114              		.cfi_endproc
 115              	.LFE133:
 117              		.section	.text.etharp_tmr,"ax",%progbits
 118              		.align	1
 119              		.global	etharp_tmr
 120              		.syntax unified
 121              		.thumb
 122              		.thumb_func
 123              		.fpu fpv4-sp-d16
 125              	etharp_tmr:
 126              	.LFB134:
 189:Middlewares/Third_Party/LwIP/src/core/ipv4/etharp.c **** 
 190:Middlewares/Third_Party/LwIP/src/core/ipv4/etharp.c **** /**
 191:Middlewares/Third_Party/LwIP/src/core/ipv4/etharp.c ****  * Clears expired entries in the ARP table.
 192:Middlewares/Third_Party/LwIP/src/core/ipv4/etharp.c ****  *
 193:Middlewares/Third_Party/LwIP/src/core/ipv4/etharp.c ****  * This function should be called every ARP_TMR_INTERVAL milliseconds (1 second),
 194:Middlewares/Third_Party/LwIP/src/core/ipv4/etharp.c ****  * in order to expire entries in the ARP table.
 195:Middlewares/Third_Party/LwIP/src/core/ipv4/etharp.c ****  */
 196:Middlewares/Third_Party/LwIP/src/core/ipv4/etharp.c **** void
 197:Middlewares/Third_Party/LwIP/src/core/ipv4/etharp.c **** etharp_tmr(void)
 198:Middlewares/Third_Party/LwIP/src/core/ipv4/etharp.c **** {
 127              		.loc 1 198 1
 128              		.cfi_startproc
 129              		@ args = 0, pretend = 0, frame = 8
 130              		@ frame_needed = 1, uses_anonymous_args = 0
 131 0000 80B5     		push	{r7, lr}
 132              	.LCFI5:
 133              		.cfi_def_cfa_offset 8
 134              		.cfi_offset 7, -8
 135              		.cfi_offset 14, -4
 136 0002 82B0     		sub	sp, sp, #8
 137              	.LCFI6:
 138              		.cfi_def_cfa_offset 16
 139 0004 00AF     		add	r7, sp, #0
 140              	.LCFI7:
 141              		.cfi_def_cfa_register 7
 199:Middlewares/Third_Party/LwIP/src/core/ipv4/etharp.c ****   int i;
 200:Middlewares/Third_Party/LwIP/src/core/ipv4/etharp.c **** 
 201:Middlewares/Third_Party/LwIP/src/core/ipv4/etharp.c ****   LWIP_DEBUGF(ETHARP_DEBUG, ("etharp_timer\n"));
 202:Middlewares/Third_Party/LwIP/src/core/ipv4/etharp.c ****   /* remove expired entries from the ARP table */
 203:Middlewares/Third_Party/LwIP/src/core/ipv4/etharp.c ****   for (i = 0; i < ARP_TABLE_SIZE; ++i) {
 142              		.loc 1 203 10
ARM GAS  /tmp/ccXQGcXv.s 			page 7


 143 0006 0023     		movs	r3, #0
 144 0008 7B60     		str	r3, [r7, #4]
 145              		.loc 1 203 3
 146 000a 96E0     		b	.L6
 147              	.L12:
 148              	.LBB2:
 204:Middlewares/Third_Party/LwIP/src/core/ipv4/etharp.c ****     u8_t state = arp_table[i].state;
 149              		.loc 1 204 10
 150 000c 4F49     		ldr	r1, .L13
 151 000e 7A68     		ldr	r2, [r7, #4]
 152 0010 1346     		mov	r3, r2
 153 0012 5B00     		lsls	r3, r3, #1
 154 0014 1344     		add	r3, r3, r2
 155 0016 DB00     		lsls	r3, r3, #3
 156 0018 0B44     		add	r3, r3, r1
 157 001a 1433     		adds	r3, r3, #20
 158 001c 1B78     		ldrb	r3, [r3]
 159 001e FB70     		strb	r3, [r7, #3]
 205:Middlewares/Third_Party/LwIP/src/core/ipv4/etharp.c ****     if (state != ETHARP_STATE_EMPTY
 160              		.loc 1 205 8
 161 0020 FB78     		ldrb	r3, [r7, #3]	@ zero_extendqisi2
 162 0022 002B     		cmp	r3, #0
 163 0024 00F08680 		beq	.L7
 206:Middlewares/Third_Party/LwIP/src/core/ipv4/etharp.c **** #if ETHARP_SUPPORT_STATIC_ENTRIES
 207:Middlewares/Third_Party/LwIP/src/core/ipv4/etharp.c ****         && (state != ETHARP_STATE_STATIC)
 208:Middlewares/Third_Party/LwIP/src/core/ipv4/etharp.c **** #endif /* ETHARP_SUPPORT_STATIC_ENTRIES */
 209:Middlewares/Third_Party/LwIP/src/core/ipv4/etharp.c ****        ) {
 210:Middlewares/Third_Party/LwIP/src/core/ipv4/etharp.c ****       arp_table[i].ctime++;
 164              		.loc 1 210 19
 165 0028 4849     		ldr	r1, .L13
 166 002a 7A68     		ldr	r2, [r7, #4]
 167 002c 1346     		mov	r3, r2
 168 002e 5B00     		lsls	r3, r3, #1
 169 0030 1344     		add	r3, r3, r2
 170 0032 DB00     		lsls	r3, r3, #3
 171 0034 0B44     		add	r3, r3, r1
 172 0036 1233     		adds	r3, r3, #18
 173 0038 1B88     		ldrh	r3, [r3]
 174              		.loc 1 210 25
 175 003a 0133     		adds	r3, r3, #1
 176 003c 98B2     		uxth	r0, r3
 177 003e 4349     		ldr	r1, .L13
 178 0040 7A68     		ldr	r2, [r7, #4]
 179 0042 1346     		mov	r3, r2
 180 0044 5B00     		lsls	r3, r3, #1
 181 0046 1344     		add	r3, r3, r2
 182 0048 DB00     		lsls	r3, r3, #3
 183 004a 0B44     		add	r3, r3, r1
 184 004c 1233     		adds	r3, r3, #18
 185 004e 0246     		mov	r2, r0	@ movhi
 186 0050 1A80     		strh	r2, [r3]	@ movhi
 211:Middlewares/Third_Party/LwIP/src/core/ipv4/etharp.c ****       if ((arp_table[i].ctime >= ARP_MAXAGE) ||
 187              		.loc 1 211 24
 188 0052 3E49     		ldr	r1, .L13
 189 0054 7A68     		ldr	r2, [r7, #4]
 190 0056 1346     		mov	r3, r2
 191 0058 5B00     		lsls	r3, r3, #1
ARM GAS  /tmp/ccXQGcXv.s 			page 8


 192 005a 1344     		add	r3, r3, r2
 193 005c DB00     		lsls	r3, r3, #3
 194 005e 0B44     		add	r3, r3, r1
 195 0060 1233     		adds	r3, r3, #18
 196 0062 1B88     		ldrh	r3, [r3]
 197              		.loc 1 211 10
 198 0064 B3F5967F 		cmp	r3, #300
 199 0068 15D2     		bcs	.L8
 212:Middlewares/Third_Party/LwIP/src/core/ipv4/etharp.c ****           ((arp_table[i].state == ETHARP_STATE_PENDING)  &&
 200              		.loc 1 212 25 discriminator 1
 201 006a 3849     		ldr	r1, .L13
 202 006c 7A68     		ldr	r2, [r7, #4]
 203 006e 1346     		mov	r3, r2
 204 0070 5B00     		lsls	r3, r3, #1
 205 0072 1344     		add	r3, r3, r2
 206 0074 DB00     		lsls	r3, r3, #3
 207 0076 0B44     		add	r3, r3, r1
 208 0078 1433     		adds	r3, r3, #20
 209 007a 1B78     		ldrb	r3, [r3]	@ zero_extendqisi2
 211:Middlewares/Third_Party/LwIP/src/core/ipv4/etharp.c ****       if ((arp_table[i].ctime >= ARP_MAXAGE) ||
 210              		.loc 1 211 46 discriminator 1
 211 007c 012B     		cmp	r3, #1
 212 007e 0ED1     		bne	.L9
 213:Middlewares/Third_Party/LwIP/src/core/ipv4/etharp.c ****            (arp_table[i].ctime >= ARP_MAXPENDING))) {
 213              		.loc 1 213 25
 214 0080 3249     		ldr	r1, .L13
 215 0082 7A68     		ldr	r2, [r7, #4]
 216 0084 1346     		mov	r3, r2
 217 0086 5B00     		lsls	r3, r3, #1
 218 0088 1344     		add	r3, r3, r2
 219 008a DB00     		lsls	r3, r3, #3
 220 008c 0B44     		add	r3, r3, r1
 221 008e 1233     		adds	r3, r3, #18
 222 0090 1B88     		ldrh	r3, [r3]
 212:Middlewares/Third_Party/LwIP/src/core/ipv4/etharp.c ****           ((arp_table[i].state == ETHARP_STATE_PENDING)  &&
 223              		.loc 1 212 58
 224 0092 042B     		cmp	r3, #4
 225 0094 03D9     		bls	.L9
 226              	.L8:
 214:Middlewares/Third_Party/LwIP/src/core/ipv4/etharp.c ****         /* pending or stable entry has become old! */
 215:Middlewares/Third_Party/LwIP/src/core/ipv4/etharp.c ****         LWIP_DEBUGF(ETHARP_DEBUG, ("etharp_timer: expired %s entry %d.\n",
 216:Middlewares/Third_Party/LwIP/src/core/ipv4/etharp.c ****                                    arp_table[i].state >= ETHARP_STATE_STABLE ? "stable" : "pending"
 217:Middlewares/Third_Party/LwIP/src/core/ipv4/etharp.c ****         /* clean up entries that have just been expired */
 218:Middlewares/Third_Party/LwIP/src/core/ipv4/etharp.c ****         etharp_free_entry(i);
 227              		.loc 1 218 9
 228 0096 7868     		ldr	r0, [r7, #4]
 229 0098 FFF7FEFF 		bl	etharp_free_entry
 230 009c 4AE0     		b	.L7
 231              	.L9:
 219:Middlewares/Third_Party/LwIP/src/core/ipv4/etharp.c ****       } else if (arp_table[i].state == ETHARP_STATE_STABLE_REREQUESTING_1) {
 232              		.loc 1 219 30
 233 009e 2B49     		ldr	r1, .L13
 234 00a0 7A68     		ldr	r2, [r7, #4]
 235 00a2 1346     		mov	r3, r2
 236 00a4 5B00     		lsls	r3, r3, #1
 237 00a6 1344     		add	r3, r3, r2
 238 00a8 DB00     		lsls	r3, r3, #3
ARM GAS  /tmp/ccXQGcXv.s 			page 9


 239 00aa 0B44     		add	r3, r3, r1
 240 00ac 1433     		adds	r3, r3, #20
 241 00ae 1B78     		ldrb	r3, [r3]	@ zero_extendqisi2
 242              		.loc 1 219 17
 243 00b0 032B     		cmp	r3, #3
 244 00b2 0AD1     		bne	.L10
 220:Middlewares/Third_Party/LwIP/src/core/ipv4/etharp.c ****         /* Don't send more than one request every 2 seconds. */
 221:Middlewares/Third_Party/LwIP/src/core/ipv4/etharp.c ****         arp_table[i].state = ETHARP_STATE_STABLE_REREQUESTING_2;
 245              		.loc 1 221 28
 246 00b4 2549     		ldr	r1, .L13
 247 00b6 7A68     		ldr	r2, [r7, #4]
 248 00b8 1346     		mov	r3, r2
 249 00ba 5B00     		lsls	r3, r3, #1
 250 00bc 1344     		add	r3, r3, r2
 251 00be DB00     		lsls	r3, r3, #3
 252 00c0 0B44     		add	r3, r3, r1
 253 00c2 1433     		adds	r3, r3, #20
 254 00c4 0422     		movs	r2, #4
 255 00c6 1A70     		strb	r2, [r3]
 256 00c8 34E0     		b	.L7
 257              	.L10:
 222:Middlewares/Third_Party/LwIP/src/core/ipv4/etharp.c ****       } else if (arp_table[i].state == ETHARP_STATE_STABLE_REREQUESTING_2) {
 258              		.loc 1 222 30
 259 00ca 2049     		ldr	r1, .L13
 260 00cc 7A68     		ldr	r2, [r7, #4]
 261 00ce 1346     		mov	r3, r2
 262 00d0 5B00     		lsls	r3, r3, #1
 263 00d2 1344     		add	r3, r3, r2
 264 00d4 DB00     		lsls	r3, r3, #3
 265 00d6 0B44     		add	r3, r3, r1
 266 00d8 1433     		adds	r3, r3, #20
 267 00da 1B78     		ldrb	r3, [r3]	@ zero_extendqisi2
 268              		.loc 1 222 17
 269 00dc 042B     		cmp	r3, #4
 270 00de 0AD1     		bne	.L11
 223:Middlewares/Third_Party/LwIP/src/core/ipv4/etharp.c ****         /* Reset state to stable, so that the next transmitted packet will
 224:Middlewares/Third_Party/LwIP/src/core/ipv4/etharp.c ****            re-send an ARP request. */
 225:Middlewares/Third_Party/LwIP/src/core/ipv4/etharp.c ****         arp_table[i].state = ETHARP_STATE_STABLE;
 271              		.loc 1 225 28
 272 00e0 1A49     		ldr	r1, .L13
 273 00e2 7A68     		ldr	r2, [r7, #4]
 274 00e4 1346     		mov	r3, r2
 275 00e6 5B00     		lsls	r3, r3, #1
 276 00e8 1344     		add	r3, r3, r2
 277 00ea DB00     		lsls	r3, r3, #3
 278 00ec 0B44     		add	r3, r3, r1
 279 00ee 1433     		adds	r3, r3, #20
 280 00f0 0222     		movs	r2, #2
 281 00f2 1A70     		strb	r2, [r3]
 282 00f4 1EE0     		b	.L7
 283              	.L11:
 226:Middlewares/Third_Party/LwIP/src/core/ipv4/etharp.c ****       } else if (arp_table[i].state == ETHARP_STATE_PENDING) {
 284              		.loc 1 226 30
 285 00f6 1549     		ldr	r1, .L13
 286 00f8 7A68     		ldr	r2, [r7, #4]
 287 00fa 1346     		mov	r3, r2
 288 00fc 5B00     		lsls	r3, r3, #1
ARM GAS  /tmp/ccXQGcXv.s 			page 10


 289 00fe 1344     		add	r3, r3, r2
 290 0100 DB00     		lsls	r3, r3, #3
 291 0102 0B44     		add	r3, r3, r1
 292 0104 1433     		adds	r3, r3, #20
 293 0106 1B78     		ldrb	r3, [r3]	@ zero_extendqisi2
 294              		.loc 1 226 17
 295 0108 012B     		cmp	r3, #1
 296 010a 13D1     		bne	.L7
 227:Middlewares/Third_Party/LwIP/src/core/ipv4/etharp.c ****         /* still pending, resend an ARP query */
 228:Middlewares/Third_Party/LwIP/src/core/ipv4/etharp.c ****         etharp_request(arp_table[i].netif, &arp_table[i].ipaddr);
 297              		.loc 1 228 9
 298 010c 0F49     		ldr	r1, .L13
 299 010e 7A68     		ldr	r2, [r7, #4]
 300 0110 1346     		mov	r3, r2
 301 0112 5B00     		lsls	r3, r3, #1
 302 0114 1344     		add	r3, r3, r2
 303 0116 DB00     		lsls	r3, r3, #3
 304 0118 0B44     		add	r3, r3, r1
 305 011a 0833     		adds	r3, r3, #8
 306 011c 1868     		ldr	r0, [r3]
 307              		.loc 1 228 44
 308 011e 7A68     		ldr	r2, [r7, #4]
 309 0120 1346     		mov	r3, r2
 310 0122 5B00     		lsls	r3, r3, #1
 311 0124 1344     		add	r3, r3, r2
 312 0126 DB00     		lsls	r3, r3, #3
 313 0128 084A     		ldr	r2, .L13
 314 012a 1344     		add	r3, r3, r2
 315 012c 0433     		adds	r3, r3, #4
 316              		.loc 1 228 9
 317 012e 1946     		mov	r1, r3
 318 0130 FFF7FEFF 		bl	etharp_request
 319              	.L7:
 320              	.LBE2:
 203:Middlewares/Third_Party/LwIP/src/core/ipv4/etharp.c ****     u8_t state = arp_table[i].state;
 321              		.loc 1 203 35 discriminator 2
 322 0134 7B68     		ldr	r3, [r7, #4]
 323 0136 0133     		adds	r3, r3, #1
 324 0138 7B60     		str	r3, [r7, #4]
 325              	.L6:
 203:Middlewares/Third_Party/LwIP/src/core/ipv4/etharp.c ****     u8_t state = arp_table[i].state;
 326              		.loc 1 203 3 discriminator 1
 327 013a 7B68     		ldr	r3, [r7, #4]
 328 013c 092B     		cmp	r3, #9
 329 013e 7FF765AF 		ble	.L12
 229:Middlewares/Third_Party/LwIP/src/core/ipv4/etharp.c ****       }
 230:Middlewares/Third_Party/LwIP/src/core/ipv4/etharp.c ****     }
 231:Middlewares/Third_Party/LwIP/src/core/ipv4/etharp.c ****   }
 232:Middlewares/Third_Party/LwIP/src/core/ipv4/etharp.c **** }
 330              		.loc 1 232 1
 331 0142 00BF     		nop
 332 0144 0837     		adds	r7, r7, #8
 333              	.LCFI8:
 334              		.cfi_def_cfa_offset 8
 335 0146 BD46     		mov	sp, r7
 336              	.LCFI9:
 337              		.cfi_def_cfa_register 13
ARM GAS  /tmp/ccXQGcXv.s 			page 11


 338              		@ sp needed
 339 0148 80BD     		pop	{r7, pc}
 340              	.L14:
 341 014a 00BF     		.align	2
 342              	.L13:
 343 014c 00000000 		.word	arp_table
 344              		.cfi_endproc
 345              	.LFE134:
 347              		.section	.rodata
 348              		.align	2
 349              	.LC0:
 350 0000 4D696464 		.ascii	"Middlewares/Third_Party/LwIP/src/core/ipv4/etharp.c"
 350      6C657761 
 350      7265732F 
 350      54686972 
 350      645F5061 
 351 0033 00       		.ascii	"\000"
 352              		.align	2
 353              	.LC1:
 354 0034 73746174 		.ascii	"state == ETHARP_STATE_PENDING || state >= ETHARP_ST"
 354      65203D3D 
 354      20455448 
 354      4152505F 
 354      53544154 
 355 0067 4154455F 		.ascii	"ATE_STABLE\000"
 355      53544142 
 355      4C4500
 356 0072 0000     		.align	2
 357              	.LC2:
 358 0074 41737365 		.ascii	"Assertion \"%s\" failed at line %d in %s\012\000"
 358      7274696F 
 358      6E202225 
 358      73222066 
 358      61696C65 
 359              		.align	2
 360              	.LC3:
 361 009c 6172705F 		.ascii	"arp_table[i].q == NULL\000"
 361      7461626C 
 361      655B695D 
 361      2E71203D 
 361      3D204E55 
 362 00b3 00       		.align	2
 363              	.LC4:
 364 00b4 69203C20 		.ascii	"i < ARP_TABLE_SIZE\000"
 364      4152505F 
 364      5441424C 
 364      455F5349 
 364      5A4500
 365 00c7 00       		.align	2
 366              	.LC5:
 367 00c8 6172705F 		.ascii	"arp_table[i].state == ETHARP_STATE_EMPTY\000"
 367      7461626C 
 367      655B695D 
 367      2E737461 
 367      7465203D 
 368              		.section	.text.etharp_find_entry,"ax",%progbits
 369              		.align	1
ARM GAS  /tmp/ccXQGcXv.s 			page 12


 370              		.syntax unified
 371              		.thumb
 372              		.thumb_func
 373              		.fpu fpv4-sp-d16
 375              	etharp_find_entry:
 376              	.LFB135:
 233:Middlewares/Third_Party/LwIP/src/core/ipv4/etharp.c **** 
 234:Middlewares/Third_Party/LwIP/src/core/ipv4/etharp.c **** /**
 235:Middlewares/Third_Party/LwIP/src/core/ipv4/etharp.c ****  * Search the ARP table for a matching or new entry.
 236:Middlewares/Third_Party/LwIP/src/core/ipv4/etharp.c ****  *
 237:Middlewares/Third_Party/LwIP/src/core/ipv4/etharp.c ****  * If an IP address is given, return a pending or stable ARP entry that matches
 238:Middlewares/Third_Party/LwIP/src/core/ipv4/etharp.c ****  * the address. If no match is found, create a new entry with this address set,
 239:Middlewares/Third_Party/LwIP/src/core/ipv4/etharp.c ****  * but in state ETHARP_EMPTY. The caller must check and possibly change the
 240:Middlewares/Third_Party/LwIP/src/core/ipv4/etharp.c ****  * state of the returned entry.
 241:Middlewares/Third_Party/LwIP/src/core/ipv4/etharp.c ****  *
 242:Middlewares/Third_Party/LwIP/src/core/ipv4/etharp.c ****  * If ipaddr is NULL, return a initialized new entry in state ETHARP_EMPTY.
 243:Middlewares/Third_Party/LwIP/src/core/ipv4/etharp.c ****  *
 244:Middlewares/Third_Party/LwIP/src/core/ipv4/etharp.c ****  * In all cases, attempt to create new entries from an empty entry. If no
 245:Middlewares/Third_Party/LwIP/src/core/ipv4/etharp.c ****  * empty entries are available and ETHARP_FLAG_TRY_HARD flag is set, recycle
 246:Middlewares/Third_Party/LwIP/src/core/ipv4/etharp.c ****  * old entries. Heuristic choose the least important entry for recycling.
 247:Middlewares/Third_Party/LwIP/src/core/ipv4/etharp.c ****  *
 248:Middlewares/Third_Party/LwIP/src/core/ipv4/etharp.c ****  * @param ipaddr IP address to find in ARP cache, or to add if not found.
 249:Middlewares/Third_Party/LwIP/src/core/ipv4/etharp.c ****  * @param flags See @ref etharp_state
 250:Middlewares/Third_Party/LwIP/src/core/ipv4/etharp.c ****  * @param netif netif related to this address (used for NETIF_HWADDRHINT)
 251:Middlewares/Third_Party/LwIP/src/core/ipv4/etharp.c ****  *
 252:Middlewares/Third_Party/LwIP/src/core/ipv4/etharp.c ****  * @return The ARP entry index that matched or is created, ERR_MEM if no
 253:Middlewares/Third_Party/LwIP/src/core/ipv4/etharp.c ****  * entry is found or could be recycled.
 254:Middlewares/Third_Party/LwIP/src/core/ipv4/etharp.c ****  */
 255:Middlewares/Third_Party/LwIP/src/core/ipv4/etharp.c **** static s16_t
 256:Middlewares/Third_Party/LwIP/src/core/ipv4/etharp.c **** etharp_find_entry(const ip4_addr_t *ipaddr, u8_t flags, struct netif *netif)
 257:Middlewares/Third_Party/LwIP/src/core/ipv4/etharp.c **** {
 377              		.loc 1 257 1
 378              		.cfi_startproc
 379              		@ args = 0, pretend = 0, frame = 40
 380              		@ frame_needed = 1, uses_anonymous_args = 0
 381 0000 80B5     		push	{r7, lr}
 382              	.LCFI10:
 383              		.cfi_def_cfa_offset 8
 384              		.cfi_offset 7, -8
 385              		.cfi_offset 14, -4
 386 0002 8AB0     		sub	sp, sp, #40
 387              	.LCFI11:
 388              		.cfi_def_cfa_offset 48
 389 0004 00AF     		add	r7, sp, #0
 390              	.LCFI12:
 391              		.cfi_def_cfa_register 7
 392 0006 F860     		str	r0, [r7, #12]
 393 0008 0B46     		mov	r3, r1
 394 000a 7A60     		str	r2, [r7, #4]
 395 000c FB72     		strb	r3, [r7, #11]
 258:Middlewares/Third_Party/LwIP/src/core/ipv4/etharp.c ****   s16_t old_pending = ARP_TABLE_SIZE, old_stable = ARP_TABLE_SIZE;
 396              		.loc 1 258 9
 397 000e 0A23     		movs	r3, #10
 398 0010 FB84     		strh	r3, [r7, #38]	@ movhi
 399              		.loc 1 258 39
 400 0012 0A23     		movs	r3, #10
 401 0014 BB84     		strh	r3, [r7, #36]	@ movhi
ARM GAS  /tmp/ccXQGcXv.s 			page 13


 259:Middlewares/Third_Party/LwIP/src/core/ipv4/etharp.c ****   s16_t empty = ARP_TABLE_SIZE;
 402              		.loc 1 259 9
 403 0016 0A23     		movs	r3, #10
 404 0018 7B84     		strh	r3, [r7, #34]	@ movhi
 260:Middlewares/Third_Party/LwIP/src/core/ipv4/etharp.c ****   s16_t i = 0;
 405              		.loc 1 260 9
 406 001a 0023     		movs	r3, #0
 407 001c 3B84     		strh	r3, [r7, #32]	@ movhi
 261:Middlewares/Third_Party/LwIP/src/core/ipv4/etharp.c ****   /* oldest entry with packets on queue */
 262:Middlewares/Third_Party/LwIP/src/core/ipv4/etharp.c ****   s16_t old_queue = ARP_TABLE_SIZE;
 408              		.loc 1 262 9
 409 001e 0A23     		movs	r3, #10
 410 0020 FB83     		strh	r3, [r7, #30]	@ movhi
 263:Middlewares/Third_Party/LwIP/src/core/ipv4/etharp.c ****   /* its age */
 264:Middlewares/Third_Party/LwIP/src/core/ipv4/etharp.c ****   u16_t age_queue = 0, age_pending = 0, age_stable = 0;
 411              		.loc 1 264 9
 412 0022 0023     		movs	r3, #0
 413 0024 BB83     		strh	r3, [r7, #28]	@ movhi
 414              		.loc 1 264 24
 415 0026 0023     		movs	r3, #0
 416 0028 7B83     		strh	r3, [r7, #26]	@ movhi
 417              		.loc 1 264 41
 418 002a 0023     		movs	r3, #0
 419 002c 3B83     		strh	r3, [r7, #24]	@ movhi
 265:Middlewares/Third_Party/LwIP/src/core/ipv4/etharp.c **** 
 266:Middlewares/Third_Party/LwIP/src/core/ipv4/etharp.c ****   LWIP_UNUSED_ARG(netif);
 267:Middlewares/Third_Party/LwIP/src/core/ipv4/etharp.c **** 
 268:Middlewares/Third_Party/LwIP/src/core/ipv4/etharp.c ****   /**
 269:Middlewares/Third_Party/LwIP/src/core/ipv4/etharp.c ****    * a) do a search through the cache, remember candidates
 270:Middlewares/Third_Party/LwIP/src/core/ipv4/etharp.c ****    * b) select candidate entry
 271:Middlewares/Third_Party/LwIP/src/core/ipv4/etharp.c ****    * c) create new entry
 272:Middlewares/Third_Party/LwIP/src/core/ipv4/etharp.c ****    */
 273:Middlewares/Third_Party/LwIP/src/core/ipv4/etharp.c **** 
 274:Middlewares/Third_Party/LwIP/src/core/ipv4/etharp.c ****   /* a) in a single search sweep, do all of this
 275:Middlewares/Third_Party/LwIP/src/core/ipv4/etharp.c ****    * 1) remember the first empty entry (if any)
 276:Middlewares/Third_Party/LwIP/src/core/ipv4/etharp.c ****    * 2) remember the oldest stable entry (if any)
 277:Middlewares/Third_Party/LwIP/src/core/ipv4/etharp.c ****    * 3) remember the oldest pending entry without queued packets (if any)
 278:Middlewares/Third_Party/LwIP/src/core/ipv4/etharp.c ****    * 4) remember the oldest pending entry with queued packets (if any)
 279:Middlewares/Third_Party/LwIP/src/core/ipv4/etharp.c ****    * 5) search for a matching IP entry, either pending or stable
 280:Middlewares/Third_Party/LwIP/src/core/ipv4/etharp.c ****    *    until 5 matches, or all entries are searched for.
 281:Middlewares/Third_Party/LwIP/src/core/ipv4/etharp.c ****    */
 282:Middlewares/Third_Party/LwIP/src/core/ipv4/etharp.c **** 
 283:Middlewares/Third_Party/LwIP/src/core/ipv4/etharp.c ****   for (i = 0; i < ARP_TABLE_SIZE; ++i) {
 420              		.loc 1 283 10
 421 002e 0023     		movs	r3, #0
 422 0030 3B84     		strh	r3, [r7, #32]	@ movhi
 423              		.loc 1 283 3
 424 0032 AEE0     		b	.L16
 425              	.L27:
 426              	.LBB3:
 284:Middlewares/Third_Party/LwIP/src/core/ipv4/etharp.c ****     u8_t state = arp_table[i].state;
 427              		.loc 1 284 30
 428 0034 B7F92020 		ldrsh	r2, [r7, #32]
 429              		.loc 1 284 10
 430 0038 A649     		ldr	r1, .L41
 431 003a 1346     		mov	r3, r2
 432 003c 5B00     		lsls	r3, r3, #1
ARM GAS  /tmp/ccXQGcXv.s 			page 14


 433 003e 1344     		add	r3, r3, r2
 434 0040 DB00     		lsls	r3, r3, #3
 435 0042 0B44     		add	r3, r3, r1
 436 0044 1433     		adds	r3, r3, #20
 437 0046 1B78     		ldrb	r3, [r3]
 438 0048 FB75     		strb	r3, [r7, #23]
 285:Middlewares/Third_Party/LwIP/src/core/ipv4/etharp.c ****     /* no empty entry found yet and now we do find one? */
 286:Middlewares/Third_Party/LwIP/src/core/ipv4/etharp.c ****     if ((empty == ARP_TABLE_SIZE) && (state == ETHARP_STATE_EMPTY)) {
 439              		.loc 1 286 8
 440 004a B7F92230 		ldrsh	r3, [r7, #34]
 441 004e 0A2B     		cmp	r3, #10
 442 0050 05D1     		bne	.L17
 443              		.loc 1 286 35 discriminator 1
 444 0052 FB7D     		ldrb	r3, [r7, #23]	@ zero_extendqisi2
 445 0054 002B     		cmp	r3, #0
 446 0056 02D1     		bne	.L17
 287:Middlewares/Third_Party/LwIP/src/core/ipv4/etharp.c ****       LWIP_DEBUGF(ETHARP_DEBUG, ("etharp_find_entry: found empty entry %d\n", (int)i));
 288:Middlewares/Third_Party/LwIP/src/core/ipv4/etharp.c ****       /* remember first empty entry */
 289:Middlewares/Third_Party/LwIP/src/core/ipv4/etharp.c ****       empty = i;
 447              		.loc 1 289 13
 448 0058 3B8C     		ldrh	r3, [r7, #32]	@ movhi
 449 005a 7B84     		strh	r3, [r7, #34]	@ movhi
 450 005c 95E0     		b	.L18
 451              	.L17:
 290:Middlewares/Third_Party/LwIP/src/core/ipv4/etharp.c ****     } else if (state != ETHARP_STATE_EMPTY) {
 452              		.loc 1 290 15
 453 005e FB7D     		ldrb	r3, [r7, #23]	@ zero_extendqisi2
 454 0060 002B     		cmp	r3, #0
 455 0062 00F09280 		beq	.L18
 291:Middlewares/Third_Party/LwIP/src/core/ipv4/etharp.c ****       LWIP_ASSERT("state == ETHARP_STATE_PENDING || state >= ETHARP_STATE_STABLE",
 456              		.loc 1 291 7
 457 0066 FB7D     		ldrb	r3, [r7, #23]	@ zero_extendqisi2
 458 0068 012B     		cmp	r3, #1
 459 006a 09D0     		beq	.L19
 460              		.loc 1 291 7 is_stmt 0 discriminator 1
 461 006c FB7D     		ldrb	r3, [r7, #23]	@ zero_extendqisi2
 462 006e 012B     		cmp	r3, #1
 463 0070 06D8     		bhi	.L19
 464              		.loc 1 291 7 discriminator 2
 465 0072 994B     		ldr	r3, .L41+4
 466 0074 4FF49272 		mov	r2, #292
 467 0078 9849     		ldr	r1, .L41+8
 468 007a 9948     		ldr	r0, .L41+12
 469 007c FFF7FEFF 		bl	printf
 470              	.L19:
 292:Middlewares/Third_Party/LwIP/src/core/ipv4/etharp.c ****                   state == ETHARP_STATE_PENDING || state >= ETHARP_STATE_STABLE);
 293:Middlewares/Third_Party/LwIP/src/core/ipv4/etharp.c ****       /* if given, does IP address match IP address in ARP entry? */
 294:Middlewares/Third_Party/LwIP/src/core/ipv4/etharp.c ****       if (ipaddr && ip4_addr_cmp(ipaddr, &arp_table[i].ipaddr)
 471              		.loc 1 294 10 is_stmt 1
 472 0080 FB68     		ldr	r3, [r7, #12]
 473 0082 002B     		cmp	r3, #0
 474 0084 20D0     		beq	.L20
 475              		.loc 1 294 21 discriminator 1
 476 0086 FB68     		ldr	r3, [r7, #12]
 477 0088 1968     		ldr	r1, [r3]
 478 008a B7F92020 		ldrsh	r2, [r7, #32]
 479 008e 9148     		ldr	r0, .L41
ARM GAS  /tmp/ccXQGcXv.s 			page 15


 480 0090 1346     		mov	r3, r2
 481 0092 5B00     		lsls	r3, r3, #1
 482 0094 1344     		add	r3, r3, r2
 483 0096 DB00     		lsls	r3, r3, #3
 484 0098 0344     		add	r3, r3, r0
 485 009a 0433     		adds	r3, r3, #4
 486 009c 1B68     		ldr	r3, [r3]
 487              		.loc 1 294 18 discriminator 1
 488 009e 9942     		cmp	r1, r3
 489 00a0 12D1     		bne	.L20
 295:Middlewares/Third_Party/LwIP/src/core/ipv4/etharp.c **** #if ETHARP_TABLE_MATCH_NETIF
 296:Middlewares/Third_Party/LwIP/src/core/ipv4/etharp.c ****           && ((netif == NULL) || (netif == arp_table[i].netif))
 490              		.loc 1 296 11
 491 00a2 7B68     		ldr	r3, [r7, #4]
 492 00a4 002B     		cmp	r3, #0
 493 00a6 0CD0     		beq	.L21
 494              		.loc 1 296 56 discriminator 1
 495 00a8 B7F92020 		ldrsh	r2, [r7, #32]
 496 00ac 8949     		ldr	r1, .L41
 497 00ae 1346     		mov	r3, r2
 498 00b0 5B00     		lsls	r3, r3, #1
 499 00b2 1344     		add	r3, r3, r2
 500 00b4 DB00     		lsls	r3, r3, #3
 501 00b6 0B44     		add	r3, r3, r1
 502 00b8 0833     		adds	r3, r3, #8
 503 00ba 1B68     		ldr	r3, [r3]
 504              		.loc 1 296 31 discriminator 1
 505 00bc 7A68     		ldr	r2, [r7, #4]
 506 00be 9A42     		cmp	r2, r3
 507 00c0 02D1     		bne	.L20
 508              	.L21:
 297:Middlewares/Third_Party/LwIP/src/core/ipv4/etharp.c **** #endif /* ETHARP_TABLE_MATCH_NETIF */
 298:Middlewares/Third_Party/LwIP/src/core/ipv4/etharp.c ****          ) {
 299:Middlewares/Third_Party/LwIP/src/core/ipv4/etharp.c ****         LWIP_DEBUGF(ETHARP_DEBUG | LWIP_DBG_TRACE, ("etharp_find_entry: found matching entry %d\n",
 300:Middlewares/Third_Party/LwIP/src/core/ipv4/etharp.c ****         /* found exact IP address match, simply bail out */
 301:Middlewares/Third_Party/LwIP/src/core/ipv4/etharp.c ****         return i;
 509              		.loc 1 301 16
 510 00c2 B7F92030 		ldrsh	r3, [r7, #32]
 511 00c6 00E1     		b	.L22
 512              	.L20:
 302:Middlewares/Third_Party/LwIP/src/core/ipv4/etharp.c ****       }
 303:Middlewares/Third_Party/LwIP/src/core/ipv4/etharp.c ****       /* pending entry? */
 304:Middlewares/Third_Party/LwIP/src/core/ipv4/etharp.c ****       if (state == ETHARP_STATE_PENDING) {
 513              		.loc 1 304 10
 514 00c8 FB7D     		ldrb	r3, [r7, #23]	@ zero_extendqisi2
 515 00ca 012B     		cmp	r3, #1
 516 00cc 40D1     		bne	.L23
 305:Middlewares/Third_Party/LwIP/src/core/ipv4/etharp.c ****         /* pending with queued packets? */
 306:Middlewares/Third_Party/LwIP/src/core/ipv4/etharp.c ****         if (arp_table[i].q != NULL) {
 517              		.loc 1 306 25
 518 00ce B7F92020 		ldrsh	r2, [r7, #32]
 519 00d2 8049     		ldr	r1, .L41
 520 00d4 1346     		mov	r3, r2
 521 00d6 5B00     		lsls	r3, r3, #1
 522 00d8 1344     		add	r3, r3, r2
 523 00da DB00     		lsls	r3, r3, #3
 524 00dc 0B44     		add	r3, r3, r1
ARM GAS  /tmp/ccXQGcXv.s 			page 16


 525 00de 1B68     		ldr	r3, [r3]
 526              		.loc 1 306 12
 527 00e0 002B     		cmp	r3, #0
 528 00e2 1AD0     		beq	.L24
 307:Middlewares/Third_Party/LwIP/src/core/ipv4/etharp.c ****           if (arp_table[i].ctime >= age_queue) {
 529              		.loc 1 307 27
 530 00e4 B7F92020 		ldrsh	r2, [r7, #32]
 531 00e8 7A49     		ldr	r1, .L41
 532 00ea 1346     		mov	r3, r2
 533 00ec 5B00     		lsls	r3, r3, #1
 534 00ee 1344     		add	r3, r3, r2
 535 00f0 DB00     		lsls	r3, r3, #3
 536 00f2 0B44     		add	r3, r3, r1
 537 00f4 1233     		adds	r3, r3, #18
 538 00f6 1B88     		ldrh	r3, [r3]
 539              		.loc 1 307 14
 540 00f8 BA8B     		ldrh	r2, [r7, #28]
 541 00fa 9A42     		cmp	r2, r3
 542 00fc 45D8     		bhi	.L18
 308:Middlewares/Third_Party/LwIP/src/core/ipv4/etharp.c ****             old_queue = i;
 543              		.loc 1 308 23
 544 00fe 3B8C     		ldrh	r3, [r7, #32]	@ movhi
 545 0100 FB83     		strh	r3, [r7, #30]	@ movhi
 309:Middlewares/Third_Party/LwIP/src/core/ipv4/etharp.c ****             age_queue = arp_table[i].ctime;
 546              		.loc 1 309 37
 547 0102 B7F92020 		ldrsh	r2, [r7, #32]
 548              		.loc 1 309 23
 549 0106 7349     		ldr	r1, .L41
 550 0108 1346     		mov	r3, r2
 551 010a 5B00     		lsls	r3, r3, #1
 552 010c 1344     		add	r3, r3, r2
 553 010e DB00     		lsls	r3, r3, #3
 554 0110 0B44     		add	r3, r3, r1
 555 0112 1233     		adds	r3, r3, #18
 556 0114 1B88     		ldrh	r3, [r3]	@ movhi
 557 0116 BB83     		strh	r3, [r7, #28]	@ movhi
 558 0118 37E0     		b	.L18
 559              	.L24:
 310:Middlewares/Third_Party/LwIP/src/core/ipv4/etharp.c ****           }
 311:Middlewares/Third_Party/LwIP/src/core/ipv4/etharp.c ****         } else
 312:Middlewares/Third_Party/LwIP/src/core/ipv4/etharp.c ****           /* pending without queued packets? */
 313:Middlewares/Third_Party/LwIP/src/core/ipv4/etharp.c ****         {
 314:Middlewares/Third_Party/LwIP/src/core/ipv4/etharp.c ****           if (arp_table[i].ctime >= age_pending) {
 560              		.loc 1 314 27
 561 011a B7F92020 		ldrsh	r2, [r7, #32]
 562 011e 6D49     		ldr	r1, .L41
 563 0120 1346     		mov	r3, r2
 564 0122 5B00     		lsls	r3, r3, #1
 565 0124 1344     		add	r3, r3, r2
 566 0126 DB00     		lsls	r3, r3, #3
 567 0128 0B44     		add	r3, r3, r1
 568 012a 1233     		adds	r3, r3, #18
 569 012c 1B88     		ldrh	r3, [r3]
 570              		.loc 1 314 14
 571 012e 7A8B     		ldrh	r2, [r7, #26]
 572 0130 9A42     		cmp	r2, r3
 573 0132 2AD8     		bhi	.L18
ARM GAS  /tmp/ccXQGcXv.s 			page 17


 315:Middlewares/Third_Party/LwIP/src/core/ipv4/etharp.c ****             old_pending = i;
 574              		.loc 1 315 25
 575 0134 3B8C     		ldrh	r3, [r7, #32]	@ movhi
 576 0136 FB84     		strh	r3, [r7, #38]	@ movhi
 316:Middlewares/Third_Party/LwIP/src/core/ipv4/etharp.c ****             age_pending = arp_table[i].ctime;
 577              		.loc 1 316 39
 578 0138 B7F92020 		ldrsh	r2, [r7, #32]
 579              		.loc 1 316 25
 580 013c 6549     		ldr	r1, .L41
 581 013e 1346     		mov	r3, r2
 582 0140 5B00     		lsls	r3, r3, #1
 583 0142 1344     		add	r3, r3, r2
 584 0144 DB00     		lsls	r3, r3, #3
 585 0146 0B44     		add	r3, r3, r1
 586 0148 1233     		adds	r3, r3, #18
 587 014a 1B88     		ldrh	r3, [r3]	@ movhi
 588 014c 7B83     		strh	r3, [r7, #26]	@ movhi
 589 014e 1CE0     		b	.L18
 590              	.L23:
 317:Middlewares/Third_Party/LwIP/src/core/ipv4/etharp.c ****           }
 318:Middlewares/Third_Party/LwIP/src/core/ipv4/etharp.c ****         }
 319:Middlewares/Third_Party/LwIP/src/core/ipv4/etharp.c ****         /* stable entry? */
 320:Middlewares/Third_Party/LwIP/src/core/ipv4/etharp.c ****       } else if (state >= ETHARP_STATE_STABLE) {
 591              		.loc 1 320 17
 592 0150 FB7D     		ldrb	r3, [r7, #23]	@ zero_extendqisi2
 593 0152 012B     		cmp	r3, #1
 594 0154 19D9     		bls	.L18
 321:Middlewares/Third_Party/LwIP/src/core/ipv4/etharp.c **** #if ETHARP_SUPPORT_STATIC_ENTRIES
 322:Middlewares/Third_Party/LwIP/src/core/ipv4/etharp.c ****         /* don't record old_stable for static entries since they never expire */
 323:Middlewares/Third_Party/LwIP/src/core/ipv4/etharp.c ****         if (state < ETHARP_STATE_STATIC)
 324:Middlewares/Third_Party/LwIP/src/core/ipv4/etharp.c **** #endif /* ETHARP_SUPPORT_STATIC_ENTRIES */
 325:Middlewares/Third_Party/LwIP/src/core/ipv4/etharp.c ****         {
 326:Middlewares/Third_Party/LwIP/src/core/ipv4/etharp.c ****           /* remember entry with oldest stable entry in oldest, its age in maxtime */
 327:Middlewares/Third_Party/LwIP/src/core/ipv4/etharp.c ****           if (arp_table[i].ctime >= age_stable) {
 595              		.loc 1 327 27
 596 0156 B7F92020 		ldrsh	r2, [r7, #32]
 597 015a 5E49     		ldr	r1, .L41
 598 015c 1346     		mov	r3, r2
 599 015e 5B00     		lsls	r3, r3, #1
 600 0160 1344     		add	r3, r3, r2
 601 0162 DB00     		lsls	r3, r3, #3
 602 0164 0B44     		add	r3, r3, r1
 603 0166 1233     		adds	r3, r3, #18
 604 0168 1B88     		ldrh	r3, [r3]
 605              		.loc 1 327 14
 606 016a 3A8B     		ldrh	r2, [r7, #24]
 607 016c 9A42     		cmp	r2, r3
 608 016e 0CD8     		bhi	.L18
 328:Middlewares/Third_Party/LwIP/src/core/ipv4/etharp.c ****             old_stable = i;
 609              		.loc 1 328 24
 610 0170 3B8C     		ldrh	r3, [r7, #32]	@ movhi
 611 0172 BB84     		strh	r3, [r7, #36]	@ movhi
 329:Middlewares/Third_Party/LwIP/src/core/ipv4/etharp.c ****             age_stable = arp_table[i].ctime;
 612              		.loc 1 329 38
 613 0174 B7F92020 		ldrsh	r2, [r7, #32]
 614              		.loc 1 329 24
 615 0178 5649     		ldr	r1, .L41
ARM GAS  /tmp/ccXQGcXv.s 			page 18


 616 017a 1346     		mov	r3, r2
 617 017c 5B00     		lsls	r3, r3, #1
 618 017e 1344     		add	r3, r3, r2
 619 0180 DB00     		lsls	r3, r3, #3
 620 0182 0B44     		add	r3, r3, r1
 621 0184 1233     		adds	r3, r3, #18
 622 0186 1B88     		ldrh	r3, [r3]	@ movhi
 623 0188 3B83     		strh	r3, [r7, #24]	@ movhi
 624              	.L18:
 625              	.LBE3:
 283:Middlewares/Third_Party/LwIP/src/core/ipv4/etharp.c ****     u8_t state = arp_table[i].state;
 626              		.loc 1 283 35 discriminator 2
 627 018a 3B8C     		ldrh	r3, [r7, #32]
 628 018c 0133     		adds	r3, r3, #1
 629 018e 9BB2     		uxth	r3, r3
 630 0190 3B84     		strh	r3, [r7, #32]	@ movhi
 631              	.L16:
 283:Middlewares/Third_Party/LwIP/src/core/ipv4/etharp.c ****     u8_t state = arp_table[i].state;
 632              		.loc 1 283 3 discriminator 1
 633 0192 B7F92030 		ldrsh	r3, [r7, #32]
 634 0196 092B     		cmp	r3, #9
 635 0198 7FF74CAF 		ble	.L27
 330:Middlewares/Third_Party/LwIP/src/core/ipv4/etharp.c ****           }
 331:Middlewares/Third_Party/LwIP/src/core/ipv4/etharp.c ****         }
 332:Middlewares/Third_Party/LwIP/src/core/ipv4/etharp.c ****       }
 333:Middlewares/Third_Party/LwIP/src/core/ipv4/etharp.c ****     }
 334:Middlewares/Third_Party/LwIP/src/core/ipv4/etharp.c ****   }
 335:Middlewares/Third_Party/LwIP/src/core/ipv4/etharp.c ****   /* { we have no match } => try to create a new entry */
 336:Middlewares/Third_Party/LwIP/src/core/ipv4/etharp.c **** 
 337:Middlewares/Third_Party/LwIP/src/core/ipv4/etharp.c ****   /* don't create new entry, only search? */
 338:Middlewares/Third_Party/LwIP/src/core/ipv4/etharp.c ****   if (((flags & ETHARP_FLAG_FIND_ONLY) != 0) ||
 636              		.loc 1 338 15
 637 019c FB7A     		ldrb	r3, [r7, #11]	@ zero_extendqisi2
 638 019e 03F00203 		and	r3, r3, #2
 639              		.loc 1 338 6
 640 01a2 002B     		cmp	r3, #0
 641 01a4 08D1     		bne	.L28
 642              		.loc 1 338 46 discriminator 1
 643 01a6 B7F92230 		ldrsh	r3, [r7, #34]
 644 01aa 0A2B     		cmp	r3, #10
 645 01ac 07D1     		bne	.L29
 339:Middlewares/Third_Party/LwIP/src/core/ipv4/etharp.c ****       /* or no empty entry found and not allowed to recycle? */
 340:Middlewares/Third_Party/LwIP/src/core/ipv4/etharp.c ****       ((empty == ARP_TABLE_SIZE) && ((flags & ETHARP_FLAG_TRY_HARD) == 0))) {
 646              		.loc 1 340 45
 647 01ae FB7A     		ldrb	r3, [r7, #11]	@ zero_extendqisi2
 648 01b0 03F00103 		and	r3, r3, #1
 649              		.loc 1 340 34
 650 01b4 002B     		cmp	r3, #0
 651 01b6 02D1     		bne	.L29
 652              	.L28:
 341:Middlewares/Third_Party/LwIP/src/core/ipv4/etharp.c ****     LWIP_DEBUGF(ETHARP_DEBUG | LWIP_DBG_TRACE, ("etharp_find_entry: no empty entry found and not al
 342:Middlewares/Third_Party/LwIP/src/core/ipv4/etharp.c ****     return (s16_t)ERR_MEM;
 653              		.loc 1 342 12
 654 01b8 4FF0FF33 		mov	r3, #-1
 655 01bc 85E0     		b	.L22
 656              	.L29:
 343:Middlewares/Third_Party/LwIP/src/core/ipv4/etharp.c ****   }
ARM GAS  /tmp/ccXQGcXv.s 			page 19


 344:Middlewares/Third_Party/LwIP/src/core/ipv4/etharp.c **** 
 345:Middlewares/Third_Party/LwIP/src/core/ipv4/etharp.c ****   /* b) choose the least destructive entry to recycle:
 346:Middlewares/Third_Party/LwIP/src/core/ipv4/etharp.c ****    * 1) empty entry
 347:Middlewares/Third_Party/LwIP/src/core/ipv4/etharp.c ****    * 2) oldest stable entry
 348:Middlewares/Third_Party/LwIP/src/core/ipv4/etharp.c ****    * 3) oldest pending entry without queued packets
 349:Middlewares/Third_Party/LwIP/src/core/ipv4/etharp.c ****    * 4) oldest pending entry with queued packets
 350:Middlewares/Third_Party/LwIP/src/core/ipv4/etharp.c ****    *
 351:Middlewares/Third_Party/LwIP/src/core/ipv4/etharp.c ****    * { ETHARP_FLAG_TRY_HARD is set at this point }
 352:Middlewares/Third_Party/LwIP/src/core/ipv4/etharp.c ****    */
 353:Middlewares/Third_Party/LwIP/src/core/ipv4/etharp.c **** 
 354:Middlewares/Third_Party/LwIP/src/core/ipv4/etharp.c ****   /* 1) empty entry available? */
 355:Middlewares/Third_Party/LwIP/src/core/ipv4/etharp.c ****   if (empty < ARP_TABLE_SIZE) {
 657              		.loc 1 355 6
 658 01be B7F92230 		ldrsh	r3, [r7, #34]
 659 01c2 092B     		cmp	r3, #9
 660 01c4 02DC     		bgt	.L30
 356:Middlewares/Third_Party/LwIP/src/core/ipv4/etharp.c ****     i = empty;
 661              		.loc 1 356 7
 662 01c6 7B8C     		ldrh	r3, [r7, #34]	@ movhi
 663 01c8 3B84     		strh	r3, [r7, #32]	@ movhi
 664 01ca 39E0     		b	.L31
 665              	.L30:
 357:Middlewares/Third_Party/LwIP/src/core/ipv4/etharp.c ****     LWIP_DEBUGF(ETHARP_DEBUG | LWIP_DBG_TRACE, ("etharp_find_entry: selecting empty entry %d\n", (i
 358:Middlewares/Third_Party/LwIP/src/core/ipv4/etharp.c ****   } else {
 359:Middlewares/Third_Party/LwIP/src/core/ipv4/etharp.c ****     /* 2) found recyclable stable entry? */
 360:Middlewares/Third_Party/LwIP/src/core/ipv4/etharp.c ****     if (old_stable < ARP_TABLE_SIZE) {
 666              		.loc 1 360 8
 667 01cc B7F92430 		ldrsh	r3, [r7, #36]
 668 01d0 092B     		cmp	r3, #9
 669 01d2 14DC     		bgt	.L32
 361:Middlewares/Third_Party/LwIP/src/core/ipv4/etharp.c ****       /* recycle oldest stable*/
 362:Middlewares/Third_Party/LwIP/src/core/ipv4/etharp.c ****       i = old_stable;
 670              		.loc 1 362 9
 671 01d4 BB8C     		ldrh	r3, [r7, #36]	@ movhi
 672 01d6 3B84     		strh	r3, [r7, #32]	@ movhi
 363:Middlewares/Third_Party/LwIP/src/core/ipv4/etharp.c ****       LWIP_DEBUGF(ETHARP_DEBUG | LWIP_DBG_TRACE, ("etharp_find_entry: selecting oldest stable entry
 364:Middlewares/Third_Party/LwIP/src/core/ipv4/etharp.c ****       /* no queued packets should exist on stable entries */
 365:Middlewares/Third_Party/LwIP/src/core/ipv4/etharp.c ****       LWIP_ASSERT("arp_table[i].q == NULL", arp_table[i].q == NULL);
 673              		.loc 1 365 7
 674 01d8 B7F92020 		ldrsh	r2, [r7, #32]
 675 01dc 3D49     		ldr	r1, .L41
 676 01de 1346     		mov	r3, r2
 677 01e0 5B00     		lsls	r3, r3, #1
 678 01e2 1344     		add	r3, r3, r2
 679 01e4 DB00     		lsls	r3, r3, #3
 680 01e6 0B44     		add	r3, r3, r1
 681 01e8 1B68     		ldr	r3, [r3]
 682 01ea 002B     		cmp	r3, #0
 683 01ec 18D0     		beq	.L34
 684              		.loc 1 365 7 is_stmt 0 discriminator 1
 685 01ee 3A4B     		ldr	r3, .L41+4
 686 01f0 40F26D12 		movw	r2, #365
 687 01f4 3B49     		ldr	r1, .L41+16
 688 01f6 3A48     		ldr	r0, .L41+12
 689 01f8 FFF7FEFF 		bl	printf
 690 01fc 10E0     		b	.L34
 691              	.L32:
ARM GAS  /tmp/ccXQGcXv.s 			page 20


 366:Middlewares/Third_Party/LwIP/src/core/ipv4/etharp.c ****       /* 3) found recyclable pending entry without queued packets? */
 367:Middlewares/Third_Party/LwIP/src/core/ipv4/etharp.c ****     } else if (old_pending < ARP_TABLE_SIZE) {
 692              		.loc 1 367 15 is_stmt 1
 693 01fe B7F92630 		ldrsh	r3, [r7, #38]
 694 0202 092B     		cmp	r3, #9
 695 0204 02DC     		bgt	.L35
 368:Middlewares/Third_Party/LwIP/src/core/ipv4/etharp.c ****       /* recycle oldest pending */
 369:Middlewares/Third_Party/LwIP/src/core/ipv4/etharp.c ****       i = old_pending;
 696              		.loc 1 369 9
 697 0206 FB8C     		ldrh	r3, [r7, #38]	@ movhi
 698 0208 3B84     		strh	r3, [r7, #32]	@ movhi
 699 020a 09E0     		b	.L34
 700              	.L35:
 370:Middlewares/Third_Party/LwIP/src/core/ipv4/etharp.c ****       LWIP_DEBUGF(ETHARP_DEBUG | LWIP_DBG_TRACE, ("etharp_find_entry: selecting oldest pending entr
 371:Middlewares/Third_Party/LwIP/src/core/ipv4/etharp.c ****       /* 4) found recyclable pending entry with queued packets? */
 372:Middlewares/Third_Party/LwIP/src/core/ipv4/etharp.c ****     } else if (old_queue < ARP_TABLE_SIZE) {
 701              		.loc 1 372 15
 702 020c B7F91E30 		ldrsh	r3, [r7, #30]
 703 0210 092B     		cmp	r3, #9
 704 0212 02DC     		bgt	.L36
 373:Middlewares/Third_Party/LwIP/src/core/ipv4/etharp.c ****       /* recycle oldest pending (queued packets are free in etharp_free_entry) */
 374:Middlewares/Third_Party/LwIP/src/core/ipv4/etharp.c ****       i = old_queue;
 705              		.loc 1 374 9
 706 0214 FB8B     		ldrh	r3, [r7, #30]	@ movhi
 707 0216 3B84     		strh	r3, [r7, #32]	@ movhi
 708 0218 02E0     		b	.L34
 709              	.L36:
 375:Middlewares/Third_Party/LwIP/src/core/ipv4/etharp.c ****       LWIP_DEBUGF(ETHARP_DEBUG | LWIP_DBG_TRACE, ("etharp_find_entry: selecting oldest pending entr
 376:Middlewares/Third_Party/LwIP/src/core/ipv4/etharp.c ****       /* no empty or recyclable entries found */
 377:Middlewares/Third_Party/LwIP/src/core/ipv4/etharp.c ****     } else {
 378:Middlewares/Third_Party/LwIP/src/core/ipv4/etharp.c ****       LWIP_DEBUGF(ETHARP_DEBUG | LWIP_DBG_TRACE, ("etharp_find_entry: no empty or recyclable entrie
 379:Middlewares/Third_Party/LwIP/src/core/ipv4/etharp.c ****       return (s16_t)ERR_MEM;
 710              		.loc 1 379 14
 711 021a 4FF0FF33 		mov	r3, #-1
 712 021e 54E0     		b	.L22
 713              	.L34:
 380:Middlewares/Third_Party/LwIP/src/core/ipv4/etharp.c ****     }
 381:Middlewares/Third_Party/LwIP/src/core/ipv4/etharp.c **** 
 382:Middlewares/Third_Party/LwIP/src/core/ipv4/etharp.c ****     /* { empty or recyclable entry found } */
 383:Middlewares/Third_Party/LwIP/src/core/ipv4/etharp.c ****     LWIP_ASSERT("i < ARP_TABLE_SIZE", i < ARP_TABLE_SIZE);
 714              		.loc 1 383 5
 715 0220 B7F92030 		ldrsh	r3, [r7, #32]
 716 0224 092B     		cmp	r3, #9
 717 0226 06DD     		ble	.L37
 718              		.loc 1 383 5 is_stmt 0 discriminator 1
 719 0228 2B4B     		ldr	r3, .L41+4
 720 022a 40F27F12 		movw	r2, #383
 721 022e 2E49     		ldr	r1, .L41+20
 722 0230 2B48     		ldr	r0, .L41+12
 723 0232 FFF7FEFF 		bl	printf
 724              	.L37:
 384:Middlewares/Third_Party/LwIP/src/core/ipv4/etharp.c ****     etharp_free_entry(i);
 725              		.loc 1 384 5 is_stmt 1
 726 0236 B7F92030 		ldrsh	r3, [r7, #32]
 727 023a 1846     		mov	r0, r3
 728 023c FFF7FEFF 		bl	etharp_free_entry
 729              	.L31:
ARM GAS  /tmp/ccXQGcXv.s 			page 21


 385:Middlewares/Third_Party/LwIP/src/core/ipv4/etharp.c ****   }
 386:Middlewares/Third_Party/LwIP/src/core/ipv4/etharp.c **** 
 387:Middlewares/Third_Party/LwIP/src/core/ipv4/etharp.c ****   LWIP_ASSERT("i < ARP_TABLE_SIZE", i < ARP_TABLE_SIZE);
 730              		.loc 1 387 3
 731 0240 B7F92030 		ldrsh	r3, [r7, #32]
 732 0244 092B     		cmp	r3, #9
 733 0246 06DD     		ble	.L38
 734              		.loc 1 387 3 is_stmt 0 discriminator 1
 735 0248 234B     		ldr	r3, .L41+4
 736 024a 40F28312 		movw	r2, #387
 737 024e 2649     		ldr	r1, .L41+20
 738 0250 2348     		ldr	r0, .L41+12
 739 0252 FFF7FEFF 		bl	printf
 740              	.L38:
 388:Middlewares/Third_Party/LwIP/src/core/ipv4/etharp.c ****   LWIP_ASSERT("arp_table[i].state == ETHARP_STATE_EMPTY",
 741              		.loc 1 388 3 is_stmt 1
 742 0256 B7F92020 		ldrsh	r2, [r7, #32]
 743 025a 1E49     		ldr	r1, .L41
 744 025c 1346     		mov	r3, r2
 745 025e 5B00     		lsls	r3, r3, #1
 746 0260 1344     		add	r3, r3, r2
 747 0262 DB00     		lsls	r3, r3, #3
 748 0264 0B44     		add	r3, r3, r1
 749 0266 1433     		adds	r3, r3, #20
 750 0268 1B78     		ldrb	r3, [r3]	@ zero_extendqisi2
 751 026a 002B     		cmp	r3, #0
 752 026c 06D0     		beq	.L39
 753              		.loc 1 388 3 is_stmt 0 discriminator 1
 754 026e 1A4B     		ldr	r3, .L41+4
 755 0270 40F28512 		movw	r2, #389
 756 0274 1D49     		ldr	r1, .L41+24
 757 0276 1A48     		ldr	r0, .L41+12
 758 0278 FFF7FEFF 		bl	printf
 759              	.L39:
 389:Middlewares/Third_Party/LwIP/src/core/ipv4/etharp.c ****               arp_table[i].state == ETHARP_STATE_EMPTY);
 390:Middlewares/Third_Party/LwIP/src/core/ipv4/etharp.c **** 
 391:Middlewares/Third_Party/LwIP/src/core/ipv4/etharp.c ****   /* IP address given? */
 392:Middlewares/Third_Party/LwIP/src/core/ipv4/etharp.c ****   if (ipaddr != NULL) {
 760              		.loc 1 392 6 is_stmt 1
 761 027c FB68     		ldr	r3, [r7, #12]
 762 027e 002B     		cmp	r3, #0
 763 0280 0BD0     		beq	.L40
 393:Middlewares/Third_Party/LwIP/src/core/ipv4/etharp.c ****     /* set IP address */
 394:Middlewares/Third_Party/LwIP/src/core/ipv4/etharp.c ****     ip4_addr_copy(arp_table[i].ipaddr, *ipaddr);
 764              		.loc 1 394 5
 765 0282 B7F92020 		ldrsh	r2, [r7, #32]
 766 0286 FB68     		ldr	r3, [r7, #12]
 767 0288 1968     		ldr	r1, [r3]
 768 028a 1248     		ldr	r0, .L41
 769 028c 1346     		mov	r3, r2
 770 028e 5B00     		lsls	r3, r3, #1
 771 0290 1344     		add	r3, r3, r2
 772 0292 DB00     		lsls	r3, r3, #3
 773 0294 0344     		add	r3, r3, r0
 774 0296 0433     		adds	r3, r3, #4
 775 0298 1960     		str	r1, [r3]
 776              	.L40:
ARM GAS  /tmp/ccXQGcXv.s 			page 22


 395:Middlewares/Third_Party/LwIP/src/core/ipv4/etharp.c ****   }
 396:Middlewares/Third_Party/LwIP/src/core/ipv4/etharp.c ****   arp_table[i].ctime = 0;
 777              		.loc 1 396 15
 778 029a B7F92020 		ldrsh	r2, [r7, #32]
 779              		.loc 1 396 22
 780 029e 0D49     		ldr	r1, .L41
 781 02a0 1346     		mov	r3, r2
 782 02a2 5B00     		lsls	r3, r3, #1
 783 02a4 1344     		add	r3, r3, r2
 784 02a6 DB00     		lsls	r3, r3, #3
 785 02a8 0B44     		add	r3, r3, r1
 786 02aa 1233     		adds	r3, r3, #18
 787 02ac 0022     		movs	r2, #0
 788 02ae 1A80     		strh	r2, [r3]	@ movhi
 397:Middlewares/Third_Party/LwIP/src/core/ipv4/etharp.c **** #if ETHARP_TABLE_MATCH_NETIF
 398:Middlewares/Third_Party/LwIP/src/core/ipv4/etharp.c ****   arp_table[i].netif = netif;
 789              		.loc 1 398 15
 790 02b0 B7F92020 		ldrsh	r2, [r7, #32]
 791              		.loc 1 398 22
 792 02b4 0749     		ldr	r1, .L41
 793 02b6 1346     		mov	r3, r2
 794 02b8 5B00     		lsls	r3, r3, #1
 795 02ba 1344     		add	r3, r3, r2
 796 02bc DB00     		lsls	r3, r3, #3
 797 02be 0B44     		add	r3, r3, r1
 798 02c0 0833     		adds	r3, r3, #8
 799 02c2 7A68     		ldr	r2, [r7, #4]
 800 02c4 1A60     		str	r2, [r3]
 399:Middlewares/Third_Party/LwIP/src/core/ipv4/etharp.c **** #endif /* ETHARP_TABLE_MATCH_NETIF */
 400:Middlewares/Third_Party/LwIP/src/core/ipv4/etharp.c ****   return (s16_t)i;
 801              		.loc 1 400 10
 802 02c6 B7F92030 		ldrsh	r3, [r7, #32]
 803              	.L22:
 401:Middlewares/Third_Party/LwIP/src/core/ipv4/etharp.c **** }
 804              		.loc 1 401 1
 805 02ca 1846     		mov	r0, r3
 806 02cc 2837     		adds	r7, r7, #40
 807              	.LCFI13:
 808              		.cfi_def_cfa_offset 8
 809 02ce BD46     		mov	sp, r7
 810              	.LCFI14:
 811              		.cfi_def_cfa_register 13
 812              		@ sp needed
 813 02d0 80BD     		pop	{r7, pc}
 814              	.L42:
 815 02d2 00BF     		.align	2
 816              	.L41:
 817 02d4 00000000 		.word	arp_table
 818 02d8 00000000 		.word	.LC0
 819 02dc 34000000 		.word	.LC1
 820 02e0 74000000 		.word	.LC2
 821 02e4 9C000000 		.word	.LC3
 822 02e8 B4000000 		.word	.LC4
 823 02ec C8000000 		.word	.LC5
 824              		.cfi_endproc
 825              	.LFE135:
 827              		.section	.rodata
ARM GAS  /tmp/ccXQGcXv.s 			page 23


 828 00f1 000000   		.align	2
 829              	.LC6:
 830 00f4 6E657469 		.ascii	"netif->hwaddr_len == ETH_HWADDR_LEN\000"
 830      662D3E68 
 830      77616464 
 830      725F6C65 
 830      6E203D3D 
 831              		.section	.text.etharp_update_arp_entry,"ax",%progbits
 832              		.align	1
 833              		.syntax unified
 834              		.thumb
 835              		.thumb_func
 836              		.fpu fpv4-sp-d16
 838              	etharp_update_arp_entry:
 839              	.LFB136:
 402:Middlewares/Third_Party/LwIP/src/core/ipv4/etharp.c **** 
 403:Middlewares/Third_Party/LwIP/src/core/ipv4/etharp.c **** /**
 404:Middlewares/Third_Party/LwIP/src/core/ipv4/etharp.c ****  * Update (or insert) a IP/MAC address pair in the ARP cache.
 405:Middlewares/Third_Party/LwIP/src/core/ipv4/etharp.c ****  *
 406:Middlewares/Third_Party/LwIP/src/core/ipv4/etharp.c ****  * If a pending entry is resolved, any queued packets will be sent
 407:Middlewares/Third_Party/LwIP/src/core/ipv4/etharp.c ****  * at this point.
 408:Middlewares/Third_Party/LwIP/src/core/ipv4/etharp.c ****  *
 409:Middlewares/Third_Party/LwIP/src/core/ipv4/etharp.c ****  * @param netif netif related to this entry (used for NETIF_ADDRHINT)
 410:Middlewares/Third_Party/LwIP/src/core/ipv4/etharp.c ****  * @param ipaddr IP address of the inserted ARP entry.
 411:Middlewares/Third_Party/LwIP/src/core/ipv4/etharp.c ****  * @param ethaddr Ethernet address of the inserted ARP entry.
 412:Middlewares/Third_Party/LwIP/src/core/ipv4/etharp.c ****  * @param flags See @ref etharp_state
 413:Middlewares/Third_Party/LwIP/src/core/ipv4/etharp.c ****  *
 414:Middlewares/Third_Party/LwIP/src/core/ipv4/etharp.c ****  * @return
 415:Middlewares/Third_Party/LwIP/src/core/ipv4/etharp.c ****  * - ERR_OK Successfully updated ARP cache.
 416:Middlewares/Third_Party/LwIP/src/core/ipv4/etharp.c ****  * - ERR_MEM If we could not add a new ARP entry when ETHARP_FLAG_TRY_HARD was set.
 417:Middlewares/Third_Party/LwIP/src/core/ipv4/etharp.c ****  * - ERR_ARG Non-unicast address given, those will not appear in ARP cache.
 418:Middlewares/Third_Party/LwIP/src/core/ipv4/etharp.c ****  *
 419:Middlewares/Third_Party/LwIP/src/core/ipv4/etharp.c ****  * @see pbuf_free()
 420:Middlewares/Third_Party/LwIP/src/core/ipv4/etharp.c ****  */
 421:Middlewares/Third_Party/LwIP/src/core/ipv4/etharp.c **** static err_t
 422:Middlewares/Third_Party/LwIP/src/core/ipv4/etharp.c **** etharp_update_arp_entry(struct netif *netif, const ip4_addr_t *ipaddr, struct eth_addr *ethaddr, u8
 423:Middlewares/Third_Party/LwIP/src/core/ipv4/etharp.c **** {
 840              		.loc 1 423 1
 841              		.cfi_startproc
 842              		@ args = 0, pretend = 0, frame = 24
 843              		@ frame_needed = 1, uses_anonymous_args = 0
 844 0000 80B5     		push	{r7, lr}
 845              	.LCFI15:
 846              		.cfi_def_cfa_offset 8
 847              		.cfi_offset 7, -8
 848              		.cfi_offset 14, -4
 849 0002 88B0     		sub	sp, sp, #32
 850              	.LCFI16:
 851              		.cfi_def_cfa_offset 40
 852 0004 02AF     		add	r7, sp, #8
 853              	.LCFI17:
 854              		.cfi_def_cfa 7, 32
 855 0006 F860     		str	r0, [r7, #12]
 856 0008 B960     		str	r1, [r7, #8]
 857 000a 7A60     		str	r2, [r7, #4]
 858 000c FB70     		strb	r3, [r7, #3]
 424:Middlewares/Third_Party/LwIP/src/core/ipv4/etharp.c ****   s16_t i;
ARM GAS  /tmp/ccXQGcXv.s 			page 24


 425:Middlewares/Third_Party/LwIP/src/core/ipv4/etharp.c ****   LWIP_ASSERT("netif->hwaddr_len == ETH_HWADDR_LEN", netif->hwaddr_len == ETH_HWADDR_LEN);
 859              		.loc 1 425 3
 860 000e FB68     		ldr	r3, [r7, #12]
 861 0010 93F83030 		ldrb	r3, [r3, #48]	@ zero_extendqisi2
 862 0014 062B     		cmp	r3, #6
 863 0016 06D0     		beq	.L44
 864              		.loc 1 425 3 is_stmt 0 discriminator 1
 865 0018 484B     		ldr	r3, .L50
 866 001a 40F2A912 		movw	r2, #425
 867 001e 4849     		ldr	r1, .L50+4
 868 0020 4848     		ldr	r0, .L50+8
 869 0022 FFF7FEFF 		bl	printf
 870              	.L44:
 426:Middlewares/Third_Party/LwIP/src/core/ipv4/etharp.c ****   LWIP_DEBUGF(ETHARP_DEBUG | LWIP_DBG_TRACE, ("etharp_update_arp_entry: %"U16_F".%"U16_F".%"U16_F".
 427:Middlewares/Third_Party/LwIP/src/core/ipv4/etharp.c ****               ip4_addr1_16(ipaddr), ip4_addr2_16(ipaddr), ip4_addr3_16(ipaddr), ip4_addr4_16(ipaddr
 428:Middlewares/Third_Party/LwIP/src/core/ipv4/etharp.c ****               (u16_t)ethaddr->addr[0], (u16_t)ethaddr->addr[1], (u16_t)ethaddr->addr[2],
 429:Middlewares/Third_Party/LwIP/src/core/ipv4/etharp.c ****               (u16_t)ethaddr->addr[3], (u16_t)ethaddr->addr[4], (u16_t)ethaddr->addr[5]));
 430:Middlewares/Third_Party/LwIP/src/core/ipv4/etharp.c ****   /* non-unicast address? */
 431:Middlewares/Third_Party/LwIP/src/core/ipv4/etharp.c ****   if (ip4_addr_isany(ipaddr) ||
 871              		.loc 1 431 6 is_stmt 1
 872 0026 BB68     		ldr	r3, [r7, #8]
 873 0028 002B     		cmp	r3, #0
 874 002a 12D0     		beq	.L45
 875              		.loc 1 431 7 discriminator 1
 876 002c BB68     		ldr	r3, [r7, #8]
 877 002e 1B68     		ldr	r3, [r3]
 878 0030 002B     		cmp	r3, #0
 879 0032 0ED0     		beq	.L45
 432:Middlewares/Third_Party/LwIP/src/core/ipv4/etharp.c ****       ip4_addr_isbroadcast(ipaddr, netif) ||
 880              		.loc 1 432 7 discriminator 2
 881 0034 BB68     		ldr	r3, [r7, #8]
 882 0036 1B68     		ldr	r3, [r3]
 883 0038 F968     		ldr	r1, [r7, #12]
 884 003a 1846     		mov	r0, r3
 885 003c FFF7FEFF 		bl	ip4_addr_isbroadcast_u32
 886 0040 0346     		mov	r3, r0
 431:Middlewares/Third_Party/LwIP/src/core/ipv4/etharp.c ****       ip4_addr_isbroadcast(ipaddr, netif) ||
 887              		.loc 1 431 30 discriminator 2
 888 0042 002B     		cmp	r3, #0
 889 0044 05D1     		bne	.L45
 433:Middlewares/Third_Party/LwIP/src/core/ipv4/etharp.c ****       ip4_addr_ismulticast(ipaddr)) {
 890              		.loc 1 433 7
 891 0046 BB68     		ldr	r3, [r7, #8]
 892 0048 1B68     		ldr	r3, [r3]
 893 004a 03F0F003 		and	r3, r3, #240
 432:Middlewares/Third_Party/LwIP/src/core/ipv4/etharp.c ****       ip4_addr_isbroadcast(ipaddr, netif) ||
 894              		.loc 1 432 43
 895 004e E02B     		cmp	r3, #224
 896 0050 02D1     		bne	.L46
 897              	.L45:
 434:Middlewares/Third_Party/LwIP/src/core/ipv4/etharp.c ****     LWIP_DEBUGF(ETHARP_DEBUG | LWIP_DBG_TRACE, ("etharp_update_arp_entry: will not add non-unicast 
 435:Middlewares/Third_Party/LwIP/src/core/ipv4/etharp.c ****     return ERR_ARG;
 898              		.loc 1 435 12
 899 0052 6FF00F03 		mvn	r3, #15
 900 0056 6CE0     		b	.L47
 901              	.L46:
 436:Middlewares/Third_Party/LwIP/src/core/ipv4/etharp.c ****   }
ARM GAS  /tmp/ccXQGcXv.s 			page 25


 437:Middlewares/Third_Party/LwIP/src/core/ipv4/etharp.c ****   /* find or create ARP entry */
 438:Middlewares/Third_Party/LwIP/src/core/ipv4/etharp.c ****   i = etharp_find_entry(ipaddr, flags, netif);
 902              		.loc 1 438 7
 903 0058 FB78     		ldrb	r3, [r7, #3]	@ zero_extendqisi2
 904 005a FA68     		ldr	r2, [r7, #12]
 905 005c 1946     		mov	r1, r3
 906 005e B868     		ldr	r0, [r7, #8]
 907 0060 FFF7FEFF 		bl	etharp_find_entry
 908 0064 0346     		mov	r3, r0
 909 0066 FB82     		strh	r3, [r7, #22]	@ movhi
 439:Middlewares/Third_Party/LwIP/src/core/ipv4/etharp.c ****   /* bail out if no entry could be found */
 440:Middlewares/Third_Party/LwIP/src/core/ipv4/etharp.c ****   if (i < 0) {
 910              		.loc 1 440 6
 911 0068 B7F91630 		ldrsh	r3, [r7, #22]
 912 006c 002B     		cmp	r3, #0
 913 006e 02DA     		bge	.L48
 441:Middlewares/Third_Party/LwIP/src/core/ipv4/etharp.c ****     return (err_t)i;
 914              		.loc 1 441 12
 915 0070 FB8A     		ldrh	r3, [r7, #22]	@ movhi
 916 0072 5BB2     		sxtb	r3, r3
 917 0074 5DE0     		b	.L47
 918              	.L48:
 442:Middlewares/Third_Party/LwIP/src/core/ipv4/etharp.c ****   }
 443:Middlewares/Third_Party/LwIP/src/core/ipv4/etharp.c **** 
 444:Middlewares/Third_Party/LwIP/src/core/ipv4/etharp.c **** #if ETHARP_SUPPORT_STATIC_ENTRIES
 445:Middlewares/Third_Party/LwIP/src/core/ipv4/etharp.c ****   if (flags & ETHARP_FLAG_STATIC_ENTRY) {
 446:Middlewares/Third_Party/LwIP/src/core/ipv4/etharp.c ****     /* record static type */
 447:Middlewares/Third_Party/LwIP/src/core/ipv4/etharp.c ****     arp_table[i].state = ETHARP_STATE_STATIC;
 448:Middlewares/Third_Party/LwIP/src/core/ipv4/etharp.c ****   } else if (arp_table[i].state == ETHARP_STATE_STATIC) {
 449:Middlewares/Third_Party/LwIP/src/core/ipv4/etharp.c ****     /* found entry is a static type, don't overwrite it */
 450:Middlewares/Third_Party/LwIP/src/core/ipv4/etharp.c ****     return ERR_VAL;
 451:Middlewares/Third_Party/LwIP/src/core/ipv4/etharp.c ****   } else
 452:Middlewares/Third_Party/LwIP/src/core/ipv4/etharp.c **** #endif /* ETHARP_SUPPORT_STATIC_ENTRIES */
 453:Middlewares/Third_Party/LwIP/src/core/ipv4/etharp.c ****   {
 454:Middlewares/Third_Party/LwIP/src/core/ipv4/etharp.c ****     /* mark it stable */
 455:Middlewares/Third_Party/LwIP/src/core/ipv4/etharp.c ****     arp_table[i].state = ETHARP_STATE_STABLE;
 919              		.loc 1 455 17
 920 0076 B7F91620 		ldrsh	r2, [r7, #22]
 921              		.loc 1 455 24
 922 007a 3349     		ldr	r1, .L50+12
 923 007c 1346     		mov	r3, r2
 924 007e 5B00     		lsls	r3, r3, #1
 925 0080 1344     		add	r3, r3, r2
 926 0082 DB00     		lsls	r3, r3, #3
 927 0084 0B44     		add	r3, r3, r1
 928 0086 1433     		adds	r3, r3, #20
 929 0088 0222     		movs	r2, #2
 930 008a 1A70     		strb	r2, [r3]
 456:Middlewares/Third_Party/LwIP/src/core/ipv4/etharp.c ****   }
 457:Middlewares/Third_Party/LwIP/src/core/ipv4/etharp.c **** 
 458:Middlewares/Third_Party/LwIP/src/core/ipv4/etharp.c ****   /* record network interface */
 459:Middlewares/Third_Party/LwIP/src/core/ipv4/etharp.c ****   arp_table[i].netif = netif;
 931              		.loc 1 459 15
 932 008c B7F91620 		ldrsh	r2, [r7, #22]
 933              		.loc 1 459 22
 934 0090 2D49     		ldr	r1, .L50+12
 935 0092 1346     		mov	r3, r2
ARM GAS  /tmp/ccXQGcXv.s 			page 26


 936 0094 5B00     		lsls	r3, r3, #1
 937 0096 1344     		add	r3, r3, r2
 938 0098 DB00     		lsls	r3, r3, #3
 939 009a 0B44     		add	r3, r3, r1
 940 009c 0833     		adds	r3, r3, #8
 941 009e FA68     		ldr	r2, [r7, #12]
 942 00a0 1A60     		str	r2, [r3]
 460:Middlewares/Third_Party/LwIP/src/core/ipv4/etharp.c ****   /* insert in SNMP ARP index tree */
 461:Middlewares/Third_Party/LwIP/src/core/ipv4/etharp.c ****   mib2_add_arp_entry(netif, &arp_table[i].ipaddr);
 462:Middlewares/Third_Party/LwIP/src/core/ipv4/etharp.c **** 
 463:Middlewares/Third_Party/LwIP/src/core/ipv4/etharp.c ****   LWIP_DEBUGF(ETHARP_DEBUG | LWIP_DBG_TRACE, ("etharp_update_arp_entry: updating stable entry %"S16
 464:Middlewares/Third_Party/LwIP/src/core/ipv4/etharp.c ****   /* update address */
 465:Middlewares/Third_Party/LwIP/src/core/ipv4/etharp.c ****   SMEMCPY(&arp_table[i].ethaddr, ethaddr, ETH_HWADDR_LEN);
 943              		.loc 1 465 3
 944 00a2 B7F91620 		ldrsh	r2, [r7, #22]
 945 00a6 1346     		mov	r3, r2
 946 00a8 5B00     		lsls	r3, r3, #1
 947 00aa 1344     		add	r3, r3, r2
 948 00ac DB00     		lsls	r3, r3, #3
 949 00ae 0833     		adds	r3, r3, #8
 950 00b0 254A     		ldr	r2, .L50+12
 951 00b2 1344     		add	r3, r3, r2
 952 00b4 0433     		adds	r3, r3, #4
 953 00b6 0622     		movs	r2, #6
 954 00b8 7968     		ldr	r1, [r7, #4]
 955 00ba 1846     		mov	r0, r3
 956 00bc FFF7FEFF 		bl	memcpy
 466:Middlewares/Third_Party/LwIP/src/core/ipv4/etharp.c ****   /* reset time stamp */
 467:Middlewares/Third_Party/LwIP/src/core/ipv4/etharp.c ****   arp_table[i].ctime = 0;
 957              		.loc 1 467 15
 958 00c0 B7F91620 		ldrsh	r2, [r7, #22]
 959              		.loc 1 467 22
 960 00c4 2049     		ldr	r1, .L50+12
 961 00c6 1346     		mov	r3, r2
 962 00c8 5B00     		lsls	r3, r3, #1
 963 00ca 1344     		add	r3, r3, r2
 964 00cc DB00     		lsls	r3, r3, #3
 965 00ce 0B44     		add	r3, r3, r1
 966 00d0 1233     		adds	r3, r3, #18
 967 00d2 0022     		movs	r2, #0
 968 00d4 1A80     		strh	r2, [r3]	@ movhi
 468:Middlewares/Third_Party/LwIP/src/core/ipv4/etharp.c ****   /* this is where we will send out queued packets! */
 469:Middlewares/Third_Party/LwIP/src/core/ipv4/etharp.c **** #if ARP_QUEUEING
 470:Middlewares/Third_Party/LwIP/src/core/ipv4/etharp.c ****   while (arp_table[i].q != NULL) {
 471:Middlewares/Third_Party/LwIP/src/core/ipv4/etharp.c ****     struct pbuf *p;
 472:Middlewares/Third_Party/LwIP/src/core/ipv4/etharp.c ****     /* remember remainder of queue */
 473:Middlewares/Third_Party/LwIP/src/core/ipv4/etharp.c ****     struct etharp_q_entry *q = arp_table[i].q;
 474:Middlewares/Third_Party/LwIP/src/core/ipv4/etharp.c ****     /* pop first item off the queue */
 475:Middlewares/Third_Party/LwIP/src/core/ipv4/etharp.c ****     arp_table[i].q = q->next;
 476:Middlewares/Third_Party/LwIP/src/core/ipv4/etharp.c ****     /* get the packet pointer */
 477:Middlewares/Third_Party/LwIP/src/core/ipv4/etharp.c ****     p = q->p;
 478:Middlewares/Third_Party/LwIP/src/core/ipv4/etharp.c ****     /* now queue entry can be freed */
 479:Middlewares/Third_Party/LwIP/src/core/ipv4/etharp.c ****     memp_free(MEMP_ARP_QUEUE, q);
 480:Middlewares/Third_Party/LwIP/src/core/ipv4/etharp.c **** #else /* ARP_QUEUEING */
 481:Middlewares/Third_Party/LwIP/src/core/ipv4/etharp.c ****   if (arp_table[i].q != NULL) {
 969              		.loc 1 481 19
 970 00d6 B7F91620 		ldrsh	r2, [r7, #22]
ARM GAS  /tmp/ccXQGcXv.s 			page 27


 971 00da 1B49     		ldr	r1, .L50+12
 972 00dc 1346     		mov	r3, r2
 973 00de 5B00     		lsls	r3, r3, #1
 974 00e0 1344     		add	r3, r3, r2
 975 00e2 DB00     		lsls	r3, r3, #3
 976 00e4 0B44     		add	r3, r3, r1
 977 00e6 1B68     		ldr	r3, [r3]
 978              		.loc 1 481 6
 979 00e8 002B     		cmp	r3, #0
 980 00ea 21D0     		beq	.L49
 981              	.LBB4:
 482:Middlewares/Third_Party/LwIP/src/core/ipv4/etharp.c ****     struct pbuf *p = arp_table[i].q;
 982              		.loc 1 482 34
 983 00ec B7F91620 		ldrsh	r2, [r7, #22]
 984              		.loc 1 482 18
 985 00f0 1549     		ldr	r1, .L50+12
 986 00f2 1346     		mov	r3, r2
 987 00f4 5B00     		lsls	r3, r3, #1
 988 00f6 1344     		add	r3, r3, r2
 989 00f8 DB00     		lsls	r3, r3, #3
 990 00fa 0B44     		add	r3, r3, r1
 991 00fc 1B68     		ldr	r3, [r3]
 992 00fe 3B61     		str	r3, [r7, #16]
 483:Middlewares/Third_Party/LwIP/src/core/ipv4/etharp.c ****     arp_table[i].q = NULL;
 993              		.loc 1 483 17
 994 0100 B7F91620 		ldrsh	r2, [r7, #22]
 995              		.loc 1 483 20
 996 0104 1049     		ldr	r1, .L50+12
 997 0106 1346     		mov	r3, r2
 998 0108 5B00     		lsls	r3, r3, #1
 999 010a 1344     		add	r3, r3, r2
 1000 010c DB00     		lsls	r3, r3, #3
 1001 010e 0B44     		add	r3, r3, r1
 1002 0110 0022     		movs	r2, #0
 1003 0112 1A60     		str	r2, [r3]
 484:Middlewares/Third_Party/LwIP/src/core/ipv4/etharp.c **** #endif /* ARP_QUEUEING */
 485:Middlewares/Third_Party/LwIP/src/core/ipv4/etharp.c ****     /* send the queued IP packet */
 486:Middlewares/Third_Party/LwIP/src/core/ipv4/etharp.c ****     ethernet_output(netif, p, (struct eth_addr *)(netif->hwaddr), ethaddr, ETHTYPE_IP);
 1004              		.loc 1 486 50
 1005 0114 FB68     		ldr	r3, [r7, #12]
 1006 0116 03F12A02 		add	r2, r3, #42
 1007              		.loc 1 486 5
 1008 011a 4FF40063 		mov	r3, #2048
 1009 011e 0093     		str	r3, [sp]
 1010 0120 7B68     		ldr	r3, [r7, #4]
 1011 0122 3969     		ldr	r1, [r7, #16]
 1012 0124 F868     		ldr	r0, [r7, #12]
 1013 0126 FFF7FEFF 		bl	ethernet_output
 487:Middlewares/Third_Party/LwIP/src/core/ipv4/etharp.c ****     /* free the queued IP packet */
 488:Middlewares/Third_Party/LwIP/src/core/ipv4/etharp.c ****     pbuf_free(p);
 1014              		.loc 1 488 5
 1015 012a 3869     		ldr	r0, [r7, #16]
 1016 012c FFF7FEFF 		bl	pbuf_free
 1017              	.L49:
 1018              	.LBE4:
 489:Middlewares/Third_Party/LwIP/src/core/ipv4/etharp.c ****   }
 490:Middlewares/Third_Party/LwIP/src/core/ipv4/etharp.c ****   return ERR_OK;
ARM GAS  /tmp/ccXQGcXv.s 			page 28


 1019              		.loc 1 490 10
 1020 0130 0023     		movs	r3, #0
 1021              	.L47:
 491:Middlewares/Third_Party/LwIP/src/core/ipv4/etharp.c **** }
 1022              		.loc 1 491 1
 1023 0132 1846     		mov	r0, r3
 1024 0134 1837     		adds	r7, r7, #24
 1025              	.LCFI18:
 1026              		.cfi_def_cfa_offset 8
 1027 0136 BD46     		mov	sp, r7
 1028              	.LCFI19:
 1029              		.cfi_def_cfa_register 13
 1030              		@ sp needed
 1031 0138 80BD     		pop	{r7, pc}
 1032              	.L51:
 1033 013a 00BF     		.align	2
 1034              	.L50:
 1035 013c 00000000 		.word	.LC0
 1036 0140 F4000000 		.word	.LC6
 1037 0144 74000000 		.word	.LC2
 1038 0148 00000000 		.word	arp_table
 1039              		.cfi_endproc
 1040              	.LFE136:
 1042              		.section	.text.etharp_cleanup_netif,"ax",%progbits
 1043              		.align	1
 1044              		.global	etharp_cleanup_netif
 1045              		.syntax unified
 1046              		.thumb
 1047              		.thumb_func
 1048              		.fpu fpv4-sp-d16
 1050              	etharp_cleanup_netif:
 1051              	.LFB137:
 492:Middlewares/Third_Party/LwIP/src/core/ipv4/etharp.c **** 
 493:Middlewares/Third_Party/LwIP/src/core/ipv4/etharp.c **** #if ETHARP_SUPPORT_STATIC_ENTRIES
 494:Middlewares/Third_Party/LwIP/src/core/ipv4/etharp.c **** /** Add a new static entry to the ARP table. If an entry exists for the
 495:Middlewares/Third_Party/LwIP/src/core/ipv4/etharp.c ****  * specified IP address, this entry is overwritten.
 496:Middlewares/Third_Party/LwIP/src/core/ipv4/etharp.c ****  * If packets are queued for the specified IP address, they are sent out.
 497:Middlewares/Third_Party/LwIP/src/core/ipv4/etharp.c ****  *
 498:Middlewares/Third_Party/LwIP/src/core/ipv4/etharp.c ****  * @param ipaddr IP address for the new static entry
 499:Middlewares/Third_Party/LwIP/src/core/ipv4/etharp.c ****  * @param ethaddr ethernet address for the new static entry
 500:Middlewares/Third_Party/LwIP/src/core/ipv4/etharp.c ****  * @return See return values of etharp_add_static_entry
 501:Middlewares/Third_Party/LwIP/src/core/ipv4/etharp.c ****  */
 502:Middlewares/Third_Party/LwIP/src/core/ipv4/etharp.c **** err_t
 503:Middlewares/Third_Party/LwIP/src/core/ipv4/etharp.c **** etharp_add_static_entry(const ip4_addr_t *ipaddr, struct eth_addr *ethaddr)
 504:Middlewares/Third_Party/LwIP/src/core/ipv4/etharp.c **** {
 505:Middlewares/Third_Party/LwIP/src/core/ipv4/etharp.c ****   struct netif *netif;
 506:Middlewares/Third_Party/LwIP/src/core/ipv4/etharp.c ****   LWIP_ASSERT_CORE_LOCKED();
 507:Middlewares/Third_Party/LwIP/src/core/ipv4/etharp.c ****   LWIP_DEBUGF(ETHARP_DEBUG | LWIP_DBG_TRACE, ("etharp_add_static_entry: %"U16_F".%"U16_F".%"U16_F".
 508:Middlewares/Third_Party/LwIP/src/core/ipv4/etharp.c ****               ip4_addr1_16(ipaddr), ip4_addr2_16(ipaddr), ip4_addr3_16(ipaddr), ip4_addr4_16(ipaddr
 509:Middlewares/Third_Party/LwIP/src/core/ipv4/etharp.c ****               (u16_t)ethaddr->addr[0], (u16_t)ethaddr->addr[1], (u16_t)ethaddr->addr[2],
 510:Middlewares/Third_Party/LwIP/src/core/ipv4/etharp.c ****               (u16_t)ethaddr->addr[3], (u16_t)ethaddr->addr[4], (u16_t)ethaddr->addr[5]));
 511:Middlewares/Third_Party/LwIP/src/core/ipv4/etharp.c **** 
 512:Middlewares/Third_Party/LwIP/src/core/ipv4/etharp.c ****   netif = ip4_route(ipaddr);
 513:Middlewares/Third_Party/LwIP/src/core/ipv4/etharp.c ****   if (netif == NULL) {
 514:Middlewares/Third_Party/LwIP/src/core/ipv4/etharp.c ****     return ERR_RTE;
 515:Middlewares/Third_Party/LwIP/src/core/ipv4/etharp.c ****   }
 516:Middlewares/Third_Party/LwIP/src/core/ipv4/etharp.c **** 
ARM GAS  /tmp/ccXQGcXv.s 			page 29


 517:Middlewares/Third_Party/LwIP/src/core/ipv4/etharp.c ****   return etharp_update_arp_entry(netif, ipaddr, ethaddr, ETHARP_FLAG_TRY_HARD | ETHARP_FLAG_STATIC_
 518:Middlewares/Third_Party/LwIP/src/core/ipv4/etharp.c **** }
 519:Middlewares/Third_Party/LwIP/src/core/ipv4/etharp.c **** 
 520:Middlewares/Third_Party/LwIP/src/core/ipv4/etharp.c **** /** Remove a static entry from the ARP table previously added with a call to
 521:Middlewares/Third_Party/LwIP/src/core/ipv4/etharp.c ****  * etharp_add_static_entry.
 522:Middlewares/Third_Party/LwIP/src/core/ipv4/etharp.c ****  *
 523:Middlewares/Third_Party/LwIP/src/core/ipv4/etharp.c ****  * @param ipaddr IP address of the static entry to remove
 524:Middlewares/Third_Party/LwIP/src/core/ipv4/etharp.c ****  * @return ERR_OK: entry removed
 525:Middlewares/Third_Party/LwIP/src/core/ipv4/etharp.c ****  *         ERR_MEM: entry wasn't found
 526:Middlewares/Third_Party/LwIP/src/core/ipv4/etharp.c ****  *         ERR_ARG: entry wasn't a static entry but a dynamic one
 527:Middlewares/Third_Party/LwIP/src/core/ipv4/etharp.c ****  */
 528:Middlewares/Third_Party/LwIP/src/core/ipv4/etharp.c **** err_t
 529:Middlewares/Third_Party/LwIP/src/core/ipv4/etharp.c **** etharp_remove_static_entry(const ip4_addr_t *ipaddr)
 530:Middlewares/Third_Party/LwIP/src/core/ipv4/etharp.c **** {
 531:Middlewares/Third_Party/LwIP/src/core/ipv4/etharp.c ****   s16_t i;
 532:Middlewares/Third_Party/LwIP/src/core/ipv4/etharp.c ****   LWIP_ASSERT_CORE_LOCKED();
 533:Middlewares/Third_Party/LwIP/src/core/ipv4/etharp.c ****   LWIP_DEBUGF(ETHARP_DEBUG | LWIP_DBG_TRACE, ("etharp_remove_static_entry: %"U16_F".%"U16_F".%"U16_
 534:Middlewares/Third_Party/LwIP/src/core/ipv4/etharp.c ****               ip4_addr1_16(ipaddr), ip4_addr2_16(ipaddr), ip4_addr3_16(ipaddr), ip4_addr4_16(ipaddr
 535:Middlewares/Third_Party/LwIP/src/core/ipv4/etharp.c **** 
 536:Middlewares/Third_Party/LwIP/src/core/ipv4/etharp.c ****   /* find or create ARP entry */
 537:Middlewares/Third_Party/LwIP/src/core/ipv4/etharp.c ****   i = etharp_find_entry(ipaddr, ETHARP_FLAG_FIND_ONLY, NULL);
 538:Middlewares/Third_Party/LwIP/src/core/ipv4/etharp.c ****   /* bail out if no entry could be found */
 539:Middlewares/Third_Party/LwIP/src/core/ipv4/etharp.c ****   if (i < 0) {
 540:Middlewares/Third_Party/LwIP/src/core/ipv4/etharp.c ****     return (err_t)i;
 541:Middlewares/Third_Party/LwIP/src/core/ipv4/etharp.c ****   }
 542:Middlewares/Third_Party/LwIP/src/core/ipv4/etharp.c **** 
 543:Middlewares/Third_Party/LwIP/src/core/ipv4/etharp.c ****   if (arp_table[i].state != ETHARP_STATE_STATIC) {
 544:Middlewares/Third_Party/LwIP/src/core/ipv4/etharp.c ****     /* entry wasn't a static entry, cannot remove it */
 545:Middlewares/Third_Party/LwIP/src/core/ipv4/etharp.c ****     return ERR_ARG;
 546:Middlewares/Third_Party/LwIP/src/core/ipv4/etharp.c ****   }
 547:Middlewares/Third_Party/LwIP/src/core/ipv4/etharp.c ****   /* entry found, free it */
 548:Middlewares/Third_Party/LwIP/src/core/ipv4/etharp.c ****   etharp_free_entry(i);
 549:Middlewares/Third_Party/LwIP/src/core/ipv4/etharp.c ****   return ERR_OK;
 550:Middlewares/Third_Party/LwIP/src/core/ipv4/etharp.c **** }
 551:Middlewares/Third_Party/LwIP/src/core/ipv4/etharp.c **** #endif /* ETHARP_SUPPORT_STATIC_ENTRIES */
 552:Middlewares/Third_Party/LwIP/src/core/ipv4/etharp.c **** 
 553:Middlewares/Third_Party/LwIP/src/core/ipv4/etharp.c **** /**
 554:Middlewares/Third_Party/LwIP/src/core/ipv4/etharp.c ****  * Remove all ARP table entries of the specified netif.
 555:Middlewares/Third_Party/LwIP/src/core/ipv4/etharp.c ****  *
 556:Middlewares/Third_Party/LwIP/src/core/ipv4/etharp.c ****  * @param netif points to a network interface
 557:Middlewares/Third_Party/LwIP/src/core/ipv4/etharp.c ****  */
 558:Middlewares/Third_Party/LwIP/src/core/ipv4/etharp.c **** void
 559:Middlewares/Third_Party/LwIP/src/core/ipv4/etharp.c **** etharp_cleanup_netif(struct netif *netif)
 560:Middlewares/Third_Party/LwIP/src/core/ipv4/etharp.c **** {
 1052              		.loc 1 560 1
 1053              		.cfi_startproc
 1054              		@ args = 0, pretend = 0, frame = 16
 1055              		@ frame_needed = 1, uses_anonymous_args = 0
 1056 0000 80B5     		push	{r7, lr}
 1057              	.LCFI20:
 1058              		.cfi_def_cfa_offset 8
 1059              		.cfi_offset 7, -8
 1060              		.cfi_offset 14, -4
 1061 0002 84B0     		sub	sp, sp, #16
 1062              	.LCFI21:
 1063              		.cfi_def_cfa_offset 24
 1064 0004 00AF     		add	r7, sp, #0
ARM GAS  /tmp/ccXQGcXv.s 			page 30


 1065              	.LCFI22:
 1066              		.cfi_def_cfa_register 7
 1067 0006 7860     		str	r0, [r7, #4]
 561:Middlewares/Third_Party/LwIP/src/core/ipv4/etharp.c ****   int i;
 562:Middlewares/Third_Party/LwIP/src/core/ipv4/etharp.c **** 
 563:Middlewares/Third_Party/LwIP/src/core/ipv4/etharp.c ****   for (i = 0; i < ARP_TABLE_SIZE; ++i) {
 1068              		.loc 1 563 10
 1069 0008 0023     		movs	r3, #0
 1070 000a FB60     		str	r3, [r7, #12]
 1071              		.loc 1 563 3
 1072 000c 1EE0     		b	.L53
 1073              	.L55:
 1074              	.LBB5:
 564:Middlewares/Third_Party/LwIP/src/core/ipv4/etharp.c ****     u8_t state = arp_table[i].state;
 1075              		.loc 1 564 10
 1076 000e 1349     		ldr	r1, .L56
 1077 0010 FA68     		ldr	r2, [r7, #12]
 1078 0012 1346     		mov	r3, r2
 1079 0014 5B00     		lsls	r3, r3, #1
 1080 0016 1344     		add	r3, r3, r2
 1081 0018 DB00     		lsls	r3, r3, #3
 1082 001a 0B44     		add	r3, r3, r1
 1083 001c 1433     		adds	r3, r3, #20
 1084 001e 1B78     		ldrb	r3, [r3]
 1085 0020 FB72     		strb	r3, [r7, #11]
 565:Middlewares/Third_Party/LwIP/src/core/ipv4/etharp.c ****     if ((state != ETHARP_STATE_EMPTY) && (arp_table[i].netif == netif)) {
 1086              		.loc 1 565 8
 1087 0022 FB7A     		ldrb	r3, [r7, #11]	@ zero_extendqisi2
 1088 0024 002B     		cmp	r3, #0
 1089 0026 0ED0     		beq	.L54
 1090              		.loc 1 565 55 discriminator 1
 1091 0028 0C49     		ldr	r1, .L56
 1092 002a FA68     		ldr	r2, [r7, #12]
 1093 002c 1346     		mov	r3, r2
 1094 002e 5B00     		lsls	r3, r3, #1
 1095 0030 1344     		add	r3, r3, r2
 1096 0032 DB00     		lsls	r3, r3, #3
 1097 0034 0B44     		add	r3, r3, r1
 1098 0036 0833     		adds	r3, r3, #8
 1099 0038 1B68     		ldr	r3, [r3]
 1100              		.loc 1 565 39 discriminator 1
 1101 003a 7A68     		ldr	r2, [r7, #4]
 1102 003c 9A42     		cmp	r2, r3
 1103 003e 02D1     		bne	.L54
 566:Middlewares/Third_Party/LwIP/src/core/ipv4/etharp.c ****       etharp_free_entry(i);
 1104              		.loc 1 566 7
 1105 0040 F868     		ldr	r0, [r7, #12]
 1106 0042 FFF7FEFF 		bl	etharp_free_entry
 1107              	.L54:
 1108              	.LBE5:
 563:Middlewares/Third_Party/LwIP/src/core/ipv4/etharp.c ****     u8_t state = arp_table[i].state;
 1109              		.loc 1 563 35 discriminator 2
 1110 0046 FB68     		ldr	r3, [r7, #12]
 1111 0048 0133     		adds	r3, r3, #1
 1112 004a FB60     		str	r3, [r7, #12]
 1113              	.L53:
 563:Middlewares/Third_Party/LwIP/src/core/ipv4/etharp.c ****     u8_t state = arp_table[i].state;
ARM GAS  /tmp/ccXQGcXv.s 			page 31


 1114              		.loc 1 563 3 discriminator 1
 1115 004c FB68     		ldr	r3, [r7, #12]
 1116 004e 092B     		cmp	r3, #9
 1117 0050 DDDD     		ble	.L55
 567:Middlewares/Third_Party/LwIP/src/core/ipv4/etharp.c ****     }
 568:Middlewares/Third_Party/LwIP/src/core/ipv4/etharp.c ****   }
 569:Middlewares/Third_Party/LwIP/src/core/ipv4/etharp.c **** }
 1118              		.loc 1 569 1
 1119 0052 00BF     		nop
 1120 0054 1037     		adds	r7, r7, #16
 1121              	.LCFI23:
 1122              		.cfi_def_cfa_offset 8
 1123 0056 BD46     		mov	sp, r7
 1124              	.LCFI24:
 1125              		.cfi_def_cfa_register 13
 1126              		@ sp needed
 1127 0058 80BD     		pop	{r7, pc}
 1128              	.L57:
 1129 005a 00BF     		.align	2
 1130              	.L56:
 1131 005c 00000000 		.word	arp_table
 1132              		.cfi_endproc
 1133              	.LFE137:
 1135              		.section	.rodata
 1136              		.align	2
 1137              	.LC7:
 1138 0118 6574685F 		.ascii	"eth_ret != NULL && ip_ret != NULL\000"
 1138      72657420 
 1138      213D204E 
 1138      554C4C20 
 1138      26262069 
 1139              		.section	.text.etharp_find_addr,"ax",%progbits
 1140              		.align	1
 1141              		.global	etharp_find_addr
 1142              		.syntax unified
 1143              		.thumb
 1144              		.thumb_func
 1145              		.fpu fpv4-sp-d16
 1147              	etharp_find_addr:
 1148              	.LFB138:
 570:Middlewares/Third_Party/LwIP/src/core/ipv4/etharp.c **** 
 571:Middlewares/Third_Party/LwIP/src/core/ipv4/etharp.c **** /**
 572:Middlewares/Third_Party/LwIP/src/core/ipv4/etharp.c ****  * Finds (stable) ethernet/IP address pair from ARP table
 573:Middlewares/Third_Party/LwIP/src/core/ipv4/etharp.c ****  * using interface and IP address index.
 574:Middlewares/Third_Party/LwIP/src/core/ipv4/etharp.c ****  * @note the addresses in the ARP table are in network order!
 575:Middlewares/Third_Party/LwIP/src/core/ipv4/etharp.c ****  *
 576:Middlewares/Third_Party/LwIP/src/core/ipv4/etharp.c ****  * @param netif points to interface index
 577:Middlewares/Third_Party/LwIP/src/core/ipv4/etharp.c ****  * @param ipaddr points to the (network order) IP address index
 578:Middlewares/Third_Party/LwIP/src/core/ipv4/etharp.c ****  * @param eth_ret points to return pointer
 579:Middlewares/Third_Party/LwIP/src/core/ipv4/etharp.c ****  * @param ip_ret points to return pointer
 580:Middlewares/Third_Party/LwIP/src/core/ipv4/etharp.c ****  * @return table index if found, -1 otherwise
 581:Middlewares/Third_Party/LwIP/src/core/ipv4/etharp.c ****  */
 582:Middlewares/Third_Party/LwIP/src/core/ipv4/etharp.c **** ssize_t
 583:Middlewares/Third_Party/LwIP/src/core/ipv4/etharp.c **** etharp_find_addr(struct netif *netif, const ip4_addr_t *ipaddr,
 584:Middlewares/Third_Party/LwIP/src/core/ipv4/etharp.c ****                  struct eth_addr **eth_ret, const ip4_addr_t **ip_ret)
 585:Middlewares/Third_Party/LwIP/src/core/ipv4/etharp.c **** {
 1149              		.loc 1 585 1
ARM GAS  /tmp/ccXQGcXv.s 			page 32


 1150              		.cfi_startproc
 1151              		@ args = 0, pretend = 0, frame = 24
 1152              		@ frame_needed = 1, uses_anonymous_args = 0
 1153 0000 80B5     		push	{r7, lr}
 1154              	.LCFI25:
 1155              		.cfi_def_cfa_offset 8
 1156              		.cfi_offset 7, -8
 1157              		.cfi_offset 14, -4
 1158 0002 86B0     		sub	sp, sp, #24
 1159              	.LCFI26:
 1160              		.cfi_def_cfa_offset 32
 1161 0004 00AF     		add	r7, sp, #0
 1162              	.LCFI27:
 1163              		.cfi_def_cfa_register 7
 1164 0006 F860     		str	r0, [r7, #12]
 1165 0008 B960     		str	r1, [r7, #8]
 1166 000a 7A60     		str	r2, [r7, #4]
 1167 000c 3B60     		str	r3, [r7]
 586:Middlewares/Third_Party/LwIP/src/core/ipv4/etharp.c ****   s16_t i;
 587:Middlewares/Third_Party/LwIP/src/core/ipv4/etharp.c **** 
 588:Middlewares/Third_Party/LwIP/src/core/ipv4/etharp.c ****   LWIP_ASSERT("eth_ret != NULL && ip_ret != NULL",
 1168              		.loc 1 588 3
 1169 000e 7B68     		ldr	r3, [r7, #4]
 1170 0010 002B     		cmp	r3, #0
 1171 0012 02D0     		beq	.L59
 1172              		.loc 1 588 3 is_stmt 0 discriminator 2
 1173 0014 3B68     		ldr	r3, [r7]
 1174 0016 002B     		cmp	r3, #0
 1175 0018 06D1     		bne	.L60
 1176              	.L59:
 1177              		.loc 1 588 3 discriminator 3
 1178 001a 1F4B     		ldr	r3, .L63
 1179 001c 40F24D22 		movw	r2, #589
 1180 0020 1E49     		ldr	r1, .L63+4
 1181 0022 1F48     		ldr	r0, .L63+8
 1182 0024 FFF7FEFF 		bl	printf
 1183              	.L60:
 589:Middlewares/Third_Party/LwIP/src/core/ipv4/etharp.c ****               eth_ret != NULL && ip_ret != NULL);
 590:Middlewares/Third_Party/LwIP/src/core/ipv4/etharp.c **** 
 591:Middlewares/Third_Party/LwIP/src/core/ipv4/etharp.c ****   LWIP_UNUSED_ARG(netif);
 592:Middlewares/Third_Party/LwIP/src/core/ipv4/etharp.c **** 
 593:Middlewares/Third_Party/LwIP/src/core/ipv4/etharp.c ****   i = etharp_find_entry(ipaddr, ETHARP_FLAG_FIND_ONLY, netif);
 1184              		.loc 1 593 7 is_stmt 1
 1185 0028 FA68     		ldr	r2, [r7, #12]
 1186 002a 0221     		movs	r1, #2
 1187 002c B868     		ldr	r0, [r7, #8]
 1188 002e FFF7FEFF 		bl	etharp_find_entry
 1189 0032 0346     		mov	r3, r0
 1190 0034 FB82     		strh	r3, [r7, #22]	@ movhi
 594:Middlewares/Third_Party/LwIP/src/core/ipv4/etharp.c ****   if ((i >= 0) && (arp_table[i].state >= ETHARP_STATE_STABLE)) {
 1191              		.loc 1 594 6
 1192 0036 B7F91630 		ldrsh	r3, [r7, #22]
 1193 003a 002B     		cmp	r3, #0
 1194 003c 25DB     		blt	.L61
 1195              		.loc 1 594 32 discriminator 1
 1196 003e B7F91620 		ldrsh	r2, [r7, #22]
 1197 0042 1849     		ldr	r1, .L63+12
ARM GAS  /tmp/ccXQGcXv.s 			page 33


 1198 0044 1346     		mov	r3, r2
 1199 0046 5B00     		lsls	r3, r3, #1
 1200 0048 1344     		add	r3, r3, r2
 1201 004a DB00     		lsls	r3, r3, #3
 1202 004c 0B44     		add	r3, r3, r1
 1203 004e 1433     		adds	r3, r3, #20
 1204 0050 1B78     		ldrb	r3, [r3]	@ zero_extendqisi2
 1205              		.loc 1 594 16 discriminator 1
 1206 0052 012B     		cmp	r3, #1
 1207 0054 19D9     		bls	.L61
 595:Middlewares/Third_Party/LwIP/src/core/ipv4/etharp.c ****     *eth_ret = &arp_table[i].ethaddr;
 1208              		.loc 1 595 29
 1209 0056 B7F91620 		ldrsh	r2, [r7, #22]
 1210              		.loc 1 595 16
 1211 005a 1346     		mov	r3, r2
 1212 005c 5B00     		lsls	r3, r3, #1
 1213 005e 1344     		add	r3, r3, r2
 1214 0060 DB00     		lsls	r3, r3, #3
 1215 0062 0833     		adds	r3, r3, #8
 1216 0064 0F4A     		ldr	r2, .L63+12
 1217 0066 1344     		add	r3, r3, r2
 1218 0068 1A1D     		adds	r2, r3, #4
 1219              		.loc 1 595 14
 1220 006a 7B68     		ldr	r3, [r7, #4]
 1221 006c 1A60     		str	r2, [r3]
 596:Middlewares/Third_Party/LwIP/src/core/ipv4/etharp.c ****     *ip_ret = &arp_table[i].ipaddr;
 1222              		.loc 1 596 28
 1223 006e B7F91620 		ldrsh	r2, [r7, #22]
 1224              		.loc 1 596 15
 1225 0072 1346     		mov	r3, r2
 1226 0074 5B00     		lsls	r3, r3, #1
 1227 0076 1344     		add	r3, r3, r2
 1228 0078 DB00     		lsls	r3, r3, #3
 1229 007a 0A4A     		ldr	r2, .L63+12
 1230 007c 1344     		add	r3, r3, r2
 1231 007e 1A1D     		adds	r2, r3, #4
 1232              		.loc 1 596 13
 1233 0080 3B68     		ldr	r3, [r7]
 1234 0082 1A60     		str	r2, [r3]
 597:Middlewares/Third_Party/LwIP/src/core/ipv4/etharp.c ****     return i;
 1235              		.loc 1 597 12
 1236 0084 B7F91630 		ldrsh	r3, [r7, #22]
 1237 0088 01E0     		b	.L62
 1238              	.L61:
 598:Middlewares/Third_Party/LwIP/src/core/ipv4/etharp.c ****   }
 599:Middlewares/Third_Party/LwIP/src/core/ipv4/etharp.c ****   return -1;
 1239              		.loc 1 599 10
 1240 008a 4FF0FF33 		mov	r3, #-1
 1241              	.L62:
 600:Middlewares/Third_Party/LwIP/src/core/ipv4/etharp.c **** }
 1242              		.loc 1 600 1
 1243 008e 1846     		mov	r0, r3
 1244 0090 1837     		adds	r7, r7, #24
 1245              	.LCFI28:
 1246              		.cfi_def_cfa_offset 8
 1247 0092 BD46     		mov	sp, r7
 1248              	.LCFI29:
ARM GAS  /tmp/ccXQGcXv.s 			page 34


 1249              		.cfi_def_cfa_register 13
 1250              		@ sp needed
 1251 0094 80BD     		pop	{r7, pc}
 1252              	.L64:
 1253 0096 00BF     		.align	2
 1254              	.L63:
 1255 0098 00000000 		.word	.LC0
 1256 009c 18010000 		.word	.LC7
 1257 00a0 74000000 		.word	.LC2
 1258 00a4 00000000 		.word	arp_table
 1259              		.cfi_endproc
 1260              	.LFE138:
 1262              		.section	.rodata
 1263 013a 0000     		.align	2
 1264              	.LC8:
 1265 013c 69706164 		.ascii	"ipaddr != NULL\000"
 1265      64722021 
 1265      3D204E55 
 1265      4C4C00
 1266 014b 00       		.align	2
 1267              	.LC9:
 1268 014c 6E657469 		.ascii	"netif != NULL\000"
 1268      6620213D 
 1268      204E554C 
 1268      4C00
 1269 015a 0000     		.align	2
 1270              	.LC10:
 1271 015c 6574685F 		.ascii	"eth_ret != NULL\000"
 1271      72657420 
 1271      213D204E 
 1271      554C4C00 
 1272              		.section	.text.etharp_get_entry,"ax",%progbits
 1273              		.align	1
 1274              		.global	etharp_get_entry
 1275              		.syntax unified
 1276              		.thumb
 1277              		.thumb_func
 1278              		.fpu fpv4-sp-d16
 1280              	etharp_get_entry:
 1281              	.LFB139:
 601:Middlewares/Third_Party/LwIP/src/core/ipv4/etharp.c **** 
 602:Middlewares/Third_Party/LwIP/src/core/ipv4/etharp.c **** /**
 603:Middlewares/Third_Party/LwIP/src/core/ipv4/etharp.c ****  * Possibility to iterate over stable ARP table entries
 604:Middlewares/Third_Party/LwIP/src/core/ipv4/etharp.c ****  *
 605:Middlewares/Third_Party/LwIP/src/core/ipv4/etharp.c ****  * @param i entry number, 0 to ARP_TABLE_SIZE
 606:Middlewares/Third_Party/LwIP/src/core/ipv4/etharp.c ****  * @param ipaddr return value: IP address
 607:Middlewares/Third_Party/LwIP/src/core/ipv4/etharp.c ****  * @param netif return value: points to interface
 608:Middlewares/Third_Party/LwIP/src/core/ipv4/etharp.c ****  * @param eth_ret return value: ETH address
 609:Middlewares/Third_Party/LwIP/src/core/ipv4/etharp.c ****  * @return 1 on valid index, 0 otherwise
 610:Middlewares/Third_Party/LwIP/src/core/ipv4/etharp.c ****  */
 611:Middlewares/Third_Party/LwIP/src/core/ipv4/etharp.c **** int
 612:Middlewares/Third_Party/LwIP/src/core/ipv4/etharp.c **** etharp_get_entry(size_t i, ip4_addr_t **ipaddr, struct netif **netif, struct eth_addr **eth_ret)
 613:Middlewares/Third_Party/LwIP/src/core/ipv4/etharp.c **** {
 1282              		.loc 1 613 1
 1283              		.cfi_startproc
 1284              		@ args = 0, pretend = 0, frame = 16
 1285              		@ frame_needed = 1, uses_anonymous_args = 0
ARM GAS  /tmp/ccXQGcXv.s 			page 35


 1286 0000 80B5     		push	{r7, lr}
 1287              	.LCFI30:
 1288              		.cfi_def_cfa_offset 8
 1289              		.cfi_offset 7, -8
 1290              		.cfi_offset 14, -4
 1291 0002 84B0     		sub	sp, sp, #16
 1292              	.LCFI31:
 1293              		.cfi_def_cfa_offset 24
 1294 0004 00AF     		add	r7, sp, #0
 1295              	.LCFI32:
 1296              		.cfi_def_cfa_register 7
 1297 0006 F860     		str	r0, [r7, #12]
 1298 0008 B960     		str	r1, [r7, #8]
 1299 000a 7A60     		str	r2, [r7, #4]
 1300 000c 3B60     		str	r3, [r7]
 614:Middlewares/Third_Party/LwIP/src/core/ipv4/etharp.c ****   LWIP_ASSERT("ipaddr != NULL", ipaddr != NULL);
 1301              		.loc 1 614 3
 1302 000e BB68     		ldr	r3, [r7, #8]
 1303 0010 002B     		cmp	r3, #0
 1304 0012 06D1     		bne	.L66
 1305              		.loc 1 614 3 is_stmt 0 discriminator 1
 1306 0014 274B     		ldr	r3, .L71
 1307 0016 40F26622 		movw	r2, #614
 1308 001a 2749     		ldr	r1, .L71+4
 1309 001c 2748     		ldr	r0, .L71+8
 1310 001e FFF7FEFF 		bl	printf
 1311              	.L66:
 615:Middlewares/Third_Party/LwIP/src/core/ipv4/etharp.c ****   LWIP_ASSERT("netif != NULL", netif != NULL);
 1312              		.loc 1 615 3 is_stmt 1
 1313 0022 7B68     		ldr	r3, [r7, #4]
 1314 0024 002B     		cmp	r3, #0
 1315 0026 06D1     		bne	.L67
 1316              		.loc 1 615 3 is_stmt 0 discriminator 1
 1317 0028 224B     		ldr	r3, .L71
 1318 002a 40F26722 		movw	r2, #615
 1319 002e 2449     		ldr	r1, .L71+12
 1320 0030 2248     		ldr	r0, .L71+8
 1321 0032 FFF7FEFF 		bl	printf
 1322              	.L67:
 616:Middlewares/Third_Party/LwIP/src/core/ipv4/etharp.c ****   LWIP_ASSERT("eth_ret != NULL", eth_ret != NULL);
 1323              		.loc 1 616 3 is_stmt 1
 1324 0036 3B68     		ldr	r3, [r7]
 1325 0038 002B     		cmp	r3, #0
 1326 003a 06D1     		bne	.L68
 1327              		.loc 1 616 3 is_stmt 0 discriminator 1
 1328 003c 1D4B     		ldr	r3, .L71
 1329 003e 4FF41A72 		mov	r2, #616
 1330 0042 2049     		ldr	r1, .L71+16
 1331 0044 1D48     		ldr	r0, .L71+8
 1332 0046 FFF7FEFF 		bl	printf
 1333              	.L68:
 617:Middlewares/Third_Party/LwIP/src/core/ipv4/etharp.c **** 
 618:Middlewares/Third_Party/LwIP/src/core/ipv4/etharp.c ****   if ((i < ARP_TABLE_SIZE) && (arp_table[i].state >= ETHARP_STATE_STABLE)) {
 1334              		.loc 1 618 6 is_stmt 1
 1335 004a FB68     		ldr	r3, [r7, #12]
 1336 004c 092B     		cmp	r3, #9
 1337 004e 2CD8     		bhi	.L69
ARM GAS  /tmp/ccXQGcXv.s 			page 36


 1338              		.loc 1 618 44 discriminator 1
 1339 0050 1D49     		ldr	r1, .L71+20
 1340 0052 FA68     		ldr	r2, [r7, #12]
 1341 0054 1346     		mov	r3, r2
 1342 0056 5B00     		lsls	r3, r3, #1
 1343 0058 1344     		add	r3, r3, r2
 1344 005a DB00     		lsls	r3, r3, #3
 1345 005c 0B44     		add	r3, r3, r1
 1346 005e 1433     		adds	r3, r3, #20
 1347 0060 1B78     		ldrb	r3, [r3]	@ zero_extendqisi2
 1348              		.loc 1 618 28 discriminator 1
 1349 0062 012B     		cmp	r3, #1
 1350 0064 21D9     		bls	.L69
 619:Middlewares/Third_Party/LwIP/src/core/ipv4/etharp.c ****     *ipaddr  = &arp_table[i].ipaddr;
 1351              		.loc 1 619 16
 1352 0066 FA68     		ldr	r2, [r7, #12]
 1353 0068 1346     		mov	r3, r2
 1354 006a 5B00     		lsls	r3, r3, #1
 1355 006c 1344     		add	r3, r3, r2
 1356 006e DB00     		lsls	r3, r3, #3
 1357 0070 154A     		ldr	r2, .L71+20
 1358 0072 1344     		add	r3, r3, r2
 1359 0074 1A1D     		adds	r2, r3, #4
 1360              		.loc 1 619 14
 1361 0076 BB68     		ldr	r3, [r7, #8]
 1362 0078 1A60     		str	r2, [r3]
 620:Middlewares/Third_Party/LwIP/src/core/ipv4/etharp.c ****     *netif   = arp_table[i].netif;
 1363              		.loc 1 620 28
 1364 007a 1349     		ldr	r1, .L71+20
 1365 007c FA68     		ldr	r2, [r7, #12]
 1366 007e 1346     		mov	r3, r2
 1367 0080 5B00     		lsls	r3, r3, #1
 1368 0082 1344     		add	r3, r3, r2
 1369 0084 DB00     		lsls	r3, r3, #3
 1370 0086 0B44     		add	r3, r3, r1
 1371 0088 0833     		adds	r3, r3, #8
 1372 008a 1A68     		ldr	r2, [r3]
 1373              		.loc 1 620 14
 1374 008c 7B68     		ldr	r3, [r7, #4]
 1375 008e 1A60     		str	r2, [r3]
 621:Middlewares/Third_Party/LwIP/src/core/ipv4/etharp.c ****     *eth_ret = &arp_table[i].ethaddr;
 1376              		.loc 1 621 16
 1377 0090 FA68     		ldr	r2, [r7, #12]
 1378 0092 1346     		mov	r3, r2
 1379 0094 5B00     		lsls	r3, r3, #1
 1380 0096 1344     		add	r3, r3, r2
 1381 0098 DB00     		lsls	r3, r3, #3
 1382 009a 0833     		adds	r3, r3, #8
 1383 009c 0A4A     		ldr	r2, .L71+20
 1384 009e 1344     		add	r3, r3, r2
 1385 00a0 1A1D     		adds	r2, r3, #4
 1386              		.loc 1 621 14
 1387 00a2 3B68     		ldr	r3, [r7]
 1388 00a4 1A60     		str	r2, [r3]
 622:Middlewares/Third_Party/LwIP/src/core/ipv4/etharp.c ****     return 1;
 1389              		.loc 1 622 12
 1390 00a6 0123     		movs	r3, #1
ARM GAS  /tmp/ccXQGcXv.s 			page 37


 1391 00a8 00E0     		b	.L70
 1392              	.L69:
 623:Middlewares/Third_Party/LwIP/src/core/ipv4/etharp.c ****   } else {
 624:Middlewares/Third_Party/LwIP/src/core/ipv4/etharp.c ****     return 0;
 1393              		.loc 1 624 12
 1394 00aa 0023     		movs	r3, #0
 1395              	.L70:
 625:Middlewares/Third_Party/LwIP/src/core/ipv4/etharp.c ****   }
 626:Middlewares/Third_Party/LwIP/src/core/ipv4/etharp.c **** }
 1396              		.loc 1 626 1
 1397 00ac 1846     		mov	r0, r3
 1398 00ae 1037     		adds	r7, r7, #16
 1399              	.LCFI33:
 1400              		.cfi_def_cfa_offset 8
 1401 00b0 BD46     		mov	sp, r7
 1402              	.LCFI34:
 1403              		.cfi_def_cfa_register 13
 1404              		@ sp needed
 1405 00b2 80BD     		pop	{r7, pc}
 1406              	.L72:
 1407              		.align	2
 1408              	.L71:
 1409 00b4 00000000 		.word	.LC0
 1410 00b8 3C010000 		.word	.LC8
 1411 00bc 74000000 		.word	.LC2
 1412 00c0 4C010000 		.word	.LC9
 1413 00c4 5C010000 		.word	.LC10
 1414 00c8 00000000 		.word	arp_table
 1415              		.cfi_endproc
 1416              	.LFE139:
 1418              		.section	.text.etharp_input,"ax",%progbits
 1419              		.align	1
 1420              		.global	etharp_input
 1421              		.syntax unified
 1422              		.thumb
 1423              		.thumb_func
 1424              		.fpu fpv4-sp-d16
 1426              	etharp_input:
 1427              	.LFB140:
 627:Middlewares/Third_Party/LwIP/src/core/ipv4/etharp.c **** 
 628:Middlewares/Third_Party/LwIP/src/core/ipv4/etharp.c **** /**
 629:Middlewares/Third_Party/LwIP/src/core/ipv4/etharp.c ****  * Responds to ARP requests to us. Upon ARP replies to us, add entry to cache
 630:Middlewares/Third_Party/LwIP/src/core/ipv4/etharp.c ****  * send out queued IP packets. Updates cache with snooped address pairs.
 631:Middlewares/Third_Party/LwIP/src/core/ipv4/etharp.c ****  *
 632:Middlewares/Third_Party/LwIP/src/core/ipv4/etharp.c ****  * Should be called for incoming ARP packets. The pbuf in the argument
 633:Middlewares/Third_Party/LwIP/src/core/ipv4/etharp.c ****  * is freed by this function.
 634:Middlewares/Third_Party/LwIP/src/core/ipv4/etharp.c ****  *
 635:Middlewares/Third_Party/LwIP/src/core/ipv4/etharp.c ****  * @param p The ARP packet that arrived on netif. Is freed by this function.
 636:Middlewares/Third_Party/LwIP/src/core/ipv4/etharp.c ****  * @param netif The lwIP network interface on which the ARP packet pbuf arrived.
 637:Middlewares/Third_Party/LwIP/src/core/ipv4/etharp.c ****  *
 638:Middlewares/Third_Party/LwIP/src/core/ipv4/etharp.c ****  * @see pbuf_free()
 639:Middlewares/Third_Party/LwIP/src/core/ipv4/etharp.c ****  */
 640:Middlewares/Third_Party/LwIP/src/core/ipv4/etharp.c **** void
 641:Middlewares/Third_Party/LwIP/src/core/ipv4/etharp.c **** etharp_input(struct pbuf *p, struct netif *netif)
 642:Middlewares/Third_Party/LwIP/src/core/ipv4/etharp.c **** {
 1428              		.loc 1 642 1
 1429              		.cfi_startproc
ARM GAS  /tmp/ccXQGcXv.s 			page 38


 1430              		@ args = 0, pretend = 0, frame = 24
 1431              		@ frame_needed = 1, uses_anonymous_args = 0
 1432 0000 B0B5     		push	{r4, r5, r7, lr}
 1433              	.LCFI35:
 1434              		.cfi_def_cfa_offset 16
 1435              		.cfi_offset 4, -16
 1436              		.cfi_offset 5, -12
 1437              		.cfi_offset 7, -8
 1438              		.cfi_offset 14, -4
 1439 0002 8AB0     		sub	sp, sp, #40
 1440              	.LCFI36:
 1441              		.cfi_def_cfa_offset 56
 1442 0004 04AF     		add	r7, sp, #16
 1443              	.LCFI37:
 1444              		.cfi_def_cfa 7, 40
 1445 0006 7860     		str	r0, [r7, #4]
 1446 0008 3960     		str	r1, [r7]
 643:Middlewares/Third_Party/LwIP/src/core/ipv4/etharp.c ****   struct etharp_hdr *hdr;
 644:Middlewares/Third_Party/LwIP/src/core/ipv4/etharp.c ****   /* these are aligned properly, whereas the ARP header fields might not be */
 645:Middlewares/Third_Party/LwIP/src/core/ipv4/etharp.c ****   ip4_addr_t sipaddr, dipaddr;
 646:Middlewares/Third_Party/LwIP/src/core/ipv4/etharp.c ****   u8_t for_us;
 647:Middlewares/Third_Party/LwIP/src/core/ipv4/etharp.c **** 
 648:Middlewares/Third_Party/LwIP/src/core/ipv4/etharp.c ****   LWIP_ASSERT_CORE_LOCKED();
 649:Middlewares/Third_Party/LwIP/src/core/ipv4/etharp.c **** 
 650:Middlewares/Third_Party/LwIP/src/core/ipv4/etharp.c ****   LWIP_ERROR("netif != NULL", (netif != NULL), return;);
 1447              		.loc 1 650 3
 1448 000a 3B68     		ldr	r3, [r7]
 1449 000c 002B     		cmp	r3, #0
 1450 000e 07D1     		bne	.L74
 1451              		.loc 1 650 3 is_stmt 0 discriminator 1
 1452 0010 3F4B     		ldr	r3, .L90
 1453 0012 40F28A22 		movw	r2, #650
 1454 0016 3F49     		ldr	r1, .L90+4
 1455 0018 3F48     		ldr	r0, .L90+8
 1456 001a FFF7FEFF 		bl	printf
 1457 001e 74E0     		b	.L73
 1458              	.L74:
 651:Middlewares/Third_Party/LwIP/src/core/ipv4/etharp.c **** 
 652:Middlewares/Third_Party/LwIP/src/core/ipv4/etharp.c ****   hdr = (struct etharp_hdr *)p->payload;
 1459              		.loc 1 652 7 is_stmt 1
 1460 0020 7B68     		ldr	r3, [r7, #4]
 1461 0022 5B68     		ldr	r3, [r3, #4]
 1462 0024 3B61     		str	r3, [r7, #16]
 653:Middlewares/Third_Party/LwIP/src/core/ipv4/etharp.c **** 
 654:Middlewares/Third_Party/LwIP/src/core/ipv4/etharp.c ****   /* RFC 826 "Packet Reception": */
 655:Middlewares/Third_Party/LwIP/src/core/ipv4/etharp.c ****   if ((hdr->hwtype != PP_HTONS(LWIP_IANA_HWTYPE_ETHERNET)) ||
 1463              		.loc 1 655 11
 1464 0026 3B69     		ldr	r3, [r7, #16]
 1465 0028 1B88     		ldrh	r3, [r3]	@ unaligned
 1466 002a 9BB2     		uxth	r3, r3
 1467              		.loc 1 655 6
 1468 002c B3F5807F 		cmp	r3, #256
 1469 0030 0CD1     		bne	.L76
 656:Middlewares/Third_Party/LwIP/src/core/ipv4/etharp.c ****       (hdr->hwlen != ETH_HWADDR_LEN) ||
 1470              		.loc 1 656 11 discriminator 1
 1471 0032 3B69     		ldr	r3, [r7, #16]
 1472 0034 1B79     		ldrb	r3, [r3, #4]	@ zero_extendqisi2
ARM GAS  /tmp/ccXQGcXv.s 			page 39


 655:Middlewares/Third_Party/LwIP/src/core/ipv4/etharp.c ****       (hdr->hwlen != ETH_HWADDR_LEN) ||
 1473              		.loc 1 655 60 discriminator 1
 1474 0036 062B     		cmp	r3, #6
 1475 0038 08D1     		bne	.L76
 657:Middlewares/Third_Party/LwIP/src/core/ipv4/etharp.c ****       (hdr->protolen != sizeof(ip4_addr_t)) ||
 1476              		.loc 1 657 11
 1477 003a 3B69     		ldr	r3, [r7, #16]
 1478 003c 5B79     		ldrb	r3, [r3, #5]	@ zero_extendqisi2
 656:Middlewares/Third_Party/LwIP/src/core/ipv4/etharp.c ****       (hdr->hwlen != ETH_HWADDR_LEN) ||
 1479              		.loc 1 656 38
 1480 003e 042B     		cmp	r3, #4
 1481 0040 04D1     		bne	.L76
 658:Middlewares/Third_Party/LwIP/src/core/ipv4/etharp.c ****       (hdr->proto != PP_HTONS(ETHTYPE_IP)))  {
 1482              		.loc 1 658 11
 1483 0042 3B69     		ldr	r3, [r7, #16]
 1484 0044 5B88     		ldrh	r3, [r3, #2]	@ unaligned
 1485 0046 9BB2     		uxth	r3, r3
 657:Middlewares/Third_Party/LwIP/src/core/ipv4/etharp.c ****       (hdr->protolen != sizeof(ip4_addr_t)) ||
 1486              		.loc 1 657 45
 1487 0048 082B     		cmp	r3, #8
 1488 004a 03D0     		beq	.L77
 1489              	.L76:
 659:Middlewares/Third_Party/LwIP/src/core/ipv4/etharp.c ****     LWIP_DEBUGF(ETHARP_DEBUG | LWIP_DBG_TRACE | LWIP_DBG_LEVEL_WARNING,
 660:Middlewares/Third_Party/LwIP/src/core/ipv4/etharp.c ****                 ("etharp_input: packet dropped, wrong hw type, hwlen, proto, protolen or ethernet t
 661:Middlewares/Third_Party/LwIP/src/core/ipv4/etharp.c ****                  hdr->hwtype, (u16_t)hdr->hwlen, hdr->proto, (u16_t)hdr->protolen));
 662:Middlewares/Third_Party/LwIP/src/core/ipv4/etharp.c ****     ETHARP_STATS_INC(etharp.proterr);
 663:Middlewares/Third_Party/LwIP/src/core/ipv4/etharp.c ****     ETHARP_STATS_INC(etharp.drop);
 664:Middlewares/Third_Party/LwIP/src/core/ipv4/etharp.c ****     pbuf_free(p);
 1490              		.loc 1 664 5
 1491 004c 7868     		ldr	r0, [r7, #4]
 1492 004e FFF7FEFF 		bl	pbuf_free
 665:Middlewares/Third_Party/LwIP/src/core/ipv4/etharp.c ****     return;
 1493              		.loc 1 665 5
 1494 0052 5AE0     		b	.L73
 1495              	.L77:
 666:Middlewares/Third_Party/LwIP/src/core/ipv4/etharp.c ****   }
 667:Middlewares/Third_Party/LwIP/src/core/ipv4/etharp.c ****   ETHARP_STATS_INC(etharp.recv);
 668:Middlewares/Third_Party/LwIP/src/core/ipv4/etharp.c **** 
 669:Middlewares/Third_Party/LwIP/src/core/ipv4/etharp.c **** #if LWIP_AUTOIP
 670:Middlewares/Third_Party/LwIP/src/core/ipv4/etharp.c ****   /* We have to check if a host already has configured our random
 671:Middlewares/Third_Party/LwIP/src/core/ipv4/etharp.c ****    * created link local address and continuously check if there is
 672:Middlewares/Third_Party/LwIP/src/core/ipv4/etharp.c ****    * a host with this IP-address so we can detect collisions */
 673:Middlewares/Third_Party/LwIP/src/core/ipv4/etharp.c ****   autoip_arp_reply(netif, hdr);
 674:Middlewares/Third_Party/LwIP/src/core/ipv4/etharp.c **** #endif /* LWIP_AUTOIP */
 675:Middlewares/Third_Party/LwIP/src/core/ipv4/etharp.c **** 
 676:Middlewares/Third_Party/LwIP/src/core/ipv4/etharp.c ****   /* Copy struct ip4_addr_wordaligned to aligned ip4_addr, to support compilers without
 677:Middlewares/Third_Party/LwIP/src/core/ipv4/etharp.c ****    * structure packing (not using structure copy which breaks strict-aliasing rules). */
 678:Middlewares/Third_Party/LwIP/src/core/ipv4/etharp.c ****   IPADDR_WORDALIGNED_COPY_TO_IP4_ADDR_T(&sipaddr, &hdr->sipaddr);
 1496              		.loc 1 678 3
 1497 0054 3B69     		ldr	r3, [r7, #16]
 1498 0056 0E33     		adds	r3, r3, #14
 1499 0058 1B68     		ldr	r3, [r3]	@ unaligned
 1500 005a FB60     		str	r3, [r7, #12]
 679:Middlewares/Third_Party/LwIP/src/core/ipv4/etharp.c ****   IPADDR_WORDALIGNED_COPY_TO_IP4_ADDR_T(&dipaddr, &hdr->dipaddr);
 1501              		.loc 1 679 3
 1502 005c 3B69     		ldr	r3, [r7, #16]
 1503 005e 1833     		adds	r3, r3, #24
ARM GAS  /tmp/ccXQGcXv.s 			page 40


 1504 0060 1B68     		ldr	r3, [r3]	@ unaligned
 1505 0062 BB60     		str	r3, [r7, #8]
 680:Middlewares/Third_Party/LwIP/src/core/ipv4/etharp.c **** 
 681:Middlewares/Third_Party/LwIP/src/core/ipv4/etharp.c ****   /* this interface is not configured? */
 682:Middlewares/Third_Party/LwIP/src/core/ipv4/etharp.c ****   if (ip4_addr_isany_val(*netif_ip4_addr(netif))) {
 1506              		.loc 1 682 7
 1507 0064 3B68     		ldr	r3, [r7]
 1508 0066 0433     		adds	r3, r3, #4
 1509 0068 1B68     		ldr	r3, [r3]
 1510              		.loc 1 682 6
 1511 006a 002B     		cmp	r3, #0
 1512 006c 02D1     		bne	.L78
 683:Middlewares/Third_Party/LwIP/src/core/ipv4/etharp.c ****     for_us = 0;
 1513              		.loc 1 683 12
 1514 006e 0023     		movs	r3, #0
 1515 0070 FB75     		strb	r3, [r7, #23]
 1516 0072 09E0     		b	.L79
 1517              	.L78:
 684:Middlewares/Third_Party/LwIP/src/core/ipv4/etharp.c ****   } else {
 685:Middlewares/Third_Party/LwIP/src/core/ipv4/etharp.c ****     /* ARP packet directed to us? */
 686:Middlewares/Third_Party/LwIP/src/core/ipv4/etharp.c ****     for_us = (u8_t)ip4_addr_cmp(&dipaddr, netif_ip4_addr(netif));
 1518              		.loc 1 686 20
 1519 0074 BA68     		ldr	r2, [r7, #8]
 1520 0076 3B68     		ldr	r3, [r7]
 1521 0078 0433     		adds	r3, r3, #4
 1522 007a 1B68     		ldr	r3, [r3]
 1523              		.loc 1 686 14
 1524 007c 9A42     		cmp	r2, r3
 1525 007e 0CBF     		ite	eq
 1526 0080 0123     		moveq	r3, #1
 1527 0082 0023     		movne	r3, #0
 1528 0084 DBB2     		uxtb	r3, r3
 1529              		.loc 1 686 12
 1530 0086 FB75     		strb	r3, [r7, #23]
 1531              	.L79:
 687:Middlewares/Third_Party/LwIP/src/core/ipv4/etharp.c ****   }
 688:Middlewares/Third_Party/LwIP/src/core/ipv4/etharp.c **** 
 689:Middlewares/Third_Party/LwIP/src/core/ipv4/etharp.c ****   /* ARP message directed to us?
 690:Middlewares/Third_Party/LwIP/src/core/ipv4/etharp.c ****       -> add IP address in ARP cache; assume requester wants to talk to us,
 691:Middlewares/Third_Party/LwIP/src/core/ipv4/etharp.c ****          can result in directly sending the queued packets for this host.
 692:Middlewares/Third_Party/LwIP/src/core/ipv4/etharp.c ****      ARP message not directed to us?
 693:Middlewares/Third_Party/LwIP/src/core/ipv4/etharp.c ****       ->  update the source IP address in the cache, if present */
 694:Middlewares/Third_Party/LwIP/src/core/ipv4/etharp.c ****   etharp_update_arp_entry(netif, &sipaddr, &(hdr->shwaddr),
 1532              		.loc 1 694 3
 1533 0088 3B69     		ldr	r3, [r7, #16]
 1534 008a 03F10802 		add	r2, r3, #8
 1535 008e FB7D     		ldrb	r3, [r7, #23]	@ zero_extendqisi2
 1536 0090 002B     		cmp	r3, #0
 1537 0092 01D0     		beq	.L80
 1538              		.loc 1 694 3 is_stmt 0 discriminator 1
 1539 0094 0123     		movs	r3, #1
 1540 0096 00E0     		b	.L81
 1541              	.L80:
 1542              		.loc 1 694 3 discriminator 2
 1543 0098 0223     		movs	r3, #2
 1544              	.L81:
 1545              		.loc 1 694 3 discriminator 4
ARM GAS  /tmp/ccXQGcXv.s 			page 41


 1546 009a 07F10C01 		add	r1, r7, #12
 1547 009e 3868     		ldr	r0, [r7]
 1548 00a0 FFF7FEFF 		bl	etharp_update_arp_entry
 695:Middlewares/Third_Party/LwIP/src/core/ipv4/etharp.c ****                           for_us ? ETHARP_FLAG_TRY_HARD : ETHARP_FLAG_FIND_ONLY);
 696:Middlewares/Third_Party/LwIP/src/core/ipv4/etharp.c **** 
 697:Middlewares/Third_Party/LwIP/src/core/ipv4/etharp.c ****   /* now act on the message itself */
 698:Middlewares/Third_Party/LwIP/src/core/ipv4/etharp.c ****   switch (hdr->opcode) {
 1549              		.loc 1 698 14 is_stmt 1 discriminator 4
 1550 00a4 3B69     		ldr	r3, [r7, #16]
 1551 00a6 DB88     		ldrh	r3, [r3, #6]	@ unaligned
 1552 00a8 9BB2     		uxth	r3, r3
 1553              		.loc 1 698 3 discriminator 4
 1554 00aa B3F5807F 		cmp	r3, #256
 1555 00ae 03D0     		beq	.L82
 1556              		.loc 1 698 3 is_stmt 0
 1557 00b0 B3F5007F 		cmp	r3, #512
 1558 00b4 1ED0     		beq	.L83
 699:Middlewares/Third_Party/LwIP/src/core/ipv4/etharp.c ****     /* ARP request? */
 700:Middlewares/Third_Party/LwIP/src/core/ipv4/etharp.c ****     case PP_HTONS(ARP_REQUEST):
 701:Middlewares/Third_Party/LwIP/src/core/ipv4/etharp.c ****       /* ARP request. If it asked for our address, we send out a
 702:Middlewares/Third_Party/LwIP/src/core/ipv4/etharp.c ****        * reply. In any case, we time-stamp any existing ARP entry,
 703:Middlewares/Third_Party/LwIP/src/core/ipv4/etharp.c ****        * and possibly send out an IP packet that was queued on it. */
 704:Middlewares/Third_Party/LwIP/src/core/ipv4/etharp.c **** 
 705:Middlewares/Third_Party/LwIP/src/core/ipv4/etharp.c ****       LWIP_DEBUGF (ETHARP_DEBUG | LWIP_DBG_TRACE, ("etharp_input: incoming ARP request\n"));
 706:Middlewares/Third_Party/LwIP/src/core/ipv4/etharp.c ****       /* ARP request for our address? */
 707:Middlewares/Third_Party/LwIP/src/core/ipv4/etharp.c ****       if (for_us) {
 708:Middlewares/Third_Party/LwIP/src/core/ipv4/etharp.c ****         /* send ARP response */
 709:Middlewares/Third_Party/LwIP/src/core/ipv4/etharp.c ****         etharp_raw(netif,
 710:Middlewares/Third_Party/LwIP/src/core/ipv4/etharp.c ****                    (struct eth_addr *)netif->hwaddr, &hdr->shwaddr,
 711:Middlewares/Third_Party/LwIP/src/core/ipv4/etharp.c ****                    (struct eth_addr *)netif->hwaddr, netif_ip4_addr(netif),
 712:Middlewares/Third_Party/LwIP/src/core/ipv4/etharp.c ****                    &hdr->shwaddr, &sipaddr,
 713:Middlewares/Third_Party/LwIP/src/core/ipv4/etharp.c ****                    ARP_REPLY);
 714:Middlewares/Third_Party/LwIP/src/core/ipv4/etharp.c ****         /* we are not configured? */
 715:Middlewares/Third_Party/LwIP/src/core/ipv4/etharp.c ****       } else if (ip4_addr_isany_val(*netif_ip4_addr(netif))) {
 716:Middlewares/Third_Party/LwIP/src/core/ipv4/etharp.c ****         /* { for_us == 0 and netif->ip_addr.addr == 0 } */
 717:Middlewares/Third_Party/LwIP/src/core/ipv4/etharp.c ****         LWIP_DEBUGF(ETHARP_DEBUG | LWIP_DBG_TRACE, ("etharp_input: we are unconfigured, ARP request
 718:Middlewares/Third_Party/LwIP/src/core/ipv4/etharp.c ****         /* request was not directed to us */
 719:Middlewares/Third_Party/LwIP/src/core/ipv4/etharp.c ****       } else {
 720:Middlewares/Third_Party/LwIP/src/core/ipv4/etharp.c ****         /* { for_us == 0 and netif->ip_addr.addr != 0 } */
 721:Middlewares/Third_Party/LwIP/src/core/ipv4/etharp.c ****         LWIP_DEBUGF(ETHARP_DEBUG | LWIP_DBG_TRACE, ("etharp_input: ARP request was not for us.\n"))
 722:Middlewares/Third_Party/LwIP/src/core/ipv4/etharp.c ****       }
 723:Middlewares/Third_Party/LwIP/src/core/ipv4/etharp.c ****       break;
 724:Middlewares/Third_Party/LwIP/src/core/ipv4/etharp.c ****     case PP_HTONS(ARP_REPLY):
 725:Middlewares/Third_Party/LwIP/src/core/ipv4/etharp.c ****       /* ARP reply. We already updated the ARP cache earlier. */
 726:Middlewares/Third_Party/LwIP/src/core/ipv4/etharp.c ****       LWIP_DEBUGF(ETHARP_DEBUG | LWIP_DBG_TRACE, ("etharp_input: incoming ARP reply\n"));
 727:Middlewares/Third_Party/LwIP/src/core/ipv4/etharp.c **** #if (LWIP_DHCP && DHCP_DOES_ARP_CHECK)
 728:Middlewares/Third_Party/LwIP/src/core/ipv4/etharp.c ****       /* DHCP wants to know about ARP replies from any host with an
 729:Middlewares/Third_Party/LwIP/src/core/ipv4/etharp.c ****        * IP address also offered to us by the DHCP server. We do not
 730:Middlewares/Third_Party/LwIP/src/core/ipv4/etharp.c ****        * want to take a duplicate IP address on a single network.
 731:Middlewares/Third_Party/LwIP/src/core/ipv4/etharp.c ****        * @todo How should we handle redundant (fail-over) interfaces? */
 732:Middlewares/Third_Party/LwIP/src/core/ipv4/etharp.c ****       dhcp_arp_reply(netif, &sipaddr);
 733:Middlewares/Third_Party/LwIP/src/core/ipv4/etharp.c **** #endif /* (LWIP_DHCP && DHCP_DOES_ARP_CHECK) */
 734:Middlewares/Third_Party/LwIP/src/core/ipv4/etharp.c ****       break;
 735:Middlewares/Third_Party/LwIP/src/core/ipv4/etharp.c ****     default:
 736:Middlewares/Third_Party/LwIP/src/core/ipv4/etharp.c ****       LWIP_DEBUGF(ETHARP_DEBUG | LWIP_DBG_TRACE, ("etharp_input: ARP unknown opcode type %"S16_F"\n
 737:Middlewares/Third_Party/LwIP/src/core/ipv4/etharp.c ****       ETHARP_STATS_INC(etharp.err);
 738:Middlewares/Third_Party/LwIP/src/core/ipv4/etharp.c ****       break;
ARM GAS  /tmp/ccXQGcXv.s 			page 42


 1559              		.loc 1 738 7 is_stmt 1
 1560 00b6 25E0     		b	.L87
 1561              	.L82:
 707:Middlewares/Third_Party/LwIP/src/core/ipv4/etharp.c ****         /* send ARP response */
 1562              		.loc 1 707 10
 1563 00b8 FB7D     		ldrb	r3, [r7, #23]	@ zero_extendqisi2
 1564 00ba 002B     		cmp	r3, #0
 1565 00bc 21D0     		beq	.L89
 710:Middlewares/Third_Party/LwIP/src/core/ipv4/etharp.c ****                    (struct eth_addr *)netif->hwaddr, netif_ip4_addr(netif),
 1566              		.loc 1 710 39
 1567 00be 3B68     		ldr	r3, [r7]
 1568 00c0 03F12A00 		add	r0, r3, #42
 710:Middlewares/Third_Party/LwIP/src/core/ipv4/etharp.c ****                    (struct eth_addr *)netif->hwaddr, netif_ip4_addr(netif),
 1569              		.loc 1 710 54
 1570 00c4 3B69     		ldr	r3, [r7, #16]
 1571 00c6 03F10804 		add	r4, r3, #8
 711:Middlewares/Third_Party/LwIP/src/core/ipv4/etharp.c ****                    &hdr->shwaddr, &sipaddr,
 1572              		.loc 1 711 39
 1573 00ca 3B68     		ldr	r3, [r7]
 1574 00cc 03F12A05 		add	r5, r3, #42
 711:Middlewares/Third_Party/LwIP/src/core/ipv4/etharp.c ****                    &hdr->shwaddr, &sipaddr,
 1575              		.loc 1 711 54
 1576 00d0 3B68     		ldr	r3, [r7]
 1577 00d2 0433     		adds	r3, r3, #4
 712:Middlewares/Third_Party/LwIP/src/core/ipv4/etharp.c ****                    ARP_REPLY);
 1578              		.loc 1 712 20
 1579 00d4 3A69     		ldr	r2, [r7, #16]
 1580 00d6 0832     		adds	r2, r2, #8
 709:Middlewares/Third_Party/LwIP/src/core/ipv4/etharp.c ****                    (struct eth_addr *)netif->hwaddr, &hdr->shwaddr,
 1581              		.loc 1 709 9
 1582 00d8 0221     		movs	r1, #2
 1583 00da 0391     		str	r1, [sp, #12]
 1584 00dc 07F10C01 		add	r1, r7, #12
 1585 00e0 0291     		str	r1, [sp, #8]
 1586 00e2 0192     		str	r2, [sp, #4]
 1587 00e4 0093     		str	r3, [sp]
 1588 00e6 2B46     		mov	r3, r5
 1589 00e8 2246     		mov	r2, r4
 1590 00ea 0146     		mov	r1, r0
 1591 00ec 3868     		ldr	r0, [r7]
 1592 00ee FFF7FEFF 		bl	etharp_raw
 723:Middlewares/Third_Party/LwIP/src/core/ipv4/etharp.c ****     case PP_HTONS(ARP_REPLY):
 1593              		.loc 1 723 7
 1594 00f2 06E0     		b	.L89
 1595              	.L83:
 732:Middlewares/Third_Party/LwIP/src/core/ipv4/etharp.c **** #endif /* (LWIP_DHCP && DHCP_DOES_ARP_CHECK) */
 1596              		.loc 1 732 7
 1597 00f4 07F10C03 		add	r3, r7, #12
 1598 00f8 1946     		mov	r1, r3
 1599 00fa 3868     		ldr	r0, [r7]
 1600 00fc FFF7FEFF 		bl	dhcp_arp_reply
 734:Middlewares/Third_Party/LwIP/src/core/ipv4/etharp.c ****     default:
 1601              		.loc 1 734 7
 1602 0100 00E0     		b	.L87
 1603              	.L89:
 723:Middlewares/Third_Party/LwIP/src/core/ipv4/etharp.c ****     case PP_HTONS(ARP_REPLY):
 1604              		.loc 1 723 7
ARM GAS  /tmp/ccXQGcXv.s 			page 43


 1605 0102 00BF     		nop
 1606              	.L87:
 739:Middlewares/Third_Party/LwIP/src/core/ipv4/etharp.c ****   }
 740:Middlewares/Third_Party/LwIP/src/core/ipv4/etharp.c ****   /* free ARP packet */
 741:Middlewares/Third_Party/LwIP/src/core/ipv4/etharp.c ****   pbuf_free(p);
 1607              		.loc 1 741 3 discriminator 2
 1608 0104 7868     		ldr	r0, [r7, #4]
 1609 0106 FFF7FEFF 		bl	pbuf_free
 1610              	.L73:
 742:Middlewares/Third_Party/LwIP/src/core/ipv4/etharp.c **** }
 1611              		.loc 1 742 1
 1612 010a 1837     		adds	r7, r7, #24
 1613              	.LCFI38:
 1614              		.cfi_def_cfa_offset 16
 1615 010c BD46     		mov	sp, r7
 1616              	.LCFI39:
 1617              		.cfi_def_cfa_register 13
 1618              		@ sp needed
 1619 010e B0BD     		pop	{r4, r5, r7, pc}
 1620              	.L91:
 1621              		.align	2
 1622              	.L90:
 1623 0110 00000000 		.word	.LC0
 1624 0114 4C010000 		.word	.LC9
 1625 0118 74000000 		.word	.LC2
 1626              		.cfi_endproc
 1627              	.LFE140:
 1629              		.section	.rodata
 1630              		.align	2
 1631              	.LC11:
 1632 016c 6172705F 		.ascii	"arp_table[arp_idx].state >= ETHARP_STATE_STABLE\000"
 1632      7461626C 
 1632      655B6172 
 1632      705F6964 
 1632      785D2E73 
 1633              		.section	.text.etharp_output_to_arp_index,"ax",%progbits
 1634              		.align	1
 1635              		.syntax unified
 1636              		.thumb
 1637              		.thumb_func
 1638              		.fpu fpv4-sp-d16
 1640              	etharp_output_to_arp_index:
 1641              	.LFB141:
 743:Middlewares/Third_Party/LwIP/src/core/ipv4/etharp.c **** 
 744:Middlewares/Third_Party/LwIP/src/core/ipv4/etharp.c **** /** Just a small helper function that sends a pbuf to an ethernet address
 745:Middlewares/Third_Party/LwIP/src/core/ipv4/etharp.c ****  * in the arp_table specified by the index 'arp_idx'.
 746:Middlewares/Third_Party/LwIP/src/core/ipv4/etharp.c ****  */
 747:Middlewares/Third_Party/LwIP/src/core/ipv4/etharp.c **** static err_t
 748:Middlewares/Third_Party/LwIP/src/core/ipv4/etharp.c **** etharp_output_to_arp_index(struct netif *netif, struct pbuf *q, netif_addr_idx_t arp_idx)
 749:Middlewares/Third_Party/LwIP/src/core/ipv4/etharp.c **** {
 1642              		.loc 1 749 1
 1643              		.cfi_startproc
 1644              		@ args = 0, pretend = 0, frame = 16
 1645              		@ frame_needed = 1, uses_anonymous_args = 0
 1646 0000 80B5     		push	{r7, lr}
 1647              	.LCFI40:
 1648              		.cfi_def_cfa_offset 8
ARM GAS  /tmp/ccXQGcXv.s 			page 44


 1649              		.cfi_offset 7, -8
 1650              		.cfi_offset 14, -4
 1651 0002 86B0     		sub	sp, sp, #24
 1652              	.LCFI41:
 1653              		.cfi_def_cfa_offset 32
 1654 0004 02AF     		add	r7, sp, #8
 1655              	.LCFI42:
 1656              		.cfi_def_cfa 7, 24
 1657 0006 F860     		str	r0, [r7, #12]
 1658 0008 B960     		str	r1, [r7, #8]
 1659 000a 1346     		mov	r3, r2
 1660 000c FB71     		strb	r3, [r7, #7]
 750:Middlewares/Third_Party/LwIP/src/core/ipv4/etharp.c ****   LWIP_ASSERT("arp_table[arp_idx].state >= ETHARP_STATE_STABLE",
 1661              		.loc 1 750 3
 1662 000e FA79     		ldrb	r2, [r7, #7]	@ zero_extendqisi2
 1663 0010 4449     		ldr	r1, .L98
 1664 0012 1346     		mov	r3, r2
 1665 0014 5B00     		lsls	r3, r3, #1
 1666 0016 1344     		add	r3, r3, r2
 1667 0018 DB00     		lsls	r3, r3, #3
 1668 001a 0B44     		add	r3, r3, r1
 1669 001c 1433     		adds	r3, r3, #20
 1670 001e 1B78     		ldrb	r3, [r3]	@ zero_extendqisi2
 1671 0020 012B     		cmp	r3, #1
 1672 0022 06D8     		bhi	.L93
 1673              		.loc 1 750 3 is_stmt 0 discriminator 1
 1674 0024 404B     		ldr	r3, .L98+4
 1675 0026 40F2EF22 		movw	r2, #751
 1676 002a 4049     		ldr	r1, .L98+8
 1677 002c 4048     		ldr	r0, .L98+12
 1678 002e FFF7FEFF 		bl	printf
 1679              	.L93:
 751:Middlewares/Third_Party/LwIP/src/core/ipv4/etharp.c ****               arp_table[arp_idx].state >= ETHARP_STATE_STABLE);
 752:Middlewares/Third_Party/LwIP/src/core/ipv4/etharp.c ****   /* if arp table entry is about to expire: re-request it,
 753:Middlewares/Third_Party/LwIP/src/core/ipv4/etharp.c ****      but only if its state is ETHARP_STATE_STABLE to prevent flooding the
 754:Middlewares/Third_Party/LwIP/src/core/ipv4/etharp.c ****      network with ARP requests if this address is used frequently. */
 755:Middlewares/Third_Party/LwIP/src/core/ipv4/etharp.c ****   if (arp_table[arp_idx].state == ETHARP_STATE_STABLE) {
 1680              		.loc 1 755 25 is_stmt 1
 1681 0032 FA79     		ldrb	r2, [r7, #7]	@ zero_extendqisi2
 1682 0034 3B49     		ldr	r1, .L98
 1683 0036 1346     		mov	r3, r2
 1684 0038 5B00     		lsls	r3, r3, #1
 1685 003a 1344     		add	r3, r3, r2
 1686 003c DB00     		lsls	r3, r3, #3
 1687 003e 0B44     		add	r3, r3, r1
 1688 0040 1433     		adds	r3, r3, #20
 1689 0042 1B78     		ldrb	r3, [r3]	@ zero_extendqisi2
 1690              		.loc 1 755 6
 1691 0044 022B     		cmp	r3, #2
 1692 0046 53D1     		bne	.L94
 756:Middlewares/Third_Party/LwIP/src/core/ipv4/etharp.c ****     if (arp_table[arp_idx].ctime >= ARP_AGE_REREQUEST_USED_BROADCAST) {
 1693              		.loc 1 756 27
 1694 0048 FA79     		ldrb	r2, [r7, #7]	@ zero_extendqisi2
 1695 004a 3649     		ldr	r1, .L98
 1696 004c 1346     		mov	r3, r2
 1697 004e 5B00     		lsls	r3, r3, #1
 1698 0050 1344     		add	r3, r3, r2
ARM GAS  /tmp/ccXQGcXv.s 			page 45


 1699 0052 DB00     		lsls	r3, r3, #3
 1700 0054 0B44     		add	r3, r3, r1
 1701 0056 1233     		adds	r3, r3, #18
 1702 0058 1B88     		ldrh	r3, [r3]
 1703              		.loc 1 756 8
 1704 005a B3F58E7F 		cmp	r3, #284
 1705 005e 19D9     		bls	.L95
 757:Middlewares/Third_Party/LwIP/src/core/ipv4/etharp.c ****       /* issue a standard request using broadcast */
 758:Middlewares/Third_Party/LwIP/src/core/ipv4/etharp.c ****       if (etharp_request(netif, &arp_table[arp_idx].ipaddr) == ERR_OK) {
 1706              		.loc 1 758 52
 1707 0060 FA79     		ldrb	r2, [r7, #7]	@ zero_extendqisi2
 1708              		.loc 1 758 33
 1709 0062 1346     		mov	r3, r2
 1710 0064 5B00     		lsls	r3, r3, #1
 1711 0066 1344     		add	r3, r3, r2
 1712 0068 DB00     		lsls	r3, r3, #3
 1713 006a 2E4A     		ldr	r2, .L98
 1714 006c 1344     		add	r3, r3, r2
 1715 006e 0433     		adds	r3, r3, #4
 1716              		.loc 1 758 11
 1717 0070 1946     		mov	r1, r3
 1718 0072 F868     		ldr	r0, [r7, #12]
 1719 0074 FFF7FEFF 		bl	etharp_request
 1720 0078 0346     		mov	r3, r0
 1721              		.loc 1 758 10
 1722 007a 002B     		cmp	r3, #0
 1723 007c 38D1     		bne	.L94
 759:Middlewares/Third_Party/LwIP/src/core/ipv4/etharp.c ****         arp_table[arp_idx].state = ETHARP_STATE_STABLE_REREQUESTING_1;
 1724              		.loc 1 759 27
 1725 007e FA79     		ldrb	r2, [r7, #7]	@ zero_extendqisi2
 1726              		.loc 1 759 34
 1727 0080 2849     		ldr	r1, .L98
 1728 0082 1346     		mov	r3, r2
 1729 0084 5B00     		lsls	r3, r3, #1
 1730 0086 1344     		add	r3, r3, r2
 1731 0088 DB00     		lsls	r3, r3, #3
 1732 008a 0B44     		add	r3, r3, r1
 1733 008c 1433     		adds	r3, r3, #20
 1734 008e 0322     		movs	r2, #3
 1735 0090 1A70     		strb	r2, [r3]
 1736 0092 2DE0     		b	.L94
 1737              	.L95:
 760:Middlewares/Third_Party/LwIP/src/core/ipv4/etharp.c ****       }
 761:Middlewares/Third_Party/LwIP/src/core/ipv4/etharp.c ****     } else if (arp_table[arp_idx].ctime >= ARP_AGE_REREQUEST_USED_UNICAST) {
 1738              		.loc 1 761 34
 1739 0094 FA79     		ldrb	r2, [r7, #7]	@ zero_extendqisi2
 1740 0096 2349     		ldr	r1, .L98
 1741 0098 1346     		mov	r3, r2
 1742 009a 5B00     		lsls	r3, r3, #1
 1743 009c 1344     		add	r3, r3, r2
 1744 009e DB00     		lsls	r3, r3, #3
 1745 00a0 0B44     		add	r3, r3, r1
 1746 00a2 1233     		adds	r3, r3, #18
 1747 00a4 1B88     		ldrh	r3, [r3]
 1748              		.loc 1 761 15
 1749 00a6 B3F5877F 		cmp	r3, #270
 1750 00aa 21D3     		bcc	.L94
ARM GAS  /tmp/ccXQGcXv.s 			page 46


 762:Middlewares/Third_Party/LwIP/src/core/ipv4/etharp.c ****       /* issue a unicast request (for 15 seconds) to prevent unnecessary broadcast */
 763:Middlewares/Third_Party/LwIP/src/core/ipv4/etharp.c ****       if (etharp_request_dst(netif, &arp_table[arp_idx].ipaddr, &arp_table[arp_idx].ethaddr) == ERR
 1751              		.loc 1 763 56
 1752 00ac FA79     		ldrb	r2, [r7, #7]	@ zero_extendqisi2
 1753              		.loc 1 763 37
 1754 00ae 1346     		mov	r3, r2
 1755 00b0 5B00     		lsls	r3, r3, #1
 1756 00b2 1344     		add	r3, r3, r2
 1757 00b4 DB00     		lsls	r3, r3, #3
 1758 00b6 1B4A     		ldr	r2, .L98
 1759 00b8 1344     		add	r3, r3, r2
 1760 00ba 191D     		adds	r1, r3, #4
 1761              		.loc 1 763 84
 1762 00bc FA79     		ldrb	r2, [r7, #7]	@ zero_extendqisi2
 1763              		.loc 1 763 65
 1764 00be 1346     		mov	r3, r2
 1765 00c0 5B00     		lsls	r3, r3, #1
 1766 00c2 1344     		add	r3, r3, r2
 1767 00c4 DB00     		lsls	r3, r3, #3
 1768 00c6 0833     		adds	r3, r3, #8
 1769 00c8 164A     		ldr	r2, .L98
 1770 00ca 1344     		add	r3, r3, r2
 1771 00cc 0433     		adds	r3, r3, #4
 1772              		.loc 1 763 11
 1773 00ce 1A46     		mov	r2, r3
 1774 00d0 F868     		ldr	r0, [r7, #12]
 1775 00d2 FFF7FEFF 		bl	etharp_request_dst
 1776 00d6 0346     		mov	r3, r0
 1777              		.loc 1 763 10
 1778 00d8 002B     		cmp	r3, #0
 1779 00da 09D1     		bne	.L94
 764:Middlewares/Third_Party/LwIP/src/core/ipv4/etharp.c ****         arp_table[arp_idx].state = ETHARP_STATE_STABLE_REREQUESTING_1;
 1780              		.loc 1 764 27
 1781 00dc FA79     		ldrb	r2, [r7, #7]	@ zero_extendqisi2
 1782              		.loc 1 764 34
 1783 00de 1149     		ldr	r1, .L98
 1784 00e0 1346     		mov	r3, r2
 1785 00e2 5B00     		lsls	r3, r3, #1
 1786 00e4 1344     		add	r3, r3, r2
 1787 00e6 DB00     		lsls	r3, r3, #3
 1788 00e8 0B44     		add	r3, r3, r1
 1789 00ea 1433     		adds	r3, r3, #20
 1790 00ec 0322     		movs	r2, #3
 1791 00ee 1A70     		strb	r2, [r3]
 1792              	.L94:
 765:Middlewares/Third_Party/LwIP/src/core/ipv4/etharp.c ****       }
 766:Middlewares/Third_Party/LwIP/src/core/ipv4/etharp.c ****     }
 767:Middlewares/Third_Party/LwIP/src/core/ipv4/etharp.c ****   }
 768:Middlewares/Third_Party/LwIP/src/core/ipv4/etharp.c **** 
 769:Middlewares/Third_Party/LwIP/src/core/ipv4/etharp.c ****   return ethernet_output(netif, q, (struct eth_addr *)(netif->hwaddr), &arp_table[arp_idx].ethaddr,
 1793              		.loc 1 769 55
 1794 00f0 FB68     		ldr	r3, [r7, #12]
 1795 00f2 03F12A01 		add	r1, r3, #42
 1796              		.loc 1 769 91
 1797 00f6 FA79     		ldrb	r2, [r7, #7]	@ zero_extendqisi2
 1798              		.loc 1 769 72
 1799 00f8 1346     		mov	r3, r2
ARM GAS  /tmp/ccXQGcXv.s 			page 47


 1800 00fa 5B00     		lsls	r3, r3, #1
 1801 00fc 1344     		add	r3, r3, r2
 1802 00fe DB00     		lsls	r3, r3, #3
 1803 0100 0833     		adds	r3, r3, #8
 1804 0102 084A     		ldr	r2, .L98
 1805 0104 1344     		add	r3, r3, r2
 1806 0106 1A1D     		adds	r2, r3, #4
 1807              		.loc 1 769 10
 1808 0108 4FF40063 		mov	r3, #2048
 1809 010c 0093     		str	r3, [sp]
 1810 010e 1346     		mov	r3, r2
 1811 0110 0A46     		mov	r2, r1
 1812 0112 B968     		ldr	r1, [r7, #8]
 1813 0114 F868     		ldr	r0, [r7, #12]
 1814 0116 FFF7FEFF 		bl	ethernet_output
 1815 011a 0346     		mov	r3, r0
 770:Middlewares/Third_Party/LwIP/src/core/ipv4/etharp.c **** }
 1816              		.loc 1 770 1
 1817 011c 1846     		mov	r0, r3
 1818 011e 1037     		adds	r7, r7, #16
 1819              	.LCFI43:
 1820              		.cfi_def_cfa_offset 8
 1821 0120 BD46     		mov	sp, r7
 1822              	.LCFI44:
 1823              		.cfi_def_cfa_register 13
 1824              		@ sp needed
 1825 0122 80BD     		pop	{r7, pc}
 1826              	.L99:
 1827              		.align	2
 1828              	.L98:
 1829 0124 00000000 		.word	arp_table
 1830 0128 00000000 		.word	.LC0
 1831 012c 6C010000 		.word	.LC11
 1832 0130 74000000 		.word	.LC2
 1833              		.cfi_endproc
 1834              	.LFE141:
 1836              		.section	.rodata
 1837              		.align	2
 1838              	.LC12:
 1839 019c 7120213D 		.ascii	"q != NULL\000"
 1839      204E554C 
 1839      4C00
 1840              		.section	.text.etharp_output,"ax",%progbits
 1841              		.align	1
 1842              		.global	etharp_output
 1843              		.syntax unified
 1844              		.thumb
 1845              		.thumb_func
 1846              		.fpu fpv4-sp-d16
 1848              	etharp_output:
 1849              	.LFB142:
 771:Middlewares/Third_Party/LwIP/src/core/ipv4/etharp.c **** 
 772:Middlewares/Third_Party/LwIP/src/core/ipv4/etharp.c **** /**
 773:Middlewares/Third_Party/LwIP/src/core/ipv4/etharp.c ****  * Resolve and fill-in Ethernet address header for outgoing IP packet.
 774:Middlewares/Third_Party/LwIP/src/core/ipv4/etharp.c ****  *
 775:Middlewares/Third_Party/LwIP/src/core/ipv4/etharp.c ****  * For IP multicast and broadcast, corresponding Ethernet addresses
 776:Middlewares/Third_Party/LwIP/src/core/ipv4/etharp.c ****  * are selected and the packet is transmitted on the link.
ARM GAS  /tmp/ccXQGcXv.s 			page 48


 777:Middlewares/Third_Party/LwIP/src/core/ipv4/etharp.c ****  *
 778:Middlewares/Third_Party/LwIP/src/core/ipv4/etharp.c ****  * For unicast addresses, the packet is submitted to etharp_query(). In
 779:Middlewares/Third_Party/LwIP/src/core/ipv4/etharp.c ****  * case the IP address is outside the local network, the IP address of
 780:Middlewares/Third_Party/LwIP/src/core/ipv4/etharp.c ****  * the gateway is used.
 781:Middlewares/Third_Party/LwIP/src/core/ipv4/etharp.c ****  *
 782:Middlewares/Third_Party/LwIP/src/core/ipv4/etharp.c ****  * @param netif The lwIP network interface which the IP packet will be sent on.
 783:Middlewares/Third_Party/LwIP/src/core/ipv4/etharp.c ****  * @param q The pbuf(s) containing the IP packet to be sent.
 784:Middlewares/Third_Party/LwIP/src/core/ipv4/etharp.c ****  * @param ipaddr The IP address of the packet destination.
 785:Middlewares/Third_Party/LwIP/src/core/ipv4/etharp.c ****  *
 786:Middlewares/Third_Party/LwIP/src/core/ipv4/etharp.c ****  * @return
 787:Middlewares/Third_Party/LwIP/src/core/ipv4/etharp.c ****  * - ERR_RTE No route to destination (no gateway to external networks),
 788:Middlewares/Third_Party/LwIP/src/core/ipv4/etharp.c ****  * or the return type of either etharp_query() or ethernet_output().
 789:Middlewares/Third_Party/LwIP/src/core/ipv4/etharp.c ****  */
 790:Middlewares/Third_Party/LwIP/src/core/ipv4/etharp.c **** err_t
 791:Middlewares/Third_Party/LwIP/src/core/ipv4/etharp.c **** etharp_output(struct netif *netif, struct pbuf *q, const ip4_addr_t *ipaddr)
 792:Middlewares/Third_Party/LwIP/src/core/ipv4/etharp.c **** {
 1850              		.loc 1 792 1
 1851              		.cfi_startproc
 1852              		@ args = 0, pretend = 0, frame = 32
 1853              		@ frame_needed = 1, uses_anonymous_args = 0
 1854 0000 80B5     		push	{r7, lr}
 1855              	.LCFI45:
 1856              		.cfi_def_cfa_offset 8
 1857              		.cfi_offset 7, -8
 1858              		.cfi_offset 14, -4
 1859 0002 8AB0     		sub	sp, sp, #40
 1860              	.LCFI46:
 1861              		.cfi_def_cfa_offset 48
 1862 0004 02AF     		add	r7, sp, #8
 1863              	.LCFI47:
 1864              		.cfi_def_cfa 7, 40
 1865 0006 F860     		str	r0, [r7, #12]
 1866 0008 B960     		str	r1, [r7, #8]
 1867 000a 7A60     		str	r2, [r7, #4]
 793:Middlewares/Third_Party/LwIP/src/core/ipv4/etharp.c ****   const struct eth_addr *dest;
 794:Middlewares/Third_Party/LwIP/src/core/ipv4/etharp.c ****   struct eth_addr mcastaddr;
 795:Middlewares/Third_Party/LwIP/src/core/ipv4/etharp.c ****   const ip4_addr_t *dst_addr = ipaddr;
 1868              		.loc 1 795 21
 1869 000c 7B68     		ldr	r3, [r7, #4]
 1870 000e BB61     		str	r3, [r7, #24]
 796:Middlewares/Third_Party/LwIP/src/core/ipv4/etharp.c **** 
 797:Middlewares/Third_Party/LwIP/src/core/ipv4/etharp.c ****   LWIP_ASSERT_CORE_LOCKED();
 798:Middlewares/Third_Party/LwIP/src/core/ipv4/etharp.c ****   LWIP_ASSERT("netif != NULL", netif != NULL);
 1871              		.loc 1 798 3
 1872 0010 FB68     		ldr	r3, [r7, #12]
 1873 0012 002B     		cmp	r3, #0
 1874 0014 06D1     		bne	.L101
 1875              		.loc 1 798 3 is_stmt 0 discriminator 1
 1876 0016 734B     		ldr	r3, .L115
 1877 0018 40F21E32 		movw	r2, #798
 1878 001c 7249     		ldr	r1, .L115+4
 1879 001e 7348     		ldr	r0, .L115+8
 1880 0020 FFF7FEFF 		bl	printf
 1881              	.L101:
 799:Middlewares/Third_Party/LwIP/src/core/ipv4/etharp.c ****   LWIP_ASSERT("q != NULL", q != NULL);
 1882              		.loc 1 799 3 is_stmt 1
 1883 0024 BB68     		ldr	r3, [r7, #8]
ARM GAS  /tmp/ccXQGcXv.s 			page 49


 1884 0026 002B     		cmp	r3, #0
 1885 0028 06D1     		bne	.L102
 1886              		.loc 1 799 3 is_stmt 0 discriminator 1
 1887 002a 6E4B     		ldr	r3, .L115
 1888 002c 40F21F32 		movw	r2, #799
 1889 0030 6F49     		ldr	r1, .L115+12
 1890 0032 6E48     		ldr	r0, .L115+8
 1891 0034 FFF7FEFF 		bl	printf
 1892              	.L102:
 800:Middlewares/Third_Party/LwIP/src/core/ipv4/etharp.c ****   LWIP_ASSERT("ipaddr != NULL", ipaddr != NULL);
 1893              		.loc 1 800 3 is_stmt 1
 1894 0038 7B68     		ldr	r3, [r7, #4]
 1895 003a 002B     		cmp	r3, #0
 1896 003c 06D1     		bne	.L103
 1897              		.loc 1 800 3 is_stmt 0 discriminator 1
 1898 003e 694B     		ldr	r3, .L115
 1899 0040 4FF44872 		mov	r2, #800
 1900 0044 6B49     		ldr	r1, .L115+16
 1901 0046 6948     		ldr	r0, .L115+8
 1902 0048 FFF7FEFF 		bl	printf
 1903              	.L103:
 801:Middlewares/Third_Party/LwIP/src/core/ipv4/etharp.c **** 
 802:Middlewares/Third_Party/LwIP/src/core/ipv4/etharp.c ****   /* Determine on destination hardware address. Broadcasts and multicasts
 803:Middlewares/Third_Party/LwIP/src/core/ipv4/etharp.c ****    * are special, other IP addresses are looked up in the ARP table. */
 804:Middlewares/Third_Party/LwIP/src/core/ipv4/etharp.c **** 
 805:Middlewares/Third_Party/LwIP/src/core/ipv4/etharp.c ****   /* broadcast destination IP address? */
 806:Middlewares/Third_Party/LwIP/src/core/ipv4/etharp.c ****   if (ip4_addr_isbroadcast(ipaddr, netif)) {
 1904              		.loc 1 806 7 is_stmt 1
 1905 004c 7B68     		ldr	r3, [r7, #4]
 1906 004e 1B68     		ldr	r3, [r3]
 1907 0050 F968     		ldr	r1, [r7, #12]
 1908 0052 1846     		mov	r0, r3
 1909 0054 FFF7FEFF 		bl	ip4_addr_isbroadcast_u32
 1910 0058 0346     		mov	r3, r0
 1911              		.loc 1 806 6
 1912 005a 002B     		cmp	r3, #0
 1913 005c 02D0     		beq	.L104
 807:Middlewares/Third_Party/LwIP/src/core/ipv4/etharp.c ****     /* broadcast on Ethernet also */
 808:Middlewares/Third_Party/LwIP/src/core/ipv4/etharp.c ****     dest = (const struct eth_addr *)&ethbroadcast;
 1914              		.loc 1 808 10
 1915 005e 664B     		ldr	r3, .L115+20
 1916 0060 FB61     		str	r3, [r7, #28]
 1917 0062 AFE0     		b	.L105
 1918              	.L104:
 809:Middlewares/Third_Party/LwIP/src/core/ipv4/etharp.c ****     /* multicast destination IP address? */
 810:Middlewares/Third_Party/LwIP/src/core/ipv4/etharp.c ****   } else if (ip4_addr_ismulticast(ipaddr)) {
 1919              		.loc 1 810 14
 1920 0064 7B68     		ldr	r3, [r7, #4]
 1921 0066 1B68     		ldr	r3, [r3]
 1922 0068 03F0F003 		and	r3, r3, #240
 1923              		.loc 1 810 13
 1924 006c E02B     		cmp	r3, #224
 1925 006e 18D1     		bne	.L106
 811:Middlewares/Third_Party/LwIP/src/core/ipv4/etharp.c ****     /* Hash IP multicast address to MAC address.*/
 812:Middlewares/Third_Party/LwIP/src/core/ipv4/etharp.c ****     mcastaddr.addr[0] = LL_IP4_MULTICAST_ADDR_0;
 1926              		.loc 1 812 23
 1927 0070 0123     		movs	r3, #1
ARM GAS  /tmp/ccXQGcXv.s 			page 50


 1928 0072 3B74     		strb	r3, [r7, #16]
 813:Middlewares/Third_Party/LwIP/src/core/ipv4/etharp.c ****     mcastaddr.addr[1] = LL_IP4_MULTICAST_ADDR_1;
 1929              		.loc 1 813 23
 1930 0074 0023     		movs	r3, #0
 1931 0076 7B74     		strb	r3, [r7, #17]
 814:Middlewares/Third_Party/LwIP/src/core/ipv4/etharp.c ****     mcastaddr.addr[2] = LL_IP4_MULTICAST_ADDR_2;
 1932              		.loc 1 814 23
 1933 0078 5E23     		movs	r3, #94
 1934 007a BB74     		strb	r3, [r7, #18]
 815:Middlewares/Third_Party/LwIP/src/core/ipv4/etharp.c ****     mcastaddr.addr[3] = ip4_addr2(ipaddr) & 0x7f;
 1935              		.loc 1 815 25
 1936 007c 7B68     		ldr	r3, [r7, #4]
 1937 007e 0133     		adds	r3, r3, #1
 1938              		.loc 1 815 43
 1939 0080 1B78     		ldrb	r3, [r3]	@ zero_extendqisi2
 1940 0082 03F07F03 		and	r3, r3, #127
 1941 0086 DBB2     		uxtb	r3, r3
 1942              		.loc 1 815 23
 1943 0088 FB74     		strb	r3, [r7, #19]
 816:Middlewares/Third_Party/LwIP/src/core/ipv4/etharp.c ****     mcastaddr.addr[4] = ip4_addr3(ipaddr);
 1944              		.loc 1 816 25
 1945 008a 7B68     		ldr	r3, [r7, #4]
 1946 008c 0233     		adds	r3, r3, #2
 1947 008e 1B78     		ldrb	r3, [r3]	@ zero_extendqisi2
 1948              		.loc 1 816 23
 1949 0090 3B75     		strb	r3, [r7, #20]
 817:Middlewares/Third_Party/LwIP/src/core/ipv4/etharp.c ****     mcastaddr.addr[5] = ip4_addr4(ipaddr);
 1950              		.loc 1 817 25
 1951 0092 7B68     		ldr	r3, [r7, #4]
 1952 0094 0333     		adds	r3, r3, #3
 1953 0096 1B78     		ldrb	r3, [r3]	@ zero_extendqisi2
 1954              		.loc 1 817 23
 1955 0098 7B75     		strb	r3, [r7, #21]
 818:Middlewares/Third_Party/LwIP/src/core/ipv4/etharp.c ****     /* destination Ethernet address is multicast */
 819:Middlewares/Third_Party/LwIP/src/core/ipv4/etharp.c ****     dest = &mcastaddr;
 1956              		.loc 1 819 10
 1957 009a 07F11003 		add	r3, r7, #16
 1958 009e FB61     		str	r3, [r7, #28]
 1959 00a0 90E0     		b	.L105
 1960              	.L106:
 1961              	.LBB6:
 820:Middlewares/Third_Party/LwIP/src/core/ipv4/etharp.c ****     /* unicast destination IP address? */
 821:Middlewares/Third_Party/LwIP/src/core/ipv4/etharp.c ****   } else {
 822:Middlewares/Third_Party/LwIP/src/core/ipv4/etharp.c ****     netif_addr_idx_t i;
 823:Middlewares/Third_Party/LwIP/src/core/ipv4/etharp.c ****     /* outside local network? if so, this can neither be a global broadcast nor
 824:Middlewares/Third_Party/LwIP/src/core/ipv4/etharp.c ****        a subnet broadcast. */
 825:Middlewares/Third_Party/LwIP/src/core/ipv4/etharp.c ****     if (!ip4_addr_netcmp(ipaddr, netif_ip4_addr(netif), netif_ip4_netmask(netif)) &&
 1962              		.loc 1 825 10
 1963 00a2 7B68     		ldr	r3, [r7, #4]
 1964 00a4 1A68     		ldr	r2, [r3]
 1965 00a6 FB68     		ldr	r3, [r7, #12]
 1966 00a8 0433     		adds	r3, r3, #4
 1967 00aa 1B68     		ldr	r3, [r3]
 1968              		.loc 1 825 9
 1969 00ac 5A40     		eors	r2, r2, r3
 1970              		.loc 1 825 10
 1971 00ae FB68     		ldr	r3, [r7, #12]
ARM GAS  /tmp/ccXQGcXv.s 			page 51


 1972 00b0 0833     		adds	r3, r3, #8
 1973 00b2 1B68     		ldr	r3, [r3]
 1974              		.loc 1 825 9
 1975 00b4 1340     		ands	r3, r3, r2
 1976              		.loc 1 825 8
 1977 00b6 002B     		cmp	r3, #0
 1978 00b8 12D0     		beq	.L107
 826:Middlewares/Third_Party/LwIP/src/core/ipv4/etharp.c ****         !ip4_addr_islinklocal(ipaddr)) {
 1979              		.loc 1 826 10 discriminator 1
 1980 00ba 7B68     		ldr	r3, [r7, #4]
 1981 00bc 1B68     		ldr	r3, [r3]
 1982 00be 9BB2     		uxth	r3, r3
 825:Middlewares/Third_Party/LwIP/src/core/ipv4/etharp.c ****         !ip4_addr_islinklocal(ipaddr)) {
 1983              		.loc 1 825 83 discriminator 1
 1984 00c0 4FF6A962 		movw	r2, #65193
 1985 00c4 9342     		cmp	r3, r2
 1986 00c6 0BD0     		beq	.L107
 827:Middlewares/Third_Party/LwIP/src/core/ipv4/etharp.c **** #if LWIP_AUTOIP
 828:Middlewares/Third_Party/LwIP/src/core/ipv4/etharp.c ****       struct ip_hdr *iphdr = LWIP_ALIGNMENT_CAST(struct ip_hdr *, q->payload);
 829:Middlewares/Third_Party/LwIP/src/core/ipv4/etharp.c ****       /* According to RFC 3297, chapter 2.6.2 (Forwarding Rules), a packet with
 830:Middlewares/Third_Party/LwIP/src/core/ipv4/etharp.c ****          a link-local source address must always be "directly to its destination
 831:Middlewares/Third_Party/LwIP/src/core/ipv4/etharp.c ****          on the same physical link. The host MUST NOT send the packet to any
 832:Middlewares/Third_Party/LwIP/src/core/ipv4/etharp.c ****          router for forwarding". */
 833:Middlewares/Third_Party/LwIP/src/core/ipv4/etharp.c ****       if (!ip4_addr_islinklocal(&iphdr->src))
 834:Middlewares/Third_Party/LwIP/src/core/ipv4/etharp.c **** #endif /* LWIP_AUTOIP */
 835:Middlewares/Third_Party/LwIP/src/core/ipv4/etharp.c ****       {
 836:Middlewares/Third_Party/LwIP/src/core/ipv4/etharp.c **** #ifdef LWIP_HOOK_ETHARP_GET_GW
 837:Middlewares/Third_Party/LwIP/src/core/ipv4/etharp.c ****         /* For advanced routing, a single default gateway might not be enough, so get
 838:Middlewares/Third_Party/LwIP/src/core/ipv4/etharp.c ****            the IP address of the gateway to handle the current destination address. */
 839:Middlewares/Third_Party/LwIP/src/core/ipv4/etharp.c ****         dst_addr = LWIP_HOOK_ETHARP_GET_GW(netif, ipaddr);
 840:Middlewares/Third_Party/LwIP/src/core/ipv4/etharp.c ****         if (dst_addr == NULL)
 841:Middlewares/Third_Party/LwIP/src/core/ipv4/etharp.c **** #endif /* LWIP_HOOK_ETHARP_GET_GW */
 842:Middlewares/Third_Party/LwIP/src/core/ipv4/etharp.c ****         {
 843:Middlewares/Third_Party/LwIP/src/core/ipv4/etharp.c ****           /* interface has default gateway? */
 844:Middlewares/Third_Party/LwIP/src/core/ipv4/etharp.c ****           if (!ip4_addr_isany_val(*netif_ip4_gw(netif))) {
 1987              		.loc 1 844 16
 1988 00c8 FB68     		ldr	r3, [r7, #12]
 1989 00ca 0C33     		adds	r3, r3, #12
 1990 00cc 1B68     		ldr	r3, [r3]
 1991              		.loc 1 844 14
 1992 00ce 002B     		cmp	r3, #0
 1993 00d0 03D0     		beq	.L108
 845:Middlewares/Third_Party/LwIP/src/core/ipv4/etharp.c ****             /* send to hardware address of default gateway IP address */
 846:Middlewares/Third_Party/LwIP/src/core/ipv4/etharp.c ****             dst_addr = netif_ip4_gw(netif);
 1994              		.loc 1 846 22
 1995 00d2 FB68     		ldr	r3, [r7, #12]
 1996 00d4 0C33     		adds	r3, r3, #12
 1997 00d6 BB61     		str	r3, [r7, #24]
 1998 00d8 02E0     		b	.L107
 1999              	.L108:
 847:Middlewares/Third_Party/LwIP/src/core/ipv4/etharp.c ****             /* no default gateway available */
 848:Middlewares/Third_Party/LwIP/src/core/ipv4/etharp.c ****           } else {
 849:Middlewares/Third_Party/LwIP/src/core/ipv4/etharp.c ****             /* no route to destination error (default gateway missing) */
 850:Middlewares/Third_Party/LwIP/src/core/ipv4/etharp.c ****             return ERR_RTE;
 2000              		.loc 1 850 20
 2001 00da 6FF00303 		mvn	r3, #3
 2002 00de 7DE0     		b	.L114
ARM GAS  /tmp/ccXQGcXv.s 			page 52


 2003              	.L107:
 851:Middlewares/Third_Party/LwIP/src/core/ipv4/etharp.c ****           }
 852:Middlewares/Third_Party/LwIP/src/core/ipv4/etharp.c ****         }
 853:Middlewares/Third_Party/LwIP/src/core/ipv4/etharp.c ****       }
 854:Middlewares/Third_Party/LwIP/src/core/ipv4/etharp.c ****     }
 855:Middlewares/Third_Party/LwIP/src/core/ipv4/etharp.c **** #if LWIP_NETIF_HWADDRHINT
 856:Middlewares/Third_Party/LwIP/src/core/ipv4/etharp.c ****     if (netif->hints != NULL) {
 857:Middlewares/Third_Party/LwIP/src/core/ipv4/etharp.c ****       /* per-pcb cached entry was given */
 858:Middlewares/Third_Party/LwIP/src/core/ipv4/etharp.c ****       netif_addr_idx_t etharp_cached_entry = netif->hints->addr_hint;
 859:Middlewares/Third_Party/LwIP/src/core/ipv4/etharp.c ****       if (etharp_cached_entry < ARP_TABLE_SIZE) {
 860:Middlewares/Third_Party/LwIP/src/core/ipv4/etharp.c **** #endif /* LWIP_NETIF_HWADDRHINT */
 861:Middlewares/Third_Party/LwIP/src/core/ipv4/etharp.c ****         if ((arp_table[etharp_cached_entry].state >= ETHARP_STATE_STABLE) &&
 2004              		.loc 1 861 44
 2005 00e0 464B     		ldr	r3, .L115+24
 2006 00e2 1B78     		ldrb	r3, [r3]	@ zero_extendqisi2
 2007 00e4 1946     		mov	r1, r3
 2008 00e6 464A     		ldr	r2, .L115+28
 2009 00e8 0B46     		mov	r3, r1
 2010 00ea 5B00     		lsls	r3, r3, #1
 2011 00ec 0B44     		add	r3, r3, r1
 2012 00ee DB00     		lsls	r3, r3, #3
 2013 00f0 1344     		add	r3, r3, r2
 2014 00f2 1433     		adds	r3, r3, #20
 2015 00f4 1B78     		ldrb	r3, [r3]	@ zero_extendqisi2
 2016              		.loc 1 861 12
 2017 00f6 012B     		cmp	r3, #1
 2018 00f8 25D9     		bls	.L110
 862:Middlewares/Third_Party/LwIP/src/core/ipv4/etharp.c **** #if ETHARP_TABLE_MATCH_NETIF
 863:Middlewares/Third_Party/LwIP/src/core/ipv4/etharp.c ****             (arp_table[etharp_cached_entry].netif == netif) &&
 2019              		.loc 1 863 44 discriminator 1
 2020 00fa 404B     		ldr	r3, .L115+24
 2021 00fc 1B78     		ldrb	r3, [r3]	@ zero_extendqisi2
 2022 00fe 1946     		mov	r1, r3
 2023 0100 3F4A     		ldr	r2, .L115+28
 2024 0102 0B46     		mov	r3, r1
 2025 0104 5B00     		lsls	r3, r3, #1
 2026 0106 0B44     		add	r3, r3, r1
 2027 0108 DB00     		lsls	r3, r3, #3
 2028 010a 1344     		add	r3, r3, r2
 2029 010c 0833     		adds	r3, r3, #8
 2030 010e 1B68     		ldr	r3, [r3]
 861:Middlewares/Third_Party/LwIP/src/core/ipv4/etharp.c **** #if ETHARP_TABLE_MATCH_NETIF
 2031              		.loc 1 861 75 discriminator 1
 2032 0110 FA68     		ldr	r2, [r7, #12]
 2033 0112 9A42     		cmp	r2, r3
 2034 0114 17D1     		bne	.L110
 864:Middlewares/Third_Party/LwIP/src/core/ipv4/etharp.c **** #endif
 865:Middlewares/Third_Party/LwIP/src/core/ipv4/etharp.c ****             (ip4_addr_cmp(dst_addr, &arp_table[etharp_cached_entry].ipaddr))) {
 2035              		.loc 1 865 14
 2036 0116 BB69     		ldr	r3, [r7, #24]
 2037 0118 1A68     		ldr	r2, [r3]
 2038 011a 384B     		ldr	r3, .L115+24
 2039 011c 1B78     		ldrb	r3, [r3]	@ zero_extendqisi2
 2040 011e 1846     		mov	r0, r3
 2041 0120 3749     		ldr	r1, .L115+28
 2042 0122 0346     		mov	r3, r0
 2043 0124 5B00     		lsls	r3, r3, #1
ARM GAS  /tmp/ccXQGcXv.s 			page 53


 2044 0126 0344     		add	r3, r3, r0
 2045 0128 DB00     		lsls	r3, r3, #3
 2046 012a 0B44     		add	r3, r3, r1
 2047 012c 0433     		adds	r3, r3, #4
 2048 012e 1B68     		ldr	r3, [r3]
 863:Middlewares/Third_Party/LwIP/src/core/ipv4/etharp.c **** #endif
 2049              		.loc 1 863 61
 2050 0130 9A42     		cmp	r2, r3
 2051 0132 08D1     		bne	.L110
 866:Middlewares/Third_Party/LwIP/src/core/ipv4/etharp.c ****           /* the per-pcb-cached entry is stable and the right one! */
 867:Middlewares/Third_Party/LwIP/src/core/ipv4/etharp.c ****           ETHARP_STATS_INC(etharp.cachehit);
 868:Middlewares/Third_Party/LwIP/src/core/ipv4/etharp.c ****           return etharp_output_to_arp_index(netif, q, etharp_cached_entry);
 2052              		.loc 1 868 18
 2053 0134 314B     		ldr	r3, .L115+24
 2054 0136 1B78     		ldrb	r3, [r3]	@ zero_extendqisi2
 2055 0138 1A46     		mov	r2, r3
 2056 013a B968     		ldr	r1, [r7, #8]
 2057 013c F868     		ldr	r0, [r7, #12]
 2058 013e FFF7FEFF 		bl	etharp_output_to_arp_index
 2059 0142 0346     		mov	r3, r0
 2060 0144 4AE0     		b	.L114
 2061              	.L110:
 869:Middlewares/Third_Party/LwIP/src/core/ipv4/etharp.c ****         }
 870:Middlewares/Third_Party/LwIP/src/core/ipv4/etharp.c **** #if LWIP_NETIF_HWADDRHINT
 871:Middlewares/Third_Party/LwIP/src/core/ipv4/etharp.c ****       }
 872:Middlewares/Third_Party/LwIP/src/core/ipv4/etharp.c ****     }
 873:Middlewares/Third_Party/LwIP/src/core/ipv4/etharp.c **** #endif /* LWIP_NETIF_HWADDRHINT */
 874:Middlewares/Third_Party/LwIP/src/core/ipv4/etharp.c **** 
 875:Middlewares/Third_Party/LwIP/src/core/ipv4/etharp.c ****     /* find stable entry: do this here since this is a critical path for
 876:Middlewares/Third_Party/LwIP/src/core/ipv4/etharp.c ****        throughput and etharp_find_entry() is kind of slow */
 877:Middlewares/Third_Party/LwIP/src/core/ipv4/etharp.c ****     for (i = 0; i < ARP_TABLE_SIZE; i++) {
 2062              		.loc 1 877 12
 2063 0146 0023     		movs	r3, #0
 2064 0148 FB75     		strb	r3, [r7, #23]
 2065              		.loc 1 877 5
 2066 014a 31E0     		b	.L111
 2067              	.L113:
 878:Middlewares/Third_Party/LwIP/src/core/ipv4/etharp.c ****       if ((arp_table[i].state >= ETHARP_STATE_STABLE) &&
 2068              		.loc 1 878 24
 2069 014c FA7D     		ldrb	r2, [r7, #23]	@ zero_extendqisi2
 2070 014e 2C49     		ldr	r1, .L115+28
 2071 0150 1346     		mov	r3, r2
 2072 0152 5B00     		lsls	r3, r3, #1
 2073 0154 1344     		add	r3, r3, r2
 2074 0156 DB00     		lsls	r3, r3, #3
 2075 0158 0B44     		add	r3, r3, r1
 2076 015a 1433     		adds	r3, r3, #20
 2077 015c 1B78     		ldrb	r3, [r3]	@ zero_extendqisi2
 2078              		.loc 1 878 10
 2079 015e 012B     		cmp	r3, #1
 2080 0160 23D9     		bls	.L112
 879:Middlewares/Third_Party/LwIP/src/core/ipv4/etharp.c **** #if ETHARP_TABLE_MATCH_NETIF
 880:Middlewares/Third_Party/LwIP/src/core/ipv4/etharp.c ****           (arp_table[i].netif == netif) &&
 2081              		.loc 1 880 24 discriminator 1
 2082 0162 FA7D     		ldrb	r2, [r7, #23]	@ zero_extendqisi2
 2083 0164 2649     		ldr	r1, .L115+28
 2084 0166 1346     		mov	r3, r2
ARM GAS  /tmp/ccXQGcXv.s 			page 54


 2085 0168 5B00     		lsls	r3, r3, #1
 2086 016a 1344     		add	r3, r3, r2
 2087 016c DB00     		lsls	r3, r3, #3
 2088 016e 0B44     		add	r3, r3, r1
 2089 0170 0833     		adds	r3, r3, #8
 2090 0172 1B68     		ldr	r3, [r3]
 878:Middlewares/Third_Party/LwIP/src/core/ipv4/etharp.c ****       if ((arp_table[i].state >= ETHARP_STATE_STABLE) &&
 2091              		.loc 1 878 55 discriminator 1
 2092 0174 FA68     		ldr	r2, [r7, #12]
 2093 0176 9A42     		cmp	r2, r3
 2094 0178 17D1     		bne	.L112
 881:Middlewares/Third_Party/LwIP/src/core/ipv4/etharp.c **** #endif
 882:Middlewares/Third_Party/LwIP/src/core/ipv4/etharp.c ****           (ip4_addr_cmp(dst_addr, &arp_table[i].ipaddr))) {
 2095              		.loc 1 882 12
 2096 017a BB69     		ldr	r3, [r7, #24]
 2097 017c 1968     		ldr	r1, [r3]
 2098 017e FA7D     		ldrb	r2, [r7, #23]	@ zero_extendqisi2
 2099 0180 1F48     		ldr	r0, .L115+28
 2100 0182 1346     		mov	r3, r2
 2101 0184 5B00     		lsls	r3, r3, #1
 2102 0186 1344     		add	r3, r3, r2
 2103 0188 DB00     		lsls	r3, r3, #3
 2104 018a 0344     		add	r3, r3, r0
 2105 018c 0433     		adds	r3, r3, #4
 2106 018e 1B68     		ldr	r3, [r3]
 880:Middlewares/Third_Party/LwIP/src/core/ipv4/etharp.c **** #endif
 2107              		.loc 1 880 41
 2108 0190 9942     		cmp	r1, r3
 2109 0192 0AD1     		bne	.L112
 883:Middlewares/Third_Party/LwIP/src/core/ipv4/etharp.c ****         /* found an existing, stable entry */
 884:Middlewares/Third_Party/LwIP/src/core/ipv4/etharp.c ****         ETHARP_SET_ADDRHINT(netif, i);
 2110              		.loc 1 884 9
 2111 0194 194A     		ldr	r2, .L115+24
 2112 0196 FB7D     		ldrb	r3, [r7, #23]
 2113 0198 1370     		strb	r3, [r2]
 885:Middlewares/Third_Party/LwIP/src/core/ipv4/etharp.c ****         return etharp_output_to_arp_index(netif, q, i);
 2114              		.loc 1 885 16
 2115 019a FB7D     		ldrb	r3, [r7, #23]	@ zero_extendqisi2
 2116 019c 1A46     		mov	r2, r3
 2117 019e B968     		ldr	r1, [r7, #8]
 2118 01a0 F868     		ldr	r0, [r7, #12]
 2119 01a2 FFF7FEFF 		bl	etharp_output_to_arp_index
 2120 01a6 0346     		mov	r3, r0
 2121 01a8 18E0     		b	.L114
 2122              	.L112:
 877:Middlewares/Third_Party/LwIP/src/core/ipv4/etharp.c ****       if ((arp_table[i].state >= ETHARP_STATE_STABLE) &&
 2123              		.loc 1 877 38 discriminator 2
 2124 01aa FB7D     		ldrb	r3, [r7, #23]	@ zero_extendqisi2
 2125 01ac 0133     		adds	r3, r3, #1
 2126 01ae FB75     		strb	r3, [r7, #23]
 2127              	.L111:
 877:Middlewares/Third_Party/LwIP/src/core/ipv4/etharp.c ****       if ((arp_table[i].state >= ETHARP_STATE_STABLE) &&
 2128              		.loc 1 877 5 discriminator 1
 2129 01b0 FB7D     		ldrb	r3, [r7, #23]	@ zero_extendqisi2
 2130 01b2 092B     		cmp	r3, #9
 2131 01b4 CAD9     		bls	.L113
 886:Middlewares/Third_Party/LwIP/src/core/ipv4/etharp.c ****       }
ARM GAS  /tmp/ccXQGcXv.s 			page 55


 887:Middlewares/Third_Party/LwIP/src/core/ipv4/etharp.c ****     }
 888:Middlewares/Third_Party/LwIP/src/core/ipv4/etharp.c ****     /* no stable entry found, use the (slower) query function:
 889:Middlewares/Third_Party/LwIP/src/core/ipv4/etharp.c ****        queue on destination Ethernet address belonging to ipaddr */
 890:Middlewares/Third_Party/LwIP/src/core/ipv4/etharp.c ****     return etharp_query(netif, dst_addr, q);
 2132              		.loc 1 890 12
 2133 01b6 BA68     		ldr	r2, [r7, #8]
 2134 01b8 B969     		ldr	r1, [r7, #24]
 2135 01ba F868     		ldr	r0, [r7, #12]
 2136 01bc FFF7FEFF 		bl	etharp_query
 2137 01c0 0346     		mov	r3, r0
 2138 01c2 0BE0     		b	.L114
 2139              	.L105:
 2140              	.LBE6:
 891:Middlewares/Third_Party/LwIP/src/core/ipv4/etharp.c ****   }
 892:Middlewares/Third_Party/LwIP/src/core/ipv4/etharp.c **** 
 893:Middlewares/Third_Party/LwIP/src/core/ipv4/etharp.c ****   /* continuation for multicast/broadcast destinations */
 894:Middlewares/Third_Party/LwIP/src/core/ipv4/etharp.c ****   /* obtain source Ethernet address of the given interface */
 895:Middlewares/Third_Party/LwIP/src/core/ipv4/etharp.c ****   /* send packet directly on the link */
 896:Middlewares/Third_Party/LwIP/src/core/ipv4/etharp.c ****   return ethernet_output(netif, q, (struct eth_addr *)(netif->hwaddr), dest, ETHTYPE_IP);
 2141              		.loc 1 896 55
 2142 01c4 FB68     		ldr	r3, [r7, #12]
 2143 01c6 03F12A02 		add	r2, r3, #42
 2144              		.loc 1 896 10
 2145 01ca 4FF40063 		mov	r3, #2048
 2146 01ce 0093     		str	r3, [sp]
 2147 01d0 FB69     		ldr	r3, [r7, #28]
 2148 01d2 B968     		ldr	r1, [r7, #8]
 2149 01d4 F868     		ldr	r0, [r7, #12]
 2150 01d6 FFF7FEFF 		bl	ethernet_output
 2151 01da 0346     		mov	r3, r0
 2152              	.L114:
 897:Middlewares/Third_Party/LwIP/src/core/ipv4/etharp.c **** }
 2153              		.loc 1 897 1 discriminator 1
 2154 01dc 1846     		mov	r0, r3
 2155 01de 2037     		adds	r7, r7, #32
 2156              	.LCFI48:
 2157              		.cfi_def_cfa_offset 8
 2158 01e0 BD46     		mov	sp, r7
 2159              	.LCFI49:
 2160              		.cfi_def_cfa_register 13
 2161              		@ sp needed
 2162 01e2 80BD     		pop	{r7, pc}
 2163              	.L116:
 2164              		.align	2
 2165              	.L115:
 2166 01e4 00000000 		.word	.LC0
 2167 01e8 4C010000 		.word	.LC9
 2168 01ec 74000000 		.word	.LC2
 2169 01f0 9C010000 		.word	.LC12
 2170 01f4 3C010000 		.word	.LC8
 2171 01f8 00000000 		.word	ethbroadcast
 2172 01fc 00000000 		.word	etharp_cached_entry
 2173 0200 00000000 		.word	arp_table
 2174              		.cfi_endproc
 2175              	.LFE142:
 2177              		.section	.rodata
 2178 01a6 0000     		.align	2
ARM GAS  /tmp/ccXQGcXv.s 			page 56


 2179              	.LC13:
 2180 01a8 74797065 		.ascii	"type overflow\000"
 2180      206F7665 
 2180      72666C6F 
 2180      7700
 2181 01b6 0000     		.align	2
 2182              	.LC14:
 2183 01b8 6172705F 		.ascii	"arp_table[i].state == PENDING or STABLE\000"
 2183      7461626C 
 2183      655B695D 
 2183      2E737461 
 2183      7465203D 
 2184              		.align	2
 2185              	.LC15:
 2186 01e0 6E6F2070 		.ascii	"no packet queues allowed!\000"
 2186      61636B65 
 2186      74207175 
 2186      65756573 
 2186      20616C6C 
 2187              		.section	.text.etharp_query,"ax",%progbits
 2188              		.align	1
 2189              		.global	etharp_query
 2190              		.syntax unified
 2191              		.thumb
 2192              		.thumb_func
 2193              		.fpu fpv4-sp-d16
 2195              	etharp_query:
 2196              	.LFB143:
 898:Middlewares/Third_Party/LwIP/src/core/ipv4/etharp.c **** 
 899:Middlewares/Third_Party/LwIP/src/core/ipv4/etharp.c **** /**
 900:Middlewares/Third_Party/LwIP/src/core/ipv4/etharp.c ****  * Send an ARP request for the given IP address and/or queue a packet.
 901:Middlewares/Third_Party/LwIP/src/core/ipv4/etharp.c ****  *
 902:Middlewares/Third_Party/LwIP/src/core/ipv4/etharp.c ****  * If the IP address was not yet in the cache, a pending ARP cache entry
 903:Middlewares/Third_Party/LwIP/src/core/ipv4/etharp.c ****  * is added and an ARP request is sent for the given address. The packet
 904:Middlewares/Third_Party/LwIP/src/core/ipv4/etharp.c ****  * is queued on this entry.
 905:Middlewares/Third_Party/LwIP/src/core/ipv4/etharp.c ****  *
 906:Middlewares/Third_Party/LwIP/src/core/ipv4/etharp.c ****  * If the IP address was already pending in the cache, a new ARP request
 907:Middlewares/Third_Party/LwIP/src/core/ipv4/etharp.c ****  * is sent for the given address. The packet is queued on this entry.
 908:Middlewares/Third_Party/LwIP/src/core/ipv4/etharp.c ****  *
 909:Middlewares/Third_Party/LwIP/src/core/ipv4/etharp.c ****  * If the IP address was already stable in the cache, and a packet is
 910:Middlewares/Third_Party/LwIP/src/core/ipv4/etharp.c ****  * given, it is directly sent and no ARP request is sent out.
 911:Middlewares/Third_Party/LwIP/src/core/ipv4/etharp.c ****  *
 912:Middlewares/Third_Party/LwIP/src/core/ipv4/etharp.c ****  * If the IP address was already stable in the cache, and no packet is
 913:Middlewares/Third_Party/LwIP/src/core/ipv4/etharp.c ****  * given, an ARP request is sent out.
 914:Middlewares/Third_Party/LwIP/src/core/ipv4/etharp.c ****  *
 915:Middlewares/Third_Party/LwIP/src/core/ipv4/etharp.c ****  * @param netif The lwIP network interface on which ipaddr
 916:Middlewares/Third_Party/LwIP/src/core/ipv4/etharp.c ****  * must be queried for.
 917:Middlewares/Third_Party/LwIP/src/core/ipv4/etharp.c ****  * @param ipaddr The IP address to be resolved.
 918:Middlewares/Third_Party/LwIP/src/core/ipv4/etharp.c ****  * @param q If non-NULL, a pbuf that must be delivered to the IP address.
 919:Middlewares/Third_Party/LwIP/src/core/ipv4/etharp.c ****  * q is not freed by this function.
 920:Middlewares/Third_Party/LwIP/src/core/ipv4/etharp.c ****  *
 921:Middlewares/Third_Party/LwIP/src/core/ipv4/etharp.c ****  * @note q must only be ONE packet, not a packet queue!
 922:Middlewares/Third_Party/LwIP/src/core/ipv4/etharp.c ****  *
 923:Middlewares/Third_Party/LwIP/src/core/ipv4/etharp.c ****  * @return
 924:Middlewares/Third_Party/LwIP/src/core/ipv4/etharp.c ****  * - ERR_BUF Could not make room for Ethernet header.
 925:Middlewares/Third_Party/LwIP/src/core/ipv4/etharp.c ****  * - ERR_MEM Hardware address unknown, and no more ARP entries available
 926:Middlewares/Third_Party/LwIP/src/core/ipv4/etharp.c ****  *   to query for address or queue the packet.
ARM GAS  /tmp/ccXQGcXv.s 			page 57


 927:Middlewares/Third_Party/LwIP/src/core/ipv4/etharp.c ****  * - ERR_MEM Could not queue packet due to memory shortage.
 928:Middlewares/Third_Party/LwIP/src/core/ipv4/etharp.c ****  * - ERR_RTE No route to destination (no gateway to external networks).
 929:Middlewares/Third_Party/LwIP/src/core/ipv4/etharp.c ****  * - ERR_ARG Non-unicast address given, those will not appear in ARP cache.
 930:Middlewares/Third_Party/LwIP/src/core/ipv4/etharp.c ****  *
 931:Middlewares/Third_Party/LwIP/src/core/ipv4/etharp.c ****  */
 932:Middlewares/Third_Party/LwIP/src/core/ipv4/etharp.c **** err_t
 933:Middlewares/Third_Party/LwIP/src/core/ipv4/etharp.c **** etharp_query(struct netif *netif, const ip4_addr_t *ipaddr, struct pbuf *q)
 934:Middlewares/Third_Party/LwIP/src/core/ipv4/etharp.c **** {
 2197              		.loc 1 934 1
 2198              		.cfi_startproc
 2199              		@ args = 0, pretend = 0, frame = 40
 2200              		@ frame_needed = 1, uses_anonymous_args = 0
 2201 0000 80B5     		push	{r7, lr}
 2202              	.LCFI50:
 2203              		.cfi_def_cfa_offset 8
 2204              		.cfi_offset 7, -8
 2205              		.cfi_offset 14, -4
 2206 0002 8CB0     		sub	sp, sp, #48
 2207              	.LCFI51:
 2208              		.cfi_def_cfa_offset 56
 2209 0004 02AF     		add	r7, sp, #8
 2210              	.LCFI52:
 2211              		.cfi_def_cfa 7, 48
 2212 0006 F860     		str	r0, [r7, #12]
 2213 0008 B960     		str	r1, [r7, #8]
 2214 000a 7A60     		str	r2, [r7, #4]
 935:Middlewares/Third_Party/LwIP/src/core/ipv4/etharp.c ****   struct eth_addr *srcaddr = (struct eth_addr *)netif->hwaddr;
 2215              		.loc 1 935 20
 2216 000c FB68     		ldr	r3, [r7, #12]
 2217 000e 2A33     		adds	r3, r3, #42
 2218 0010 7B61     		str	r3, [r7, #20]
 936:Middlewares/Third_Party/LwIP/src/core/ipv4/etharp.c ****   err_t result = ERR_MEM;
 2219              		.loc 1 936 9
 2220 0012 FF23     		movs	r3, #255
 2221 0014 87F82730 		strb	r3, [r7, #39]
 937:Middlewares/Third_Party/LwIP/src/core/ipv4/etharp.c ****   int is_new_entry = 0;
 2222              		.loc 1 937 7
 2223 0018 0023     		movs	r3, #0
 2224 001a 3B62     		str	r3, [r7, #32]
 938:Middlewares/Third_Party/LwIP/src/core/ipv4/etharp.c ****   s16_t i_err;
 939:Middlewares/Third_Party/LwIP/src/core/ipv4/etharp.c ****   netif_addr_idx_t i;
 940:Middlewares/Third_Party/LwIP/src/core/ipv4/etharp.c **** 
 941:Middlewares/Third_Party/LwIP/src/core/ipv4/etharp.c ****   /* non-unicast address? */
 942:Middlewares/Third_Party/LwIP/src/core/ipv4/etharp.c ****   if (ip4_addr_isbroadcast(ipaddr, netif) ||
 2225              		.loc 1 942 7
 2226 001c BB68     		ldr	r3, [r7, #8]
 2227 001e 1B68     		ldr	r3, [r3]
 2228 0020 F968     		ldr	r1, [r7, #12]
 2229 0022 1846     		mov	r0, r3
 2230 0024 FFF7FEFF 		bl	ip4_addr_isbroadcast_u32
 2231 0028 0346     		mov	r3, r0
 2232              		.loc 1 942 6
 2233 002a 002B     		cmp	r3, #0
 2234 002c 0CD1     		bne	.L118
 943:Middlewares/Third_Party/LwIP/src/core/ipv4/etharp.c ****       ip4_addr_ismulticast(ipaddr) ||
 2235              		.loc 1 943 7 discriminator 1
 2236 002e BB68     		ldr	r3, [r7, #8]
ARM GAS  /tmp/ccXQGcXv.s 			page 58


 2237 0030 1B68     		ldr	r3, [r3]
 2238 0032 03F0F003 		and	r3, r3, #240
 942:Middlewares/Third_Party/LwIP/src/core/ipv4/etharp.c ****       ip4_addr_ismulticast(ipaddr) ||
 2239              		.loc 1 942 43 discriminator 1
 2240 0036 E02B     		cmp	r3, #224
 2241 0038 06D0     		beq	.L118
 2242              		.loc 1 943 36
 2243 003a BB68     		ldr	r3, [r7, #8]
 2244 003c 002B     		cmp	r3, #0
 2245 003e 03D0     		beq	.L118
 944:Middlewares/Third_Party/LwIP/src/core/ipv4/etharp.c ****       ip4_addr_isany(ipaddr)) {
 2246              		.loc 1 944 7
 2247 0040 BB68     		ldr	r3, [r7, #8]
 2248 0042 1B68     		ldr	r3, [r3]
 2249 0044 002B     		cmp	r3, #0
 2250 0046 02D1     		bne	.L119
 2251              	.L118:
 945:Middlewares/Third_Party/LwIP/src/core/ipv4/etharp.c ****     LWIP_DEBUGF(ETHARP_DEBUG | LWIP_DBG_TRACE, ("etharp_query: will not add non-unicast IP address 
 946:Middlewares/Third_Party/LwIP/src/core/ipv4/etharp.c ****     return ERR_ARG;
 2252              		.loc 1 946 12
 2253 0048 6FF00F03 		mvn	r3, #15
 2254 004c 02E1     		b	.L120
 2255              	.L119:
 947:Middlewares/Third_Party/LwIP/src/core/ipv4/etharp.c ****   }
 948:Middlewares/Third_Party/LwIP/src/core/ipv4/etharp.c **** 
 949:Middlewares/Third_Party/LwIP/src/core/ipv4/etharp.c ****   /* find entry in ARP cache, ask to create entry if queueing packet */
 950:Middlewares/Third_Party/LwIP/src/core/ipv4/etharp.c ****   i_err = etharp_find_entry(ipaddr, ETHARP_FLAG_TRY_HARD, netif);
 2256              		.loc 1 950 11
 2257 004e FA68     		ldr	r2, [r7, #12]
 2258 0050 0121     		movs	r1, #1
 2259 0052 B868     		ldr	r0, [r7, #8]
 2260 0054 FFF7FEFF 		bl	etharp_find_entry
 2261 0058 0346     		mov	r3, r0
 2262 005a 7B82     		strh	r3, [r7, #18]	@ movhi
 951:Middlewares/Third_Party/LwIP/src/core/ipv4/etharp.c **** 
 952:Middlewares/Third_Party/LwIP/src/core/ipv4/etharp.c ****   /* could not find or create entry? */
 953:Middlewares/Third_Party/LwIP/src/core/ipv4/etharp.c ****   if (i_err < 0) {
 2263              		.loc 1 953 6
 2264 005c B7F91230 		ldrsh	r3, [r7, #18]
 2265 0060 002B     		cmp	r3, #0
 2266 0062 02DA     		bge	.L121
 954:Middlewares/Third_Party/LwIP/src/core/ipv4/etharp.c ****     LWIP_DEBUGF(ETHARP_DEBUG | LWIP_DBG_TRACE, ("etharp_query: could not create ARP entry\n"));
 955:Middlewares/Third_Party/LwIP/src/core/ipv4/etharp.c ****     if (q) {
 956:Middlewares/Third_Party/LwIP/src/core/ipv4/etharp.c ****       LWIP_DEBUGF(ETHARP_DEBUG | LWIP_DBG_TRACE, ("etharp_query: packet dropped\n"));
 957:Middlewares/Third_Party/LwIP/src/core/ipv4/etharp.c ****       ETHARP_STATS_INC(etharp.memerr);
 958:Middlewares/Third_Party/LwIP/src/core/ipv4/etharp.c ****     }
 959:Middlewares/Third_Party/LwIP/src/core/ipv4/etharp.c ****     return (err_t)i_err;
 2267              		.loc 1 959 12
 2268 0064 7B8A     		ldrh	r3, [r7, #18]	@ movhi
 2269 0066 5BB2     		sxtb	r3, r3
 2270 0068 F4E0     		b	.L120
 2271              	.L121:
 960:Middlewares/Third_Party/LwIP/src/core/ipv4/etharp.c ****   }
 961:Middlewares/Third_Party/LwIP/src/core/ipv4/etharp.c ****   LWIP_ASSERT("type overflow", (size_t)i_err < NETIF_ADDR_IDX_MAX);
 2272              		.loc 1 961 3
 2273 006a 7B8A     		ldrh	r3, [r7, #18]
 2274 006c 7E2B     		cmp	r3, #126
ARM GAS  /tmp/ccXQGcXv.s 			page 59


 2275 006e 06D9     		bls	.L122
 2276              		.loc 1 961 3 is_stmt 0 discriminator 1
 2277 0070 7A4B     		ldr	r3, .L139
 2278 0072 40F2C132 		movw	r2, #961
 2279 0076 7A49     		ldr	r1, .L139+4
 2280 0078 7A48     		ldr	r0, .L139+8
 2281 007a FFF7FEFF 		bl	printf
 2282              	.L122:
 962:Middlewares/Third_Party/LwIP/src/core/ipv4/etharp.c ****   i = (netif_addr_idx_t)i_err;
 2283              		.loc 1 962 5 is_stmt 1
 2284 007e 7B8A     		ldrh	r3, [r7, #18]	@ movhi
 2285 0080 7B74     		strb	r3, [r7, #17]
 963:Middlewares/Third_Party/LwIP/src/core/ipv4/etharp.c **** 
 964:Middlewares/Third_Party/LwIP/src/core/ipv4/etharp.c ****   /* mark a fresh entry as pending (we just sent a request) */
 965:Middlewares/Third_Party/LwIP/src/core/ipv4/etharp.c ****   if (arp_table[i].state == ETHARP_STATE_EMPTY) {
 2286              		.loc 1 965 19
 2287 0082 7A7C     		ldrb	r2, [r7, #17]	@ zero_extendqisi2
 2288 0084 7849     		ldr	r1, .L139+12
 2289 0086 1346     		mov	r3, r2
 2290 0088 5B00     		lsls	r3, r3, #1
 2291 008a 1344     		add	r3, r3, r2
 2292 008c DB00     		lsls	r3, r3, #3
 2293 008e 0B44     		add	r3, r3, r1
 2294 0090 1433     		adds	r3, r3, #20
 2295 0092 1B78     		ldrb	r3, [r3]	@ zero_extendqisi2
 2296              		.loc 1 965 6
 2297 0094 002B     		cmp	r3, #0
 2298 0096 15D1     		bne	.L123
 966:Middlewares/Third_Party/LwIP/src/core/ipv4/etharp.c ****     is_new_entry = 1;
 2299              		.loc 1 966 18
 2300 0098 0123     		movs	r3, #1
 2301 009a 3B62     		str	r3, [r7, #32]
 967:Middlewares/Third_Party/LwIP/src/core/ipv4/etharp.c ****     arp_table[i].state = ETHARP_STATE_PENDING;
 2302              		.loc 1 967 17
 2303 009c 7A7C     		ldrb	r2, [r7, #17]	@ zero_extendqisi2
 2304              		.loc 1 967 24
 2305 009e 7249     		ldr	r1, .L139+12
 2306 00a0 1346     		mov	r3, r2
 2307 00a2 5B00     		lsls	r3, r3, #1
 2308 00a4 1344     		add	r3, r3, r2
 2309 00a6 DB00     		lsls	r3, r3, #3
 2310 00a8 0B44     		add	r3, r3, r1
 2311 00aa 1433     		adds	r3, r3, #20
 2312 00ac 0122     		movs	r2, #1
 2313 00ae 1A70     		strb	r2, [r3]
 968:Middlewares/Third_Party/LwIP/src/core/ipv4/etharp.c ****     /* record network interface for re-sending arp request in etharp_tmr */
 969:Middlewares/Third_Party/LwIP/src/core/ipv4/etharp.c ****     arp_table[i].netif = netif;
 2314              		.loc 1 969 17
 2315 00b0 7A7C     		ldrb	r2, [r7, #17]	@ zero_extendqisi2
 2316              		.loc 1 969 24
 2317 00b2 6D49     		ldr	r1, .L139+12
 2318 00b4 1346     		mov	r3, r2
 2319 00b6 5B00     		lsls	r3, r3, #1
 2320 00b8 1344     		add	r3, r3, r2
 2321 00ba DB00     		lsls	r3, r3, #3
 2322 00bc 0B44     		add	r3, r3, r1
 2323 00be 0833     		adds	r3, r3, #8
ARM GAS  /tmp/ccXQGcXv.s 			page 60


 2324 00c0 FA68     		ldr	r2, [r7, #12]
 2325 00c2 1A60     		str	r2, [r3]
 2326              	.L123:
 970:Middlewares/Third_Party/LwIP/src/core/ipv4/etharp.c ****   }
 971:Middlewares/Third_Party/LwIP/src/core/ipv4/etharp.c **** 
 972:Middlewares/Third_Party/LwIP/src/core/ipv4/etharp.c ****   /* { i is either a STABLE or (new or existing) PENDING entry } */
 973:Middlewares/Third_Party/LwIP/src/core/ipv4/etharp.c ****   LWIP_ASSERT("arp_table[i].state == PENDING or STABLE",
 2327              		.loc 1 973 3
 2328 00c4 7A7C     		ldrb	r2, [r7, #17]	@ zero_extendqisi2
 2329 00c6 6849     		ldr	r1, .L139+12
 2330 00c8 1346     		mov	r3, r2
 2331 00ca 5B00     		lsls	r3, r3, #1
 2332 00cc 1344     		add	r3, r3, r2
 2333 00ce DB00     		lsls	r3, r3, #3
 2334 00d0 0B44     		add	r3, r3, r1
 2335 00d2 1433     		adds	r3, r3, #20
 2336 00d4 1B78     		ldrb	r3, [r3]	@ zero_extendqisi2
 2337 00d6 012B     		cmp	r3, #1
 2338 00d8 11D0     		beq	.L124
 2339              		.loc 1 973 3 is_stmt 0 discriminator 1
 2340 00da 7A7C     		ldrb	r2, [r7, #17]	@ zero_extendqisi2
 2341 00dc 6249     		ldr	r1, .L139+12
 2342 00de 1346     		mov	r3, r2
 2343 00e0 5B00     		lsls	r3, r3, #1
 2344 00e2 1344     		add	r3, r3, r2
 2345 00e4 DB00     		lsls	r3, r3, #3
 2346 00e6 0B44     		add	r3, r3, r1
 2347 00e8 1433     		adds	r3, r3, #20
 2348 00ea 1B78     		ldrb	r3, [r3]	@ zero_extendqisi2
 2349 00ec 012B     		cmp	r3, #1
 2350 00ee 06D8     		bhi	.L124
 2351              		.loc 1 973 3 discriminator 2
 2352 00f0 5A4B     		ldr	r3, .L139
 2353 00f2 40F2CF32 		movw	r2, #975
 2354 00f6 5D49     		ldr	r1, .L139+16
 2355 00f8 5A48     		ldr	r0, .L139+8
 2356 00fa FFF7FEFF 		bl	printf
 2357              	.L124:
 974:Middlewares/Third_Party/LwIP/src/core/ipv4/etharp.c ****               ((arp_table[i].state == ETHARP_STATE_PENDING) ||
 975:Middlewares/Third_Party/LwIP/src/core/ipv4/etharp.c ****                (arp_table[i].state >= ETHARP_STATE_STABLE)));
 976:Middlewares/Third_Party/LwIP/src/core/ipv4/etharp.c **** 
 977:Middlewares/Third_Party/LwIP/src/core/ipv4/etharp.c ****   /* do we have a new entry? or an implicit query request? */
 978:Middlewares/Third_Party/LwIP/src/core/ipv4/etharp.c ****   if (is_new_entry || (q == NULL)) {
 2358              		.loc 1 978 6 is_stmt 1
 2359 00fe 3B6A     		ldr	r3, [r7, #32]
 2360 0100 002B     		cmp	r3, #0
 2361 0102 02D1     		bne	.L125
 2362              		.loc 1 978 20 discriminator 1
 2363 0104 7B68     		ldr	r3, [r7, #4]
 2364 0106 002B     		cmp	r3, #0
 2365 0108 0CD1     		bne	.L126
 2366              	.L125:
 979:Middlewares/Third_Party/LwIP/src/core/ipv4/etharp.c ****     /* try to resolve it; send out ARP request */
 980:Middlewares/Third_Party/LwIP/src/core/ipv4/etharp.c ****     result = etharp_request(netif, ipaddr);
 2367              		.loc 1 980 14
 2368 010a B968     		ldr	r1, [r7, #8]
 2369 010c F868     		ldr	r0, [r7, #12]
ARM GAS  /tmp/ccXQGcXv.s 			page 61


 2370 010e FFF7FEFF 		bl	etharp_request
 2371 0112 0346     		mov	r3, r0
 2372 0114 87F82730 		strb	r3, [r7, #39]
 981:Middlewares/Third_Party/LwIP/src/core/ipv4/etharp.c ****     if (result != ERR_OK) {
 982:Middlewares/Third_Party/LwIP/src/core/ipv4/etharp.c ****       /* ARP request couldn't be sent */
 983:Middlewares/Third_Party/LwIP/src/core/ipv4/etharp.c ****       /* We don't re-send arp request in etharp_tmr, but we still queue packets,
 984:Middlewares/Third_Party/LwIP/src/core/ipv4/etharp.c ****          since this failure could be temporary, and the next packet calling
 985:Middlewares/Third_Party/LwIP/src/core/ipv4/etharp.c ****          etharp_query again could lead to sending the queued packets. */
 986:Middlewares/Third_Party/LwIP/src/core/ipv4/etharp.c ****     }
 987:Middlewares/Third_Party/LwIP/src/core/ipv4/etharp.c ****     if (q == NULL) {
 2373              		.loc 1 987 8
 2374 0118 7B68     		ldr	r3, [r7, #4]
 2375 011a 002B     		cmp	r3, #0
 2376 011c 02D1     		bne	.L126
 988:Middlewares/Third_Party/LwIP/src/core/ipv4/etharp.c ****       return result;
 2377              		.loc 1 988 14
 2378 011e 97F92730 		ldrsb	r3, [r7, #39]
 2379 0122 97E0     		b	.L120
 2380              	.L126:
 989:Middlewares/Third_Party/LwIP/src/core/ipv4/etharp.c ****     }
 990:Middlewares/Third_Party/LwIP/src/core/ipv4/etharp.c ****   }
 991:Middlewares/Third_Party/LwIP/src/core/ipv4/etharp.c **** 
 992:Middlewares/Third_Party/LwIP/src/core/ipv4/etharp.c ****   /* packet given? */
 993:Middlewares/Third_Party/LwIP/src/core/ipv4/etharp.c ****   LWIP_ASSERT("q != NULL", q != NULL);
 2381              		.loc 1 993 3
 2382 0124 7B68     		ldr	r3, [r7, #4]
 2383 0126 002B     		cmp	r3, #0
 2384 0128 06D1     		bne	.L127
 2385              		.loc 1 993 3 is_stmt 0 discriminator 1
 2386 012a 4C4B     		ldr	r3, .L139
 2387 012c 40F2E132 		movw	r2, #993
 2388 0130 4F49     		ldr	r1, .L139+20
 2389 0132 4C48     		ldr	r0, .L139+8
 2390 0134 FFF7FEFF 		bl	printf
 2391              	.L127:
 994:Middlewares/Third_Party/LwIP/src/core/ipv4/etharp.c ****   /* stable entry? */
 995:Middlewares/Third_Party/LwIP/src/core/ipv4/etharp.c ****   if (arp_table[i].state >= ETHARP_STATE_STABLE) {
 2392              		.loc 1 995 19 is_stmt 1
 2393 0138 7A7C     		ldrb	r2, [r7, #17]	@ zero_extendqisi2
 2394 013a 4B49     		ldr	r1, .L139+12
 2395 013c 1346     		mov	r3, r2
 2396 013e 5B00     		lsls	r3, r3, #1
 2397 0140 1344     		add	r3, r3, r2
 2398 0142 DB00     		lsls	r3, r3, #3
 2399 0144 0B44     		add	r3, r3, r1
 2400 0146 1433     		adds	r3, r3, #20
 2401 0148 1B78     		ldrb	r3, [r3]	@ zero_extendqisi2
 2402              		.loc 1 995 6
 2403 014a 012B     		cmp	r3, #1
 2404 014c 18D9     		bls	.L128
 996:Middlewares/Third_Party/LwIP/src/core/ipv4/etharp.c ****     /* we have a valid IP->Ethernet address mapping */
 997:Middlewares/Third_Party/LwIP/src/core/ipv4/etharp.c ****     ETHARP_SET_ADDRHINT(netif, i);
 2405              		.loc 1 997 5
 2406 014e 494A     		ldr	r2, .L139+24
 2407 0150 7B7C     		ldrb	r3, [r7, #17]
 2408 0152 1370     		strb	r3, [r2]
 998:Middlewares/Third_Party/LwIP/src/core/ipv4/etharp.c ****     /* send the packet */
ARM GAS  /tmp/ccXQGcXv.s 			page 62


 999:Middlewares/Third_Party/LwIP/src/core/ipv4/etharp.c ****     result = ethernet_output(netif, q, srcaddr, &(arp_table[i].ethaddr), ETHTYPE_IP);
 2409              		.loc 1 999 63
 2410 0154 7A7C     		ldrb	r2, [r7, #17]	@ zero_extendqisi2
 2411              		.loc 1 999 49
 2412 0156 1346     		mov	r3, r2
 2413 0158 5B00     		lsls	r3, r3, #1
 2414 015a 1344     		add	r3, r3, r2
 2415 015c DB00     		lsls	r3, r3, #3
 2416 015e 0833     		adds	r3, r3, #8
 2417 0160 414A     		ldr	r2, .L139+12
 2418 0162 1344     		add	r3, r3, r2
 2419 0164 1A1D     		adds	r2, r3, #4
 2420              		.loc 1 999 14
 2421 0166 4FF40063 		mov	r3, #2048
 2422 016a 0093     		str	r3, [sp]
 2423 016c 1346     		mov	r3, r2
 2424 016e 7A69     		ldr	r2, [r7, #20]
 2425 0170 7968     		ldr	r1, [r7, #4]
 2426 0172 F868     		ldr	r0, [r7, #12]
 2427 0174 FFF7FEFF 		bl	ethernet_output
 2428 0178 0346     		mov	r3, r0
 2429 017a 87F82730 		strb	r3, [r7, #39]
 2430 017e 67E0     		b	.L129
 2431              	.L128:
1000:Middlewares/Third_Party/LwIP/src/core/ipv4/etharp.c ****     /* pending entry? (either just created or already pending */
1001:Middlewares/Third_Party/LwIP/src/core/ipv4/etharp.c ****   } else if (arp_table[i].state == ETHARP_STATE_PENDING) {
 2432              		.loc 1 1001 26
 2433 0180 7A7C     		ldrb	r2, [r7, #17]	@ zero_extendqisi2
 2434 0182 3949     		ldr	r1, .L139+12
 2435 0184 1346     		mov	r3, r2
 2436 0186 5B00     		lsls	r3, r3, #1
 2437 0188 1344     		add	r3, r3, r2
 2438 018a DB00     		lsls	r3, r3, #3
 2439 018c 0B44     		add	r3, r3, r1
 2440 018e 1433     		adds	r3, r3, #20
 2441 0190 1B78     		ldrb	r3, [r3]	@ zero_extendqisi2
 2442              		.loc 1 1001 13
 2443 0192 012B     		cmp	r3, #1
 2444 0194 5CD1     		bne	.L129
 2445              	.LBB7:
1002:Middlewares/Third_Party/LwIP/src/core/ipv4/etharp.c ****     /* entry is still pending, queue the given packet 'q' */
1003:Middlewares/Third_Party/LwIP/src/core/ipv4/etharp.c ****     struct pbuf *p;
1004:Middlewares/Third_Party/LwIP/src/core/ipv4/etharp.c ****     int copy_needed = 0;
 2446              		.loc 1 1004 9
 2447 0196 0023     		movs	r3, #0
 2448 0198 BB61     		str	r3, [r7, #24]
1005:Middlewares/Third_Party/LwIP/src/core/ipv4/etharp.c ****     /* IF q includes a pbuf that must be copied, copy the whole chain into a
1006:Middlewares/Third_Party/LwIP/src/core/ipv4/etharp.c ****      * new PBUF_RAM. See the definition of PBUF_NEEDS_COPY for details. */
1007:Middlewares/Third_Party/LwIP/src/core/ipv4/etharp.c ****     p = q;
 2449              		.loc 1 1007 7
 2450 019a 7B68     		ldr	r3, [r7, #4]
 2451 019c FB61     		str	r3, [r7, #28]
1008:Middlewares/Third_Party/LwIP/src/core/ipv4/etharp.c ****     while (p) {
 2452              		.loc 1 1008 11
 2453 019e 1CE0     		b	.L130
 2454              	.L134:
1009:Middlewares/Third_Party/LwIP/src/core/ipv4/etharp.c ****       LWIP_ASSERT("no packet queues allowed!", (p->len != p->tot_len) || (p->next == 0));
ARM GAS  /tmp/ccXQGcXv.s 			page 63


 2455              		.loc 1 1009 7
 2456 01a0 FB69     		ldr	r3, [r7, #28]
 2457 01a2 5A89     		ldrh	r2, [r3, #10]
 2458 01a4 FB69     		ldr	r3, [r7, #28]
 2459 01a6 1B89     		ldrh	r3, [r3, #8]
 2460 01a8 9A42     		cmp	r2, r3
 2461 01aa 0AD1     		bne	.L131
 2462              		.loc 1 1009 7 is_stmt 0 discriminator 1
 2463 01ac FB69     		ldr	r3, [r7, #28]
 2464 01ae 1B68     		ldr	r3, [r3]
 2465 01b0 002B     		cmp	r3, #0
 2466 01b2 06D0     		beq	.L131
 2467              		.loc 1 1009 7 discriminator 2
 2468 01b4 294B     		ldr	r3, .L139
 2469 01b6 40F2F132 		movw	r2, #1009
 2470 01ba 2F49     		ldr	r1, .L139+28
 2471 01bc 2948     		ldr	r0, .L139+8
 2472 01be FFF7FEFF 		bl	printf
 2473              	.L131:
1010:Middlewares/Third_Party/LwIP/src/core/ipv4/etharp.c ****       if (PBUF_NEEDS_COPY(p)) {
 2474              		.loc 1 1010 11 is_stmt 1
 2475 01c2 FB69     		ldr	r3, [r7, #28]
 2476 01c4 1B7B     		ldrb	r3, [r3, #12]	@ zero_extendqisi2
 2477 01c6 03F04003 		and	r3, r3, #64
 2478              		.loc 1 1010 10
 2479 01ca 002B     		cmp	r3, #0
 2480 01cc 02D0     		beq	.L132
1011:Middlewares/Third_Party/LwIP/src/core/ipv4/etharp.c ****         copy_needed = 1;
 2481              		.loc 1 1011 21
 2482 01ce 0123     		movs	r3, #1
 2483 01d0 BB61     		str	r3, [r7, #24]
1012:Middlewares/Third_Party/LwIP/src/core/ipv4/etharp.c ****         break;
 2484              		.loc 1 1012 9
 2485 01d2 05E0     		b	.L133
 2486              	.L132:
1013:Middlewares/Third_Party/LwIP/src/core/ipv4/etharp.c ****       }
1014:Middlewares/Third_Party/LwIP/src/core/ipv4/etharp.c ****       p = p->next;
 2487              		.loc 1 1014 9
 2488 01d4 FB69     		ldr	r3, [r7, #28]
 2489 01d6 1B68     		ldr	r3, [r3]
 2490 01d8 FB61     		str	r3, [r7, #28]
 2491              	.L130:
1008:Middlewares/Third_Party/LwIP/src/core/ipv4/etharp.c ****       LWIP_ASSERT("no packet queues allowed!", (p->len != p->tot_len) || (p->next == 0));
 2492              		.loc 1 1008 11
 2493 01da FB69     		ldr	r3, [r7, #28]
 2494 01dc 002B     		cmp	r3, #0
 2495 01de DFD1     		bne	.L134
 2496              	.L133:
1015:Middlewares/Third_Party/LwIP/src/core/ipv4/etharp.c ****     }
1016:Middlewares/Third_Party/LwIP/src/core/ipv4/etharp.c ****     if (copy_needed) {
 2497              		.loc 1 1016 8
 2498 01e0 BB69     		ldr	r3, [r7, #24]
 2499 01e2 002B     		cmp	r3, #0
 2500 01e4 07D0     		beq	.L135
1017:Middlewares/Third_Party/LwIP/src/core/ipv4/etharp.c ****       /* copy the whole packet into new pbufs */
1018:Middlewares/Third_Party/LwIP/src/core/ipv4/etharp.c ****       p = pbuf_clone(PBUF_LINK, PBUF_RAM, q);
 2501              		.loc 1 1018 11
ARM GAS  /tmp/ccXQGcXv.s 			page 64


 2502 01e6 7A68     		ldr	r2, [r7, #4]
 2503 01e8 4FF42071 		mov	r1, #640
 2504 01ec 0E20     		movs	r0, #14
 2505 01ee FFF7FEFF 		bl	pbuf_clone
 2506 01f2 F861     		str	r0, [r7, #28]
 2507 01f4 04E0     		b	.L136
 2508              	.L135:
1019:Middlewares/Third_Party/LwIP/src/core/ipv4/etharp.c ****     } else {
1020:Middlewares/Third_Party/LwIP/src/core/ipv4/etharp.c ****       /* referencing the old pbuf is enough */
1021:Middlewares/Third_Party/LwIP/src/core/ipv4/etharp.c ****       p = q;
 2509              		.loc 1 1021 9
 2510 01f6 7B68     		ldr	r3, [r7, #4]
 2511 01f8 FB61     		str	r3, [r7, #28]
1022:Middlewares/Third_Party/LwIP/src/core/ipv4/etharp.c ****       pbuf_ref(p);
 2512              		.loc 1 1022 7
 2513 01fa F869     		ldr	r0, [r7, #28]
 2514 01fc FFF7FEFF 		bl	pbuf_ref
 2515              	.L136:
1023:Middlewares/Third_Party/LwIP/src/core/ipv4/etharp.c ****     }
1024:Middlewares/Third_Party/LwIP/src/core/ipv4/etharp.c ****     /* packet could be taken over? */
1025:Middlewares/Third_Party/LwIP/src/core/ipv4/etharp.c ****     if (p != NULL) {
 2516              		.loc 1 1025 8
 2517 0200 FB69     		ldr	r3, [r7, #28]
 2518 0202 002B     		cmp	r3, #0
 2519 0204 21D0     		beq	.L137
1026:Middlewares/Third_Party/LwIP/src/core/ipv4/etharp.c ****       /* queue packet ... */
1027:Middlewares/Third_Party/LwIP/src/core/ipv4/etharp.c **** #if ARP_QUEUEING
1028:Middlewares/Third_Party/LwIP/src/core/ipv4/etharp.c ****       struct etharp_q_entry *new_entry;
1029:Middlewares/Third_Party/LwIP/src/core/ipv4/etharp.c ****       /* allocate a new arp queue entry */
1030:Middlewares/Third_Party/LwIP/src/core/ipv4/etharp.c ****       new_entry = (struct etharp_q_entry *)memp_malloc(MEMP_ARP_QUEUE);
1031:Middlewares/Third_Party/LwIP/src/core/ipv4/etharp.c ****       if (new_entry != NULL) {
1032:Middlewares/Third_Party/LwIP/src/core/ipv4/etharp.c ****         unsigned int qlen = 0;
1033:Middlewares/Third_Party/LwIP/src/core/ipv4/etharp.c ****         new_entry->next = 0;
1034:Middlewares/Third_Party/LwIP/src/core/ipv4/etharp.c ****         new_entry->p = p;
1035:Middlewares/Third_Party/LwIP/src/core/ipv4/etharp.c ****         if (arp_table[i].q != NULL) {
1036:Middlewares/Third_Party/LwIP/src/core/ipv4/etharp.c ****           /* queue was already existent, append the new entry to the end */
1037:Middlewares/Third_Party/LwIP/src/core/ipv4/etharp.c ****           struct etharp_q_entry *r;
1038:Middlewares/Third_Party/LwIP/src/core/ipv4/etharp.c ****           r = arp_table[i].q;
1039:Middlewares/Third_Party/LwIP/src/core/ipv4/etharp.c ****           qlen++;
1040:Middlewares/Third_Party/LwIP/src/core/ipv4/etharp.c ****           while (r->next != NULL) {
1041:Middlewares/Third_Party/LwIP/src/core/ipv4/etharp.c ****             r = r->next;
1042:Middlewares/Third_Party/LwIP/src/core/ipv4/etharp.c ****             qlen++;
1043:Middlewares/Third_Party/LwIP/src/core/ipv4/etharp.c ****           }
1044:Middlewares/Third_Party/LwIP/src/core/ipv4/etharp.c ****           r->next = new_entry;
1045:Middlewares/Third_Party/LwIP/src/core/ipv4/etharp.c ****         } else {
1046:Middlewares/Third_Party/LwIP/src/core/ipv4/etharp.c ****           /* queue did not exist, first item in queue */
1047:Middlewares/Third_Party/LwIP/src/core/ipv4/etharp.c ****           arp_table[i].q = new_entry;
1048:Middlewares/Third_Party/LwIP/src/core/ipv4/etharp.c ****         }
1049:Middlewares/Third_Party/LwIP/src/core/ipv4/etharp.c **** #if ARP_QUEUE_LEN
1050:Middlewares/Third_Party/LwIP/src/core/ipv4/etharp.c ****         if (qlen >= ARP_QUEUE_LEN) {
1051:Middlewares/Third_Party/LwIP/src/core/ipv4/etharp.c ****           struct etharp_q_entry *old;
1052:Middlewares/Third_Party/LwIP/src/core/ipv4/etharp.c ****           old = arp_table[i].q;
1053:Middlewares/Third_Party/LwIP/src/core/ipv4/etharp.c ****           arp_table[i].q = arp_table[i].q->next;
1054:Middlewares/Third_Party/LwIP/src/core/ipv4/etharp.c ****           pbuf_free(old->p);
1055:Middlewares/Third_Party/LwIP/src/core/ipv4/etharp.c ****           memp_free(MEMP_ARP_QUEUE, old);
1056:Middlewares/Third_Party/LwIP/src/core/ipv4/etharp.c ****         }
1057:Middlewares/Third_Party/LwIP/src/core/ipv4/etharp.c **** #endif
ARM GAS  /tmp/ccXQGcXv.s 			page 65


1058:Middlewares/Third_Party/LwIP/src/core/ipv4/etharp.c ****         LWIP_DEBUGF(ETHARP_DEBUG | LWIP_DBG_TRACE, ("etharp_query: queued packet %p on ARP entry %"
1059:Middlewares/Third_Party/LwIP/src/core/ipv4/etharp.c ****         result = ERR_OK;
1060:Middlewares/Third_Party/LwIP/src/core/ipv4/etharp.c ****       } else {
1061:Middlewares/Third_Party/LwIP/src/core/ipv4/etharp.c ****         /* the pool MEMP_ARP_QUEUE is empty */
1062:Middlewares/Third_Party/LwIP/src/core/ipv4/etharp.c ****         pbuf_free(p);
1063:Middlewares/Third_Party/LwIP/src/core/ipv4/etharp.c ****         LWIP_DEBUGF(ETHARP_DEBUG | LWIP_DBG_TRACE, ("etharp_query: could not queue a copy of PBUF_R
1064:Middlewares/Third_Party/LwIP/src/core/ipv4/etharp.c ****         result = ERR_MEM;
1065:Middlewares/Third_Party/LwIP/src/core/ipv4/etharp.c ****       }
1066:Middlewares/Third_Party/LwIP/src/core/ipv4/etharp.c **** #else /* ARP_QUEUEING */
1067:Middlewares/Third_Party/LwIP/src/core/ipv4/etharp.c ****       /* always queue one packet per ARP request only, freeing a previously queued packet */
1068:Middlewares/Third_Party/LwIP/src/core/ipv4/etharp.c ****       if (arp_table[i].q != NULL) {
 2520              		.loc 1 1068 23
 2521 0206 7A7C     		ldrb	r2, [r7, #17]	@ zero_extendqisi2
 2522 0208 1749     		ldr	r1, .L139+12
 2523 020a 1346     		mov	r3, r2
 2524 020c 5B00     		lsls	r3, r3, #1
 2525 020e 1344     		add	r3, r3, r2
 2526 0210 DB00     		lsls	r3, r3, #3
 2527 0212 0B44     		add	r3, r3, r1
 2528 0214 1B68     		ldr	r3, [r3]
 2529              		.loc 1 1068 10
 2530 0216 002B     		cmp	r3, #0
 2531 0218 0AD0     		beq	.L138
1069:Middlewares/Third_Party/LwIP/src/core/ipv4/etharp.c ****         LWIP_DEBUGF(ETHARP_DEBUG | LWIP_DBG_TRACE, ("etharp_query: dropped previously queued packet
1070:Middlewares/Third_Party/LwIP/src/core/ipv4/etharp.c ****         pbuf_free(arp_table[i].q);
 2532              		.loc 1 1070 9
 2533 021a 7A7C     		ldrb	r2, [r7, #17]	@ zero_extendqisi2
 2534 021c 1249     		ldr	r1, .L139+12
 2535 021e 1346     		mov	r3, r2
 2536 0220 5B00     		lsls	r3, r3, #1
 2537 0222 1344     		add	r3, r3, r2
 2538 0224 DB00     		lsls	r3, r3, #3
 2539 0226 0B44     		add	r3, r3, r1
 2540 0228 1B68     		ldr	r3, [r3]
 2541 022a 1846     		mov	r0, r3
 2542 022c FFF7FEFF 		bl	pbuf_free
 2543              	.L138:
1071:Middlewares/Third_Party/LwIP/src/core/ipv4/etharp.c ****       }
1072:Middlewares/Third_Party/LwIP/src/core/ipv4/etharp.c ****       arp_table[i].q = p;
 2544              		.loc 1 1072 19
 2545 0230 7A7C     		ldrb	r2, [r7, #17]	@ zero_extendqisi2
 2546              		.loc 1 1072 22
 2547 0232 0D49     		ldr	r1, .L139+12
 2548 0234 1346     		mov	r3, r2
 2549 0236 5B00     		lsls	r3, r3, #1
 2550 0238 1344     		add	r3, r3, r2
 2551 023a DB00     		lsls	r3, r3, #3
 2552 023c 0B44     		add	r3, r3, r1
 2553 023e FA69     		ldr	r2, [r7, #28]
 2554 0240 1A60     		str	r2, [r3]
1073:Middlewares/Third_Party/LwIP/src/core/ipv4/etharp.c ****       result = ERR_OK;
 2555              		.loc 1 1073 14
 2556 0242 0023     		movs	r3, #0
 2557 0244 87F82730 		strb	r3, [r7, #39]
 2558 0248 02E0     		b	.L129
 2559              	.L137:
1074:Middlewares/Third_Party/LwIP/src/core/ipv4/etharp.c ****       LWIP_DEBUGF(ETHARP_DEBUG | LWIP_DBG_TRACE, ("etharp_query: queued packet %p on ARP entry %"U1
ARM GAS  /tmp/ccXQGcXv.s 			page 66


1075:Middlewares/Third_Party/LwIP/src/core/ipv4/etharp.c **** #endif /* ARP_QUEUEING */
1076:Middlewares/Third_Party/LwIP/src/core/ipv4/etharp.c ****     } else {
1077:Middlewares/Third_Party/LwIP/src/core/ipv4/etharp.c ****       ETHARP_STATS_INC(etharp.memerr);
1078:Middlewares/Third_Party/LwIP/src/core/ipv4/etharp.c ****       LWIP_DEBUGF(ETHARP_DEBUG | LWIP_DBG_TRACE, ("etharp_query: could not queue a copy of PBUF_REF
1079:Middlewares/Third_Party/LwIP/src/core/ipv4/etharp.c ****       result = ERR_MEM;
 2560              		.loc 1 1079 14
 2561 024a FF23     		movs	r3, #255
 2562 024c 87F82730 		strb	r3, [r7, #39]
 2563              	.L129:
 2564              	.LBE7:
1080:Middlewares/Third_Party/LwIP/src/core/ipv4/etharp.c ****     }
1081:Middlewares/Third_Party/LwIP/src/core/ipv4/etharp.c ****   }
1082:Middlewares/Third_Party/LwIP/src/core/ipv4/etharp.c ****   return result;
 2565              		.loc 1 1082 10
 2566 0250 97F92730 		ldrsb	r3, [r7, #39]
 2567              	.L120:
1083:Middlewares/Third_Party/LwIP/src/core/ipv4/etharp.c **** }
 2568              		.loc 1 1083 1
 2569 0254 1846     		mov	r0, r3
 2570 0256 2837     		adds	r7, r7, #40
 2571              	.LCFI53:
 2572              		.cfi_def_cfa_offset 8
 2573 0258 BD46     		mov	sp, r7
 2574              	.LCFI54:
 2575              		.cfi_def_cfa_register 13
 2576              		@ sp needed
 2577 025a 80BD     		pop	{r7, pc}
 2578              	.L140:
 2579              		.align	2
 2580              	.L139:
 2581 025c 00000000 		.word	.LC0
 2582 0260 A8010000 		.word	.LC13
 2583 0264 74000000 		.word	.LC2
 2584 0268 00000000 		.word	arp_table
 2585 026c B8010000 		.word	.LC14
 2586 0270 9C010000 		.word	.LC12
 2587 0274 00000000 		.word	etharp_cached_entry
 2588 0278 E0010000 		.word	.LC15
 2589              		.cfi_endproc
 2590              	.LFE143:
 2592              		.section	.rodata
 2593 01fa 0000     		.align	2
 2594              	.LC16:
 2595 01fc 63686563 		.ascii	"check that first pbuf can hold struct etharp_hdr\000"
 2595      6B207468 
 2595      61742066 
 2595      69727374 
 2595      20706275 
 2596 022d 000000   		.align	2
 2597              	.LC17:
 2598 0230 6E657469 		.ascii	"netif->hwaddr_len must be the same as ETH_HWADDR_LE"
 2598      662D3E68 
 2598      77616464 
 2598      725F6C65 
 2598      6E206D75 
 2599 0263 4E20666F 		.ascii	"N for etharp!\000"
 2599      72206574 
ARM GAS  /tmp/ccXQGcXv.s 			page 67


 2599      68617270 
 2599      2100
 2600              		.section	.text.etharp_raw,"ax",%progbits
 2601              		.align	1
 2602              		.syntax unified
 2603              		.thumb
 2604              		.thumb_func
 2605              		.fpu fpv4-sp-d16
 2607              	etharp_raw:
 2608              	.LFB144:
1084:Middlewares/Third_Party/LwIP/src/core/ipv4/etharp.c **** 
1085:Middlewares/Third_Party/LwIP/src/core/ipv4/etharp.c **** /**
1086:Middlewares/Third_Party/LwIP/src/core/ipv4/etharp.c ****  * Send a raw ARP packet (opcode and all addresses can be modified)
1087:Middlewares/Third_Party/LwIP/src/core/ipv4/etharp.c ****  *
1088:Middlewares/Third_Party/LwIP/src/core/ipv4/etharp.c ****  * @param netif the lwip network interface on which to send the ARP packet
1089:Middlewares/Third_Party/LwIP/src/core/ipv4/etharp.c ****  * @param ethsrc_addr the source MAC address for the ethernet header
1090:Middlewares/Third_Party/LwIP/src/core/ipv4/etharp.c ****  * @param ethdst_addr the destination MAC address for the ethernet header
1091:Middlewares/Third_Party/LwIP/src/core/ipv4/etharp.c ****  * @param hwsrc_addr the source MAC address for the ARP protocol header
1092:Middlewares/Third_Party/LwIP/src/core/ipv4/etharp.c ****  * @param ipsrc_addr the source IP address for the ARP protocol header
1093:Middlewares/Third_Party/LwIP/src/core/ipv4/etharp.c ****  * @param hwdst_addr the destination MAC address for the ARP protocol header
1094:Middlewares/Third_Party/LwIP/src/core/ipv4/etharp.c ****  * @param ipdst_addr the destination IP address for the ARP protocol header
1095:Middlewares/Third_Party/LwIP/src/core/ipv4/etharp.c ****  * @param opcode the type of the ARP packet
1096:Middlewares/Third_Party/LwIP/src/core/ipv4/etharp.c ****  * @return ERR_OK if the ARP packet has been sent
1097:Middlewares/Third_Party/LwIP/src/core/ipv4/etharp.c ****  *         ERR_MEM if the ARP packet couldn't be allocated
1098:Middlewares/Third_Party/LwIP/src/core/ipv4/etharp.c ****  *         any other err_t on failure
1099:Middlewares/Third_Party/LwIP/src/core/ipv4/etharp.c ****  */
1100:Middlewares/Third_Party/LwIP/src/core/ipv4/etharp.c **** static err_t
1101:Middlewares/Third_Party/LwIP/src/core/ipv4/etharp.c **** etharp_raw(struct netif *netif, const struct eth_addr *ethsrc_addr,
1102:Middlewares/Third_Party/LwIP/src/core/ipv4/etharp.c ****            const struct eth_addr *ethdst_addr,
1103:Middlewares/Third_Party/LwIP/src/core/ipv4/etharp.c ****            const struct eth_addr *hwsrc_addr, const ip4_addr_t *ipsrc_addr,
1104:Middlewares/Third_Party/LwIP/src/core/ipv4/etharp.c ****            const struct eth_addr *hwdst_addr, const ip4_addr_t *ipdst_addr,
1105:Middlewares/Third_Party/LwIP/src/core/ipv4/etharp.c ****            const u16_t opcode)
1106:Middlewares/Third_Party/LwIP/src/core/ipv4/etharp.c **** {
 2609              		.loc 1 1106 1
 2610              		.cfi_startproc
 2611              		@ args = 16, pretend = 0, frame = 32
 2612              		@ frame_needed = 1, uses_anonymous_args = 0
 2613 0000 80B5     		push	{r7, lr}
 2614              	.LCFI55:
 2615              		.cfi_def_cfa_offset 8
 2616              		.cfi_offset 7, -8
 2617              		.cfi_offset 14, -4
 2618 0002 8AB0     		sub	sp, sp, #40
 2619              	.LCFI56:
 2620              		.cfi_def_cfa_offset 48
 2621 0004 02AF     		add	r7, sp, #8
 2622              	.LCFI57:
 2623              		.cfi_def_cfa 7, 40
 2624 0006 F860     		str	r0, [r7, #12]
 2625 0008 B960     		str	r1, [r7, #8]
 2626 000a 7A60     		str	r2, [r7, #4]
 2627 000c 3B60     		str	r3, [r7]
1107:Middlewares/Third_Party/LwIP/src/core/ipv4/etharp.c ****   struct pbuf *p;
1108:Middlewares/Third_Party/LwIP/src/core/ipv4/etharp.c ****   err_t result = ERR_OK;
 2628              		.loc 1 1108 9
 2629 000e 0023     		movs	r3, #0
 2630 0010 FB77     		strb	r3, [r7, #31]
ARM GAS  /tmp/ccXQGcXv.s 			page 68


1109:Middlewares/Third_Party/LwIP/src/core/ipv4/etharp.c ****   struct etharp_hdr *hdr;
1110:Middlewares/Third_Party/LwIP/src/core/ipv4/etharp.c **** 
1111:Middlewares/Third_Party/LwIP/src/core/ipv4/etharp.c ****   LWIP_ASSERT("netif != NULL", netif != NULL);
 2631              		.loc 1 1111 3
 2632 0012 FB68     		ldr	r3, [r7, #12]
 2633 0014 002B     		cmp	r3, #0
 2634 0016 06D1     		bne	.L142
 2635              		.loc 1 1111 3 is_stmt 0 discriminator 1
 2636 0018 3A4B     		ldr	r3, .L147
 2637 001a 40F25742 		movw	r2, #1111
 2638 001e 3A49     		ldr	r1, .L147+4
 2639 0020 3A48     		ldr	r0, .L147+8
 2640 0022 FFF7FEFF 		bl	printf
 2641              	.L142:
1112:Middlewares/Third_Party/LwIP/src/core/ipv4/etharp.c **** 
1113:Middlewares/Third_Party/LwIP/src/core/ipv4/etharp.c ****   /* allocate a pbuf for the outgoing ARP request packet */
1114:Middlewares/Third_Party/LwIP/src/core/ipv4/etharp.c ****   p = pbuf_alloc(PBUF_LINK, SIZEOF_ETHARP_HDR, PBUF_RAM);
 2642              		.loc 1 1114 7 is_stmt 1
 2643 0026 4FF42072 		mov	r2, #640
 2644 002a 1C21     		movs	r1, #28
 2645 002c 0E20     		movs	r0, #14
 2646 002e FFF7FEFF 		bl	pbuf_alloc
 2647 0032 B861     		str	r0, [r7, #24]
1115:Middlewares/Third_Party/LwIP/src/core/ipv4/etharp.c ****   /* could allocate a pbuf for an ARP request? */
1116:Middlewares/Third_Party/LwIP/src/core/ipv4/etharp.c ****   if (p == NULL) {
 2648              		.loc 1 1116 6
 2649 0034 BB69     		ldr	r3, [r7, #24]
 2650 0036 002B     		cmp	r3, #0
 2651 0038 02D1     		bne	.L143
1117:Middlewares/Third_Party/LwIP/src/core/ipv4/etharp.c ****     LWIP_DEBUGF(ETHARP_DEBUG | LWIP_DBG_TRACE | LWIP_DBG_LEVEL_SERIOUS,
1118:Middlewares/Third_Party/LwIP/src/core/ipv4/etharp.c ****                 ("etharp_raw: could not allocate pbuf for ARP request.\n"));
1119:Middlewares/Third_Party/LwIP/src/core/ipv4/etharp.c ****     ETHARP_STATS_INC(etharp.memerr);
1120:Middlewares/Third_Party/LwIP/src/core/ipv4/etharp.c ****     return ERR_MEM;
 2652              		.loc 1 1120 12
 2653 003a 4FF0FF33 		mov	r3, #-1
 2654 003e 5DE0     		b	.L144
 2655              	.L143:
1121:Middlewares/Third_Party/LwIP/src/core/ipv4/etharp.c ****   }
1122:Middlewares/Third_Party/LwIP/src/core/ipv4/etharp.c ****   LWIP_ASSERT("check that first pbuf can hold struct etharp_hdr",
 2656              		.loc 1 1122 3
 2657 0040 BB69     		ldr	r3, [r7, #24]
 2658 0042 5B89     		ldrh	r3, [r3, #10]
 2659 0044 1B2B     		cmp	r3, #27
 2660 0046 06D8     		bhi	.L145
 2661              		.loc 1 1122 3 is_stmt 0 discriminator 1
 2662 0048 2E4B     		ldr	r3, .L147
 2663 004a 40F26342 		movw	r2, #1123
 2664 004e 3049     		ldr	r1, .L147+12
 2665 0050 2E48     		ldr	r0, .L147+8
 2666 0052 FFF7FEFF 		bl	printf
 2667              	.L145:
1123:Middlewares/Third_Party/LwIP/src/core/ipv4/etharp.c ****               (p->len >= SIZEOF_ETHARP_HDR));
1124:Middlewares/Third_Party/LwIP/src/core/ipv4/etharp.c **** 
1125:Middlewares/Third_Party/LwIP/src/core/ipv4/etharp.c ****   hdr = (struct etharp_hdr *)p->payload;
 2668              		.loc 1 1125 7 is_stmt 1
 2669 0056 BB69     		ldr	r3, [r7, #24]
 2670 0058 5B68     		ldr	r3, [r3, #4]
ARM GAS  /tmp/ccXQGcXv.s 			page 69


 2671 005a 7B61     		str	r3, [r7, #20]
1126:Middlewares/Third_Party/LwIP/src/core/ipv4/etharp.c ****   LWIP_DEBUGF(ETHARP_DEBUG | LWIP_DBG_TRACE, ("etharp_raw: sending raw ARP packet.\n"));
1127:Middlewares/Third_Party/LwIP/src/core/ipv4/etharp.c ****   hdr->opcode = lwip_htons(opcode);
 2672              		.loc 1 1127 17
 2673 005c BB8E     		ldrh	r3, [r7, #52]
 2674 005e 1846     		mov	r0, r3
 2675 0060 FFF7FEFF 		bl	lwip_htons
 2676 0064 0346     		mov	r3, r0
 2677 0066 1A46     		mov	r2, r3
 2678              		.loc 1 1127 15
 2679 0068 7B69     		ldr	r3, [r7, #20]
 2680 006a DA80     		strh	r2, [r3, #6]	@ unaligned
1128:Middlewares/Third_Party/LwIP/src/core/ipv4/etharp.c **** 
1129:Middlewares/Third_Party/LwIP/src/core/ipv4/etharp.c ****   LWIP_ASSERT("netif->hwaddr_len must be the same as ETH_HWADDR_LEN for etharp!",
 2681              		.loc 1 1129 3
 2682 006c FB68     		ldr	r3, [r7, #12]
 2683 006e 93F83030 		ldrb	r3, [r3, #48]	@ zero_extendqisi2
 2684 0072 062B     		cmp	r3, #6
 2685 0074 06D0     		beq	.L146
 2686              		.loc 1 1129 3 is_stmt 0 discriminator 1
 2687 0076 234B     		ldr	r3, .L147
 2688 0078 40F26A42 		movw	r2, #1130
 2689 007c 2549     		ldr	r1, .L147+16
 2690 007e 2348     		ldr	r0, .L147+8
 2691 0080 FFF7FEFF 		bl	printf
 2692              	.L146:
1130:Middlewares/Third_Party/LwIP/src/core/ipv4/etharp.c ****               (netif->hwaddr_len == ETH_HWADDR_LEN));
1131:Middlewares/Third_Party/LwIP/src/core/ipv4/etharp.c **** 
1132:Middlewares/Third_Party/LwIP/src/core/ipv4/etharp.c ****   /* Write the ARP MAC-Addresses */
1133:Middlewares/Third_Party/LwIP/src/core/ipv4/etharp.c ****   SMEMCPY(&hdr->shwaddr, hwsrc_addr, ETH_HWADDR_LEN);
 2693              		.loc 1 1133 3 is_stmt 1
 2694 0084 7B69     		ldr	r3, [r7, #20]
 2695 0086 0833     		adds	r3, r3, #8
 2696 0088 0622     		movs	r2, #6
 2697 008a 3968     		ldr	r1, [r7]
 2698 008c 1846     		mov	r0, r3
 2699 008e FFF7FEFF 		bl	memcpy
1134:Middlewares/Third_Party/LwIP/src/core/ipv4/etharp.c ****   SMEMCPY(&hdr->dhwaddr, hwdst_addr, ETH_HWADDR_LEN);
 2700              		.loc 1 1134 3
 2701 0092 7B69     		ldr	r3, [r7, #20]
 2702 0094 1233     		adds	r3, r3, #18
 2703 0096 0622     		movs	r2, #6
 2704 0098 F96A     		ldr	r1, [r7, #44]
 2705 009a 1846     		mov	r0, r3
 2706 009c FFF7FEFF 		bl	memcpy
1135:Middlewares/Third_Party/LwIP/src/core/ipv4/etharp.c ****   /* Copy struct ip4_addr_wordaligned to aligned ip4_addr, to support compilers without
1136:Middlewares/Third_Party/LwIP/src/core/ipv4/etharp.c ****    * structure packing. */
1137:Middlewares/Third_Party/LwIP/src/core/ipv4/etharp.c ****   IPADDR_WORDALIGNED_COPY_FROM_IP4_ADDR_T(&hdr->sipaddr, ipsrc_addr);
 2707              		.loc 1 1137 3
 2708 00a0 7B69     		ldr	r3, [r7, #20]
 2709 00a2 0E33     		adds	r3, r3, #14
 2710 00a4 BA6A     		ldr	r2, [r7, #40]
 2711 00a6 1268     		ldr	r2, [r2]	@ unaligned
 2712 00a8 1A60     		str	r2, [r3]	@ unaligned
1138:Middlewares/Third_Party/LwIP/src/core/ipv4/etharp.c ****   IPADDR_WORDALIGNED_COPY_FROM_IP4_ADDR_T(&hdr->dipaddr, ipdst_addr);
 2713              		.loc 1 1138 3
 2714 00aa 7B69     		ldr	r3, [r7, #20]
ARM GAS  /tmp/ccXQGcXv.s 			page 70


 2715 00ac 1833     		adds	r3, r3, #24
 2716 00ae 3A6B     		ldr	r2, [r7, #48]
 2717 00b0 1268     		ldr	r2, [r2]	@ unaligned
 2718 00b2 1A60     		str	r2, [r3]	@ unaligned
1139:Middlewares/Third_Party/LwIP/src/core/ipv4/etharp.c **** 
1140:Middlewares/Third_Party/LwIP/src/core/ipv4/etharp.c ****   hdr->hwtype = PP_HTONS(LWIP_IANA_HWTYPE_ETHERNET);
 2719              		.loc 1 1140 15
 2720 00b4 7B69     		ldr	r3, [r7, #20]
 2721 00b6 0022     		movs	r2, #0
 2722 00b8 1A70     		strb	r2, [r3]
 2723 00ba 0022     		movs	r2, #0
 2724 00bc 42F00102 		orr	r2, r2, #1
 2725 00c0 5A70     		strb	r2, [r3, #1]
1141:Middlewares/Third_Party/LwIP/src/core/ipv4/etharp.c ****   hdr->proto = PP_HTONS(ETHTYPE_IP);
 2726              		.loc 1 1141 14
 2727 00c2 7B69     		ldr	r3, [r7, #20]
 2728 00c4 0022     		movs	r2, #0
 2729 00c6 42F00802 		orr	r2, r2, #8
 2730 00ca 9A70     		strb	r2, [r3, #2]
 2731 00cc 0022     		movs	r2, #0
 2732 00ce DA70     		strb	r2, [r3, #3]
1142:Middlewares/Third_Party/LwIP/src/core/ipv4/etharp.c ****   /* set hwlen and protolen */
1143:Middlewares/Third_Party/LwIP/src/core/ipv4/etharp.c ****   hdr->hwlen = ETH_HWADDR_LEN;
 2733              		.loc 1 1143 14
 2734 00d0 7B69     		ldr	r3, [r7, #20]
 2735 00d2 0622     		movs	r2, #6
 2736 00d4 1A71     		strb	r2, [r3, #4]
1144:Middlewares/Third_Party/LwIP/src/core/ipv4/etharp.c ****   hdr->protolen = sizeof(ip4_addr_t);
 2737              		.loc 1 1144 17
 2738 00d6 7B69     		ldr	r3, [r7, #20]
 2739 00d8 0422     		movs	r2, #4
 2740 00da 5A71     		strb	r2, [r3, #5]
1145:Middlewares/Third_Party/LwIP/src/core/ipv4/etharp.c **** 
1146:Middlewares/Third_Party/LwIP/src/core/ipv4/etharp.c ****   /* send ARP query */
1147:Middlewares/Third_Party/LwIP/src/core/ipv4/etharp.c **** #if LWIP_AUTOIP
1148:Middlewares/Third_Party/LwIP/src/core/ipv4/etharp.c ****   /* If we are using Link-Local, all ARP packets that contain a Link-Local
1149:Middlewares/Third_Party/LwIP/src/core/ipv4/etharp.c ****    * 'sender IP address' MUST be sent using link-layer broadcast instead of
1150:Middlewares/Third_Party/LwIP/src/core/ipv4/etharp.c ****    * link-layer unicast. (See RFC3927 Section 2.5, last paragraph) */
1151:Middlewares/Third_Party/LwIP/src/core/ipv4/etharp.c ****   if (ip4_addr_islinklocal(ipsrc_addr)) {
1152:Middlewares/Third_Party/LwIP/src/core/ipv4/etharp.c ****     ethernet_output(netif, p, ethsrc_addr, &ethbroadcast, ETHTYPE_ARP);
1153:Middlewares/Third_Party/LwIP/src/core/ipv4/etharp.c ****   } else
1154:Middlewares/Third_Party/LwIP/src/core/ipv4/etharp.c **** #endif /* LWIP_AUTOIP */
1155:Middlewares/Third_Party/LwIP/src/core/ipv4/etharp.c ****   {
1156:Middlewares/Third_Party/LwIP/src/core/ipv4/etharp.c ****     ethernet_output(netif, p, ethsrc_addr, ethdst_addr, ETHTYPE_ARP);
 2741              		.loc 1 1156 5
 2742 00dc 40F60603 		movw	r3, #2054
 2743 00e0 0093     		str	r3, [sp]
 2744 00e2 7B68     		ldr	r3, [r7, #4]
 2745 00e4 BA68     		ldr	r2, [r7, #8]
 2746 00e6 B969     		ldr	r1, [r7, #24]
 2747 00e8 F868     		ldr	r0, [r7, #12]
 2748 00ea FFF7FEFF 		bl	ethernet_output
1157:Middlewares/Third_Party/LwIP/src/core/ipv4/etharp.c ****   }
1158:Middlewares/Third_Party/LwIP/src/core/ipv4/etharp.c **** 
1159:Middlewares/Third_Party/LwIP/src/core/ipv4/etharp.c ****   ETHARP_STATS_INC(etharp.xmit);
1160:Middlewares/Third_Party/LwIP/src/core/ipv4/etharp.c ****   /* free ARP query packet */
1161:Middlewares/Third_Party/LwIP/src/core/ipv4/etharp.c ****   pbuf_free(p);
ARM GAS  /tmp/ccXQGcXv.s 			page 71


 2749              		.loc 1 1161 3
 2750 00ee B869     		ldr	r0, [r7, #24]
 2751 00f0 FFF7FEFF 		bl	pbuf_free
1162:Middlewares/Third_Party/LwIP/src/core/ipv4/etharp.c ****   p = NULL;
 2752              		.loc 1 1162 5
 2753 00f4 0023     		movs	r3, #0
 2754 00f6 BB61     		str	r3, [r7, #24]
1163:Middlewares/Third_Party/LwIP/src/core/ipv4/etharp.c ****   /* could not allocate pbuf for ARP request */
1164:Middlewares/Third_Party/LwIP/src/core/ipv4/etharp.c **** 
1165:Middlewares/Third_Party/LwIP/src/core/ipv4/etharp.c ****   return result;
 2755              		.loc 1 1165 10
 2756 00f8 97F91F30 		ldrsb	r3, [r7, #31]
 2757              	.L144:
1166:Middlewares/Third_Party/LwIP/src/core/ipv4/etharp.c **** }
 2758              		.loc 1 1166 1
 2759 00fc 1846     		mov	r0, r3
 2760 00fe 2037     		adds	r7, r7, #32
 2761              	.LCFI58:
 2762              		.cfi_def_cfa_offset 8
 2763 0100 BD46     		mov	sp, r7
 2764              	.LCFI59:
 2765              		.cfi_def_cfa_register 13
 2766              		@ sp needed
 2767 0102 80BD     		pop	{r7, pc}
 2768              	.L148:
 2769              		.align	2
 2770              	.L147:
 2771 0104 00000000 		.word	.LC0
 2772 0108 4C010000 		.word	.LC9
 2773 010c 74000000 		.word	.LC2
 2774 0110 FC010000 		.word	.LC16
 2775 0114 30020000 		.word	.LC17
 2776              		.cfi_endproc
 2777              	.LFE144:
 2779              		.section	.text.etharp_request_dst,"ax",%progbits
 2780              		.align	1
 2781              		.syntax unified
 2782              		.thumb
 2783              		.thumb_func
 2784              		.fpu fpv4-sp-d16
 2786              	etharp_request_dst:
 2787              	.LFB145:
1167:Middlewares/Third_Party/LwIP/src/core/ipv4/etharp.c **** 
1168:Middlewares/Third_Party/LwIP/src/core/ipv4/etharp.c **** /**
1169:Middlewares/Third_Party/LwIP/src/core/ipv4/etharp.c ****  * Send an ARP request packet asking for ipaddr to a specific eth address.
1170:Middlewares/Third_Party/LwIP/src/core/ipv4/etharp.c ****  * Used to send unicast request to refresh the ARP table just before an entry
1171:Middlewares/Third_Party/LwIP/src/core/ipv4/etharp.c ****  * times out
1172:Middlewares/Third_Party/LwIP/src/core/ipv4/etharp.c ****  *
1173:Middlewares/Third_Party/LwIP/src/core/ipv4/etharp.c ****  * @param netif the lwip network interface on which to send the request
1174:Middlewares/Third_Party/LwIP/src/core/ipv4/etharp.c ****  * @param ipaddr the IP address for which to ask
1175:Middlewares/Third_Party/LwIP/src/core/ipv4/etharp.c ****  * @param hw_dst_addr the ethernet address to send this packet to
1176:Middlewares/Third_Party/LwIP/src/core/ipv4/etharp.c ****  * @return ERR_OK if the request has been sent
1177:Middlewares/Third_Party/LwIP/src/core/ipv4/etharp.c ****  *         ERR_MEM if the ARP packet couldn't be allocated
1178:Middlewares/Third_Party/LwIP/src/core/ipv4/etharp.c ****  *         any other err_t on failure
1179:Middlewares/Third_Party/LwIP/src/core/ipv4/etharp.c ****  */
1180:Middlewares/Third_Party/LwIP/src/core/ipv4/etharp.c **** static err_t
1181:Middlewares/Third_Party/LwIP/src/core/ipv4/etharp.c **** etharp_request_dst(struct netif *netif, const ip4_addr_t *ipaddr, const struct eth_addr *hw_dst_add
ARM GAS  /tmp/ccXQGcXv.s 			page 72


1182:Middlewares/Third_Party/LwIP/src/core/ipv4/etharp.c **** {
 2788              		.loc 1 1182 1
 2789              		.cfi_startproc
 2790              		@ args = 0, pretend = 0, frame = 16
 2791              		@ frame_needed = 1, uses_anonymous_args = 0
 2792 0000 80B5     		push	{r7, lr}
 2793              	.LCFI60:
 2794              		.cfi_def_cfa_offset 8
 2795              		.cfi_offset 7, -8
 2796              		.cfi_offset 14, -4
 2797 0002 88B0     		sub	sp, sp, #32
 2798              	.LCFI61:
 2799              		.cfi_def_cfa_offset 40
 2800 0004 04AF     		add	r7, sp, #16
 2801              	.LCFI62:
 2802              		.cfi_def_cfa 7, 24
 2803 0006 F860     		str	r0, [r7, #12]
 2804 0008 B960     		str	r1, [r7, #8]
 2805 000a 7A60     		str	r2, [r7, #4]
1183:Middlewares/Third_Party/LwIP/src/core/ipv4/etharp.c ****   return etharp_raw(netif, (struct eth_addr *)netif->hwaddr, hw_dst_addr,
 2806              		.loc 1 1183 47
 2807 000c FB68     		ldr	r3, [r7, #12]
 2808 000e 03F12A01 		add	r1, r3, #42
1184:Middlewares/Third_Party/LwIP/src/core/ipv4/etharp.c ****                     (struct eth_addr *)netif->hwaddr, netif_ip4_addr(netif), &ethzero,
 2809              		.loc 1 1184 40
 2810 0012 FB68     		ldr	r3, [r7, #12]
 2811 0014 03F12A00 		add	r0, r3, #42
 2812              		.loc 1 1184 55
 2813 0018 FB68     		ldr	r3, [r7, #12]
 2814 001a 0433     		adds	r3, r3, #4
1183:Middlewares/Third_Party/LwIP/src/core/ipv4/etharp.c ****   return etharp_raw(netif, (struct eth_addr *)netif->hwaddr, hw_dst_addr,
 2815              		.loc 1 1183 10
 2816 001c 0122     		movs	r2, #1
 2817 001e 0392     		str	r2, [sp, #12]
 2818 0020 BA68     		ldr	r2, [r7, #8]
 2819 0022 0292     		str	r2, [sp, #8]
 2820 0024 064A     		ldr	r2, .L151
 2821 0026 0192     		str	r2, [sp, #4]
 2822 0028 0093     		str	r3, [sp]
 2823 002a 0346     		mov	r3, r0
 2824 002c 7A68     		ldr	r2, [r7, #4]
 2825 002e F868     		ldr	r0, [r7, #12]
 2826 0030 FFF7FEFF 		bl	etharp_raw
 2827 0034 0346     		mov	r3, r0
1185:Middlewares/Third_Party/LwIP/src/core/ipv4/etharp.c ****                     ipaddr, ARP_REQUEST);
1186:Middlewares/Third_Party/LwIP/src/core/ipv4/etharp.c **** }
 2828              		.loc 1 1186 1
 2829 0036 1846     		mov	r0, r3
 2830 0038 1037     		adds	r7, r7, #16
 2831              	.LCFI63:
 2832              		.cfi_def_cfa_offset 8
 2833 003a BD46     		mov	sp, r7
 2834              	.LCFI64:
 2835              		.cfi_def_cfa_register 13
 2836              		@ sp needed
 2837 003c 80BD     		pop	{r7, pc}
 2838              	.L152:
ARM GAS  /tmp/ccXQGcXv.s 			page 73


 2839 003e 00BF     		.align	2
 2840              	.L151:
 2841 0040 00000000 		.word	ethzero
 2842              		.cfi_endproc
 2843              	.LFE145:
 2845              		.section	.text.etharp_request,"ax",%progbits
 2846              		.align	1
 2847              		.global	etharp_request
 2848              		.syntax unified
 2849              		.thumb
 2850              		.thumb_func
 2851              		.fpu fpv4-sp-d16
 2853              	etharp_request:
 2854              	.LFB146:
1187:Middlewares/Third_Party/LwIP/src/core/ipv4/etharp.c **** 
1188:Middlewares/Third_Party/LwIP/src/core/ipv4/etharp.c **** /**
1189:Middlewares/Third_Party/LwIP/src/core/ipv4/etharp.c ****  * Send an ARP request packet asking for ipaddr.
1190:Middlewares/Third_Party/LwIP/src/core/ipv4/etharp.c ****  *
1191:Middlewares/Third_Party/LwIP/src/core/ipv4/etharp.c ****  * @param netif the lwip network interface on which to send the request
1192:Middlewares/Third_Party/LwIP/src/core/ipv4/etharp.c ****  * @param ipaddr the IP address for which to ask
1193:Middlewares/Third_Party/LwIP/src/core/ipv4/etharp.c ****  * @return ERR_OK if the request has been sent
1194:Middlewares/Third_Party/LwIP/src/core/ipv4/etharp.c ****  *         ERR_MEM if the ARP packet couldn't be allocated
1195:Middlewares/Third_Party/LwIP/src/core/ipv4/etharp.c ****  *         any other err_t on failure
1196:Middlewares/Third_Party/LwIP/src/core/ipv4/etharp.c ****  */
1197:Middlewares/Third_Party/LwIP/src/core/ipv4/etharp.c **** err_t
1198:Middlewares/Third_Party/LwIP/src/core/ipv4/etharp.c **** etharp_request(struct netif *netif, const ip4_addr_t *ipaddr)
1199:Middlewares/Third_Party/LwIP/src/core/ipv4/etharp.c **** {
 2855              		.loc 1 1199 1
 2856              		.cfi_startproc
 2857              		@ args = 0, pretend = 0, frame = 8
 2858              		@ frame_needed = 1, uses_anonymous_args = 0
 2859 0000 80B5     		push	{r7, lr}
 2860              	.LCFI65:
 2861              		.cfi_def_cfa_offset 8
 2862              		.cfi_offset 7, -8
 2863              		.cfi_offset 14, -4
 2864 0002 82B0     		sub	sp, sp, #8
 2865              	.LCFI66:
 2866              		.cfi_def_cfa_offset 16
 2867 0004 00AF     		add	r7, sp, #0
 2868              	.LCFI67:
 2869              		.cfi_def_cfa_register 7
 2870 0006 7860     		str	r0, [r7, #4]
 2871 0008 3960     		str	r1, [r7]
1200:Middlewares/Third_Party/LwIP/src/core/ipv4/etharp.c ****   LWIP_DEBUGF(ETHARP_DEBUG | LWIP_DBG_TRACE, ("etharp_request: sending ARP request.\n"));
1201:Middlewares/Third_Party/LwIP/src/core/ipv4/etharp.c ****   return etharp_request_dst(netif, ipaddr, &ethbroadcast);
 2872              		.loc 1 1201 10
 2873 000a 054A     		ldr	r2, .L155
 2874 000c 3968     		ldr	r1, [r7]
 2875 000e 7868     		ldr	r0, [r7, #4]
 2876 0010 FFF7FEFF 		bl	etharp_request_dst
 2877 0014 0346     		mov	r3, r0
1202:Middlewares/Third_Party/LwIP/src/core/ipv4/etharp.c **** }
 2878              		.loc 1 1202 1
 2879 0016 1846     		mov	r0, r3
 2880 0018 0837     		adds	r7, r7, #8
 2881              	.LCFI68:
ARM GAS  /tmp/ccXQGcXv.s 			page 74


 2882              		.cfi_def_cfa_offset 8
 2883 001a BD46     		mov	sp, r7
 2884              	.LCFI69:
 2885              		.cfi_def_cfa_register 13
 2886              		@ sp needed
 2887 001c 80BD     		pop	{r7, pc}
 2888              	.L156:
 2889 001e 00BF     		.align	2
 2890              	.L155:
 2891 0020 00000000 		.word	ethbroadcast
 2892              		.cfi_endproc
 2893              	.LFE146:
 2895              		.text
 2896              	.Letext0:
 2897              		.file 2 "/home/mego-ros2/microros_ws/firmware/toolchain/arm-none-eabi/include/machine/_default_typ
 2898              		.file 3 "/home/mego-ros2/microros_ws/firmware/toolchain/arm-none-eabi/include/sys/_stdint.h"
 2899              		.file 4 "Drivers/CMSIS/Include/core_cm4.h"
 2900              		.file 5 "Drivers/CMSIS/Device/ST/STM32F4xx/Include/system_stm32f4xx.h"
 2901              		.file 6 "/home/mego-ros2/microros_ws/firmware/toolchain/lib/gcc/arm-none-eabi/8.3.1/include/stddef
 2902              		.file 7 "Drivers/STM32F4xx_HAL_Driver/Inc/stm32f4xx_hal.h"
 2903              		.file 8 "/home/mego-ros2/microros_ws/firmware/toolchain/arm-none-eabi/include/sys/_types.h"
 2904              		.file 9 "/home/mego-ros2/microros_ws/firmware/toolchain/arm-none-eabi/include/sys/reent.h"
 2905              		.file 10 "/home/mego-ros2/microros_ws/firmware/toolchain/arm-none-eabi/include/sys/lock.h"
 2906              		.file 11 "/home/mego-ros2/microros_ws/firmware/toolchain/arm-none-eabi/include/stdlib.h"
 2907              		.file 12 "/home/mego-ros2/microros_ws/firmware/freertos_apps/stm32MakefileTest/lib/include/FreeRTO
 2908              		.file 13 "Middlewares/Third_Party/LwIP/src/include/lwip/arch.h"
 2909              		.file 14 "/home/mego-ros2/microros_ws/firmware/toolchain/arm-none-eabi/include/ctype.h"
 2910              		.file 15 "Middlewares/Third_Party/LwIP/src/include/lwip/err.h"
 2911              		.file 16 "Middlewares/Third_Party/LwIP/src/include/lwip/pbuf.h"
 2912              		.file 17 "Middlewares/Third_Party/LwIP/src/include/lwip/ip4_addr.h"
 2913              		.file 18 "Middlewares/Third_Party/LwIP/src/include/lwip/ip_addr.h"
 2914              		.file 19 "Middlewares/Third_Party/LwIP/src/include/lwip/memp.h"
 2915              		.file 20 "Middlewares/Third_Party/LwIP/src/include/lwip/priv/memp_priv.h"
 2916              		.file 21 "Middlewares/Third_Party/LwIP/src/include/lwip/netif.h"
 2917              		.file 22 "Middlewares/Third_Party/LwIP/src/include/lwip/prot/ip4.h"
 2918              		.file 23 "Middlewares/Third_Party/LwIP/src/include/lwip/prot/ieee.h"
 2919              		.file 24 "Middlewares/Third_Party/LwIP/src/include/lwip/prot/ethernet.h"
 2920              		.file 25 "Middlewares/Third_Party/LwIP/src/include/lwip/prot/etharp.h"
 2921              		.file 26 "Middlewares/Third_Party/LwIP/src/include/lwip/ip.h"
 2922              		.file 27 "Middlewares/Third_Party/LwIP/src/include/lwip/udp.h"
 2923              		.file 28 "Middlewares/Third_Party/LwIP/src/include/lwip/prot/iana.h"
 2924              		.file 29 "Middlewares/Third_Party/LwIP/src/include/netif/ethernet.h"
ARM GAS  /tmp/ccXQGcXv.s 			page 75

