ARM GAS  /tmp/ccCDUTiT.s 			page 1


   1              		.cpu cortex-m4
   2              		.eabi_attribute 27, 1
   3              		.eabi_attribute 28, 1
   4              		.eabi_attribute 20, 1
   5              		.eabi_attribute 21, 1
   6              		.eabi_attribute 23, 3
   7              		.eabi_attribute 24, 1
   8              		.eabi_attribute 25, 1
   9              		.eabi_attribute 26, 1
  10              		.eabi_attribute 30, 6
  11              		.eabi_attribute 34, 1
  12              		.eabi_attribute 18, 4
  13              		.file	"freertos.c"
  14              		.text
  15              	.Ltext0:
  16              		.cfi_sections	.debug_frame
  17              		.section	.rodata.rmw_qos_profile_sensor_data,"a"
  18              		.align	3
  21              	rmw_qos_profile_sensor_data:
  22 0000 01       		.byte	1
  23 0001 000000   		.space	3
  24 0004 05000000 		.word	5
  25 0008 02       		.byte	2
  26 0009 02       		.byte	2
  27 000a 00000000 		.space	6
  27      0000
  28 0010 00000000 		.word	0
  29 0014 00000000 		.word	0
  30 0018 00000000 		.word	0
  31 001c 00000000 		.word	0
  32 0020 00000000 		.word	0
  33 0024 00000000 		.word	0
  34 0028 00000000 		.word	0
  35 002c 00000000 		.word	0
  36 0030 00       		.byte	0
  37 0031 00000000 		.space	7
  37      000000
  38 0038 00000000 		.word	0
  39 003c 00000000 		.word	0
  40 0040 00000000 		.word	0
  41 0044 00000000 		.word	0
  42 0048 00       		.byte	0
  43 0049 00000000 		.space	7
  43      000000
  44              		.section	.rodata.rmw_qos_profile_parameters,"a"
  45              		.align	3
  48              	rmw_qos_profile_parameters:
  49 0000 01       		.byte	1
  50 0001 000000   		.space	3
  51 0004 E8030000 		.word	1000
  52 0008 01       		.byte	1
  53 0009 02       		.byte	2
  54 000a 00000000 		.space	6
  54      0000
  55 0010 00000000 		.word	0
  56 0014 00000000 		.word	0
  57 0018 00000000 		.word	0
ARM GAS  /tmp/ccCDUTiT.s 			page 2


  58 001c 00000000 		.word	0
  59 0020 00000000 		.word	0
  60 0024 00000000 		.word	0
  61 0028 00000000 		.word	0
  62 002c 00000000 		.word	0
  63 0030 00       		.byte	0
  64 0031 00000000 		.space	7
  64      000000
  65 0038 00000000 		.word	0
  66 003c 00000000 		.word	0
  67 0040 00000000 		.word	0
  68 0044 00000000 		.word	0
  69 0048 00       		.byte	0
  70 0049 00000000 		.space	7
  70      000000
  71              		.section	.rodata.rmw_qos_profile_default,"a"
  72              		.align	3
  75              	rmw_qos_profile_default:
  76 0000 01       		.byte	1
  77 0001 000000   		.space	3
  78 0004 0A000000 		.word	10
  79 0008 01       		.byte	1
  80 0009 02       		.byte	2
  81 000a 00000000 		.space	6
  81      0000
  82 0010 00000000 		.word	0
  83 0014 00000000 		.word	0
  84 0018 00000000 		.word	0
  85 001c 00000000 		.word	0
  86 0020 00000000 		.word	0
  87 0024 00000000 		.word	0
  88 0028 00000000 		.word	0
  89 002c 00000000 		.word	0
  90 0030 00       		.byte	0
  91 0031 00000000 		.space	7
  91      000000
  92 0038 00000000 		.word	0
  93 003c 00000000 		.word	0
  94 0040 00000000 		.word	0
  95 0044 00000000 		.word	0
  96 0048 00       		.byte	0
  97 0049 00000000 		.space	7
  97      000000
  98              		.section	.rodata.rmw_qos_profile_services_default,"a"
  99              		.align	3
 102              	rmw_qos_profile_services_default:
 103 0000 01       		.byte	1
 104 0001 000000   		.space	3
 105 0004 0A000000 		.word	10
 106 0008 01       		.byte	1
 107 0009 02       		.byte	2
 108 000a 00000000 		.space	6
 108      0000
 109 0010 00000000 		.word	0
 110 0014 00000000 		.word	0
 111 0018 00000000 		.word	0
 112 001c 00000000 		.word	0
ARM GAS  /tmp/ccCDUTiT.s 			page 3


 113 0020 00000000 		.word	0
 114 0024 00000000 		.word	0
 115 0028 00000000 		.word	0
 116 002c 00000000 		.word	0
 117 0030 00       		.byte	0
 118 0031 00000000 		.space	7
 118      000000
 119 0038 00000000 		.word	0
 120 003c 00000000 		.word	0
 121 0040 00000000 		.word	0
 122 0044 00000000 		.word	0
 123 0048 00       		.byte	0
 124 0049 00000000 		.space	7
 124      000000
 125              		.section	.rodata.rmw_qos_profile_parameter_events,"a"
 126              		.align	3
 129              	rmw_qos_profile_parameter_events:
 130 0000 01       		.byte	1
 131 0001 000000   		.space	3
 132 0004 E8030000 		.word	1000
 133 0008 01       		.byte	1
 134 0009 02       		.byte	2
 135 000a 00000000 		.space	6
 135      0000
 136 0010 00000000 		.word	0
 137 0014 00000000 		.word	0
 138 0018 00000000 		.word	0
 139 001c 00000000 		.word	0
 140 0020 00000000 		.word	0
 141 0024 00000000 		.word	0
 142 0028 00000000 		.word	0
 143 002c 00000000 		.word	0
 144 0030 00       		.byte	0
 145 0031 00000000 		.space	7
 145      000000
 146 0038 00000000 		.word	0
 147 003c 00000000 		.word	0
 148 0040 00000000 		.word	0
 149 0044 00000000 		.word	0
 150 0048 00       		.byte	0
 151 0049 00000000 		.space	7
 151      000000
 152              		.section	.rodata.rmw_qos_profile_system_default,"a"
 153              		.align	3
 156              	rmw_qos_profile_system_default:
 157 0000 00000000 		.space	80
 157      00000000 
 157      00000000 
 157      00000000 
 157      00000000 
 158              		.section	.rodata.rmw_qos_profile_unknown,"a"
 159              		.align	3
 162              	rmw_qos_profile_unknown:
 163 0000 03       		.byte	3
 164 0001 000000   		.space	3
 165 0004 00000000 		.word	0
 166 0008 03       		.byte	3
ARM GAS  /tmp/ccCDUTiT.s 			page 4


 167 0009 03       		.byte	3
 168 000a 00000000 		.space	6
 168      0000
 169 0010 00000000 		.word	0
 170 0014 00000000 		.word	0
 171 0018 00000000 		.word	0
 172 001c 00000000 		.word	0
 173 0020 00000000 		.word	0
 174 0024 00000000 		.word	0
 175 0028 00000000 		.word	0
 176 002c 00000000 		.word	0
 177 0030 04       		.byte	4
 178 0031 00000000 		.space	7
 178      000000
 179 0038 00000000 		.word	0
 180 003c 00000000 		.word	0
 181 0040 00000000 		.word	0
 182 0044 00000000 		.word	0
 183 0048 00       		.byte	0
 184 0049 00000000 		.space	7
 184      000000
 185              		.comm	defaultTaskHandle,4,4
 186              		.global	defaultTask_attributes
 187              		.section	.rodata
 188              		.align	2
 189              	.LC0:
 190 0000 64656661 		.ascii	"defaultTask\000"
 190      756C7454 
 190      61736B00 
 191              		.section	.rodata.defaultTask_attributes,"a"
 192              		.align	2
 195              	defaultTask_attributes:
 196 0000 00000000 		.word	.LC0
 197 0004 00000000 		.space	16
 197      00000000 
 197      00000000 
 197      00000000 
 198 0014 70170000 		.word	6000
 199 0018 18000000 		.word	24
 200 001c 00000000 		.space	8
 200      00000000 
 201              		.section	.text.MX_FREERTOS_Init,"ax",%progbits
 202              		.align	1
 203              		.global	MX_FREERTOS_Init
 204              		.arch armv7e-m
 205              		.syntax unified
 206              		.thumb
 207              		.thumb_func
 208              		.fpu fpv4-sp-d16
 210              	MX_FREERTOS_Init:
 211              	.LFB138:
 212              		.file 1 "Core/Src/freertos.c"
   1:Core/Src/freertos.c **** /* USER CODE BEGIN Header */
   2:Core/Src/freertos.c **** /**
   3:Core/Src/freertos.c ****   ******************************************************************************
   4:Core/Src/freertos.c ****   * File Name          : freertos.c
   5:Core/Src/freertos.c ****   * Description        : Code for freertos applications
ARM GAS  /tmp/ccCDUTiT.s 			page 5


   6:Core/Src/freertos.c ****   ******************************************************************************
   7:Core/Src/freertos.c ****   * @attention
   8:Core/Src/freertos.c ****   *
   9:Core/Src/freertos.c ****   * <h2><center>&copy; Copyright (c) 2021 STMicroelectronics.
  10:Core/Src/freertos.c ****   * All rights reserved.</center></h2>
  11:Core/Src/freertos.c ****   *
  12:Core/Src/freertos.c ****   * This software component is licensed by ST under Ultimate Liberty license
  13:Core/Src/freertos.c ****   * SLA0044, the "License"; You may not use this file except in compliance with
  14:Core/Src/freertos.c ****   * the License. You may obtain a copy of the License at:
  15:Core/Src/freertos.c ****   *                             www.st.com/SLA0044
  16:Core/Src/freertos.c ****   *
  17:Core/Src/freertos.c ****   ******************************************************************************
  18:Core/Src/freertos.c ****   */
  19:Core/Src/freertos.c **** /* USER CODE END Header */
  20:Core/Src/freertos.c **** 
  21:Core/Src/freertos.c **** /* Includes ------------------------------------------------------------------*/
  22:Core/Src/freertos.c **** #include "FreeRTOS.h"
  23:Core/Src/freertos.c **** #include "task.h"
  24:Core/Src/freertos.c **** #include "main.h"
  25:Core/Src/freertos.c **** #include "cmsis_os.h"
  26:Core/Src/freertos.c **** 
  27:Core/Src/freertos.c **** /* Private includes ----------------------------------------------------------*/
  28:Core/Src/freertos.c **** /* USER CODE BEGIN Includes */
  29:Core/Src/freertos.c **** #include <stdbool.h>
  30:Core/Src/freertos.c **** #include "allocators.h"
  31:Core/Src/freertos.c **** #include "cmsis_os.h"
  32:Core/Src/freertos.c **** 
  33:Core/Src/freertos.c **** #include <rcl/rcl.h>
  34:Core/Src/freertos.c **** #include <rmw_microxrcedds_c/config.h>
  35:Core/Src/freertos.c **** #include <ucdr/microcdr.h>
  36:Core/Src/freertos.c **** #include <uxr/client/client.h>
  37:Core/Src/freertos.c **** #include <lwip.h>
  38:Core/Src/freertos.c **** #include <stdio.h>
  39:Core/Src/freertos.c **** /* USER CODE END Includes */
  40:Core/Src/freertos.c **** 
  41:Core/Src/freertos.c **** /* Private typedef -----------------------------------------------------------*/
  42:Core/Src/freertos.c **** /* USER CODE BEGIN PTD */
  43:Core/Src/freertos.c **** 
  44:Core/Src/freertos.c **** /* USER CODE END PTD */
  45:Core/Src/freertos.c **** 
  46:Core/Src/freertos.c **** /* Private define ------------------------------------------------------------*/
  47:Core/Src/freertos.c **** /* USER CODE BEGIN PD */
  48:Core/Src/freertos.c **** extern struct netif gnetif;
  49:Core/Src/freertos.c **** /* USER CODE END PD */
  50:Core/Src/freertos.c **** 
  51:Core/Src/freertos.c **** /* Private macro -------------------------------------------------------------*/
  52:Core/Src/freertos.c **** /* USER CODE BEGIN PM */
  53:Core/Src/freertos.c **** 
  54:Core/Src/freertos.c **** /* USER CODE END PM */
  55:Core/Src/freertos.c **** 
  56:Core/Src/freertos.c **** /* Private variables ---------------------------------------------------------*/
  57:Core/Src/freertos.c **** /* USER CODE BEGIN Variables */
  58:Core/Src/freertos.c **** 
  59:Core/Src/freertos.c **** /* USER CODE END Variables */
  60:Core/Src/freertos.c **** /* Definitions for defaultTask */
  61:Core/Src/freertos.c **** osThreadId_t defaultTaskHandle;
  62:Core/Src/freertos.c **** const osThreadAttr_t defaultTask_attributes = {
ARM GAS  /tmp/ccCDUTiT.s 			page 6


  63:Core/Src/freertos.c ****   .name = "defaultTask",
  64:Core/Src/freertos.c ****   .priority = (osPriority_t) osPriorityNormal,
  65:Core/Src/freertos.c ****   .stack_size = 1500 * 4
  66:Core/Src/freertos.c **** };
  67:Core/Src/freertos.c **** 
  68:Core/Src/freertos.c **** /* Private function prototypes -----------------------------------------------*/
  69:Core/Src/freertos.c **** /* USER CODE BEGIN FunctionPrototypes */
  70:Core/Src/freertos.c **** 
  71:Core/Src/freertos.c **** /* USER CODE END FunctionPrototypes */
  72:Core/Src/freertos.c **** 
  73:Core/Src/freertos.c **** void StartDefaultTask(void *argument);
  74:Core/Src/freertos.c **** 
  75:Core/Src/freertos.c **** extern void MX_LWIP_Init(void);
  76:Core/Src/freertos.c **** void MX_FREERTOS_Init(void); /* (MISRA C 2004 rule 8.1) */
  77:Core/Src/freertos.c **** 
  78:Core/Src/freertos.c **** /**
  79:Core/Src/freertos.c ****   * @brief  FreeRTOS initialization
  80:Core/Src/freertos.c ****   * @param  None
  81:Core/Src/freertos.c ****   * @retval None
  82:Core/Src/freertos.c ****   */
  83:Core/Src/freertos.c **** void MX_FREERTOS_Init(void) {
 213              		.loc 1 83 29
 214              		.cfi_startproc
 215              		@ args = 0, pretend = 0, frame = 0
 216              		@ frame_needed = 1, uses_anonymous_args = 0
 217 0000 80B5     		push	{r7, lr}
 218              	.LCFI0:
 219              		.cfi_def_cfa_offset 8
 220              		.cfi_offset 7, -8
 221              		.cfi_offset 14, -4
 222 0002 00AF     		add	r7, sp, #0
 223              	.LCFI1:
 224              		.cfi_def_cfa_register 7
  84:Core/Src/freertos.c ****   /* USER CODE BEGIN Init */
  85:Core/Src/freertos.c **** 
  86:Core/Src/freertos.c ****   /* USER CODE END Init */
  87:Core/Src/freertos.c **** 
  88:Core/Src/freertos.c ****   /* USER CODE BEGIN RTOS_MUTEX */
  89:Core/Src/freertos.c ****   /* add mutexes, ... */
  90:Core/Src/freertos.c ****   /* USER CODE END RTOS_MUTEX */
  91:Core/Src/freertos.c **** 
  92:Core/Src/freertos.c ****   /* USER CODE BEGIN RTOS_SEMAPHORES */
  93:Core/Src/freertos.c ****   /* add semaphores, ... */
  94:Core/Src/freertos.c ****   /* USER CODE END RTOS_SEMAPHORES */
  95:Core/Src/freertos.c **** 
  96:Core/Src/freertos.c ****   /* USER CODE BEGIN RTOS_TIMERS */
  97:Core/Src/freertos.c ****   /* start timers, add new ones, ... */
  98:Core/Src/freertos.c ****   /* USER CODE END RTOS_TIMERS */
  99:Core/Src/freertos.c **** 
 100:Core/Src/freertos.c ****   /* USER CODE BEGIN RTOS_QUEUES */
 101:Core/Src/freertos.c ****   /* add queues, ... */
 102:Core/Src/freertos.c ****   /* USER CODE END RTOS_QUEUES */
 103:Core/Src/freertos.c **** 
 104:Core/Src/freertos.c ****   /* Create the thread(s) */
 105:Core/Src/freertos.c ****   /* creation of defaultTask */
 106:Core/Src/freertos.c ****   defaultTaskHandle = osThreadNew(StartDefaultTask, NULL, &defaultTask_attributes);
 225              		.loc 1 106 23
ARM GAS  /tmp/ccCDUTiT.s 			page 7


 226 0004 044A     		ldr	r2, .L2
 227 0006 0021     		movs	r1, #0
 228 0008 0448     		ldr	r0, .L2+4
 229 000a FFF7FEFF 		bl	osThreadNew
 230 000e 0246     		mov	r2, r0
 231              		.loc 1 106 21
 232 0010 034B     		ldr	r3, .L2+8
 233 0012 1A60     		str	r2, [r3]
 107:Core/Src/freertos.c **** 
 108:Core/Src/freertos.c ****   /* USER CODE BEGIN RTOS_THREADS */
 109:Core/Src/freertos.c ****   /* add threads, ... */
 110:Core/Src/freertos.c ****   /* USER CODE END RTOS_THREADS */
 111:Core/Src/freertos.c **** 
 112:Core/Src/freertos.c ****   /* USER CODE BEGIN RTOS_EVENTS */
 113:Core/Src/freertos.c ****   /* add events, ... */
 114:Core/Src/freertos.c ****   /* USER CODE END RTOS_EVENTS */
 115:Core/Src/freertos.c **** 
 116:Core/Src/freertos.c **** }
 234              		.loc 1 116 1
 235 0014 00BF     		nop
 236 0016 80BD     		pop	{r7, pc}
 237              	.L3:
 238              		.align	2
 239              	.L2:
 240 0018 00000000 		.word	defaultTask_attributes
 241 001c 00000000 		.word	StartDefaultTask
 242 0020 00000000 		.word	defaultTaskHandle
 243              		.cfi_endproc
 244              	.LFE138:
 246              		.section	.rodata
 247              		.align	2
 248              	.LC1:
 249 000c 656E6469 		.ascii	"endif----- \015\000"
 249      662D2D2D 
 249      2D2D200D 
 249      00
 250 0019 000000   		.align	2
 251              	.LC2:
 252 001c 4572726F 		.ascii	"Error on default allocators (line %d)\012\000"
 252      72206F6E 
 252      20646566 
 252      61756C74 
 252      20616C6C 
 253 0043 00       		.align	2
 254              	.LC3:
 255 0044 66726565 		.ascii	"freeRTOS allocator success \015\000"
 255      52544F53 
 255      20616C6C 
 255      6F636174 
 255      6F722073 
 256 0061 000000   		.align	2
 257              	.LC4:
 258 0064 2A2A2A2A 		.ascii	"**********************************\000"
 258      2A2A2A2A 
 258      2A2A2A2A 
 258      2A2A2A2A 
 258      2A2A2A2A 
ARM GAS  /tmp/ccCDUTiT.s 			page 8


 259 0087 00       		.align	2
 260              	.LC5:
 261 0088 5461736B 		.ascii	"Task  State   Prio    Stack    Num\000"
 261      20205374 
 261      61746520 
 261      20205072 
 261      696F2020 
 262 00ab 00       		.align	2
 263              	.LC6:
 264 00ac 6D696372 		.ascii	"microROS_app\000"
 264      6F524F53 
 264      5F617070 
 264      00
 265 00b9 000000   		.align	2
 266              	.LC7:
 267 00bc 696E746F 		.ascii	"into the printf \015\000"
 267      20746865 
 267      20707269 
 267      6E746620 
 267      0D00
 268 00ce 0000     		.align	2
 269              	.LC8:
 270 00d0 61766169 		.ascii	"available \015\000"
 270      6C61626C 
 270      65200D00 
 271              		.align	2
 272              	.LC9:
 273 00dc 6E6F7420 		.ascii	"not available \015\000"
 273      61766169 
 273      6C61626C 
 273      65200D00 
 274              		.section	.text.StartDefaultTask,"ax",%progbits
 275              		.align	1
 276              		.global	StartDefaultTask
 277              		.syntax unified
 278              		.thumb
 279              		.thumb_func
 280              		.fpu fpv4-sp-d16
 282              	StartDefaultTask:
 283              	.LFB139:
 117:Core/Src/freertos.c **** 
 118:Core/Src/freertos.c **** /* USER CODE BEGIN Header_StartDefaultTask */
 119:Core/Src/freertos.c **** /**
 120:Core/Src/freertos.c ****   * @brief  Function implementing the defaultTask thread.
 121:Core/Src/freertos.c ****   * @param  argument: Not used
 122:Core/Src/freertos.c ****   * @retval None
 123:Core/Src/freertos.c ****   */
 124:Core/Src/freertos.c **** /* USER CODE END Header_StartDefaultTask */
 125:Core/Src/freertos.c **** void StartDefaultTask(void *argument)
 126:Core/Src/freertos.c **** {
 284              		.loc 1 126 1
 285              		.cfi_startproc
 286              		@ args = 0, pretend = 0, frame = 576
 287              		@ frame_needed = 1, uses_anonymous_args = 0
 288 0000 80B5     		push	{r7, lr}
 289              	.LCFI2:
 290              		.cfi_def_cfa_offset 8
ARM GAS  /tmp/ccCDUTiT.s 			page 9


 291              		.cfi_offset 7, -8
 292              		.cfi_offset 14, -4
 293 0002 ADF5107D 		sub	sp, sp, #576
 294              	.LCFI3:
 295              		.cfi_def_cfa_offset 584
 296 0006 00AF     		add	r7, sp, #0
 297              	.LCFI4:
 298              		.cfi_def_cfa_register 7
 299 0008 3B1D     		adds	r3, r7, #4
 300 000a 1860     		str	r0, [r3]
 127:Core/Src/freertos.c ****   /* init code for LWIP */
 128:Core/Src/freertos.c ****   MX_LWIP_Init();
 301              		.loc 1 128 3
 302 000c FFF7FEFF 		bl	MX_LWIP_Init
 129:Core/Src/freertos.c ****   /* USER CODE BEGIN StartDefaultTask */
 130:Core/Src/freertos.c ****   /* Infinite loop */
 131:Core/Src/freertos.c ****   HAL_GPIO_WritePin(GPIOF, GPIO_PIN_9, GPIO_PIN_SET);
 303              		.loc 1 131 3
 304 0010 0122     		movs	r2, #1
 305 0012 4FF40071 		mov	r1, #512
 306 0016 6148     		ldr	r0, .L10
 307 0018 FFF7FEFF 		bl	HAL_GPIO_WritePin
 132:Core/Src/freertos.c ****   bool availableNetwork = false;
 308              		.loc 1 132 8
 309 001c 0023     		movs	r3, #0
 310 001e 87F83F32 		strb	r3, [r7, #575]
 133:Core/Src/freertos.c **** 
 134:Core/Src/freertos.c **** 
 135:Core/Src/freertos.c **** #ifdef MICRO_XRCEDDS_CUSTOM_SERIAL 
 136:Core/Src/freertos.c ****   availableNetwork = true;
 137:Core/Src/freertos.c ****   printf("MICRO_XRCEDDS_CUSTOM_SERIAL \r\n");
 138:Core/Src/freertos.c **** #elif defined(MICRO_XRCEDDS_UDP)
 139:Core/Src/freertos.c ****   printf("Ethernet Initialization \r\n");
 140:Core/Src/freertos.c **** 
 141:Core/Src/freertos.c ****   printf("Waiting for IP \r\n");
 142:Core/Src/freertos.c ****   int retries = 0;
 143:Core/Src/freertos.c ****   
 144:Core/Src/freertos.c ****   HAL_GPIO_WritePin(GPIOF, GPIO_PIN_10, GPIO_PIN_SET);
 145:Core/Src/freertos.c **** 
 146:Core/Src/freertos.c ****   while(gnetif.ip_addr.addr == 0 && retries < 10){
 147:Core/Src/freertos.c ****   	HAL_GPIO_WritePin(GPIOF, GPIO_PIN_10, GPIO_PIN_SET);
 148:Core/Src/freertos.c **** 	osDelay(500);
 149:Core/Src/freertos.c **** 	HAL_GPIO_WritePin(GPIOF, GPIO_PIN_10, GPIO_PIN_RESET);
 150:Core/Src/freertos.c **** 	retries++;
 151:Core/Src/freertos.c ****   };
 152:Core/Src/freertos.c **** 
 153:Core/Src/freertos.c ****   HAL_GPIO_WritePin(GPIOF, GPIO_PIN_9, GPIO_PIN_RESET);
 154:Core/Src/freertos.c **** 
 155:Core/Src/freertos.c ****   availableNetwork = (gnetif.ip_addr.addr != 0);
 156:Core/Src/freertos.c ****   if(availableNetwork){
 157:Core/Src/freertos.c ****   	printf("IP: %s \r\n", ip4addr_ntoa(&(gnetif.ip_addr)));
 158:Core/Src/freertos.c ****   } else {
 159:Core/Src/freertos.c ****   	printf("Impossible to retrieve an IP \n");
 160:Core/Src/freertos.c ****   }
 161:Core/Src/freertos.c **** #endif
 162:Core/Src/freertos.c ****   printf("endif----- \r\n");
 311              		.loc 1 162 3
ARM GAS  /tmp/ccCDUTiT.s 			page 10


 312 0022 5F48     		ldr	r0, .L10+4
 313 0024 FFF7FEFF 		bl	puts
 163:Core/Src/freertos.c **** 
 164:Core/Src/freertos.c ****   rcl_allocator_t freeRTOS_allocator = rcutils_get_zero_initialized_allocator();
 314              		.loc 1 164 40
 315 0028 07F50973 		add	r3, r7, #548
 316 002c 1846     		mov	r0, r3
 317 002e FFF7FEFF 		bl	rcutils_get_zero_initialized_allocator
 165:Core/Src/freertos.c ****   freeRTOS_allocator.allocate = __freertos_allocate;
 318              		.loc 1 165 31
 319 0032 5C4B     		ldr	r3, .L10+8
 320 0034 C7F82432 		str	r3, [r7, #548]
 166:Core/Src/freertos.c ****   freeRTOS_allocator.deallocate = __freertos_deallocate;
 321              		.loc 1 166 33
 322 0038 5B4B     		ldr	r3, .L10+12
 323 003a C7F82832 		str	r3, [r7, #552]
 167:Core/Src/freertos.c ****   freeRTOS_allocator.reallocate = __freertos_reallocate;
 324              		.loc 1 167 33
 325 003e 5B4B     		ldr	r3, .L10+16
 326 0040 C7F82C32 		str	r3, [r7, #556]
 168:Core/Src/freertos.c ****   freeRTOS_allocator.zero_allocate = __freertos_zero_allocate;
 327              		.loc 1 168 36
 328 0044 5A4B     		ldr	r3, .L10+20
 329 0046 C7F83032 		str	r3, [r7, #560]
 169:Core/Src/freertos.c ****   
 170:Core/Src/freertos.c ****   if(!rcutils_set_default_allocator(&freeRTOS_allocator)){
 330              		.loc 1 170 7
 331 004a 07F50973 		add	r3, r7, #548
 332 004e 1846     		mov	r0, r3
 333 0050 FFF7FEFF 		bl	rcutils_set_default_allocator
 334 0054 0346     		mov	r3, r0
 335              		.loc 1 170 6
 336 0056 83F00103 		eor	r3, r3, #1
 337 005a DBB2     		uxtb	r3, r3
 338              		.loc 1 170 5
 339 005c 002B     		cmp	r3, #0
 340 005e 04D0     		beq	.L5
 171:Core/Src/freertos.c ****   	printf("Error on default allocators (line %d)\n", __LINE__);
 341              		.loc 1 171 4
 342 0060 AB21     		movs	r1, #171
 343 0062 5448     		ldr	r0, .L10+24
 344 0064 FFF7FEFF 		bl	printf
 345 0068 02E0     		b	.L6
 346              	.L5:
 172:Core/Src/freertos.c ****   }
 173:Core/Src/freertos.c ****   else {
 174:Core/Src/freertos.c ****   	printf("freeRTOS allocator success \r\n");
 347              		.loc 1 174 4
 348 006a 5348     		ldr	r0, .L10+28
 349 006c FFF7FEFF 		bl	puts
 350              	.L6:
 175:Core/Src/freertos.c ****   }
 176:Core/Src/freertos.c **** 
 177:Core/Src/freertos.c ****   osThreadAttr_t attributes;
 178:Core/Src/freertos.c ****   memset(&attributes, 0x0, sizeof(osThreadAttr_t));
 351              		.loc 1 178 3
 352 0070 07F50073 		add	r3, r7, #512
ARM GAS  /tmp/ccCDUTiT.s 			page 11


 353 0074 2422     		movs	r2, #36
 354 0076 0021     		movs	r1, #0
 355 0078 1846     		mov	r0, r3
 356 007a FFF7FEFF 		bl	memset
 179:Core/Src/freertos.c ****   attributes.stack_size = 5 * 3000;
 357              		.loc 1 179 25
 358 007e 43F69823 		movw	r3, #15000
 359 0082 C7F81432 		str	r3, [r7, #532]
 180:Core/Src/freertos.c ****   attributes.priority = (osPriority_t)osPriorityNormal1;
 360              		.loc 1 180 23
 361 0086 1923     		movs	r3, #25
 362 0088 C7F81832 		str	r3, [r7, #536]
 181:Core/Src/freertos.c ****   osThreadNew(appMain, NULL, &attributes);
 363              		.loc 1 181 3
 364 008c 07F50073 		add	r3, r7, #512
 365 0090 1A46     		mov	r2, r3
 366 0092 0021     		movs	r1, #0
 367 0094 4948     		ldr	r0, .L10+32
 368 0096 FFF7FEFF 		bl	osThreadNew
 182:Core/Src/freertos.c ****   osDelay(500);
 369              		.loc 1 182 3
 370 009a 4FF4FA70 		mov	r0, #500
 371 009e FFF7FEFF 		bl	osDelay
 183:Core/Src/freertos.c ****   char ptrTaskList[500];
 184:Core/Src/freertos.c ****   vTaskList(ptrTaskList);
 372              		.loc 1 184 3
 373 00a2 07F10C03 		add	r3, r7, #12
 374 00a6 1846     		mov	r0, r3
 375 00a8 FFF7FEFF 		bl	vTaskList
 185:Core/Src/freertos.c ****   printf("**********************************\n");
 376              		.loc 1 185 3
 377 00ac 4448     		ldr	r0, .L10+36
 378 00ae FFF7FEFF 		bl	puts
 186:Core/Src/freertos.c ****   printf("Task  State   Prio    Stack    Num\n");
 379              		.loc 1 186 3
 380 00b2 4448     		ldr	r0, .L10+40
 381 00b4 FFF7FEFF 		bl	puts
 187:Core/Src/freertos.c ****   printf("**********************************\n");
 382              		.loc 1 187 3
 383 00b8 4148     		ldr	r0, .L10+36
 384 00ba FFF7FEFF 		bl	puts
 188:Core/Src/freertos.c ****   printf(ptrTaskList);
 385              		.loc 1 188 3
 386 00be 07F10C03 		add	r3, r7, #12
 387 00c2 1846     		mov	r0, r3
 388 00c4 FFF7FEFF 		bl	printf
 189:Core/Src/freertos.c ****   printf("**********************************\n");
 389              		.loc 1 189 3
 390 00c8 3D48     		ldr	r0, .L10+36
 391 00ca FFF7FEFF 		bl	puts
 190:Core/Src/freertos.c **** 
 191:Core/Src/freertos.c ****   TaskHandle_t xHandle;
 192:Core/Src/freertos.c ****   xHandle = xTaskGetHandle("microROS_app");
 392              		.loc 1 192 13
 393 00ce 3E48     		ldr	r0, .L10+44
 394 00d0 FFF7FEFF 		bl	xTaskGetHandle
 395 00d4 C7F83802 		str	r0, [r7, #568]
ARM GAS  /tmp/ccCDUTiT.s 			page 12


 396              	.L9:
 193:Core/Src/freertos.c **** 
 194:Core/Src/freertos.c ****   for(;;)
 195:Core/Src/freertos.c ****   {
 196:Core/Src/freertos.c ****     printf("into the printf \r\n");
 397              		.loc 1 196 5
 398 00d8 3C48     		ldr	r0, .L10+48
 399 00da FFF7FEFF 		bl	puts
 197:Core/Src/freertos.c ****     if (eTaskGetState(xHandle) != eSuspended && availableNetwork)
 400              		.loc 1 197 9
 401 00de D7F83802 		ldr	r0, [r7, #568]
 402 00e2 FFF7FEFF 		bl	eTaskGetState
 403 00e6 0346     		mov	r3, r0
 404              		.loc 1 197 8
 405 00e8 032B     		cmp	r3, #3
 406 00ea 2BD0     		beq	.L7
 407              		.loc 1 197 46 discriminator 1
 408 00ec 97F83F32 		ldrb	r3, [r7, #575]	@ zero_extendqisi2
 409 00f0 002B     		cmp	r3, #0
 410 00f2 27D0     		beq	.L7
 198:Core/Src/freertos.c ****     //if(1)
 199:Core/Src/freertos.c ****     {
 200:Core/Src/freertos.c ****     	HAL_GPIO_WritePin(GPIOF, GPIO_PIN_10, GPIO_PIN_SET);    
 411              		.loc 1 200 6
 412 00f4 0122     		movs	r2, #1
 413 00f6 4FF48061 		mov	r1, #1024
 414 00fa 2848     		ldr	r0, .L10
 415 00fc FFF7FEFF 		bl	HAL_GPIO_WritePin
 201:Core/Src/freertos.c **** 	osDelay(150);
 416              		.loc 1 201 2
 417 0100 9620     		movs	r0, #150
 418 0102 FFF7FEFF 		bl	osDelay
 202:Core/Src/freertos.c **** 	HAL_GPIO_WritePin(GPIOF, GPIO_PIN_10, GPIO_PIN_RESET);
 419              		.loc 1 202 2
 420 0106 0022     		movs	r2, #0
 421 0108 4FF48061 		mov	r1, #1024
 422 010c 2348     		ldr	r0, .L10
 423 010e FFF7FEFF 		bl	HAL_GPIO_WritePin
 203:Core/Src/freertos.c **** 	osDelay(150);	
 424              		.loc 1 203 2
 425 0112 9620     		movs	r0, #150
 426 0114 FFF7FEFF 		bl	osDelay
 204:Core/Src/freertos.c **** 	HAL_GPIO_WritePin(GPIOF, GPIO_PIN_9, GPIO_PIN_SET);    
 427              		.loc 1 204 2
 428 0118 0122     		movs	r2, #1
 429 011a 4FF40071 		mov	r1, #512
 430 011e 1F48     		ldr	r0, .L10
 431 0120 FFF7FEFF 		bl	HAL_GPIO_WritePin
 205:Core/Src/freertos.c **** 	osDelay(150);
 432              		.loc 1 205 2
 433 0124 9620     		movs	r0, #150
 434 0126 FFF7FEFF 		bl	osDelay
 206:Core/Src/freertos.c **** 	HAL_GPIO_WritePin(GPIOF, GPIO_PIN_9, GPIO_PIN_RESET);
 435              		.loc 1 206 2
 436 012a 0022     		movs	r2, #0
 437 012c 4FF40071 		mov	r1, #512
 438 0130 1A48     		ldr	r0, .L10
ARM GAS  /tmp/ccCDUTiT.s 			page 13


 439 0132 FFF7FEFF 		bl	HAL_GPIO_WritePin
 207:Core/Src/freertos.c **** 	osDelay(150);
 440              		.loc 1 207 2
 441 0136 9620     		movs	r0, #150
 442 0138 FFF7FEFF 		bl	osDelay
 208:Core/Src/freertos.c **** 	printf("available \r\n");
 443              		.loc 1 208 2
 444 013c 2448     		ldr	r0, .L10+52
 445 013e FFF7FEFF 		bl	puts
 446 0142 2AE0     		b	.L8
 447              	.L7:
 209:Core/Src/freertos.c ****     }
 210:Core/Src/freertos.c ****     else {
 211:Core/Src/freertos.c ****         HAL_GPIO_WritePin(GPIOF, GPIO_PIN_10, GPIO_PIN_SET);    
 448              		.loc 1 211 9
 449 0144 0122     		movs	r2, #1
 450 0146 4FF48061 		mov	r1, #1024
 451 014a 1448     		ldr	r0, .L10
 452 014c FFF7FEFF 		bl	HAL_GPIO_WritePin
 212:Core/Src/freertos.c **** 	osDelay(1000);
 453              		.loc 1 212 2
 454 0150 4FF47A70 		mov	r0, #1000
 455 0154 FFF7FEFF 		bl	osDelay
 213:Core/Src/freertos.c **** 	HAL_GPIO_WritePin(GPIOF, GPIO_PIN_10, GPIO_PIN_RESET);
 456              		.loc 1 213 2
 457 0158 0022     		movs	r2, #0
 458 015a 4FF48061 		mov	r1, #1024
 459 015e 0F48     		ldr	r0, .L10
 460 0160 FFF7FEFF 		bl	HAL_GPIO_WritePin
 214:Core/Src/freertos.c **** 	osDelay(1000);	
 461              		.loc 1 214 2
 462 0164 4FF47A70 		mov	r0, #1000
 463 0168 FFF7FEFF 		bl	osDelay
 215:Core/Src/freertos.c **** 	HAL_GPIO_WritePin(GPIOF, GPIO_PIN_9, GPIO_PIN_SET);    
 464              		.loc 1 215 2
 465 016c 0122     		movs	r2, #1
 466 016e 4FF40071 		mov	r1, #512
 467 0172 0A48     		ldr	r0, .L10
 468 0174 FFF7FEFF 		bl	HAL_GPIO_WritePin
 216:Core/Src/freertos.c **** 	osDelay(1000);
 469              		.loc 1 216 2
 470 0178 4FF47A70 		mov	r0, #1000
 471 017c FFF7FEFF 		bl	osDelay
 217:Core/Src/freertos.c **** 	HAL_GPIO_WritePin(GPIOF, GPIO_PIN_9, GPIO_PIN_RESET);
 472              		.loc 1 217 2
 473 0180 0022     		movs	r2, #0
 474 0182 4FF40071 		mov	r1, #512
 475 0186 0548     		ldr	r0, .L10
 476 0188 FFF7FEFF 		bl	HAL_GPIO_WritePin
 218:Core/Src/freertos.c **** 	osDelay(1000);
 477              		.loc 1 218 2
 478 018c 4FF47A70 		mov	r0, #1000
 479 0190 FFF7FEFF 		bl	osDelay
 219:Core/Src/freertos.c **** 	printf("not available \r\n");
 480              		.loc 1 219 2
 481 0194 0F48     		ldr	r0, .L10+56
 482 0196 FFF7FEFF 		bl	puts
ARM GAS  /tmp/ccCDUTiT.s 			page 14


 483              	.L8:
 196:Core/Src/freertos.c ****     if (eTaskGetState(xHandle) != eSuspended && availableNetwork)
 484              		.loc 1 196 5
 485 019a 9DE7     		b	.L9
 486              	.L11:
 487              		.align	2
 488              	.L10:
 489 019c 00140240 		.word	1073878016
 490 01a0 0C000000 		.word	.LC1
 491 01a4 00000000 		.word	__freertos_allocate
 492 01a8 00000000 		.word	__freertos_deallocate
 493 01ac 00000000 		.word	__freertos_reallocate
 494 01b0 00000000 		.word	__freertos_zero_allocate
 495 01b4 1C000000 		.word	.LC2
 496 01b8 44000000 		.word	.LC3
 497 01bc 00000000 		.word	appMain
 498 01c0 64000000 		.word	.LC4
 499 01c4 88000000 		.word	.LC5
 500 01c8 AC000000 		.word	.LC6
 501 01cc BC000000 		.word	.LC7
 502 01d0 D0000000 		.word	.LC8
 503 01d4 DC000000 		.word	.LC9
 504              		.cfi_endproc
 505              	.LFE139:
 507              		.text
 508              	.Letext0:
 509              		.file 2 "/home/mego-ros2/microros_ws/firmware/toolchain/lib/gcc/arm-none-eabi/8.3.1/include/stddef
 510              		.file 3 "/home/mego-ros2/microros_ws/firmware/toolchain/arm-none-eabi/include/machine/_default_typ
 511              		.file 4 "/home/mego-ros2/microros_ws/firmware/toolchain/arm-none-eabi/include/sys/_stdint.h"
 512              		.file 5 "Middlewares/Third_Party/FreeRTOS/Source/include/task.h"
 513              		.file 6 "Core/Inc/FreeRTOSConfig.h"
 514              		.file 7 "Drivers/CMSIS/Include/core_cm4.h"
 515              		.file 8 "Drivers/CMSIS/Device/ST/STM32F4xx/Include/system_stm32f4xx.h"
 516              		.file 9 "Drivers/CMSIS/Device/ST/STM32F4xx/Include/stm32f407xx.h"
 517              		.file 10 "Drivers/STM32F4xx_HAL_Driver/Inc/stm32f4xx_hal_def.h"
 518              		.file 11 "Drivers/STM32F4xx_HAL_Driver/Inc/stm32f4xx_hal_gpio.h"
 519              		.file 12 "Drivers/STM32F4xx_HAL_Driver/Inc/stm32f4xx_hal_dma.h"
 520              		.file 13 "Drivers/STM32F4xx_HAL_Driver/Inc/stm32f4xx_hal_eth.h"
 521              		.file 14 "Drivers/STM32F4xx_HAL_Driver/Inc/stm32f4xx_hal_uart.h"
 522              		.file 15 "Drivers/STM32F4xx_HAL_Driver/Inc/stm32f4xx_hal.h"
 523              		.file 16 "Middlewares/Third_Party/FreeRTOS/Source/CMSIS_RTOS_V2/cmsis_os2.h"
 524              		.file 17 "/home/mego-ros2/microros_ws/firmware/toolchain/arm-none-eabi/include/sys/_types.h"
 525              		.file 18 "/home/mego-ros2/microros_ws/firmware/toolchain/arm-none-eabi/include/sys/reent.h"
 526              		.file 19 "/home/mego-ros2/microros_ws/firmware/toolchain/arm-none-eabi/include/sys/lock.h"
 527              		.file 20 "/home/mego-ros2/microros_ws/firmware/toolchain/arm-none-eabi/include/stdlib.h"
 528              		.file 21 "Core/Inc/allocators.h"
 529              		.file 22 "/home/mego-ros2/microros_ws/firmware/freertos_apps/stm32MakefileTest/../../mcu_ws/instal
 530              		.file 23 "/home/mego-ros2/microros_ws/firmware/freertos_apps/stm32MakefileTest/../../mcu_ws/instal
 531              		.file 24 "/home/mego-ros2/microros_ws/firmware/toolchain/lib/gcc/arm-none-eabi/8.3.1/include/stdar
 532              		.file 25 "/home/mego-ros2/microros_ws/firmware/freertos_apps/stm32MakefileTest/../../mcu_ws/instal
 533              		.file 26 "/home/mego-ros2/microros_ws/firmware/freertos_apps/stm32MakefileTest/../../mcu_ws/instal
 534              		.file 27 "/home/mego-ros2/microros_ws/firmware/freertos_apps/stm32MakefileTest/../../mcu_ws/instal
 535              		.file 28 "/home/mego-ros2/microros_ws/firmware/freertos_apps/stm32MakefileTest/../../mcu_ws/instal
 536              		.file 29 "/home/mego-ros2/microros_ws/firmware/freertos_apps/stm32MakefileTest/../../mcu_ws/instal
 537              		.file 30 "/home/mego-ros2/microros_ws/firmware/freertos_apps/stm32MakefileTest/../../mcu_ws/instal
 538              		.file 31 "Middlewares/Third_Party/LwIP/src/include/lwip/arch.h"
 539              		.file 32 "/home/mego-ros2/microros_ws/firmware/toolchain/arm-none-eabi/include/ctype.h"
ARM GAS  /tmp/ccCDUTiT.s 			page 15


 540              		.file 33 "Middlewares/Third_Party/LwIP/src/include/lwip/memp.h"
 541              		.file 34 "Middlewares/Third_Party/LwIP/src/include/lwip/priv/memp_priv.h"
 542              		.file 35 "Middlewares/Third_Party/LwIP/src/include/lwip/err.h"
 543              		.file 36 "Middlewares/Third_Party/LwIP/src/include/lwip/pbuf.h"
 544              		.file 37 "Middlewares/Third_Party/LwIP/src/include/lwip/ip4_addr.h"
 545              		.file 38 "Middlewares/Third_Party/LwIP/src/include/lwip/ip_addr.h"
 546              		.file 39 "Middlewares/Third_Party/LwIP/src/include/lwip/netif.h"
 547              		.file 40 "Middlewares/Third_Party/LwIP/src/include/lwip/prot/ip4.h"
 548              		.file 41 "Middlewares/Third_Party/LwIP/src/include/lwip/prot/ethernet.h"
 549              		.file 42 "Middlewares/Third_Party/LwIP/src/include/netif/ethernet.h"
 550              		.file 43 "Middlewares/Third_Party/LwIP/src/include/lwip/ip.h"
 551              		.file 44 "Middlewares/Third_Party/LwIP/src/include/lwip/udp.h"
 552              		.file 45 "Middlewares/Third_Party/LwIP/system/arch/sys_arch.h"
 553              		.file 46 "Middlewares/Third_Party/LwIP/src/include/lwip/timeouts.h"
 554              		.file 47 "Middlewares/Third_Party/LwIP/src/include/lwip/tcpip.h"
 555              		.file 48 "LWIP/App/lwip.h"
 556              		.file 49 "<built-in>"
ARM GAS  /tmp/ccCDUTiT.s 			page 16


DEFINED SYMBOLS
                            *ABS*:0000000000000000 freertos.c
     /tmp/ccCDUTiT.s:18     .rodata.rmw_qos_profile_sensor_data:0000000000000000 $d
     /tmp/ccCDUTiT.s:21     .rodata.rmw_qos_profile_sensor_data:0000000000000000 rmw_qos_profile_sensor_data
     /tmp/ccCDUTiT.s:45     .rodata.rmw_qos_profile_parameters:0000000000000000 $d
     /tmp/ccCDUTiT.s:48     .rodata.rmw_qos_profile_parameters:0000000000000000 rmw_qos_profile_parameters
     /tmp/ccCDUTiT.s:72     .rodata.rmw_qos_profile_default:0000000000000000 $d
     /tmp/ccCDUTiT.s:75     .rodata.rmw_qos_profile_default:0000000000000000 rmw_qos_profile_default
     /tmp/ccCDUTiT.s:99     .rodata.rmw_qos_profile_services_default:0000000000000000 $d
     /tmp/ccCDUTiT.s:102    .rodata.rmw_qos_profile_services_default:0000000000000000 rmw_qos_profile_services_default
     /tmp/ccCDUTiT.s:126    .rodata.rmw_qos_profile_parameter_events:0000000000000000 $d
     /tmp/ccCDUTiT.s:129    .rodata.rmw_qos_profile_parameter_events:0000000000000000 rmw_qos_profile_parameter_events
     /tmp/ccCDUTiT.s:153    .rodata.rmw_qos_profile_system_default:0000000000000000 $d
     /tmp/ccCDUTiT.s:156    .rodata.rmw_qos_profile_system_default:0000000000000000 rmw_qos_profile_system_default
     /tmp/ccCDUTiT.s:159    .rodata.rmw_qos_profile_unknown:0000000000000000 $d
     /tmp/ccCDUTiT.s:162    .rodata.rmw_qos_profile_unknown:0000000000000000 rmw_qos_profile_unknown
                            *COM*:0000000000000004 defaultTaskHandle
     /tmp/ccCDUTiT.s:195    .rodata.defaultTask_attributes:0000000000000000 defaultTask_attributes
     /tmp/ccCDUTiT.s:188    .rodata:0000000000000000 $d
     /tmp/ccCDUTiT.s:192    .rodata.defaultTask_attributes:0000000000000000 $d
     /tmp/ccCDUTiT.s:202    .text.MX_FREERTOS_Init:0000000000000000 $t
     /tmp/ccCDUTiT.s:210    .text.MX_FREERTOS_Init:0000000000000000 MX_FREERTOS_Init
     /tmp/ccCDUTiT.s:240    .text.MX_FREERTOS_Init:0000000000000018 $d
     /tmp/ccCDUTiT.s:282    .text.StartDefaultTask:0000000000000000 StartDefaultTask
     /tmp/ccCDUTiT.s:275    .text.StartDefaultTask:0000000000000000 $t
     /tmp/ccCDUTiT.s:489    .text.StartDefaultTask:000000000000019c $d

UNDEFINED SYMBOLS
osThreadNew
MX_LWIP_Init
HAL_GPIO_WritePin
puts
rcutils_get_zero_initialized_allocator
rcutils_set_default_allocator
printf
memset
osDelay
vTaskList
xTaskGetHandle
eTaskGetState
__freertos_allocate
__freertos_deallocate
__freertos_reallocate
__freertos_zero_allocate
appMain
