ARM GAS  /tmp/ccixZ1i5.s 			page 1


   1              		.cpu cortex-m4
   2              		.eabi_attribute 27, 1
   3              		.eabi_attribute 28, 1
   4              		.eabi_attribute 20, 1
   5              		.eabi_attribute 21, 1
   6              		.eabi_attribute 23, 3
   7              		.eabi_attribute 24, 1
   8              		.eabi_attribute 25, 1
   9              		.eabi_attribute 26, 1
  10              		.eabi_attribute 30, 6
  11              		.eabi_attribute 34, 1
  12              		.eabi_attribute 18, 4
  13              		.file	"gpio.c"
  14              		.text
  15              	.Ltext0:
  16              		.cfi_sections	.debug_frame
  17              		.section	.text.MX_GPIO_Init,"ax",%progbits
  18              		.align	1
  19              		.global	MX_GPIO_Init
  20              		.arch armv7e-m
  21              		.syntax unified
  22              		.thumb
  23              		.thumb_func
  24              		.fpu fpv4-sp-d16
  26              	MX_GPIO_Init:
  27              	.LFB130:
  28              		.file 1 "Core/Src/gpio.c"
   1:Core/Src/gpio.c **** /**
   2:Core/Src/gpio.c ****   ******************************************************************************
   3:Core/Src/gpio.c ****   * @file    gpio.c
   4:Core/Src/gpio.c ****   * @brief   This file provides code for the configuration
   5:Core/Src/gpio.c ****   *          of all used GPIO pins.
   6:Core/Src/gpio.c ****   ******************************************************************************
   7:Core/Src/gpio.c ****   * @attention
   8:Core/Src/gpio.c ****   *
   9:Core/Src/gpio.c ****   * <h2><center>&copy; Copyright (c) 2021 STMicroelectronics.
  10:Core/Src/gpio.c ****   * All rights reserved.</center></h2>
  11:Core/Src/gpio.c ****   *
  12:Core/Src/gpio.c ****   * This software component is licensed by ST under Ultimate Liberty license
  13:Core/Src/gpio.c ****   * SLA0044, the "License"; You may not use this file except in compliance with
  14:Core/Src/gpio.c ****   * the License. You may obtain a copy of the License at:
  15:Core/Src/gpio.c ****   *                             www.st.com/SLA0044
  16:Core/Src/gpio.c ****   *
  17:Core/Src/gpio.c ****   ******************************************************************************
  18:Core/Src/gpio.c ****   */
  19:Core/Src/gpio.c **** 
  20:Core/Src/gpio.c **** /* Includes ------------------------------------------------------------------*/
  21:Core/Src/gpio.c **** #include "gpio.h"
  22:Core/Src/gpio.c **** 
  23:Core/Src/gpio.c **** /* USER CODE BEGIN 0 */
  24:Core/Src/gpio.c **** 
  25:Core/Src/gpio.c **** /* USER CODE END 0 */
  26:Core/Src/gpio.c **** 
  27:Core/Src/gpio.c **** /*----------------------------------------------------------------------------*/
  28:Core/Src/gpio.c **** /* Configure GPIO                                                             */
  29:Core/Src/gpio.c **** /*----------------------------------------------------------------------------*/
  30:Core/Src/gpio.c **** /* USER CODE BEGIN 1 */
ARM GAS  /tmp/ccixZ1i5.s 			page 2


  31:Core/Src/gpio.c **** 
  32:Core/Src/gpio.c **** /* USER CODE END 1 */
  33:Core/Src/gpio.c **** 
  34:Core/Src/gpio.c **** /** Configure pins
  35:Core/Src/gpio.c **** */
  36:Core/Src/gpio.c **** void MX_GPIO_Init(void)
  37:Core/Src/gpio.c **** {
  29              		.loc 1 37 1
  30              		.cfi_startproc
  31              		@ args = 0, pretend = 0, frame = 40
  32              		@ frame_needed = 1, uses_anonymous_args = 0
  33 0000 80B5     		push	{r7, lr}
  34              	.LCFI0:
  35              		.cfi_def_cfa_offset 8
  36              		.cfi_offset 7, -8
  37              		.cfi_offset 14, -4
  38 0002 8AB0     		sub	sp, sp, #40
  39              	.LCFI1:
  40              		.cfi_def_cfa_offset 48
  41 0004 00AF     		add	r7, sp, #0
  42              	.LCFI2:
  43              		.cfi_def_cfa_register 7
  38:Core/Src/gpio.c **** 
  39:Core/Src/gpio.c ****   GPIO_InitTypeDef GPIO_InitStruct = {0};
  44              		.loc 1 39 20
  45 0006 07F11403 		add	r3, r7, #20
  46 000a 0022     		movs	r2, #0
  47 000c 1A60     		str	r2, [r3]
  48 000e 5A60     		str	r2, [r3, #4]
  49 0010 9A60     		str	r2, [r3, #8]
  50 0012 DA60     		str	r2, [r3, #12]
  51 0014 1A61     		str	r2, [r3, #16]
  52              	.LBB2:
  40:Core/Src/gpio.c **** 
  41:Core/Src/gpio.c ****   /* GPIO Ports Clock Enable */
  42:Core/Src/gpio.c ****   __HAL_RCC_GPIOF_CLK_ENABLE();
  53              		.loc 1 42 3
  54 0016 0023     		movs	r3, #0
  55 0018 3B61     		str	r3, [r7, #16]
  56 001a 274B     		ldr	r3, .L2
  57 001c 1B6B     		ldr	r3, [r3, #48]
  58 001e 264A     		ldr	r2, .L2
  59 0020 43F02003 		orr	r3, r3, #32
  60 0024 1363     		str	r3, [r2, #48]
  61 0026 244B     		ldr	r3, .L2
  62 0028 1B6B     		ldr	r3, [r3, #48]
  63 002a 03F02003 		and	r3, r3, #32
  64 002e 3B61     		str	r3, [r7, #16]
  65 0030 3B69     		ldr	r3, [r7, #16]
  66              	.LBE2:
  67              	.LBB3:
  43:Core/Src/gpio.c ****   __HAL_RCC_GPIOC_CLK_ENABLE();
  68              		.loc 1 43 3
  69 0032 0023     		movs	r3, #0
  70 0034 FB60     		str	r3, [r7, #12]
  71 0036 204B     		ldr	r3, .L2
  72 0038 1B6B     		ldr	r3, [r3, #48]
ARM GAS  /tmp/ccixZ1i5.s 			page 3


  73 003a 1F4A     		ldr	r2, .L2
  74 003c 43F00403 		orr	r3, r3, #4
  75 0040 1363     		str	r3, [r2, #48]
  76 0042 1D4B     		ldr	r3, .L2
  77 0044 1B6B     		ldr	r3, [r3, #48]
  78 0046 03F00403 		and	r3, r3, #4
  79 004a FB60     		str	r3, [r7, #12]
  80 004c FB68     		ldr	r3, [r7, #12]
  81              	.LBE3:
  82              	.LBB4:
  44:Core/Src/gpio.c ****   __HAL_RCC_GPIOA_CLK_ENABLE();
  83              		.loc 1 44 3
  84 004e 0023     		movs	r3, #0
  85 0050 BB60     		str	r3, [r7, #8]
  86 0052 194B     		ldr	r3, .L2
  87 0054 1B6B     		ldr	r3, [r3, #48]
  88 0056 184A     		ldr	r2, .L2
  89 0058 43F00103 		orr	r3, r3, #1
  90 005c 1363     		str	r3, [r2, #48]
  91 005e 164B     		ldr	r3, .L2
  92 0060 1B6B     		ldr	r3, [r3, #48]
  93 0062 03F00103 		and	r3, r3, #1
  94 0066 BB60     		str	r3, [r7, #8]
  95 0068 BB68     		ldr	r3, [r7, #8]
  96              	.LBE4:
  97              	.LBB5:
  45:Core/Src/gpio.c ****   __HAL_RCC_GPIOB_CLK_ENABLE();
  98              		.loc 1 45 3
  99 006a 0023     		movs	r3, #0
 100 006c 7B60     		str	r3, [r7, #4]
 101 006e 124B     		ldr	r3, .L2
 102 0070 1B6B     		ldr	r3, [r3, #48]
 103 0072 114A     		ldr	r2, .L2
 104 0074 43F00203 		orr	r3, r3, #2
 105 0078 1363     		str	r3, [r2, #48]
 106 007a 0F4B     		ldr	r3, .L2
 107 007c 1B6B     		ldr	r3, [r3, #48]
 108 007e 03F00203 		and	r3, r3, #2
 109 0082 7B60     		str	r3, [r7, #4]
 110 0084 7B68     		ldr	r3, [r7, #4]
 111              	.LBE5:
  46:Core/Src/gpio.c **** 
  47:Core/Src/gpio.c ****   /*Configure GPIO pin Output Level */
  48:Core/Src/gpio.c ****   HAL_GPIO_WritePin(GPIOF, GPIO_PIN_9|GPIO_PIN_10, GPIO_PIN_RESET);
 112              		.loc 1 48 3
 113 0086 0022     		movs	r2, #0
 114 0088 4FF4C061 		mov	r1, #1536
 115 008c 0B48     		ldr	r0, .L2+4
 116 008e FFF7FEFF 		bl	HAL_GPIO_WritePin
  49:Core/Src/gpio.c **** 
  50:Core/Src/gpio.c ****   /*Configure GPIO pins : PF9 PF10 */
  51:Core/Src/gpio.c ****   GPIO_InitStruct.Pin = GPIO_PIN_9|GPIO_PIN_10;
 117              		.loc 1 51 23
 118 0092 4FF4C063 		mov	r3, #1536
 119 0096 7B61     		str	r3, [r7, #20]
  52:Core/Src/gpio.c ****   GPIO_InitStruct.Mode = GPIO_MODE_OUTPUT_PP;
 120              		.loc 1 52 24
ARM GAS  /tmp/ccixZ1i5.s 			page 4


 121 0098 0123     		movs	r3, #1
 122 009a BB61     		str	r3, [r7, #24]
  53:Core/Src/gpio.c ****   GPIO_InitStruct.Pull = GPIO_NOPULL;
 123              		.loc 1 53 24
 124 009c 0023     		movs	r3, #0
 125 009e FB61     		str	r3, [r7, #28]
  54:Core/Src/gpio.c ****   GPIO_InitStruct.Speed = GPIO_SPEED_FREQ_LOW;
 126              		.loc 1 54 25
 127 00a0 0023     		movs	r3, #0
 128 00a2 3B62     		str	r3, [r7, #32]
  55:Core/Src/gpio.c ****   HAL_GPIO_Init(GPIOF, &GPIO_InitStruct);
 129              		.loc 1 55 3
 130 00a4 07F11403 		add	r3, r7, #20
 131 00a8 1946     		mov	r1, r3
 132 00aa 0448     		ldr	r0, .L2+4
 133 00ac FFF7FEFF 		bl	HAL_GPIO_Init
  56:Core/Src/gpio.c **** 
  57:Core/Src/gpio.c **** }
 134              		.loc 1 57 1
 135 00b0 00BF     		nop
 136 00b2 2837     		adds	r7, r7, #40
 137              	.LCFI3:
 138              		.cfi_def_cfa_offset 8
 139 00b4 BD46     		mov	sp, r7
 140              	.LCFI4:
 141              		.cfi_def_cfa_register 13
 142              		@ sp needed
 143 00b6 80BD     		pop	{r7, pc}
 144              	.L3:
 145              		.align	2
 146              	.L2:
 147 00b8 00380240 		.word	1073887232
 148 00bc 00140240 		.word	1073878016
 149              		.cfi_endproc
 150              	.LFE130:
 152              		.text
 153              	.Letext0:
 154              		.file 2 "/home/mego-ros2/microros_ws/firmware/toolchain/arm-none-eabi/include/machine/_default_typ
 155              		.file 3 "/home/mego-ros2/microros_ws/firmware/toolchain/arm-none-eabi/include/sys/_stdint.h"
 156              		.file 4 "Drivers/CMSIS/Include/core_cm4.h"
 157              		.file 5 "Drivers/CMSIS/Device/ST/STM32F4xx/Include/system_stm32f4xx.h"
 158              		.file 6 "Drivers/CMSIS/Device/ST/STM32F4xx/Include/stm32f407xx.h"
 159              		.file 7 "Drivers/STM32F4xx_HAL_Driver/Inc/stm32f4xx_hal_gpio.h"
 160              		.file 8 "Drivers/STM32F4xx_HAL_Driver/Inc/stm32f4xx_hal.h"
ARM GAS  /tmp/ccixZ1i5.s 			page 5

