ARM GAS  /tmp/ccJKEPSx.s 			page 1


   1              		.cpu cortex-m4
   2              		.eabi_attribute 27, 1
   3              		.eabi_attribute 28, 1
   4              		.eabi_attribute 20, 1
   5              		.eabi_attribute 21, 1
   6              		.eabi_attribute 23, 3
   7              		.eabi_attribute 24, 1
   8              		.eabi_attribute 25, 1
   9              		.eabi_attribute 26, 1
  10              		.eabi_attribute 30, 6
  11              		.eabi_attribute 34, 1
  12              		.eabi_attribute 18, 4
  13              		.file	"if_api.c"
  14              		.text
  15              	.Ltext0:
  16              		.cfi_sections	.debug_frame
  17              		.section	.text.lwip_if_indextoname,"ax",%progbits
  18              		.align	1
  19              		.global	lwip_if_indextoname
  20              		.arch armv7e-m
  21              		.syntax unified
  22              		.thumb
  23              		.thumb_func
  24              		.fpu fpv4-sp-d16
  26              	lwip_if_indextoname:
  27              	.LFB137:
  28              		.file 1 "Middlewares/Third_Party/LwIP/src/api/if_api.c"
   1:Middlewares/Third_Party/LwIP/src/api/if_api.c **** /**
   2:Middlewares/Third_Party/LwIP/src/api/if_api.c ****  * @file
   3:Middlewares/Third_Party/LwIP/src/api/if_api.c ****  * Interface Identification APIs from:
   4:Middlewares/Third_Party/LwIP/src/api/if_api.c ****  *              RFC 3493: Basic Socket Interface Extensions for IPv6
   5:Middlewares/Third_Party/LwIP/src/api/if_api.c ****  *                  Section 4: Interface Identification
   6:Middlewares/Third_Party/LwIP/src/api/if_api.c ****  *
   7:Middlewares/Third_Party/LwIP/src/api/if_api.c ****  * @defgroup if_api Interface Identification API
   8:Middlewares/Third_Party/LwIP/src/api/if_api.c ****  * @ingroup socket
   9:Middlewares/Third_Party/LwIP/src/api/if_api.c ****  */
  10:Middlewares/Third_Party/LwIP/src/api/if_api.c **** 
  11:Middlewares/Third_Party/LwIP/src/api/if_api.c **** /*
  12:Middlewares/Third_Party/LwIP/src/api/if_api.c ****  * Copyright (c) 2017 Joel Cunningham, Garmin International, Inc. <joel.cunningham@garmin.com>
  13:Middlewares/Third_Party/LwIP/src/api/if_api.c ****  * All rights reserved.
  14:Middlewares/Third_Party/LwIP/src/api/if_api.c ****  *
  15:Middlewares/Third_Party/LwIP/src/api/if_api.c ****  * Redistribution and use in source and binary forms, with or without modification,
  16:Middlewares/Third_Party/LwIP/src/api/if_api.c ****  * are permitted provided that the following conditions are met:
  17:Middlewares/Third_Party/LwIP/src/api/if_api.c ****  *
  18:Middlewares/Third_Party/LwIP/src/api/if_api.c ****  * 1. Redistributions of source code must retain the above copyright notice,
  19:Middlewares/Third_Party/LwIP/src/api/if_api.c ****  *    this list of conditions and the following disclaimer.
  20:Middlewares/Third_Party/LwIP/src/api/if_api.c ****  * 2. Redistributions in binary form must reproduce the above copyright notice,
  21:Middlewares/Third_Party/LwIP/src/api/if_api.c ****  *    this list of conditions and the following disclaimer in the documentation
  22:Middlewares/Third_Party/LwIP/src/api/if_api.c ****  *    and/or other materials provided with the distribution.
  23:Middlewares/Third_Party/LwIP/src/api/if_api.c ****  * 3. The name of the author may not be used to endorse or promote products
  24:Middlewares/Third_Party/LwIP/src/api/if_api.c ****  *    derived from this software without specific prior written permission.
  25:Middlewares/Third_Party/LwIP/src/api/if_api.c ****  *
  26:Middlewares/Third_Party/LwIP/src/api/if_api.c ****  * THIS SOFTWARE IS PROVIDED BY THE AUTHOR ``AS IS'' AND ANY EXPRESS OR IMPLIED
  27:Middlewares/Third_Party/LwIP/src/api/if_api.c ****  * WARRANTIES, INCLUDING, BUT NOT LIMITED TO, THE IMPLIED WARRANTIES OF
  28:Middlewares/Third_Party/LwIP/src/api/if_api.c ****  * MERCHANTABILITY AND FITNESS FOR A PARTICULAR PURPOSE ARE DISCLAIMED. IN NO EVENT
  29:Middlewares/Third_Party/LwIP/src/api/if_api.c ****  * SHALL THE AUTHOR BE LIABLE FOR ANY DIRECT, INDIRECT, INCIDENTAL, SPECIAL,
  30:Middlewares/Third_Party/LwIP/src/api/if_api.c ****  * EXEMPLARY, OR CONSEQUENTIAL DAMAGES (INCLUDING, BUT NOT LIMITED TO, PROCUREMENT
ARM GAS  /tmp/ccJKEPSx.s 			page 2


  31:Middlewares/Third_Party/LwIP/src/api/if_api.c ****  * OF SUBSTITUTE GOODS OR SERVICES; LOSS OF USE, DATA, OR PROFITS; OR BUSINESS
  32:Middlewares/Third_Party/LwIP/src/api/if_api.c ****  * INTERRUPTION) HOWEVER CAUSED AND ON ANY THEORY OF LIABILITY, WHETHER IN
  33:Middlewares/Third_Party/LwIP/src/api/if_api.c ****  * CONTRACT, STRICT LIABILITY, OR TORT (INCLUDING NEGLIGENCE OR OTHERWISE) ARISING
  34:Middlewares/Third_Party/LwIP/src/api/if_api.c ****  * IN ANY WAY OUT OF THE USE OF THIS SOFTWARE, EVEN IF ADVISED OF THE POSSIBILITY
  35:Middlewares/Third_Party/LwIP/src/api/if_api.c ****  * OF SUCH DAMAGE.
  36:Middlewares/Third_Party/LwIP/src/api/if_api.c ****  *
  37:Middlewares/Third_Party/LwIP/src/api/if_api.c ****  * This file is part of the lwIP TCP/IP stack.
  38:Middlewares/Third_Party/LwIP/src/api/if_api.c ****  *
  39:Middlewares/Third_Party/LwIP/src/api/if_api.c ****  * Author: Joel Cunningham <joel.cunningham@me.com>
  40:Middlewares/Third_Party/LwIP/src/api/if_api.c ****  *
  41:Middlewares/Third_Party/LwIP/src/api/if_api.c ****  */
  42:Middlewares/Third_Party/LwIP/src/api/if_api.c **** #include "lwip/opt.h"
  43:Middlewares/Third_Party/LwIP/src/api/if_api.c **** 
  44:Middlewares/Third_Party/LwIP/src/api/if_api.c **** #if LWIP_SOCKET
  45:Middlewares/Third_Party/LwIP/src/api/if_api.c **** 
  46:Middlewares/Third_Party/LwIP/src/api/if_api.c **** #include "lwip/errno.h"
  47:Middlewares/Third_Party/LwIP/src/api/if_api.c **** #include "lwip/if_api.h"
  48:Middlewares/Third_Party/LwIP/src/api/if_api.c **** #include "lwip/netifapi.h"
  49:Middlewares/Third_Party/LwIP/src/api/if_api.c **** #include "lwip/priv/sockets_priv.h"
  50:Middlewares/Third_Party/LwIP/src/api/if_api.c **** 
  51:Middlewares/Third_Party/LwIP/src/api/if_api.c **** /**
  52:Middlewares/Third_Party/LwIP/src/api/if_api.c ****  * @ingroup if_api
  53:Middlewares/Third_Party/LwIP/src/api/if_api.c ****  * Maps an interface index to its corresponding name.
  54:Middlewares/Third_Party/LwIP/src/api/if_api.c ****  * @param ifindex interface index
  55:Middlewares/Third_Party/LwIP/src/api/if_api.c ****  * @param ifname shall point to a buffer of at least {IF_NAMESIZE} bytes
  56:Middlewares/Third_Party/LwIP/src/api/if_api.c ****  * @return If ifindex is an interface index, then the function shall return the
  57:Middlewares/Third_Party/LwIP/src/api/if_api.c ****  * value supplied in ifname, which points to a buffer now containing the interface name.
  58:Middlewares/Third_Party/LwIP/src/api/if_api.c ****  * Otherwise, the function shall return a NULL pointer.
  59:Middlewares/Third_Party/LwIP/src/api/if_api.c ****  */
  60:Middlewares/Third_Party/LwIP/src/api/if_api.c **** char *
  61:Middlewares/Third_Party/LwIP/src/api/if_api.c **** lwip_if_indextoname(unsigned int ifindex, char *ifname)
  62:Middlewares/Third_Party/LwIP/src/api/if_api.c **** {
  29              		.loc 1 62 1
  30              		.cfi_startproc
  31              		@ args = 0, pretend = 0, frame = 8
  32              		@ frame_needed = 1, uses_anonymous_args = 0
  33              		@ link register save eliminated.
  34 0000 80B4     		push	{r7}
  35              	.LCFI0:
  36              		.cfi_def_cfa_offset 4
  37              		.cfi_offset 7, -4
  38 0002 83B0     		sub	sp, sp, #12
  39              	.LCFI1:
  40              		.cfi_def_cfa_offset 16
  41 0004 00AF     		add	r7, sp, #0
  42              	.LCFI2:
  43              		.cfi_def_cfa_register 7
  44 0006 7860     		str	r0, [r7, #4]
  45 0008 3960     		str	r1, [r7]
  63:Middlewares/Third_Party/LwIP/src/api/if_api.c **** #if LWIP_NETIF_API
  64:Middlewares/Third_Party/LwIP/src/api/if_api.c ****   if (ifindex <= 0xff) {
  65:Middlewares/Third_Party/LwIP/src/api/if_api.c ****     err_t err = netifapi_netif_index_to_name((u8_t)ifindex, ifname);
  66:Middlewares/Third_Party/LwIP/src/api/if_api.c ****     if (!err && ifname[0] != '\0') {
  67:Middlewares/Third_Party/LwIP/src/api/if_api.c ****       return ifname;
  68:Middlewares/Third_Party/LwIP/src/api/if_api.c ****     }
  69:Middlewares/Third_Party/LwIP/src/api/if_api.c ****   }
  70:Middlewares/Third_Party/LwIP/src/api/if_api.c **** #else /* LWIP_NETIF_API */
ARM GAS  /tmp/ccJKEPSx.s 			page 3


  71:Middlewares/Third_Party/LwIP/src/api/if_api.c ****   LWIP_UNUSED_ARG(ifindex);
  72:Middlewares/Third_Party/LwIP/src/api/if_api.c ****   LWIP_UNUSED_ARG(ifname);
  73:Middlewares/Third_Party/LwIP/src/api/if_api.c **** #endif /* LWIP_NETIF_API */
  74:Middlewares/Third_Party/LwIP/src/api/if_api.c ****   set_errno(ENXIO);
  46              		.loc 1 74 3
  47 000a 054B     		ldr	r3, .L3
  48 000c 0622     		movs	r2, #6
  49 000e 1A60     		str	r2, [r3]
  75:Middlewares/Third_Party/LwIP/src/api/if_api.c ****   return NULL;
  50              		.loc 1 75 10
  51 0010 0023     		movs	r3, #0
  76:Middlewares/Third_Party/LwIP/src/api/if_api.c **** }
  52              		.loc 1 76 1
  53 0012 1846     		mov	r0, r3
  54 0014 0C37     		adds	r7, r7, #12
  55              	.LCFI3:
  56              		.cfi_def_cfa_offset 4
  57 0016 BD46     		mov	sp, r7
  58              	.LCFI4:
  59              		.cfi_def_cfa_register 13
  60              		@ sp needed
  61 0018 5DF8047B 		ldr	r7, [sp], #4
  62              	.LCFI5:
  63              		.cfi_restore 7
  64              		.cfi_def_cfa_offset 0
  65 001c 7047     		bx	lr
  66              	.L4:
  67 001e 00BF     		.align	2
  68              	.L3:
  69 0020 00000000 		.word	errno
  70              		.cfi_endproc
  71              	.LFE137:
  73              		.section	.text.lwip_if_nametoindex,"ax",%progbits
  74              		.align	1
  75              		.global	lwip_if_nametoindex
  76              		.syntax unified
  77              		.thumb
  78              		.thumb_func
  79              		.fpu fpv4-sp-d16
  81              	lwip_if_nametoindex:
  82              	.LFB138:
  77:Middlewares/Third_Party/LwIP/src/api/if_api.c **** 
  78:Middlewares/Third_Party/LwIP/src/api/if_api.c **** /**
  79:Middlewares/Third_Party/LwIP/src/api/if_api.c ****  * @ingroup if_api
  80:Middlewares/Third_Party/LwIP/src/api/if_api.c ****  * Returs the interface index corresponding to name ifname.
  81:Middlewares/Third_Party/LwIP/src/api/if_api.c ****  * @param ifname Interface name
  82:Middlewares/Third_Party/LwIP/src/api/if_api.c ****  * @return The corresponding index if ifname is the name of an interface;
  83:Middlewares/Third_Party/LwIP/src/api/if_api.c ****  * otherwise, zero.
  84:Middlewares/Third_Party/LwIP/src/api/if_api.c ****  */
  85:Middlewares/Third_Party/LwIP/src/api/if_api.c **** unsigned int
  86:Middlewares/Third_Party/LwIP/src/api/if_api.c **** lwip_if_nametoindex(const char *ifname)
  87:Middlewares/Third_Party/LwIP/src/api/if_api.c **** {
  83              		.loc 1 87 1
  84              		.cfi_startproc
  85              		@ args = 0, pretend = 0, frame = 8
  86              		@ frame_needed = 1, uses_anonymous_args = 0
  87              		@ link register save eliminated.
ARM GAS  /tmp/ccJKEPSx.s 			page 4


  88 0000 80B4     		push	{r7}
  89              	.LCFI6:
  90              		.cfi_def_cfa_offset 4
  91              		.cfi_offset 7, -4
  92 0002 83B0     		sub	sp, sp, #12
  93              	.LCFI7:
  94              		.cfi_def_cfa_offset 16
  95 0004 00AF     		add	r7, sp, #0
  96              	.LCFI8:
  97              		.cfi_def_cfa_register 7
  98 0006 7860     		str	r0, [r7, #4]
  88:Middlewares/Third_Party/LwIP/src/api/if_api.c **** #if LWIP_NETIF_API
  89:Middlewares/Third_Party/LwIP/src/api/if_api.c ****   err_t err;
  90:Middlewares/Third_Party/LwIP/src/api/if_api.c ****   u8_t idx;
  91:Middlewares/Third_Party/LwIP/src/api/if_api.c **** 
  92:Middlewares/Third_Party/LwIP/src/api/if_api.c ****   err = netifapi_netif_name_to_index(ifname, &idx);
  93:Middlewares/Third_Party/LwIP/src/api/if_api.c ****   if (!err) {
  94:Middlewares/Third_Party/LwIP/src/api/if_api.c ****     return idx;
  95:Middlewares/Third_Party/LwIP/src/api/if_api.c ****   }
  96:Middlewares/Third_Party/LwIP/src/api/if_api.c **** #else /* LWIP_NETIF_API */
  97:Middlewares/Third_Party/LwIP/src/api/if_api.c ****   LWIP_UNUSED_ARG(ifname);
  98:Middlewares/Third_Party/LwIP/src/api/if_api.c **** #endif /* LWIP_NETIF_API */
  99:Middlewares/Third_Party/LwIP/src/api/if_api.c ****   return 0; /* invalid index */
  99              		.loc 1 99 10
 100 0008 0023     		movs	r3, #0
 100:Middlewares/Third_Party/LwIP/src/api/if_api.c **** }
 101              		.loc 1 100 1
 102 000a 1846     		mov	r0, r3
 103 000c 0C37     		adds	r7, r7, #12
 104              	.LCFI9:
 105              		.cfi_def_cfa_offset 4
 106 000e BD46     		mov	sp, r7
 107              	.LCFI10:
 108              		.cfi_def_cfa_register 13
 109              		@ sp needed
 110 0010 5DF8047B 		ldr	r7, [sp], #4
 111              	.LCFI11:
 112              		.cfi_restore 7
 113              		.cfi_def_cfa_offset 0
 114 0014 7047     		bx	lr
 115              		.cfi_endproc
 116              	.LFE138:
 118              		.text
 119              	.Letext0:
 120              		.file 2 "/home/mego/microros_ws/firmware/toolchain/arm-none-eabi/include/machine/_default_types.h"
 121              		.file 3 "/home/mego/microros_ws/firmware/toolchain/arm-none-eabi/include/sys/_stdint.h"
 122              		.file 4 "Drivers/CMSIS/Include/core_cm4.h"
 123              		.file 5 "Drivers/CMSIS/Device/ST/STM32F4xx/Include/system_stm32f4xx.h"
 124              		.file 6 "Drivers/STM32F4xx_HAL_Driver/Inc/stm32f4xx_hal.h"
 125              		.file 7 "/home/mego/microros_ws/firmware/toolchain/lib/gcc/arm-none-eabi/8.3.1/include/stddef.h"
 126              		.file 8 "/home/mego/microros_ws/firmware/toolchain/arm-none-eabi/include/sys/_types.h"
 127              		.file 9 "/home/mego/microros_ws/firmware/toolchain/arm-none-eabi/include/sys/reent.h"
 128              		.file 10 "/home/mego/microros_ws/firmware/toolchain/arm-none-eabi/include/sys/lock.h"
 129              		.file 11 "/home/mego/microros_ws/firmware/toolchain/arm-none-eabi/include/stdlib.h"
 130              		.file 12 "Middlewares/Third_Party/LwIP/src/include/lwip/arch.h"
 131              		.file 13 "/home/mego/microros_ws/firmware/toolchain/arm-none-eabi/include/ctype.h"
 132              		.file 14 "Middlewares/Third_Party/LwIP/src/include/lwip/errno.h"
ARM GAS  /tmp/ccJKEPSx.s 			page 5


 133              		.file 15 "Middlewares/Third_Party/LwIP/src/include/lwip/err.h"
 134              		.file 16 "Middlewares/Third_Party/LwIP/src/include/lwip/ip4_addr.h"
 135              		.file 17 "Middlewares/Third_Party/LwIP/src/include/lwip/ip_addr.h"
 136              		.file 18 "Middlewares/Third_Party/LwIP/src/include/lwip/pbuf.h"
 137              		.file 19 "Middlewares/Third_Party/LwIP/src/include/lwip/priv/memp_priv.h"
 138              		.file 20 "Middlewares/Third_Party/LwIP/src/include/lwip/memp.h"
 139              		.file 21 "Middlewares/Third_Party/LwIP/src/include/lwip/netif.h"
 140              		.file 22 "Middlewares/Third_Party/LwIP/src/include/lwip/inet.h"
ARM GAS  /tmp/ccJKEPSx.s 			page 6

