ARM GAS  /tmp/cc4BbpCt.s 			page 1


   1              		.cpu cortex-m4
   2              		.eabi_attribute 27, 1
   3              		.eabi_attribute 28, 1
   4              		.eabi_attribute 20, 1
   5              		.eabi_attribute 21, 1
   6              		.eabi_attribute 23, 3
   7              		.eabi_attribute 24, 1
   8              		.eabi_attribute 25, 1
   9              		.eabi_attribute 26, 1
  10              		.eabi_attribute 30, 6
  11              		.eabi_attribute 34, 1
  12              		.eabi_attribute 18, 4
  13              		.file	"memp.c"
  14              		.text
  15              	.Ltext0:
  16              		.cfi_sections	.debug_frame
  17              		.comm	memp_memory_UDP_PCB_base,131,4
  18              		.section	.bss.memp_tab_UDP_PCB,"aw",%nobits
  19              		.align	2
  22              	memp_tab_UDP_PCB:
  23 0000 00000000 		.space	4
  24              		.global	memp_UDP_PCB
  25              		.section	.rodata.memp_UDP_PCB,"a"
  26              		.align	2
  29              	memp_UDP_PCB:
  30 0000 2000     		.short	32
  31 0002 0400     		.short	4
  32 0004 00000000 		.word	memp_memory_UDP_PCB_base
  33 0008 00000000 		.word	memp_tab_UDP_PCB
  34              		.comm	memp_memory_TCP_PCB_base,783,4
  35              		.section	.bss.memp_tab_TCP_PCB,"aw",%nobits
  36              		.align	2
  39              	memp_tab_TCP_PCB:
  40 0000 00000000 		.space	4
  41              		.global	memp_TCP_PCB
  42              		.section	.rodata.memp_TCP_PCB,"a"
  43              		.align	2
  46              	memp_TCP_PCB:
  47 0000 9C00     		.short	156
  48 0002 0500     		.short	5
  49 0004 00000000 		.word	memp_memory_TCP_PCB_base
  50 0008 00000000 		.word	memp_tab_TCP_PCB
  51              		.comm	memp_memory_TCP_PCB_LISTEN_base,227,4
  52              		.section	.bss.memp_tab_TCP_PCB_LISTEN,"aw",%nobits
  53              		.align	2
  56              	memp_tab_TCP_PCB_LISTEN:
  57 0000 00000000 		.space	4
  58              		.global	memp_TCP_PCB_LISTEN
  59              		.section	.rodata.memp_TCP_PCB_LISTEN,"a"
  60              		.align	2
  63              	memp_TCP_PCB_LISTEN:
  64 0000 1C00     		.short	28
  65 0002 0800     		.short	8
  66 0004 00000000 		.word	memp_memory_TCP_PCB_LISTEN_base
  67 0008 00000000 		.word	memp_tab_TCP_PCB_LISTEN
  68              		.comm	memp_memory_TCP_SEG_base,259,4
  69              		.section	.bss.memp_tab_TCP_SEG,"aw",%nobits
ARM GAS  /tmp/cc4BbpCt.s 			page 2


  70              		.align	2
  73              	memp_tab_TCP_SEG:
  74 0000 00000000 		.space	4
  75              		.global	memp_TCP_SEG
  76              		.section	.rodata.memp_TCP_SEG,"a"
  77              		.align	2
  80              	memp_TCP_SEG:
  81 0000 1000     		.short	16
  82 0002 1000     		.short	16
  83 0004 00000000 		.word	memp_memory_TCP_SEG_base
  84 0008 00000000 		.word	memp_tab_TCP_SEG
  85              		.comm	memp_memory_REASSDATA_base,163,4
  86              		.section	.bss.memp_tab_REASSDATA,"aw",%nobits
  87              		.align	2
  90              	memp_tab_REASSDATA:
  91 0000 00000000 		.space	4
  92              		.global	memp_REASSDATA
  93              		.section	.rodata.memp_REASSDATA,"a"
  94              		.align	2
  97              	memp_REASSDATA:
  98 0000 2000     		.short	32
  99 0002 0500     		.short	5
 100 0004 00000000 		.word	memp_memory_REASSDATA_base
 101 0008 00000000 		.word	memp_tab_REASSDATA
 102              		.comm	memp_memory_FRAG_PBUF_base,363,4
 103              		.section	.bss.memp_tab_FRAG_PBUF,"aw",%nobits
 104              		.align	2
 107              	memp_tab_FRAG_PBUF:
 108 0000 00000000 		.space	4
 109              		.global	memp_FRAG_PBUF
 110              		.section	.rodata.memp_FRAG_PBUF,"a"
 111              		.align	2
 114              	memp_FRAG_PBUF:
 115 0000 1800     		.short	24
 116 0002 0F00     		.short	15
 117 0004 00000000 		.word	memp_memory_FRAG_PBUF_base
 118 0008 00000000 		.word	memp_tab_FRAG_PBUF
 119              		.comm	memp_memory_NETBUF_base,35,4
 120              		.section	.bss.memp_tab_NETBUF,"aw",%nobits
 121              		.align	2
 124              	memp_tab_NETBUF:
 125 0000 00000000 		.space	4
 126              		.global	memp_NETBUF
 127              		.section	.rodata.memp_NETBUF,"a"
 128              		.align	2
 131              	memp_NETBUF:
 132 0000 1000     		.short	16
 133 0002 0200     		.short	2
 134 0004 00000000 		.word	memp_memory_NETBUF_base
 135 0008 00000000 		.word	memp_tab_NETBUF
 136              		.comm	memp_memory_NETCONN_base,163,4
 137              		.section	.bss.memp_tab_NETCONN,"aw",%nobits
 138              		.align	2
 141              	memp_tab_NETCONN:
 142 0000 00000000 		.space	4
 143              		.global	memp_NETCONN
 144              		.section	.rodata.memp_NETCONN,"a"
ARM GAS  /tmp/cc4BbpCt.s 			page 3


 145              		.align	2
 148              	memp_NETCONN:
 149 0000 2800     		.short	40
 150 0002 0400     		.short	4
 151 0004 00000000 		.word	memp_memory_NETCONN_base
 152 0008 00000000 		.word	memp_tab_NETCONN
 153              		.comm	memp_memory_TCPIP_MSG_API_base,131,4
 154              		.section	.bss.memp_tab_TCPIP_MSG_API,"aw",%nobits
 155              		.align	2
 158              	memp_tab_TCPIP_MSG_API:
 159 0000 00000000 		.space	4
 160              		.global	memp_TCPIP_MSG_API
 161              		.section	.rodata.memp_TCPIP_MSG_API,"a"
 162              		.align	2
 165              	memp_TCPIP_MSG_API:
 166 0000 1000     		.short	16
 167 0002 0800     		.short	8
 168 0004 00000000 		.word	memp_memory_TCPIP_MSG_API_base
 169 0008 00000000 		.word	memp_tab_TCPIP_MSG_API
 170              		.comm	memp_memory_TCPIP_MSG_INPKT_base,131,4
 171              		.section	.bss.memp_tab_TCPIP_MSG_INPKT,"aw",%nobits
 172              		.align	2
 175              	memp_tab_TCPIP_MSG_INPKT:
 176 0000 00000000 		.space	4
 177              		.global	memp_TCPIP_MSG_INPKT
 178              		.section	.rodata.memp_TCPIP_MSG_INPKT,"a"
 179              		.align	2
 182              	memp_TCPIP_MSG_INPKT:
 183 0000 1000     		.short	16
 184 0002 0800     		.short	8
 185 0004 00000000 		.word	memp_memory_TCPIP_MSG_INPKT_base
 186 0008 00000000 		.word	memp_tab_TCPIP_MSG_INPKT
 187              		.comm	memp_memory_SYS_TIMEOUT_base,99,4
 188              		.section	.bss.memp_tab_SYS_TIMEOUT,"aw",%nobits
 189              		.align	2
 192              	memp_tab_SYS_TIMEOUT:
 193 0000 00000000 		.space	4
 194              		.global	memp_SYS_TIMEOUT
 195              		.section	.rodata.memp_SYS_TIMEOUT,"a"
 196              		.align	2
 199              	memp_SYS_TIMEOUT:
 200 0000 1000     		.short	16
 201 0002 0600     		.short	6
 202 0004 00000000 		.word	memp_memory_SYS_TIMEOUT_base
 203 0008 00000000 		.word	memp_tab_SYS_TIMEOUT
 204              		.comm	memp_memory_NETDB_base,311,4
 205              		.section	.bss.memp_tab_NETDB,"aw",%nobits
 206              		.align	2
 209              	memp_tab_NETDB:
 210 0000 00000000 		.space	4
 211              		.global	memp_NETDB
 212              		.section	.rodata.memp_NETDB,"a"
 213              		.align	2
 216              	memp_NETDB:
 217 0000 3401     		.short	308
 218 0002 0100     		.short	1
 219 0004 00000000 		.word	memp_memory_NETDB_base
ARM GAS  /tmp/cc4BbpCt.s 			page 4


 220 0008 00000000 		.word	memp_tab_NETDB
 221              		.comm	memp_memory_PBUF_base,259,4
 222              		.section	.bss.memp_tab_PBUF,"aw",%nobits
 223              		.align	2
 226              	memp_tab_PBUF:
 227 0000 00000000 		.space	4
 228              		.global	memp_PBUF
 229              		.section	.rodata.memp_PBUF,"a"
 230              		.align	2
 233              	memp_PBUF:
 234 0000 1000     		.short	16
 235 0002 1000     		.short	16
 236 0004 00000000 		.word	memp_memory_PBUF_base
 237 0008 00000000 		.word	memp_tab_PBUF
 238              		.comm	memp_memory_PBUF_POOL_base,9731,4
 239              		.section	.bss.memp_tab_PBUF_POOL,"aw",%nobits
 240              		.align	2
 243              	memp_tab_PBUF_POOL:
 244 0000 00000000 		.space	4
 245              		.global	memp_PBUF_POOL
 246              		.section	.rodata.memp_PBUF_POOL,"a"
 247              		.align	2
 250              	memp_PBUF_POOL:
 251 0000 6002     		.short	608
 252 0002 1000     		.short	16
 253 0004 00000000 		.word	memp_memory_PBUF_POOL_base
 254 0008 00000000 		.word	memp_tab_PBUF_POOL
 255              		.global	memp_pools
 256              		.section	.rodata.memp_pools,"a"
 257              		.align	2
 260              	memp_pools:
 261 0000 00000000 		.word	memp_UDP_PCB
 262 0004 00000000 		.word	memp_TCP_PCB
 263 0008 00000000 		.word	memp_TCP_PCB_LISTEN
 264 000c 00000000 		.word	memp_TCP_SEG
 265 0010 00000000 		.word	memp_REASSDATA
 266 0014 00000000 		.word	memp_FRAG_PBUF
 267 0018 00000000 		.word	memp_NETBUF
 268 001c 00000000 		.word	memp_NETCONN
 269 0020 00000000 		.word	memp_TCPIP_MSG_API
 270 0024 00000000 		.word	memp_TCPIP_MSG_INPKT
 271 0028 00000000 		.word	memp_SYS_TIMEOUT
 272 002c 00000000 		.word	memp_NETDB
 273 0030 00000000 		.word	memp_PBUF
 274 0034 00000000 		.word	memp_PBUF_POOL
 275              		.section	.text.memp_init_pool,"ax",%progbits
 276              		.align	1
 277              		.global	memp_init_pool
 278              		.arch armv7e-m
 279              		.syntax unified
 280              		.thumb
 281              		.thumb_func
 282              		.fpu fpv4-sp-d16
 284              	memp_init_pool:
 285              	.LFB137:
 286              		.file 1 "Middlewares/Third_Party/LwIP/src/core/memp.c"
   1:Middlewares/Third_Party/LwIP/src/core/memp.c **** /**
ARM GAS  /tmp/cc4BbpCt.s 			page 5


   2:Middlewares/Third_Party/LwIP/src/core/memp.c ****  * @file
   3:Middlewares/Third_Party/LwIP/src/core/memp.c ****  * Dynamic pool memory manager
   4:Middlewares/Third_Party/LwIP/src/core/memp.c ****  *
   5:Middlewares/Third_Party/LwIP/src/core/memp.c ****  * lwIP has dedicated pools for many structures (netconn, protocol control blocks,
   6:Middlewares/Third_Party/LwIP/src/core/memp.c ****  * packet buffers, ...). All these pools are managed here.
   7:Middlewares/Third_Party/LwIP/src/core/memp.c ****  *
   8:Middlewares/Third_Party/LwIP/src/core/memp.c ****  * @defgroup mempool Memory pools
   9:Middlewares/Third_Party/LwIP/src/core/memp.c ****  * @ingroup infrastructure
  10:Middlewares/Third_Party/LwIP/src/core/memp.c ****  * Custom memory pools
  11:Middlewares/Third_Party/LwIP/src/core/memp.c **** 
  12:Middlewares/Third_Party/LwIP/src/core/memp.c ****  */
  13:Middlewares/Third_Party/LwIP/src/core/memp.c **** 
  14:Middlewares/Third_Party/LwIP/src/core/memp.c **** /*
  15:Middlewares/Third_Party/LwIP/src/core/memp.c ****  * Copyright (c) 2001-2004 Swedish Institute of Computer Science.
  16:Middlewares/Third_Party/LwIP/src/core/memp.c ****  * All rights reserved.
  17:Middlewares/Third_Party/LwIP/src/core/memp.c ****  *
  18:Middlewares/Third_Party/LwIP/src/core/memp.c ****  * Redistribution and use in source and binary forms, with or without modification,
  19:Middlewares/Third_Party/LwIP/src/core/memp.c ****  * are permitted provided that the following conditions are met:
  20:Middlewares/Third_Party/LwIP/src/core/memp.c ****  *
  21:Middlewares/Third_Party/LwIP/src/core/memp.c ****  * 1. Redistributions of source code must retain the above copyright notice,
  22:Middlewares/Third_Party/LwIP/src/core/memp.c ****  *    this list of conditions and the following disclaimer.
  23:Middlewares/Third_Party/LwIP/src/core/memp.c ****  * 2. Redistributions in binary form must reproduce the above copyright notice,
  24:Middlewares/Third_Party/LwIP/src/core/memp.c ****  *    this list of conditions and the following disclaimer in the documentation
  25:Middlewares/Third_Party/LwIP/src/core/memp.c ****  *    and/or other materials provided with the distribution.
  26:Middlewares/Third_Party/LwIP/src/core/memp.c ****  * 3. The name of the author may not be used to endorse or promote products
  27:Middlewares/Third_Party/LwIP/src/core/memp.c ****  *    derived from this software without specific prior written permission.
  28:Middlewares/Third_Party/LwIP/src/core/memp.c ****  *
  29:Middlewares/Third_Party/LwIP/src/core/memp.c ****  * THIS SOFTWARE IS PROVIDED BY THE AUTHOR ``AS IS'' AND ANY EXPRESS OR IMPLIED
  30:Middlewares/Third_Party/LwIP/src/core/memp.c ****  * WARRANTIES, INCLUDING, BUT NOT LIMITED TO, THE IMPLIED WARRANTIES OF
  31:Middlewares/Third_Party/LwIP/src/core/memp.c ****  * MERCHANTABILITY AND FITNESS FOR A PARTICULAR PURPOSE ARE DISCLAIMED. IN NO EVENT
  32:Middlewares/Third_Party/LwIP/src/core/memp.c ****  * SHALL THE AUTHOR BE LIABLE FOR ANY DIRECT, INDIRECT, INCIDENTAL, SPECIAL,
  33:Middlewares/Third_Party/LwIP/src/core/memp.c ****  * EXEMPLARY, OR CONSEQUENTIAL DAMAGES (INCLUDING, BUT NOT LIMITED TO, PROCUREMENT
  34:Middlewares/Third_Party/LwIP/src/core/memp.c ****  * OF SUBSTITUTE GOODS OR SERVICES; LOSS OF USE, DATA, OR PROFITS; OR BUSINESS
  35:Middlewares/Third_Party/LwIP/src/core/memp.c ****  * INTERRUPTION) HOWEVER CAUSED AND ON ANY THEORY OF LIABILITY, WHETHER IN
  36:Middlewares/Third_Party/LwIP/src/core/memp.c ****  * CONTRACT, STRICT LIABILITY, OR TORT (INCLUDING NEGLIGENCE OR OTHERWISE) ARISING
  37:Middlewares/Third_Party/LwIP/src/core/memp.c ****  * IN ANY WAY OUT OF THE USE OF THIS SOFTWARE, EVEN IF ADVISED OF THE POSSIBILITY
  38:Middlewares/Third_Party/LwIP/src/core/memp.c ****  * OF SUCH DAMAGE.
  39:Middlewares/Third_Party/LwIP/src/core/memp.c ****  *
  40:Middlewares/Third_Party/LwIP/src/core/memp.c ****  * This file is part of the lwIP TCP/IP stack.
  41:Middlewares/Third_Party/LwIP/src/core/memp.c ****  *
  42:Middlewares/Third_Party/LwIP/src/core/memp.c ****  * Author: Adam Dunkels <adam@sics.se>
  43:Middlewares/Third_Party/LwIP/src/core/memp.c ****  *
  44:Middlewares/Third_Party/LwIP/src/core/memp.c ****  */
  45:Middlewares/Third_Party/LwIP/src/core/memp.c **** 
  46:Middlewares/Third_Party/LwIP/src/core/memp.c **** #include "lwip/opt.h"
  47:Middlewares/Third_Party/LwIP/src/core/memp.c **** 
  48:Middlewares/Third_Party/LwIP/src/core/memp.c **** #include "lwip/memp.h"
  49:Middlewares/Third_Party/LwIP/src/core/memp.c **** #include "lwip/sys.h"
  50:Middlewares/Third_Party/LwIP/src/core/memp.c **** #include "lwip/stats.h"
  51:Middlewares/Third_Party/LwIP/src/core/memp.c **** 
  52:Middlewares/Third_Party/LwIP/src/core/memp.c **** #include <string.h>
  53:Middlewares/Third_Party/LwIP/src/core/memp.c **** 
  54:Middlewares/Third_Party/LwIP/src/core/memp.c **** /* Make sure we include everything we need for size calculation required by memp_std.h */
  55:Middlewares/Third_Party/LwIP/src/core/memp.c **** #include "lwip/pbuf.h"
  56:Middlewares/Third_Party/LwIP/src/core/memp.c **** #include "lwip/raw.h"
  57:Middlewares/Third_Party/LwIP/src/core/memp.c **** #include "lwip/udp.h"
  58:Middlewares/Third_Party/LwIP/src/core/memp.c **** #include "lwip/tcp.h"
ARM GAS  /tmp/cc4BbpCt.s 			page 6


  59:Middlewares/Third_Party/LwIP/src/core/memp.c **** #include "lwip/priv/tcp_priv.h"
  60:Middlewares/Third_Party/LwIP/src/core/memp.c **** #include "lwip/altcp.h"
  61:Middlewares/Third_Party/LwIP/src/core/memp.c **** #include "lwip/ip4_frag.h"
  62:Middlewares/Third_Party/LwIP/src/core/memp.c **** #include "lwip/netbuf.h"
  63:Middlewares/Third_Party/LwIP/src/core/memp.c **** #include "lwip/api.h"
  64:Middlewares/Third_Party/LwIP/src/core/memp.c **** #include "lwip/priv/tcpip_priv.h"
  65:Middlewares/Third_Party/LwIP/src/core/memp.c **** #include "lwip/priv/api_msg.h"
  66:Middlewares/Third_Party/LwIP/src/core/memp.c **** #include "lwip/priv/sockets_priv.h"
  67:Middlewares/Third_Party/LwIP/src/core/memp.c **** #include "lwip/etharp.h"
  68:Middlewares/Third_Party/LwIP/src/core/memp.c **** #include "lwip/igmp.h"
  69:Middlewares/Third_Party/LwIP/src/core/memp.c **** #include "lwip/timeouts.h"
  70:Middlewares/Third_Party/LwIP/src/core/memp.c **** /* needed by default MEMP_NUM_SYS_TIMEOUT */
  71:Middlewares/Third_Party/LwIP/src/core/memp.c **** #include "netif/ppp/ppp_opts.h"
  72:Middlewares/Third_Party/LwIP/src/core/memp.c **** #include "lwip/netdb.h"
  73:Middlewares/Third_Party/LwIP/src/core/memp.c **** #include "lwip/dns.h"
  74:Middlewares/Third_Party/LwIP/src/core/memp.c **** #include "lwip/priv/nd6_priv.h"
  75:Middlewares/Third_Party/LwIP/src/core/memp.c **** #include "lwip/ip6_frag.h"
  76:Middlewares/Third_Party/LwIP/src/core/memp.c **** #include "lwip/mld6.h"
  77:Middlewares/Third_Party/LwIP/src/core/memp.c **** 
  78:Middlewares/Third_Party/LwIP/src/core/memp.c **** #define LWIP_MEMPOOL(name,num,size,desc) LWIP_MEMPOOL_DECLARE(name,num,size,desc)
  79:Middlewares/Third_Party/LwIP/src/core/memp.c **** #include "lwip/priv/memp_std.h"
  80:Middlewares/Third_Party/LwIP/src/core/memp.c **** 
  81:Middlewares/Third_Party/LwIP/src/core/memp.c **** const struct memp_desc *const memp_pools[MEMP_MAX] = {
  82:Middlewares/Third_Party/LwIP/src/core/memp.c **** #define LWIP_MEMPOOL(name,num,size,desc) &memp_ ## name,
  83:Middlewares/Third_Party/LwIP/src/core/memp.c **** #include "lwip/priv/memp_std.h"
  84:Middlewares/Third_Party/LwIP/src/core/memp.c **** };
  85:Middlewares/Third_Party/LwIP/src/core/memp.c **** 
  86:Middlewares/Third_Party/LwIP/src/core/memp.c **** #ifdef LWIP_HOOK_FILENAME
  87:Middlewares/Third_Party/LwIP/src/core/memp.c **** #include LWIP_HOOK_FILENAME
  88:Middlewares/Third_Party/LwIP/src/core/memp.c **** #endif
  89:Middlewares/Third_Party/LwIP/src/core/memp.c **** 
  90:Middlewares/Third_Party/LwIP/src/core/memp.c **** #if MEMP_MEM_MALLOC && MEMP_OVERFLOW_CHECK >= 2
  91:Middlewares/Third_Party/LwIP/src/core/memp.c **** #undef MEMP_OVERFLOW_CHECK
  92:Middlewares/Third_Party/LwIP/src/core/memp.c **** /* MEMP_OVERFLOW_CHECK >= 2 does not work with MEMP_MEM_MALLOC, use 1 instead */
  93:Middlewares/Third_Party/LwIP/src/core/memp.c **** #define MEMP_OVERFLOW_CHECK 1
  94:Middlewares/Third_Party/LwIP/src/core/memp.c **** #endif
  95:Middlewares/Third_Party/LwIP/src/core/memp.c **** 
  96:Middlewares/Third_Party/LwIP/src/core/memp.c **** #if MEMP_SANITY_CHECK && !MEMP_MEM_MALLOC
  97:Middlewares/Third_Party/LwIP/src/core/memp.c **** /**
  98:Middlewares/Third_Party/LwIP/src/core/memp.c ****  * Check that memp-lists don't form a circle, using "Floyd's cycle-finding algorithm".
  99:Middlewares/Third_Party/LwIP/src/core/memp.c ****  */
 100:Middlewares/Third_Party/LwIP/src/core/memp.c **** static int
 101:Middlewares/Third_Party/LwIP/src/core/memp.c **** memp_sanity(const struct memp_desc *desc)
 102:Middlewares/Third_Party/LwIP/src/core/memp.c **** {
 103:Middlewares/Third_Party/LwIP/src/core/memp.c ****   struct memp *t, *h;
 104:Middlewares/Third_Party/LwIP/src/core/memp.c **** 
 105:Middlewares/Third_Party/LwIP/src/core/memp.c ****   t = *desc->tab;
 106:Middlewares/Third_Party/LwIP/src/core/memp.c ****   if (t != NULL) {
 107:Middlewares/Third_Party/LwIP/src/core/memp.c ****     for (h = t->next; (t != NULL) && (h != NULL); t = t->next,
 108:Middlewares/Third_Party/LwIP/src/core/memp.c ****          h = ((h->next != NULL) ? h->next->next : NULL)) {
 109:Middlewares/Third_Party/LwIP/src/core/memp.c ****       if (t == h) {
 110:Middlewares/Third_Party/LwIP/src/core/memp.c ****         return 0;
 111:Middlewares/Third_Party/LwIP/src/core/memp.c ****       }
 112:Middlewares/Third_Party/LwIP/src/core/memp.c ****     }
 113:Middlewares/Third_Party/LwIP/src/core/memp.c ****   }
 114:Middlewares/Third_Party/LwIP/src/core/memp.c **** 
 115:Middlewares/Third_Party/LwIP/src/core/memp.c ****   return 1;
ARM GAS  /tmp/cc4BbpCt.s 			page 7


 116:Middlewares/Third_Party/LwIP/src/core/memp.c **** }
 117:Middlewares/Third_Party/LwIP/src/core/memp.c **** #endif /* MEMP_SANITY_CHECK && !MEMP_MEM_MALLOC */
 118:Middlewares/Third_Party/LwIP/src/core/memp.c **** 
 119:Middlewares/Third_Party/LwIP/src/core/memp.c **** #if MEMP_OVERFLOW_CHECK
 120:Middlewares/Third_Party/LwIP/src/core/memp.c **** /**
 121:Middlewares/Third_Party/LwIP/src/core/memp.c ****  * Check if a memp element was victim of an overflow or underflow
 122:Middlewares/Third_Party/LwIP/src/core/memp.c ****  * (e.g. the restricted area after/before it has been altered)
 123:Middlewares/Third_Party/LwIP/src/core/memp.c ****  *
 124:Middlewares/Third_Party/LwIP/src/core/memp.c ****  * @param p the memp element to check
 125:Middlewares/Third_Party/LwIP/src/core/memp.c ****  * @param desc the pool p comes from
 126:Middlewares/Third_Party/LwIP/src/core/memp.c ****  */
 127:Middlewares/Third_Party/LwIP/src/core/memp.c **** static void
 128:Middlewares/Third_Party/LwIP/src/core/memp.c **** memp_overflow_check_element(struct memp *p, const struct memp_desc *desc)
 129:Middlewares/Third_Party/LwIP/src/core/memp.c **** {
 130:Middlewares/Third_Party/LwIP/src/core/memp.c ****   mem_overflow_check_raw((u8_t *)p + MEMP_SIZE, desc->size, "pool ", desc->desc);
 131:Middlewares/Third_Party/LwIP/src/core/memp.c **** }
 132:Middlewares/Third_Party/LwIP/src/core/memp.c **** 
 133:Middlewares/Third_Party/LwIP/src/core/memp.c **** /**
 134:Middlewares/Third_Party/LwIP/src/core/memp.c ****  * Initialize the restricted area of on memp element.
 135:Middlewares/Third_Party/LwIP/src/core/memp.c ****  */
 136:Middlewares/Third_Party/LwIP/src/core/memp.c **** static void
 137:Middlewares/Third_Party/LwIP/src/core/memp.c **** memp_overflow_init_element(struct memp *p, const struct memp_desc *desc)
 138:Middlewares/Third_Party/LwIP/src/core/memp.c **** {
 139:Middlewares/Third_Party/LwIP/src/core/memp.c ****   mem_overflow_init_raw((u8_t *)p + MEMP_SIZE, desc->size);
 140:Middlewares/Third_Party/LwIP/src/core/memp.c **** }
 141:Middlewares/Third_Party/LwIP/src/core/memp.c **** 
 142:Middlewares/Third_Party/LwIP/src/core/memp.c **** #if MEMP_OVERFLOW_CHECK >= 2
 143:Middlewares/Third_Party/LwIP/src/core/memp.c **** /**
 144:Middlewares/Third_Party/LwIP/src/core/memp.c ****  * Do an overflow check for all elements in every pool.
 145:Middlewares/Third_Party/LwIP/src/core/memp.c ****  *
 146:Middlewares/Third_Party/LwIP/src/core/memp.c ****  * @see memp_overflow_check_element for a description of the check
 147:Middlewares/Third_Party/LwIP/src/core/memp.c ****  */
 148:Middlewares/Third_Party/LwIP/src/core/memp.c **** static void
 149:Middlewares/Third_Party/LwIP/src/core/memp.c **** memp_overflow_check_all(void)
 150:Middlewares/Third_Party/LwIP/src/core/memp.c **** {
 151:Middlewares/Third_Party/LwIP/src/core/memp.c ****   u16_t i, j;
 152:Middlewares/Third_Party/LwIP/src/core/memp.c ****   struct memp *p;
 153:Middlewares/Third_Party/LwIP/src/core/memp.c ****   SYS_ARCH_DECL_PROTECT(old_level);
 154:Middlewares/Third_Party/LwIP/src/core/memp.c ****   SYS_ARCH_PROTECT(old_level);
 155:Middlewares/Third_Party/LwIP/src/core/memp.c **** 
 156:Middlewares/Third_Party/LwIP/src/core/memp.c ****   for (i = 0; i < MEMP_MAX; ++i) {
 157:Middlewares/Third_Party/LwIP/src/core/memp.c ****     p = (struct memp *)LWIP_MEM_ALIGN(memp_pools[i]->base);
 158:Middlewares/Third_Party/LwIP/src/core/memp.c ****     for (j = 0; j < memp_pools[i]->num; ++j) {
 159:Middlewares/Third_Party/LwIP/src/core/memp.c ****       memp_overflow_check_element(p, memp_pools[i]);
 160:Middlewares/Third_Party/LwIP/src/core/memp.c ****       p = LWIP_ALIGNMENT_CAST(struct memp *, ((u8_t *)p + MEMP_SIZE + memp_pools[i]->size + MEM_SAN
 161:Middlewares/Third_Party/LwIP/src/core/memp.c ****     }
 162:Middlewares/Third_Party/LwIP/src/core/memp.c ****   }
 163:Middlewares/Third_Party/LwIP/src/core/memp.c ****   SYS_ARCH_UNPROTECT(old_level);
 164:Middlewares/Third_Party/LwIP/src/core/memp.c **** }
 165:Middlewares/Third_Party/LwIP/src/core/memp.c **** #endif /* MEMP_OVERFLOW_CHECK >= 2 */
 166:Middlewares/Third_Party/LwIP/src/core/memp.c **** #endif /* MEMP_OVERFLOW_CHECK */
 167:Middlewares/Third_Party/LwIP/src/core/memp.c **** 
 168:Middlewares/Third_Party/LwIP/src/core/memp.c **** /**
 169:Middlewares/Third_Party/LwIP/src/core/memp.c ****  * Initialize custom memory pool.
 170:Middlewares/Third_Party/LwIP/src/core/memp.c ****  * Related functions: memp_malloc_pool, memp_free_pool
 171:Middlewares/Third_Party/LwIP/src/core/memp.c ****  *
 172:Middlewares/Third_Party/LwIP/src/core/memp.c ****  * @param desc pool to initialize
ARM GAS  /tmp/cc4BbpCt.s 			page 8


 173:Middlewares/Third_Party/LwIP/src/core/memp.c ****  */
 174:Middlewares/Third_Party/LwIP/src/core/memp.c **** void
 175:Middlewares/Third_Party/LwIP/src/core/memp.c **** memp_init_pool(const struct memp_desc *desc)
 176:Middlewares/Third_Party/LwIP/src/core/memp.c **** {
 287              		.loc 1 176 1
 288              		.cfi_startproc
 289              		@ args = 0, pretend = 0, frame = 16
 290              		@ frame_needed = 1, uses_anonymous_args = 0
 291              		@ link register save eliminated.
 292 0000 80B4     		push	{r7}
 293              	.LCFI0:
 294              		.cfi_def_cfa_offset 4
 295              		.cfi_offset 7, -4
 296 0002 85B0     		sub	sp, sp, #20
 297              	.LCFI1:
 298              		.cfi_def_cfa_offset 24
 299 0004 00AF     		add	r7, sp, #0
 300              	.LCFI2:
 301              		.cfi_def_cfa_register 7
 302 0006 7860     		str	r0, [r7, #4]
 177:Middlewares/Third_Party/LwIP/src/core/memp.c **** #if MEMP_MEM_MALLOC
 178:Middlewares/Third_Party/LwIP/src/core/memp.c ****   LWIP_UNUSED_ARG(desc);
 179:Middlewares/Third_Party/LwIP/src/core/memp.c **** #else
 180:Middlewares/Third_Party/LwIP/src/core/memp.c ****   int i;
 181:Middlewares/Third_Party/LwIP/src/core/memp.c ****   struct memp *memp;
 182:Middlewares/Third_Party/LwIP/src/core/memp.c **** 
 183:Middlewares/Third_Party/LwIP/src/core/memp.c ****   *desc->tab = NULL;
 303              		.loc 1 183 8
 304 0008 7B68     		ldr	r3, [r7, #4]
 305 000a 9B68     		ldr	r3, [r3, #8]
 306              		.loc 1 183 14
 307 000c 0022     		movs	r2, #0
 308 000e 1A60     		str	r2, [r3]
 184:Middlewares/Third_Party/LwIP/src/core/memp.c ****   memp = (struct memp *)LWIP_MEM_ALIGN(desc->base);
 309              		.loc 1 184 25
 310 0010 7B68     		ldr	r3, [r7, #4]
 311 0012 5B68     		ldr	r3, [r3, #4]
 312 0014 0333     		adds	r3, r3, #3
 313 0016 23F00303 		bic	r3, r3, #3
 314              		.loc 1 184 8
 315 001a BB60     		str	r3, [r7, #8]
 185:Middlewares/Third_Party/LwIP/src/core/memp.c **** #if MEMP_MEM_INIT
 186:Middlewares/Third_Party/LwIP/src/core/memp.c ****   /* force memset on pool memory */
 187:Middlewares/Third_Party/LwIP/src/core/memp.c ****   memset(memp, 0, (size_t)desc->num * (MEMP_SIZE + desc->size
 188:Middlewares/Third_Party/LwIP/src/core/memp.c **** #if MEMP_OVERFLOW_CHECK
 189:Middlewares/Third_Party/LwIP/src/core/memp.c ****                                        + MEM_SANITY_REGION_AFTER_ALIGNED
 190:Middlewares/Third_Party/LwIP/src/core/memp.c **** #endif
 191:Middlewares/Third_Party/LwIP/src/core/memp.c ****                                       ));
 192:Middlewares/Third_Party/LwIP/src/core/memp.c **** #endif
 193:Middlewares/Third_Party/LwIP/src/core/memp.c ****   /* create a linked list of memp elements */
 194:Middlewares/Third_Party/LwIP/src/core/memp.c ****   for (i = 0; i < desc->num; ++i) {
 316              		.loc 1 194 10
 317 001c 0023     		movs	r3, #0
 318 001e FB60     		str	r3, [r7, #12]
 319              		.loc 1 194 3
 320 0020 11E0     		b	.L2
 321              	.L3:
ARM GAS  /tmp/cc4BbpCt.s 			page 9


 195:Middlewares/Third_Party/LwIP/src/core/memp.c ****     memp->next = *desc->tab;
 322              		.loc 1 195 23 discriminator 3
 323 0022 7B68     		ldr	r3, [r7, #4]
 324 0024 9B68     		ldr	r3, [r3, #8]
 325              		.loc 1 195 18 discriminator 3
 326 0026 1A68     		ldr	r2, [r3]
 327              		.loc 1 195 16 discriminator 3
 328 0028 BB68     		ldr	r3, [r7, #8]
 329 002a 1A60     		str	r2, [r3]
 196:Middlewares/Third_Party/LwIP/src/core/memp.c ****     *desc->tab = memp;
 330              		.loc 1 196 10 discriminator 3
 331 002c 7B68     		ldr	r3, [r7, #4]
 332 002e 9B68     		ldr	r3, [r3, #8]
 333              		.loc 1 196 16 discriminator 3
 334 0030 BA68     		ldr	r2, [r7, #8]
 335 0032 1A60     		str	r2, [r3]
 197:Middlewares/Third_Party/LwIP/src/core/memp.c **** #if MEMP_OVERFLOW_CHECK
 198:Middlewares/Third_Party/LwIP/src/core/memp.c ****     memp_overflow_init_element(memp, desc);
 199:Middlewares/Third_Party/LwIP/src/core/memp.c **** #endif /* MEMP_OVERFLOW_CHECK */
 200:Middlewares/Third_Party/LwIP/src/core/memp.c ****     /* cast through void* to get rid of alignment warnings */
 201:Middlewares/Third_Party/LwIP/src/core/memp.c ****     memp = (struct memp *)(void *)((u8_t *)memp + MEMP_SIZE + desc->size
 336              		.loc 1 201 67 discriminator 3
 337 0034 7B68     		ldr	r3, [r7, #4]
 338 0036 1B88     		ldrh	r3, [r3]
 339 0038 1A46     		mov	r2, r3
 340              		.loc 1 201 10 discriminator 3
 341 003a BB68     		ldr	r3, [r7, #8]
 342 003c 1344     		add	r3, r3, r2
 343 003e BB60     		str	r3, [r7, #8]
 194:Middlewares/Third_Party/LwIP/src/core/memp.c ****     memp->next = *desc->tab;
 344              		.loc 1 194 30 discriminator 3
 345 0040 FB68     		ldr	r3, [r7, #12]
 346 0042 0133     		adds	r3, r3, #1
 347 0044 FB60     		str	r3, [r7, #12]
 348              	.L2:
 194:Middlewares/Third_Party/LwIP/src/core/memp.c ****     memp->next = *desc->tab;
 349              		.loc 1 194 23 discriminator 1
 350 0046 7B68     		ldr	r3, [r7, #4]
 351 0048 5B88     		ldrh	r3, [r3, #2]
 352 004a 1A46     		mov	r2, r3
 194:Middlewares/Third_Party/LwIP/src/core/memp.c ****     memp->next = *desc->tab;
 353              		.loc 1 194 3 discriminator 1
 354 004c FB68     		ldr	r3, [r7, #12]
 355 004e 9342     		cmp	r3, r2
 356 0050 E7DB     		blt	.L3
 202:Middlewares/Third_Party/LwIP/src/core/memp.c **** #if MEMP_OVERFLOW_CHECK
 203:Middlewares/Third_Party/LwIP/src/core/memp.c ****                                    + MEM_SANITY_REGION_AFTER_ALIGNED
 204:Middlewares/Third_Party/LwIP/src/core/memp.c **** #endif
 205:Middlewares/Third_Party/LwIP/src/core/memp.c ****                                   );
 206:Middlewares/Third_Party/LwIP/src/core/memp.c ****   }
 207:Middlewares/Third_Party/LwIP/src/core/memp.c **** #if MEMP_STATS
 208:Middlewares/Third_Party/LwIP/src/core/memp.c ****   desc->stats->avail = desc->num;
 209:Middlewares/Third_Party/LwIP/src/core/memp.c **** #endif /* MEMP_STATS */
 210:Middlewares/Third_Party/LwIP/src/core/memp.c **** #endif /* !MEMP_MEM_MALLOC */
 211:Middlewares/Third_Party/LwIP/src/core/memp.c **** 
 212:Middlewares/Third_Party/LwIP/src/core/memp.c **** #if MEMP_STATS && (defined(LWIP_DEBUG) || LWIP_STATS_DISPLAY)
 213:Middlewares/Third_Party/LwIP/src/core/memp.c ****   desc->stats->name  = desc->desc;
ARM GAS  /tmp/cc4BbpCt.s 			page 10


 214:Middlewares/Third_Party/LwIP/src/core/memp.c **** #endif /* MEMP_STATS && (defined(LWIP_DEBUG) || LWIP_STATS_DISPLAY) */
 215:Middlewares/Third_Party/LwIP/src/core/memp.c **** }
 357              		.loc 1 215 1
 358 0052 00BF     		nop
 359 0054 1437     		adds	r7, r7, #20
 360              	.LCFI3:
 361              		.cfi_def_cfa_offset 4
 362 0056 BD46     		mov	sp, r7
 363              	.LCFI4:
 364              		.cfi_def_cfa_register 13
 365              		@ sp needed
 366 0058 5DF8047B 		ldr	r7, [sp], #4
 367              	.LCFI5:
 368              		.cfi_restore 7
 369              		.cfi_def_cfa_offset 0
 370 005c 7047     		bx	lr
 371              		.cfi_endproc
 372              	.LFE137:
 374              		.section	.text.memp_init,"ax",%progbits
 375              		.align	1
 376              		.global	memp_init
 377              		.syntax unified
 378              		.thumb
 379              		.thumb_func
 380              		.fpu fpv4-sp-d16
 382              	memp_init:
 383              	.LFB138:
 216:Middlewares/Third_Party/LwIP/src/core/memp.c **** 
 217:Middlewares/Third_Party/LwIP/src/core/memp.c **** /**
 218:Middlewares/Third_Party/LwIP/src/core/memp.c ****  * Initializes lwIP built-in pools.
 219:Middlewares/Third_Party/LwIP/src/core/memp.c ****  * Related functions: memp_malloc, memp_free
 220:Middlewares/Third_Party/LwIP/src/core/memp.c ****  *
 221:Middlewares/Third_Party/LwIP/src/core/memp.c ****  * Carves out memp_memory into linked lists for each pool-type.
 222:Middlewares/Third_Party/LwIP/src/core/memp.c ****  */
 223:Middlewares/Third_Party/LwIP/src/core/memp.c **** void
 224:Middlewares/Third_Party/LwIP/src/core/memp.c **** memp_init(void)
 225:Middlewares/Third_Party/LwIP/src/core/memp.c **** {
 384              		.loc 1 225 1
 385              		.cfi_startproc
 386              		@ args = 0, pretend = 0, frame = 8
 387              		@ frame_needed = 1, uses_anonymous_args = 0
 388 0000 80B5     		push	{r7, lr}
 389              	.LCFI6:
 390              		.cfi_def_cfa_offset 8
 391              		.cfi_offset 7, -8
 392              		.cfi_offset 14, -4
 393 0002 82B0     		sub	sp, sp, #8
 394              	.LCFI7:
 395              		.cfi_def_cfa_offset 16
 396 0004 00AF     		add	r7, sp, #0
 397              	.LCFI8:
 398              		.cfi_def_cfa_register 7
 226:Middlewares/Third_Party/LwIP/src/core/memp.c ****   u16_t i;
 227:Middlewares/Third_Party/LwIP/src/core/memp.c **** 
 228:Middlewares/Third_Party/LwIP/src/core/memp.c ****   /* for every pool: */
 229:Middlewares/Third_Party/LwIP/src/core/memp.c ****   for (i = 0; i < LWIP_ARRAYSIZE(memp_pools); i++) {
 399              		.loc 1 229 10
ARM GAS  /tmp/cc4BbpCt.s 			page 11


 400 0006 0023     		movs	r3, #0
 401 0008 FB80     		strh	r3, [r7, #6]	@ movhi
 402              		.loc 1 229 3
 403 000a 09E0     		b	.L5
 404              	.L6:
 230:Middlewares/Third_Party/LwIP/src/core/memp.c ****     memp_init_pool(memp_pools[i]);
 405              		.loc 1 230 5 discriminator 3
 406 000c FB88     		ldrh	r3, [r7, #6]
 407 000e 084A     		ldr	r2, .L7
 408 0010 52F82330 		ldr	r3, [r2, r3, lsl #2]
 409 0014 1846     		mov	r0, r3
 410 0016 FFF7FEFF 		bl	memp_init_pool
 229:Middlewares/Third_Party/LwIP/src/core/memp.c ****     memp_init_pool(memp_pools[i]);
 411              		.loc 1 229 48 discriminator 3
 412 001a FB88     		ldrh	r3, [r7, #6]
 413 001c 0133     		adds	r3, r3, #1
 414 001e FB80     		strh	r3, [r7, #6]	@ movhi
 415              	.L5:
 229:Middlewares/Third_Party/LwIP/src/core/memp.c ****     memp_init_pool(memp_pools[i]);
 416              		.loc 1 229 3 discriminator 1
 417 0020 FB88     		ldrh	r3, [r7, #6]
 418 0022 0D2B     		cmp	r3, #13
 419 0024 F2D9     		bls	.L6
 231:Middlewares/Third_Party/LwIP/src/core/memp.c **** 
 232:Middlewares/Third_Party/LwIP/src/core/memp.c **** #if LWIP_STATS && MEMP_STATS
 233:Middlewares/Third_Party/LwIP/src/core/memp.c ****     lwip_stats.memp[i] = memp_pools[i]->stats;
 234:Middlewares/Third_Party/LwIP/src/core/memp.c **** #endif
 235:Middlewares/Third_Party/LwIP/src/core/memp.c ****   }
 236:Middlewares/Third_Party/LwIP/src/core/memp.c **** 
 237:Middlewares/Third_Party/LwIP/src/core/memp.c **** #if MEMP_OVERFLOW_CHECK >= 2
 238:Middlewares/Third_Party/LwIP/src/core/memp.c ****   /* check everything a first time to see if it worked */
 239:Middlewares/Third_Party/LwIP/src/core/memp.c ****   memp_overflow_check_all();
 240:Middlewares/Third_Party/LwIP/src/core/memp.c **** #endif /* MEMP_OVERFLOW_CHECK >= 2 */
 241:Middlewares/Third_Party/LwIP/src/core/memp.c **** }
 420              		.loc 1 241 1
 421 0026 00BF     		nop
 422 0028 0837     		adds	r7, r7, #8
 423              	.LCFI9:
 424              		.cfi_def_cfa_offset 8
 425 002a BD46     		mov	sp, r7
 426              	.LCFI10:
 427              		.cfi_def_cfa_register 13
 428              		@ sp needed
 429 002c 80BD     		pop	{r7, pc}
 430              	.L8:
 431 002e 00BF     		.align	2
 432              	.L7:
 433 0030 00000000 		.word	memp_pools
 434              		.cfi_endproc
 435              	.LFE138:
 437              		.section	.rodata
 438              		.align	2
 439              	.LC0:
 440 0000 4D696464 		.ascii	"Middlewares/Third_Party/LwIP/src/core/memp.c\000"
 440      6C657761 
 440      7265732F 
 440      54686972 
ARM GAS  /tmp/cc4BbpCt.s 			page 12


 440      645F5061 
 441 002d 000000   		.align	2
 442              	.LC1:
 443 0030 6D656D70 		.ascii	"memp_malloc: memp properly aligned\000"
 443      5F6D616C 
 443      6C6F633A 
 443      206D656D 
 443      70207072 
 444 0053 00       		.align	2
 445              	.LC2:
 446 0054 41737365 		.ascii	"Assertion \"%s\" failed at line %d in %s\012\000"
 446      7274696F 
 446      6E202225 
 446      73222066 
 446      61696C65 
 447              		.section	.text.do_memp_malloc_pool,"ax",%progbits
 448              		.align	1
 449              		.syntax unified
 450              		.thumb
 451              		.thumb_func
 452              		.fpu fpv4-sp-d16
 454              	do_memp_malloc_pool:
 455              	.LFB139:
 242:Middlewares/Third_Party/LwIP/src/core/memp.c **** 
 243:Middlewares/Third_Party/LwIP/src/core/memp.c **** static void *
 244:Middlewares/Third_Party/LwIP/src/core/memp.c **** #if !MEMP_OVERFLOW_CHECK
 245:Middlewares/Third_Party/LwIP/src/core/memp.c **** do_memp_malloc_pool(const struct memp_desc *desc)
 246:Middlewares/Third_Party/LwIP/src/core/memp.c **** #else
 247:Middlewares/Third_Party/LwIP/src/core/memp.c **** do_memp_malloc_pool_fn(const struct memp_desc *desc, const char *file, const int line)
 248:Middlewares/Third_Party/LwIP/src/core/memp.c **** #endif
 249:Middlewares/Third_Party/LwIP/src/core/memp.c **** {
 456              		.loc 1 249 1
 457              		.cfi_startproc
 458              		@ args = 0, pretend = 0, frame = 16
 459              		@ frame_needed = 1, uses_anonymous_args = 0
 460 0000 80B5     		push	{r7, lr}
 461              	.LCFI11:
 462              		.cfi_def_cfa_offset 8
 463              		.cfi_offset 7, -8
 464              		.cfi_offset 14, -4
 465 0002 84B0     		sub	sp, sp, #16
 466              	.LCFI12:
 467              		.cfi_def_cfa_offset 24
 468 0004 00AF     		add	r7, sp, #0
 469              	.LCFI13:
 470              		.cfi_def_cfa_register 7
 471 0006 7860     		str	r0, [r7, #4]
 250:Middlewares/Third_Party/LwIP/src/core/memp.c ****   struct memp *memp;
 251:Middlewares/Third_Party/LwIP/src/core/memp.c ****   SYS_ARCH_DECL_PROTECT(old_level);
 252:Middlewares/Third_Party/LwIP/src/core/memp.c **** 
 253:Middlewares/Third_Party/LwIP/src/core/memp.c **** #if MEMP_MEM_MALLOC
 254:Middlewares/Third_Party/LwIP/src/core/memp.c ****   memp = (struct memp *)mem_malloc(MEMP_SIZE + MEMP_ALIGN_SIZE(desc->size));
 255:Middlewares/Third_Party/LwIP/src/core/memp.c ****   SYS_ARCH_PROTECT(old_level);
 256:Middlewares/Third_Party/LwIP/src/core/memp.c **** #else /* MEMP_MEM_MALLOC */
 257:Middlewares/Third_Party/LwIP/src/core/memp.c ****   SYS_ARCH_PROTECT(old_level);
 472              		.loc 1 257 3
 473 0008 FFF7FEFF 		bl	sys_arch_protect
ARM GAS  /tmp/cc4BbpCt.s 			page 13


 474 000c F860     		str	r0, [r7, #12]
 258:Middlewares/Third_Party/LwIP/src/core/memp.c **** 
 259:Middlewares/Third_Party/LwIP/src/core/memp.c ****   memp = *desc->tab;
 475              		.loc 1 259 15
 476 000e 7B68     		ldr	r3, [r7, #4]
 477 0010 9B68     		ldr	r3, [r3, #8]
 478              		.loc 1 259 8
 479 0012 1B68     		ldr	r3, [r3]
 480 0014 BB60     		str	r3, [r7, #8]
 260:Middlewares/Third_Party/LwIP/src/core/memp.c **** #endif /* MEMP_MEM_MALLOC */
 261:Middlewares/Third_Party/LwIP/src/core/memp.c **** 
 262:Middlewares/Third_Party/LwIP/src/core/memp.c ****   if (memp != NULL) {
 481              		.loc 1 262 6
 482 0016 BB68     		ldr	r3, [r7, #8]
 483 0018 002B     		cmp	r3, #0
 484 001a 15D0     		beq	.L10
 263:Middlewares/Third_Party/LwIP/src/core/memp.c **** #if !MEMP_MEM_MALLOC
 264:Middlewares/Third_Party/LwIP/src/core/memp.c **** #if MEMP_OVERFLOW_CHECK == 1
 265:Middlewares/Third_Party/LwIP/src/core/memp.c ****     memp_overflow_check_element(memp, desc);
 266:Middlewares/Third_Party/LwIP/src/core/memp.c **** #endif /* MEMP_OVERFLOW_CHECK */
 267:Middlewares/Third_Party/LwIP/src/core/memp.c **** 
 268:Middlewares/Third_Party/LwIP/src/core/memp.c ****     *desc->tab = memp->next;
 485              		.loc 1 268 10
 486 001c 7B68     		ldr	r3, [r7, #4]
 487 001e 9B68     		ldr	r3, [r3, #8]
 488              		.loc 1 268 22
 489 0020 BA68     		ldr	r2, [r7, #8]
 490 0022 1268     		ldr	r2, [r2]
 491              		.loc 1 268 16
 492 0024 1A60     		str	r2, [r3]
 269:Middlewares/Third_Party/LwIP/src/core/memp.c **** #if MEMP_OVERFLOW_CHECK
 270:Middlewares/Third_Party/LwIP/src/core/memp.c ****     memp->next = NULL;
 271:Middlewares/Third_Party/LwIP/src/core/memp.c **** #endif /* MEMP_OVERFLOW_CHECK */
 272:Middlewares/Third_Party/LwIP/src/core/memp.c **** #endif /* !MEMP_MEM_MALLOC */
 273:Middlewares/Third_Party/LwIP/src/core/memp.c **** #if MEMP_OVERFLOW_CHECK
 274:Middlewares/Third_Party/LwIP/src/core/memp.c ****     memp->file = file;
 275:Middlewares/Third_Party/LwIP/src/core/memp.c ****     memp->line = line;
 276:Middlewares/Third_Party/LwIP/src/core/memp.c **** #if MEMP_MEM_MALLOC
 277:Middlewares/Third_Party/LwIP/src/core/memp.c ****     memp_overflow_init_element(memp, desc);
 278:Middlewares/Third_Party/LwIP/src/core/memp.c **** #endif /* MEMP_MEM_MALLOC */
 279:Middlewares/Third_Party/LwIP/src/core/memp.c **** #endif /* MEMP_OVERFLOW_CHECK */
 280:Middlewares/Third_Party/LwIP/src/core/memp.c ****     LWIP_ASSERT("memp_malloc: memp properly aligned",
 493              		.loc 1 280 5
 494 0026 BB68     		ldr	r3, [r7, #8]
 495 0028 03F00303 		and	r3, r3, #3
 496 002c 002B     		cmp	r3, #0
 497 002e 06D0     		beq	.L11
 498              		.loc 1 280 5 is_stmt 0 discriminator 1
 499 0030 094B     		ldr	r3, .L13
 500 0032 40F21912 		movw	r2, #281
 501 0036 0949     		ldr	r1, .L13+4
 502 0038 0948     		ldr	r0, .L13+8
 503 003a FFF7FEFF 		bl	printf
 504              	.L11:
 281:Middlewares/Third_Party/LwIP/src/core/memp.c ****                 ((mem_ptr_t)memp % MEM_ALIGNMENT) == 0);
 282:Middlewares/Third_Party/LwIP/src/core/memp.c **** #if MEMP_STATS
 283:Middlewares/Third_Party/LwIP/src/core/memp.c ****     desc->stats->used++;
ARM GAS  /tmp/cc4BbpCt.s 			page 14


 284:Middlewares/Third_Party/LwIP/src/core/memp.c ****     if (desc->stats->used > desc->stats->max) {
 285:Middlewares/Third_Party/LwIP/src/core/memp.c ****       desc->stats->max = desc->stats->used;
 286:Middlewares/Third_Party/LwIP/src/core/memp.c ****     }
 287:Middlewares/Third_Party/LwIP/src/core/memp.c **** #endif
 288:Middlewares/Third_Party/LwIP/src/core/memp.c ****     SYS_ARCH_UNPROTECT(old_level);
 505              		.loc 1 288 5 is_stmt 1
 506 003e F868     		ldr	r0, [r7, #12]
 507 0040 FFF7FEFF 		bl	sys_arch_unprotect
 289:Middlewares/Third_Party/LwIP/src/core/memp.c ****     /* cast through u8_t* to get rid of alignment warnings */
 290:Middlewares/Third_Party/LwIP/src/core/memp.c ****     return ((u8_t *)memp + MEMP_SIZE);
 508              		.loc 1 290 26
 509 0044 BB68     		ldr	r3, [r7, #8]
 510 0046 03E0     		b	.L12
 511              	.L10:
 291:Middlewares/Third_Party/LwIP/src/core/memp.c ****   } else {
 292:Middlewares/Third_Party/LwIP/src/core/memp.c **** #if MEMP_STATS
 293:Middlewares/Third_Party/LwIP/src/core/memp.c ****     desc->stats->err++;
 294:Middlewares/Third_Party/LwIP/src/core/memp.c **** #endif
 295:Middlewares/Third_Party/LwIP/src/core/memp.c ****     SYS_ARCH_UNPROTECT(old_level);
 512              		.loc 1 295 5
 513 0048 F868     		ldr	r0, [r7, #12]
 514 004a FFF7FEFF 		bl	sys_arch_unprotect
 296:Middlewares/Third_Party/LwIP/src/core/memp.c ****     LWIP_DEBUGF(MEMP_DEBUG | LWIP_DBG_LEVEL_SERIOUS, ("memp_malloc: out of memory in pool %s\n", de
 297:Middlewares/Third_Party/LwIP/src/core/memp.c ****   }
 298:Middlewares/Third_Party/LwIP/src/core/memp.c **** 
 299:Middlewares/Third_Party/LwIP/src/core/memp.c ****   return NULL;
 515              		.loc 1 299 10
 516 004e 0023     		movs	r3, #0
 517              	.L12:
 300:Middlewares/Third_Party/LwIP/src/core/memp.c **** }
 518              		.loc 1 300 1
 519 0050 1846     		mov	r0, r3
 520 0052 1037     		adds	r7, r7, #16
 521              	.LCFI14:
 522              		.cfi_def_cfa_offset 8
 523 0054 BD46     		mov	sp, r7
 524              	.LCFI15:
 525              		.cfi_def_cfa_register 13
 526              		@ sp needed
 527 0056 80BD     		pop	{r7, pc}
 528              	.L14:
 529              		.align	2
 530              	.L13:
 531 0058 00000000 		.word	.LC0
 532 005c 30000000 		.word	.LC1
 533 0060 54000000 		.word	.LC2
 534              		.cfi_endproc
 535              	.LFE139:
 537              		.section	.rodata
 538              		.align	2
 539              	.LC3:
 540 007c 696E7661 		.ascii	"invalid pool desc\000"
 540      6C696420 
 540      706F6F6C 
 540      20646573 
 540      6300
 541              		.section	.text.memp_malloc_pool,"ax",%progbits
ARM GAS  /tmp/cc4BbpCt.s 			page 15


 542              		.align	1
 543              		.global	memp_malloc_pool
 544              		.syntax unified
 545              		.thumb
 546              		.thumb_func
 547              		.fpu fpv4-sp-d16
 549              	memp_malloc_pool:
 550              	.LFB140:
 301:Middlewares/Third_Party/LwIP/src/core/memp.c **** 
 302:Middlewares/Third_Party/LwIP/src/core/memp.c **** /**
 303:Middlewares/Third_Party/LwIP/src/core/memp.c ****  * Get an element from a custom pool.
 304:Middlewares/Third_Party/LwIP/src/core/memp.c ****  *
 305:Middlewares/Third_Party/LwIP/src/core/memp.c ****  * @param desc the pool to get an element from
 306:Middlewares/Third_Party/LwIP/src/core/memp.c ****  *
 307:Middlewares/Third_Party/LwIP/src/core/memp.c ****  * @return a pointer to the allocated memory or a NULL pointer on error
 308:Middlewares/Third_Party/LwIP/src/core/memp.c ****  */
 309:Middlewares/Third_Party/LwIP/src/core/memp.c **** void *
 310:Middlewares/Third_Party/LwIP/src/core/memp.c **** #if !MEMP_OVERFLOW_CHECK
 311:Middlewares/Third_Party/LwIP/src/core/memp.c **** memp_malloc_pool(const struct memp_desc *desc)
 312:Middlewares/Third_Party/LwIP/src/core/memp.c **** #else
 313:Middlewares/Third_Party/LwIP/src/core/memp.c **** memp_malloc_pool_fn(const struct memp_desc *desc, const char *file, const int line)
 314:Middlewares/Third_Party/LwIP/src/core/memp.c **** #endif
 315:Middlewares/Third_Party/LwIP/src/core/memp.c **** {
 551              		.loc 1 315 1
 552              		.cfi_startproc
 553              		@ args = 0, pretend = 0, frame = 8
 554              		@ frame_needed = 1, uses_anonymous_args = 0
 555 0000 80B5     		push	{r7, lr}
 556              	.LCFI16:
 557              		.cfi_def_cfa_offset 8
 558              		.cfi_offset 7, -8
 559              		.cfi_offset 14, -4
 560 0002 82B0     		sub	sp, sp, #8
 561              	.LCFI17:
 562              		.cfi_def_cfa_offset 16
 563 0004 00AF     		add	r7, sp, #0
 564              	.LCFI18:
 565              		.cfi_def_cfa_register 7
 566 0006 7860     		str	r0, [r7, #4]
 316:Middlewares/Third_Party/LwIP/src/core/memp.c ****   LWIP_ASSERT("invalid pool desc", desc != NULL);
 567              		.loc 1 316 3
 568 0008 7B68     		ldr	r3, [r7, #4]
 569 000a 002B     		cmp	r3, #0
 570 000c 06D1     		bne	.L16
 571              		.loc 1 316 3 is_stmt 0 discriminator 1
 572 000e 0A4B     		ldr	r3, .L19
 573 0010 4FF49E72 		mov	r2, #316
 574 0014 0949     		ldr	r1, .L19+4
 575 0016 0A48     		ldr	r0, .L19+8
 576 0018 FFF7FEFF 		bl	printf
 577              	.L16:
 317:Middlewares/Third_Party/LwIP/src/core/memp.c ****   if (desc == NULL) {
 578              		.loc 1 317 6 is_stmt 1
 579 001c 7B68     		ldr	r3, [r7, #4]
 580 001e 002B     		cmp	r3, #0
 581 0020 01D1     		bne	.L17
 318:Middlewares/Third_Party/LwIP/src/core/memp.c ****     return NULL;
ARM GAS  /tmp/cc4BbpCt.s 			page 16


 582              		.loc 1 318 12
 583 0022 0023     		movs	r3, #0
 584 0024 03E0     		b	.L18
 585              	.L17:
 319:Middlewares/Third_Party/LwIP/src/core/memp.c ****   }
 320:Middlewares/Third_Party/LwIP/src/core/memp.c **** 
 321:Middlewares/Third_Party/LwIP/src/core/memp.c **** #if !MEMP_OVERFLOW_CHECK
 322:Middlewares/Third_Party/LwIP/src/core/memp.c ****   return do_memp_malloc_pool(desc);
 586              		.loc 1 322 10
 587 0026 7868     		ldr	r0, [r7, #4]
 588 0028 FFF7FEFF 		bl	do_memp_malloc_pool
 589 002c 0346     		mov	r3, r0
 590              	.L18:
 323:Middlewares/Third_Party/LwIP/src/core/memp.c **** #else
 324:Middlewares/Third_Party/LwIP/src/core/memp.c ****   return do_memp_malloc_pool_fn(desc, file, line);
 325:Middlewares/Third_Party/LwIP/src/core/memp.c **** #endif
 326:Middlewares/Third_Party/LwIP/src/core/memp.c **** }
 591              		.loc 1 326 1
 592 002e 1846     		mov	r0, r3
 593 0030 0837     		adds	r7, r7, #8
 594              	.LCFI19:
 595              		.cfi_def_cfa_offset 8
 596 0032 BD46     		mov	sp, r7
 597              	.LCFI20:
 598              		.cfi_def_cfa_register 13
 599              		@ sp needed
 600 0034 80BD     		pop	{r7, pc}
 601              	.L20:
 602 0036 00BF     		.align	2
 603              	.L19:
 604 0038 00000000 		.word	.LC0
 605 003c 7C000000 		.word	.LC3
 606 0040 54000000 		.word	.LC2
 607              		.cfi_endproc
 608              	.LFE140:
 610              		.section	.rodata
 611 008e 0000     		.align	2
 612              	.LC4:
 613 0090 6D656D70 		.ascii	"memp_malloc: type < MEMP_MAX\000"
 613      5F6D616C 
 613      6C6F633A 
 613      20747970 
 613      65203C20 
 614              		.section	.text.memp_malloc,"ax",%progbits
 615              		.align	1
 616              		.global	memp_malloc
 617              		.syntax unified
 618              		.thumb
 619              		.thumb_func
 620              		.fpu fpv4-sp-d16
 622              	memp_malloc:
 623              	.LFB141:
 327:Middlewares/Third_Party/LwIP/src/core/memp.c **** 
 328:Middlewares/Third_Party/LwIP/src/core/memp.c **** /**
 329:Middlewares/Third_Party/LwIP/src/core/memp.c ****  * Get an element from a specific pool.
 330:Middlewares/Third_Party/LwIP/src/core/memp.c ****  *
 331:Middlewares/Third_Party/LwIP/src/core/memp.c ****  * @param type the pool to get an element from
ARM GAS  /tmp/cc4BbpCt.s 			page 17


 332:Middlewares/Third_Party/LwIP/src/core/memp.c ****  *
 333:Middlewares/Third_Party/LwIP/src/core/memp.c ****  * @return a pointer to the allocated memory or a NULL pointer on error
 334:Middlewares/Third_Party/LwIP/src/core/memp.c ****  */
 335:Middlewares/Third_Party/LwIP/src/core/memp.c **** void *
 336:Middlewares/Third_Party/LwIP/src/core/memp.c **** #if !MEMP_OVERFLOW_CHECK
 337:Middlewares/Third_Party/LwIP/src/core/memp.c **** memp_malloc(memp_t type)
 338:Middlewares/Third_Party/LwIP/src/core/memp.c **** #else
 339:Middlewares/Third_Party/LwIP/src/core/memp.c **** memp_malloc_fn(memp_t type, const char *file, const int line)
 340:Middlewares/Third_Party/LwIP/src/core/memp.c **** #endif
 341:Middlewares/Third_Party/LwIP/src/core/memp.c **** {
 624              		.loc 1 341 1
 625              		.cfi_startproc
 626              		@ args = 0, pretend = 0, frame = 16
 627              		@ frame_needed = 1, uses_anonymous_args = 0
 628 0000 80B5     		push	{r7, lr}
 629              	.LCFI21:
 630              		.cfi_def_cfa_offset 8
 631              		.cfi_offset 7, -8
 632              		.cfi_offset 14, -4
 633 0002 84B0     		sub	sp, sp, #16
 634              	.LCFI22:
 635              		.cfi_def_cfa_offset 24
 636 0004 00AF     		add	r7, sp, #0
 637              	.LCFI23:
 638              		.cfi_def_cfa_register 7
 639 0006 0346     		mov	r3, r0
 640 0008 FB71     		strb	r3, [r7, #7]
 342:Middlewares/Third_Party/LwIP/src/core/memp.c ****   void *memp;
 343:Middlewares/Third_Party/LwIP/src/core/memp.c ****   LWIP_ERROR("memp_malloc: type < MEMP_MAX", (type < MEMP_MAX), return NULL;);
 641              		.loc 1 343 3
 642 000a FB79     		ldrb	r3, [r7, #7]	@ zero_extendqisi2
 643 000c 0D2B     		cmp	r3, #13
 644 000e 08D9     		bls	.L22
 645              		.loc 1 343 3 is_stmt 0 discriminator 1
 646 0010 0A4B     		ldr	r3, .L24
 647 0012 40F25712 		movw	r2, #343
 648 0016 0A49     		ldr	r1, .L24+4
 649 0018 0A48     		ldr	r0, .L24+8
 650 001a FFF7FEFF 		bl	printf
 651 001e 0023     		movs	r3, #0
 652 0020 08E0     		b	.L23
 653              	.L22:
 344:Middlewares/Third_Party/LwIP/src/core/memp.c **** 
 345:Middlewares/Third_Party/LwIP/src/core/memp.c **** #if MEMP_OVERFLOW_CHECK >= 2
 346:Middlewares/Third_Party/LwIP/src/core/memp.c ****   memp_overflow_check_all();
 347:Middlewares/Third_Party/LwIP/src/core/memp.c **** #endif /* MEMP_OVERFLOW_CHECK >= 2 */
 348:Middlewares/Third_Party/LwIP/src/core/memp.c **** 
 349:Middlewares/Third_Party/LwIP/src/core/memp.c **** #if !MEMP_OVERFLOW_CHECK
 350:Middlewares/Third_Party/LwIP/src/core/memp.c ****   memp = do_memp_malloc_pool(memp_pools[type]);
 654              		.loc 1 350 10 is_stmt 1
 655 0022 FB79     		ldrb	r3, [r7, #7]	@ zero_extendqisi2
 656 0024 084A     		ldr	r2, .L24+12
 657 0026 52F82330 		ldr	r3, [r2, r3, lsl #2]
 658 002a 1846     		mov	r0, r3
 659 002c FFF7FEFF 		bl	do_memp_malloc_pool
 660 0030 F860     		str	r0, [r7, #12]
 351:Middlewares/Third_Party/LwIP/src/core/memp.c **** #else
ARM GAS  /tmp/cc4BbpCt.s 			page 18


 352:Middlewares/Third_Party/LwIP/src/core/memp.c ****   memp = do_memp_malloc_pool_fn(memp_pools[type], file, line);
 353:Middlewares/Third_Party/LwIP/src/core/memp.c **** #endif
 354:Middlewares/Third_Party/LwIP/src/core/memp.c **** 
 355:Middlewares/Third_Party/LwIP/src/core/memp.c ****   return memp;
 661              		.loc 1 355 10
 662 0032 FB68     		ldr	r3, [r7, #12]
 663              	.L23:
 356:Middlewares/Third_Party/LwIP/src/core/memp.c **** }
 664              		.loc 1 356 1
 665 0034 1846     		mov	r0, r3
 666 0036 1037     		adds	r7, r7, #16
 667              	.LCFI24:
 668              		.cfi_def_cfa_offset 8
 669 0038 BD46     		mov	sp, r7
 670              	.LCFI25:
 671              		.cfi_def_cfa_register 13
 672              		@ sp needed
 673 003a 80BD     		pop	{r7, pc}
 674              	.L25:
 675              		.align	2
 676              	.L24:
 677 003c 00000000 		.word	.LC0
 678 0040 90000000 		.word	.LC4
 679 0044 54000000 		.word	.LC2
 680 0048 00000000 		.word	memp_pools
 681              		.cfi_endproc
 682              	.LFE141:
 684              		.section	.rodata
 685 00ad 000000   		.align	2
 686              	.LC5:
 687 00b0 6D656D70 		.ascii	"memp_free: mem properly aligned\000"
 687      5F667265 
 687      653A206D 
 687      656D2070 
 687      726F7065 
 688              		.section	.text.do_memp_free_pool,"ax",%progbits
 689              		.align	1
 690              		.syntax unified
 691              		.thumb
 692              		.thumb_func
 693              		.fpu fpv4-sp-d16
 695              	do_memp_free_pool:
 696              	.LFB142:
 357:Middlewares/Third_Party/LwIP/src/core/memp.c **** 
 358:Middlewares/Third_Party/LwIP/src/core/memp.c **** static void
 359:Middlewares/Third_Party/LwIP/src/core/memp.c **** do_memp_free_pool(const struct memp_desc *desc, void *mem)
 360:Middlewares/Third_Party/LwIP/src/core/memp.c **** {
 697              		.loc 1 360 1
 698              		.cfi_startproc
 699              		@ args = 0, pretend = 0, frame = 16
 700              		@ frame_needed = 1, uses_anonymous_args = 0
 701 0000 80B5     		push	{r7, lr}
 702              	.LCFI26:
 703              		.cfi_def_cfa_offset 8
 704              		.cfi_offset 7, -8
 705              		.cfi_offset 14, -4
 706 0002 84B0     		sub	sp, sp, #16
ARM GAS  /tmp/cc4BbpCt.s 			page 19


 707              	.LCFI27:
 708              		.cfi_def_cfa_offset 24
 709 0004 00AF     		add	r7, sp, #0
 710              	.LCFI28:
 711              		.cfi_def_cfa_register 7
 712 0006 7860     		str	r0, [r7, #4]
 713 0008 3960     		str	r1, [r7]
 361:Middlewares/Third_Party/LwIP/src/core/memp.c ****   struct memp *memp;
 362:Middlewares/Third_Party/LwIP/src/core/memp.c ****   SYS_ARCH_DECL_PROTECT(old_level);
 363:Middlewares/Third_Party/LwIP/src/core/memp.c **** 
 364:Middlewares/Third_Party/LwIP/src/core/memp.c ****   LWIP_ASSERT("memp_free: mem properly aligned",
 714              		.loc 1 364 3
 715 000a 3B68     		ldr	r3, [r7]
 716 000c 03F00303 		and	r3, r3, #3
 717 0010 002B     		cmp	r3, #0
 718 0012 06D0     		beq	.L27
 719              		.loc 1 364 3 is_stmt 0 discriminator 1
 720 0014 0D4B     		ldr	r3, .L28
 721 0016 40F26D12 		movw	r2, #365
 722 001a 0D49     		ldr	r1, .L28+4
 723 001c 0D48     		ldr	r0, .L28+8
 724 001e FFF7FEFF 		bl	printf
 725              	.L27:
 365:Middlewares/Third_Party/LwIP/src/core/memp.c ****               ((mem_ptr_t)mem % MEM_ALIGNMENT) == 0);
 366:Middlewares/Third_Party/LwIP/src/core/memp.c **** 
 367:Middlewares/Third_Party/LwIP/src/core/memp.c ****   /* cast through void* to get rid of alignment warnings */
 368:Middlewares/Third_Party/LwIP/src/core/memp.c ****   memp = (struct memp *)(void *)((u8_t *)mem - MEMP_SIZE);
 726              		.loc 1 368 8 is_stmt 1
 727 0022 3B68     		ldr	r3, [r7]
 728 0024 FB60     		str	r3, [r7, #12]
 369:Middlewares/Third_Party/LwIP/src/core/memp.c **** 
 370:Middlewares/Third_Party/LwIP/src/core/memp.c ****   SYS_ARCH_PROTECT(old_level);
 729              		.loc 1 370 3
 730 0026 FFF7FEFF 		bl	sys_arch_protect
 731 002a B860     		str	r0, [r7, #8]
 371:Middlewares/Third_Party/LwIP/src/core/memp.c **** 
 372:Middlewares/Third_Party/LwIP/src/core/memp.c **** #if MEMP_OVERFLOW_CHECK == 1
 373:Middlewares/Third_Party/LwIP/src/core/memp.c ****   memp_overflow_check_element(memp, desc);
 374:Middlewares/Third_Party/LwIP/src/core/memp.c **** #endif /* MEMP_OVERFLOW_CHECK */
 375:Middlewares/Third_Party/LwIP/src/core/memp.c **** 
 376:Middlewares/Third_Party/LwIP/src/core/memp.c **** #if MEMP_STATS
 377:Middlewares/Third_Party/LwIP/src/core/memp.c ****   desc->stats->used--;
 378:Middlewares/Third_Party/LwIP/src/core/memp.c **** #endif
 379:Middlewares/Third_Party/LwIP/src/core/memp.c **** 
 380:Middlewares/Third_Party/LwIP/src/core/memp.c **** #if MEMP_MEM_MALLOC
 381:Middlewares/Third_Party/LwIP/src/core/memp.c ****   LWIP_UNUSED_ARG(desc);
 382:Middlewares/Third_Party/LwIP/src/core/memp.c ****   SYS_ARCH_UNPROTECT(old_level);
 383:Middlewares/Third_Party/LwIP/src/core/memp.c ****   mem_free(memp);
 384:Middlewares/Third_Party/LwIP/src/core/memp.c **** #else /* MEMP_MEM_MALLOC */
 385:Middlewares/Third_Party/LwIP/src/core/memp.c ****   memp->next = *desc->tab;
 732              		.loc 1 385 21
 733 002c 7B68     		ldr	r3, [r7, #4]
 734 002e 9B68     		ldr	r3, [r3, #8]
 735              		.loc 1 385 16
 736 0030 1A68     		ldr	r2, [r3]
 737              		.loc 1 385 14
 738 0032 FB68     		ldr	r3, [r7, #12]
ARM GAS  /tmp/cc4BbpCt.s 			page 20


 739 0034 1A60     		str	r2, [r3]
 386:Middlewares/Third_Party/LwIP/src/core/memp.c ****   *desc->tab = memp;
 740              		.loc 1 386 8
 741 0036 7B68     		ldr	r3, [r7, #4]
 742 0038 9B68     		ldr	r3, [r3, #8]
 743              		.loc 1 386 14
 744 003a FA68     		ldr	r2, [r7, #12]
 745 003c 1A60     		str	r2, [r3]
 387:Middlewares/Third_Party/LwIP/src/core/memp.c **** 
 388:Middlewares/Third_Party/LwIP/src/core/memp.c **** #if MEMP_SANITY_CHECK
 389:Middlewares/Third_Party/LwIP/src/core/memp.c ****   LWIP_ASSERT("memp sanity", memp_sanity(desc));
 390:Middlewares/Third_Party/LwIP/src/core/memp.c **** #endif /* MEMP_SANITY_CHECK */
 391:Middlewares/Third_Party/LwIP/src/core/memp.c **** 
 392:Middlewares/Third_Party/LwIP/src/core/memp.c ****   SYS_ARCH_UNPROTECT(old_level);
 746              		.loc 1 392 3
 747 003e B868     		ldr	r0, [r7, #8]
 748 0040 FFF7FEFF 		bl	sys_arch_unprotect
 393:Middlewares/Third_Party/LwIP/src/core/memp.c **** #endif /* !MEMP_MEM_MALLOC */
 394:Middlewares/Third_Party/LwIP/src/core/memp.c **** }
 749              		.loc 1 394 1
 750 0044 00BF     		nop
 751 0046 1037     		adds	r7, r7, #16
 752              	.LCFI29:
 753              		.cfi_def_cfa_offset 8
 754 0048 BD46     		mov	sp, r7
 755              	.LCFI30:
 756              		.cfi_def_cfa_register 13
 757              		@ sp needed
 758 004a 80BD     		pop	{r7, pc}
 759              	.L29:
 760              		.align	2
 761              	.L28:
 762 004c 00000000 		.word	.LC0
 763 0050 B0000000 		.word	.LC5
 764 0054 54000000 		.word	.LC2
 765              		.cfi_endproc
 766              	.LFE142:
 768              		.section	.text.memp_free_pool,"ax",%progbits
 769              		.align	1
 770              		.global	memp_free_pool
 771              		.syntax unified
 772              		.thumb
 773              		.thumb_func
 774              		.fpu fpv4-sp-d16
 776              	memp_free_pool:
 777              	.LFB143:
 395:Middlewares/Third_Party/LwIP/src/core/memp.c **** 
 396:Middlewares/Third_Party/LwIP/src/core/memp.c **** /**
 397:Middlewares/Third_Party/LwIP/src/core/memp.c ****  * Put a custom pool element back into its pool.
 398:Middlewares/Third_Party/LwIP/src/core/memp.c ****  *
 399:Middlewares/Third_Party/LwIP/src/core/memp.c ****  * @param desc the pool where to put mem
 400:Middlewares/Third_Party/LwIP/src/core/memp.c ****  * @param mem the memp element to free
 401:Middlewares/Third_Party/LwIP/src/core/memp.c ****  */
 402:Middlewares/Third_Party/LwIP/src/core/memp.c **** void
 403:Middlewares/Third_Party/LwIP/src/core/memp.c **** memp_free_pool(const struct memp_desc *desc, void *mem)
 404:Middlewares/Third_Party/LwIP/src/core/memp.c **** {
 778              		.loc 1 404 1
ARM GAS  /tmp/cc4BbpCt.s 			page 21


 779              		.cfi_startproc
 780              		@ args = 0, pretend = 0, frame = 8
 781              		@ frame_needed = 1, uses_anonymous_args = 0
 782 0000 80B5     		push	{r7, lr}
 783              	.LCFI31:
 784              		.cfi_def_cfa_offset 8
 785              		.cfi_offset 7, -8
 786              		.cfi_offset 14, -4
 787 0002 82B0     		sub	sp, sp, #8
 788              	.LCFI32:
 789              		.cfi_def_cfa_offset 16
 790 0004 00AF     		add	r7, sp, #0
 791              	.LCFI33:
 792              		.cfi_def_cfa_register 7
 793 0006 7860     		str	r0, [r7, #4]
 794 0008 3960     		str	r1, [r7]
 405:Middlewares/Third_Party/LwIP/src/core/memp.c ****   LWIP_ASSERT("invalid pool desc", desc != NULL);
 795              		.loc 1 405 3
 796 000a 7B68     		ldr	r3, [r7, #4]
 797 000c 002B     		cmp	r3, #0
 798 000e 06D1     		bne	.L31
 799              		.loc 1 405 3 is_stmt 0 discriminator 1
 800 0010 0A4B     		ldr	r3, .L36
 801 0012 40F29512 		movw	r2, #405
 802 0016 0A49     		ldr	r1, .L36+4
 803 0018 0A48     		ldr	r0, .L36+8
 804 001a FFF7FEFF 		bl	printf
 805              	.L31:
 406:Middlewares/Third_Party/LwIP/src/core/memp.c ****   if ((desc == NULL) || (mem == NULL)) {
 806              		.loc 1 406 6 is_stmt 1
 807 001e 7B68     		ldr	r3, [r7, #4]
 808 0020 002B     		cmp	r3, #0
 809 0022 07D0     		beq	.L35
 810              		.loc 1 406 22 discriminator 1
 811 0024 3B68     		ldr	r3, [r7]
 812 0026 002B     		cmp	r3, #0
 813 0028 04D0     		beq	.L35
 407:Middlewares/Third_Party/LwIP/src/core/memp.c ****     return;
 408:Middlewares/Third_Party/LwIP/src/core/memp.c ****   }
 409:Middlewares/Third_Party/LwIP/src/core/memp.c **** 
 410:Middlewares/Third_Party/LwIP/src/core/memp.c ****   do_memp_free_pool(desc, mem);
 814              		.loc 1 410 3
 815 002a 3968     		ldr	r1, [r7]
 816 002c 7868     		ldr	r0, [r7, #4]
 817 002e FFF7FEFF 		bl	do_memp_free_pool
 818 0032 00E0     		b	.L30
 819              	.L35:
 407:Middlewares/Third_Party/LwIP/src/core/memp.c ****     return;
 820              		.loc 1 407 5
 821 0034 00BF     		nop
 822              	.L30:
 411:Middlewares/Third_Party/LwIP/src/core/memp.c **** }
 823              		.loc 1 411 1
 824 0036 0837     		adds	r7, r7, #8
 825              	.LCFI34:
 826              		.cfi_def_cfa_offset 8
 827 0038 BD46     		mov	sp, r7
ARM GAS  /tmp/cc4BbpCt.s 			page 22


 828              	.LCFI35:
 829              		.cfi_def_cfa_register 13
 830              		@ sp needed
 831 003a 80BD     		pop	{r7, pc}
 832              	.L37:
 833              		.align	2
 834              	.L36:
 835 003c 00000000 		.word	.LC0
 836 0040 7C000000 		.word	.LC3
 837 0044 54000000 		.word	.LC2
 838              		.cfi_endproc
 839              	.LFE143:
 841              		.section	.rodata
 842              		.align	2
 843              	.LC6:
 844 00d0 6D656D70 		.ascii	"memp_free: type < MEMP_MAX\000"
 844      5F667265 
 844      653A2074 
 844      79706520 
 844      3C204D45 
 845              		.section	.text.memp_free,"ax",%progbits
 846              		.align	1
 847              		.global	memp_free
 848              		.syntax unified
 849              		.thumb
 850              		.thumb_func
 851              		.fpu fpv4-sp-d16
 853              	memp_free:
 854              	.LFB144:
 412:Middlewares/Third_Party/LwIP/src/core/memp.c **** 
 413:Middlewares/Third_Party/LwIP/src/core/memp.c **** /**
 414:Middlewares/Third_Party/LwIP/src/core/memp.c ****  * Put an element back into its pool.
 415:Middlewares/Third_Party/LwIP/src/core/memp.c ****  *
 416:Middlewares/Third_Party/LwIP/src/core/memp.c ****  * @param type the pool where to put mem
 417:Middlewares/Third_Party/LwIP/src/core/memp.c ****  * @param mem the memp element to free
 418:Middlewares/Third_Party/LwIP/src/core/memp.c ****  */
 419:Middlewares/Third_Party/LwIP/src/core/memp.c **** void
 420:Middlewares/Third_Party/LwIP/src/core/memp.c **** memp_free(memp_t type, void *mem)
 421:Middlewares/Third_Party/LwIP/src/core/memp.c **** {
 855              		.loc 1 421 1
 856              		.cfi_startproc
 857              		@ args = 0, pretend = 0, frame = 8
 858              		@ frame_needed = 1, uses_anonymous_args = 0
 859 0000 80B5     		push	{r7, lr}
 860              	.LCFI36:
 861              		.cfi_def_cfa_offset 8
 862              		.cfi_offset 7, -8
 863              		.cfi_offset 14, -4
 864 0002 82B0     		sub	sp, sp, #8
 865              	.LCFI37:
 866              		.cfi_def_cfa_offset 16
 867 0004 00AF     		add	r7, sp, #0
 868              	.LCFI38:
 869              		.cfi_def_cfa_register 7
 870 0006 0346     		mov	r3, r0
 871 0008 3960     		str	r1, [r7]
 872 000a FB71     		strb	r3, [r7, #7]
ARM GAS  /tmp/cc4BbpCt.s 			page 23


 422:Middlewares/Third_Party/LwIP/src/core/memp.c **** #ifdef LWIP_HOOK_MEMP_AVAILABLE
 423:Middlewares/Third_Party/LwIP/src/core/memp.c ****   struct memp *old_first;
 424:Middlewares/Third_Party/LwIP/src/core/memp.c **** #endif
 425:Middlewares/Third_Party/LwIP/src/core/memp.c **** 
 426:Middlewares/Third_Party/LwIP/src/core/memp.c ****   LWIP_ERROR("memp_free: type < MEMP_MAX", (type < MEMP_MAX), return;);
 873              		.loc 1 426 3
 874 000c FB79     		ldrb	r3, [r7, #7]	@ zero_extendqisi2
 875 000e 0D2B     		cmp	r3, #13
 876 0010 07D9     		bls	.L39
 877              		.loc 1 426 3 is_stmt 0 discriminator 1
 878 0012 0C4B     		ldr	r3, .L43
 879 0014 4FF4D572 		mov	r2, #426
 880 0018 0B49     		ldr	r1, .L43+4
 881 001a 0C48     		ldr	r0, .L43+8
 882 001c FFF7FEFF 		bl	printf
 883 0020 0CE0     		b	.L38
 884              	.L39:
 427:Middlewares/Third_Party/LwIP/src/core/memp.c **** 
 428:Middlewares/Third_Party/LwIP/src/core/memp.c ****   if (mem == NULL) {
 885              		.loc 1 428 6 is_stmt 1
 886 0022 3B68     		ldr	r3, [r7]
 887 0024 002B     		cmp	r3, #0
 888 0026 08D0     		beq	.L42
 429:Middlewares/Third_Party/LwIP/src/core/memp.c ****     return;
 430:Middlewares/Third_Party/LwIP/src/core/memp.c ****   }
 431:Middlewares/Third_Party/LwIP/src/core/memp.c **** 
 432:Middlewares/Third_Party/LwIP/src/core/memp.c **** #if MEMP_OVERFLOW_CHECK >= 2
 433:Middlewares/Third_Party/LwIP/src/core/memp.c ****   memp_overflow_check_all();
 434:Middlewares/Third_Party/LwIP/src/core/memp.c **** #endif /* MEMP_OVERFLOW_CHECK >= 2 */
 435:Middlewares/Third_Party/LwIP/src/core/memp.c **** 
 436:Middlewares/Third_Party/LwIP/src/core/memp.c **** #ifdef LWIP_HOOK_MEMP_AVAILABLE
 437:Middlewares/Third_Party/LwIP/src/core/memp.c ****   old_first = *memp_pools[type]->tab;
 438:Middlewares/Third_Party/LwIP/src/core/memp.c **** #endif
 439:Middlewares/Third_Party/LwIP/src/core/memp.c **** 
 440:Middlewares/Third_Party/LwIP/src/core/memp.c ****   do_memp_free_pool(memp_pools[type], mem);
 889              		.loc 1 440 3
 890 0028 FB79     		ldrb	r3, [r7, #7]	@ zero_extendqisi2
 891 002a 094A     		ldr	r2, .L43+12
 892 002c 52F82330 		ldr	r3, [r2, r3, lsl #2]
 893 0030 3968     		ldr	r1, [r7]
 894 0032 1846     		mov	r0, r3
 895 0034 FFF7FEFF 		bl	do_memp_free_pool
 896 0038 00E0     		b	.L38
 897              	.L42:
 429:Middlewares/Third_Party/LwIP/src/core/memp.c ****     return;
 898              		.loc 1 429 5
 899 003a 00BF     		nop
 900              	.L38:
 441:Middlewares/Third_Party/LwIP/src/core/memp.c **** 
 442:Middlewares/Third_Party/LwIP/src/core/memp.c **** #ifdef LWIP_HOOK_MEMP_AVAILABLE
 443:Middlewares/Third_Party/LwIP/src/core/memp.c ****   if (old_first == NULL) {
 444:Middlewares/Third_Party/LwIP/src/core/memp.c ****     LWIP_HOOK_MEMP_AVAILABLE(type);
 445:Middlewares/Third_Party/LwIP/src/core/memp.c ****   }
 446:Middlewares/Third_Party/LwIP/src/core/memp.c **** #endif
 447:Middlewares/Third_Party/LwIP/src/core/memp.c **** }
 901              		.loc 1 447 1
 902 003c 0837     		adds	r7, r7, #8
ARM GAS  /tmp/cc4BbpCt.s 			page 24


 903              	.LCFI39:
 904              		.cfi_def_cfa_offset 8
 905 003e BD46     		mov	sp, r7
 906              	.LCFI40:
 907              		.cfi_def_cfa_register 13
 908              		@ sp needed
 909 0040 80BD     		pop	{r7, pc}
 910              	.L44:
 911 0042 00BF     		.align	2
 912              	.L43:
 913 0044 00000000 		.word	.LC0
 914 0048 D0000000 		.word	.LC6
 915 004c 54000000 		.word	.LC2
 916 0050 00000000 		.word	memp_pools
 917              		.cfi_endproc
 918              	.LFE144:
 920              		.text
 921              	.Letext0:
 922              		.file 2 "/home/mego/microros_ws/firmware/toolchain/arm-none-eabi/include/machine/_default_types.h"
 923              		.file 3 "/home/mego/microros_ws/firmware/toolchain/arm-none-eabi/include/sys/_stdint.h"
 924              		.file 4 "Drivers/CMSIS/Include/core_cm4.h"
 925              		.file 5 "Drivers/CMSIS/Device/ST/STM32F4xx/Include/system_stm32f4xx.h"
 926              		.file 6 "Drivers/STM32F4xx_HAL_Driver/Inc/stm32f4xx_hal.h"
 927              		.file 7 "/home/mego/microros_ws/firmware/toolchain/lib/gcc/arm-none-eabi/8.3.1/include/stddef.h"
 928              		.file 8 "/home/mego/microros_ws/firmware/toolchain/arm-none-eabi/include/sys/_types.h"
 929              		.file 9 "/home/mego/microros_ws/firmware/toolchain/arm-none-eabi/include/sys/reent.h"
 930              		.file 10 "/home/mego/microros_ws/firmware/toolchain/arm-none-eabi/include/sys/lock.h"
 931              		.file 11 "/home/mego/microros_ws/firmware/toolchain/arm-none-eabi/include/stdlib.h"
 932              		.file 12 "Middlewares/Third_Party/LwIP/system/arch/cc.h"
 933              		.file 13 "Middlewares/Third_Party/LwIP/src/include/lwip/arch.h"
 934              		.file 14 "/home/mego/microros_ws/firmware/toolchain/arm-none-eabi/include/ctype.h"
 935              		.file 15 "Middlewares/Third_Party/LwIP/src/include/lwip/memp.h"
 936              		.file 16 "Middlewares/Third_Party/LwIP/src/include/lwip/priv/memp_priv.h"
 937              		.file 17 "Middlewares/Third_Party/LwIP/src/include/lwip/err.h"
 938              		.file 18 "Middlewares/Third_Party/FreeRTOS/Source/CMSIS_RTOS_V2/cmsis_os2.h"
 939              		.file 19 "Middlewares/Third_Party/LwIP/system/arch/sys_arch.h"
 940              		.file 20 "Middlewares/Third_Party/LwIP/src/include/lwip/pbuf.h"
 941              		.file 21 "Middlewares/Third_Party/LwIP/src/include/lwip/ip4_addr.h"
 942              		.file 22 "Middlewares/Third_Party/LwIP/src/include/lwip/ip_addr.h"
 943              		.file 23 "Middlewares/Third_Party/LwIP/src/include/lwip/netif.h"
 944              		.file 24 "Middlewares/Third_Party/LwIP/src/include/lwip/prot/ip4.h"
 945              		.file 25 "Middlewares/Third_Party/LwIP/src/include/lwip/ip.h"
 946              		.file 26 "Middlewares/Third_Party/LwIP/src/include/lwip/udp.h"
 947              		.file 27 "Middlewares/Third_Party/LwIP/src/include/lwip/tcpbase.h"
 948              		.file 28 "Middlewares/Third_Party/LwIP/src/include/lwip/tcp.h"
 949              		.file 29 "Middlewares/Third_Party/LwIP/src/include/lwip/priv/tcp_priv.h"
 950              		.file 30 "Middlewares/Third_Party/LwIP/src/include/lwip/prot/tcp.h"
 951              		.file 31 "Middlewares/Third_Party/LwIP/src/include/lwip/timeouts.h"
 952              		.file 32 "Middlewares/Third_Party/LwIP/src/include/lwip/tcpip.h"
 953              		.file 33 "Middlewares/Third_Party/LwIP/src/include/lwip/inet.h"
 954              		.file 34 "Middlewares/Third_Party/LwIP/src/include/lwip/errno.h"
 955              		.file 35 "Middlewares/Third_Party/LwIP/src/include/lwip/netdb.h"
 956              		.file 36 "Middlewares/Third_Party/LwIP/src/include/lwip/dns.h"
 957              		.file 37 "Middlewares/Third_Party/LwIP/src/include/lwip/priv/memp_std.h"
ARM GAS  /tmp/cc4BbpCt.s 			page 25


DEFINED SYMBOLS
                            *ABS*:0000000000000000 memp.c
                            *COM*:0000000000000083 memp_memory_UDP_PCB_base
     /tmp/cc4BbpCt.s:19     .bss.memp_tab_UDP_PCB:0000000000000000 $d
     /tmp/cc4BbpCt.s:22     .bss.memp_tab_UDP_PCB:0000000000000000 memp_tab_UDP_PCB
     /tmp/cc4BbpCt.s:29     .rodata.memp_UDP_PCB:0000000000000000 memp_UDP_PCB
     /tmp/cc4BbpCt.s:26     .rodata.memp_UDP_PCB:0000000000000000 $d
                            *COM*:000000000000030f memp_memory_TCP_PCB_base
     /tmp/cc4BbpCt.s:36     .bss.memp_tab_TCP_PCB:0000000000000000 $d
     /tmp/cc4BbpCt.s:39     .bss.memp_tab_TCP_PCB:0000000000000000 memp_tab_TCP_PCB
     /tmp/cc4BbpCt.s:46     .rodata.memp_TCP_PCB:0000000000000000 memp_TCP_PCB
     /tmp/cc4BbpCt.s:43     .rodata.memp_TCP_PCB:0000000000000000 $d
                            *COM*:00000000000000e3 memp_memory_TCP_PCB_LISTEN_base
     /tmp/cc4BbpCt.s:53     .bss.memp_tab_TCP_PCB_LISTEN:0000000000000000 $d
     /tmp/cc4BbpCt.s:56     .bss.memp_tab_TCP_PCB_LISTEN:0000000000000000 memp_tab_TCP_PCB_LISTEN
     /tmp/cc4BbpCt.s:63     .rodata.memp_TCP_PCB_LISTEN:0000000000000000 memp_TCP_PCB_LISTEN
     /tmp/cc4BbpCt.s:60     .rodata.memp_TCP_PCB_LISTEN:0000000000000000 $d
                            *COM*:0000000000000103 memp_memory_TCP_SEG_base
     /tmp/cc4BbpCt.s:70     .bss.memp_tab_TCP_SEG:0000000000000000 $d
     /tmp/cc4BbpCt.s:73     .bss.memp_tab_TCP_SEG:0000000000000000 memp_tab_TCP_SEG
     /tmp/cc4BbpCt.s:80     .rodata.memp_TCP_SEG:0000000000000000 memp_TCP_SEG
     /tmp/cc4BbpCt.s:77     .rodata.memp_TCP_SEG:0000000000000000 $d
                            *COM*:00000000000000a3 memp_memory_REASSDATA_base
     /tmp/cc4BbpCt.s:87     .bss.memp_tab_REASSDATA:0000000000000000 $d
     /tmp/cc4BbpCt.s:90     .bss.memp_tab_REASSDATA:0000000000000000 memp_tab_REASSDATA
     /tmp/cc4BbpCt.s:97     .rodata.memp_REASSDATA:0000000000000000 memp_REASSDATA
     /tmp/cc4BbpCt.s:94     .rodata.memp_REASSDATA:0000000000000000 $d
                            *COM*:000000000000016b memp_memory_FRAG_PBUF_base
     /tmp/cc4BbpCt.s:104    .bss.memp_tab_FRAG_PBUF:0000000000000000 $d
     /tmp/cc4BbpCt.s:107    .bss.memp_tab_FRAG_PBUF:0000000000000000 memp_tab_FRAG_PBUF
     /tmp/cc4BbpCt.s:114    .rodata.memp_FRAG_PBUF:0000000000000000 memp_FRAG_PBUF
     /tmp/cc4BbpCt.s:111    .rodata.memp_FRAG_PBUF:0000000000000000 $d
                            *COM*:0000000000000023 memp_memory_NETBUF_base
     /tmp/cc4BbpCt.s:121    .bss.memp_tab_NETBUF:0000000000000000 $d
     /tmp/cc4BbpCt.s:124    .bss.memp_tab_NETBUF:0000000000000000 memp_tab_NETBUF
     /tmp/cc4BbpCt.s:131    .rodata.memp_NETBUF:0000000000000000 memp_NETBUF
     /tmp/cc4BbpCt.s:128    .rodata.memp_NETBUF:0000000000000000 $d
                            *COM*:00000000000000a3 memp_memory_NETCONN_base
     /tmp/cc4BbpCt.s:138    .bss.memp_tab_NETCONN:0000000000000000 $d
     /tmp/cc4BbpCt.s:141    .bss.memp_tab_NETCONN:0000000000000000 memp_tab_NETCONN
     /tmp/cc4BbpCt.s:148    .rodata.memp_NETCONN:0000000000000000 memp_NETCONN
     /tmp/cc4BbpCt.s:145    .rodata.memp_NETCONN:0000000000000000 $d
                            *COM*:0000000000000083 memp_memory_TCPIP_MSG_API_base
     /tmp/cc4BbpCt.s:155    .bss.memp_tab_TCPIP_MSG_API:0000000000000000 $d
     /tmp/cc4BbpCt.s:158    .bss.memp_tab_TCPIP_MSG_API:0000000000000000 memp_tab_TCPIP_MSG_API
     /tmp/cc4BbpCt.s:165    .rodata.memp_TCPIP_MSG_API:0000000000000000 memp_TCPIP_MSG_API
     /tmp/cc4BbpCt.s:162    .rodata.memp_TCPIP_MSG_API:0000000000000000 $d
                            *COM*:0000000000000083 memp_memory_TCPIP_MSG_INPKT_base
     /tmp/cc4BbpCt.s:172    .bss.memp_tab_TCPIP_MSG_INPKT:0000000000000000 $d
     /tmp/cc4BbpCt.s:175    .bss.memp_tab_TCPIP_MSG_INPKT:0000000000000000 memp_tab_TCPIP_MSG_INPKT
     /tmp/cc4BbpCt.s:182    .rodata.memp_TCPIP_MSG_INPKT:0000000000000000 memp_TCPIP_MSG_INPKT
     /tmp/cc4BbpCt.s:179    .rodata.memp_TCPIP_MSG_INPKT:0000000000000000 $d
                            *COM*:0000000000000063 memp_memory_SYS_TIMEOUT_base
     /tmp/cc4BbpCt.s:189    .bss.memp_tab_SYS_TIMEOUT:0000000000000000 $d
     /tmp/cc4BbpCt.s:192    .bss.memp_tab_SYS_TIMEOUT:0000000000000000 memp_tab_SYS_TIMEOUT
     /tmp/cc4BbpCt.s:199    .rodata.memp_SYS_TIMEOUT:0000000000000000 memp_SYS_TIMEOUT
     /tmp/cc4BbpCt.s:196    .rodata.memp_SYS_TIMEOUT:0000000000000000 $d
ARM GAS  /tmp/cc4BbpCt.s 			page 26


                            *COM*:0000000000000137 memp_memory_NETDB_base
     /tmp/cc4BbpCt.s:206    .bss.memp_tab_NETDB:0000000000000000 $d
     /tmp/cc4BbpCt.s:209    .bss.memp_tab_NETDB:0000000000000000 memp_tab_NETDB
     /tmp/cc4BbpCt.s:216    .rodata.memp_NETDB:0000000000000000 memp_NETDB
     /tmp/cc4BbpCt.s:213    .rodata.memp_NETDB:0000000000000000 $d
                            *COM*:0000000000000103 memp_memory_PBUF_base
     /tmp/cc4BbpCt.s:223    .bss.memp_tab_PBUF:0000000000000000 $d
     /tmp/cc4BbpCt.s:226    .bss.memp_tab_PBUF:0000000000000000 memp_tab_PBUF
     /tmp/cc4BbpCt.s:233    .rodata.memp_PBUF:0000000000000000 memp_PBUF
     /tmp/cc4BbpCt.s:230    .rodata.memp_PBUF:0000000000000000 $d
                            *COM*:0000000000002603 memp_memory_PBUF_POOL_base
     /tmp/cc4BbpCt.s:240    .bss.memp_tab_PBUF_POOL:0000000000000000 $d
     /tmp/cc4BbpCt.s:243    .bss.memp_tab_PBUF_POOL:0000000000000000 memp_tab_PBUF_POOL
     /tmp/cc4BbpCt.s:250    .rodata.memp_PBUF_POOL:0000000000000000 memp_PBUF_POOL
     /tmp/cc4BbpCt.s:247    .rodata.memp_PBUF_POOL:0000000000000000 $d
     /tmp/cc4BbpCt.s:260    .rodata.memp_pools:0000000000000000 memp_pools
     /tmp/cc4BbpCt.s:257    .rodata.memp_pools:0000000000000000 $d
     /tmp/cc4BbpCt.s:276    .text.memp_init_pool:0000000000000000 $t
     /tmp/cc4BbpCt.s:284    .text.memp_init_pool:0000000000000000 memp_init_pool
     /tmp/cc4BbpCt.s:375    .text.memp_init:0000000000000000 $t
     /tmp/cc4BbpCt.s:382    .text.memp_init:0000000000000000 memp_init
     /tmp/cc4BbpCt.s:433    .text.memp_init:0000000000000030 $d
     /tmp/cc4BbpCt.s:438    .rodata:0000000000000000 $d
     /tmp/cc4BbpCt.s:448    .text.do_memp_malloc_pool:0000000000000000 $t
     /tmp/cc4BbpCt.s:454    .text.do_memp_malloc_pool:0000000000000000 do_memp_malloc_pool
     /tmp/cc4BbpCt.s:531    .text.do_memp_malloc_pool:0000000000000058 $d
     /tmp/cc4BbpCt.s:542    .text.memp_malloc_pool:0000000000000000 $t
     /tmp/cc4BbpCt.s:549    .text.memp_malloc_pool:0000000000000000 memp_malloc_pool
     /tmp/cc4BbpCt.s:604    .text.memp_malloc_pool:0000000000000038 $d
     /tmp/cc4BbpCt.s:615    .text.memp_malloc:0000000000000000 $t
     /tmp/cc4BbpCt.s:622    .text.memp_malloc:0000000000000000 memp_malloc
     /tmp/cc4BbpCt.s:677    .text.memp_malloc:000000000000003c $d
     /tmp/cc4BbpCt.s:689    .text.do_memp_free_pool:0000000000000000 $t
     /tmp/cc4BbpCt.s:695    .text.do_memp_free_pool:0000000000000000 do_memp_free_pool
     /tmp/cc4BbpCt.s:762    .text.do_memp_free_pool:000000000000004c $d
     /tmp/cc4BbpCt.s:769    .text.memp_free_pool:0000000000000000 $t
     /tmp/cc4BbpCt.s:776    .text.memp_free_pool:0000000000000000 memp_free_pool
     /tmp/cc4BbpCt.s:835    .text.memp_free_pool:000000000000003c $d
     /tmp/cc4BbpCt.s:846    .text.memp_free:0000000000000000 $t
     /tmp/cc4BbpCt.s:853    .text.memp_free:0000000000000000 memp_free
     /tmp/cc4BbpCt.s:913    .text.memp_free:0000000000000044 $d

UNDEFINED SYMBOLS
sys_arch_protect
printf
sys_arch_unprotect
