ARM GAS  /tmp/ccoHMJDA.s 			page 1


   1              		.cpu cortex-m4
   2              		.eabi_attribute 27, 1
   3              		.eabi_attribute 28, 1
   4              		.eabi_attribute 20, 1
   5              		.eabi_attribute 21, 1
   6              		.eabi_attribute 23, 3
   7              		.eabi_attribute 24, 1
   8              		.eabi_attribute 25, 1
   9              		.eabi_attribute 26, 1
  10              		.eabi_attribute 30, 6
  11              		.eabi_attribute 34, 1
  12              		.eabi_attribute 18, 4
  13              		.file	"netbuf.c"
  14              		.text
  15              	.Ltext0:
  16              		.cfi_sections	.debug_frame
  17              		.section	.text.netbuf_new,"ax",%progbits
  18              		.align	1
  19              		.global	netbuf_new
  20              		.arch armv7e-m
  21              		.syntax unified
  22              		.thumb
  23              		.thumb_func
  24              		.fpu fpv4-sp-d16
  26              	netbuf_new:
  27              	.LFB133:
  28              		.file 1 "Middlewares/Third_Party/LwIP/src/api/netbuf.c"
   1:Middlewares/Third_Party/LwIP/src/api/netbuf.c **** /**
   2:Middlewares/Third_Party/LwIP/src/api/netbuf.c ****  * @file
   3:Middlewares/Third_Party/LwIP/src/api/netbuf.c ****  * Network buffer management
   4:Middlewares/Third_Party/LwIP/src/api/netbuf.c ****  *
   5:Middlewares/Third_Party/LwIP/src/api/netbuf.c ****  * @defgroup netbuf Network buffers
   6:Middlewares/Third_Party/LwIP/src/api/netbuf.c ****  * @ingroup netconn
   7:Middlewares/Third_Party/LwIP/src/api/netbuf.c ****  * Network buffer descriptor for @ref netconn. Based on @ref pbuf internally
   8:Middlewares/Third_Party/LwIP/src/api/netbuf.c ****  * to avoid copying data around.\n
   9:Middlewares/Third_Party/LwIP/src/api/netbuf.c ****  * Buffers must not be shared accross multiple threads, all functions except
  10:Middlewares/Third_Party/LwIP/src/api/netbuf.c ****  * netbuf_new() and netbuf_delete() are not thread-safe.
  11:Middlewares/Third_Party/LwIP/src/api/netbuf.c ****  */
  12:Middlewares/Third_Party/LwIP/src/api/netbuf.c **** 
  13:Middlewares/Third_Party/LwIP/src/api/netbuf.c **** /*
  14:Middlewares/Third_Party/LwIP/src/api/netbuf.c ****  * Copyright (c) 2001-2004 Swedish Institute of Computer Science.
  15:Middlewares/Third_Party/LwIP/src/api/netbuf.c ****  * All rights reserved.
  16:Middlewares/Third_Party/LwIP/src/api/netbuf.c ****  *
  17:Middlewares/Third_Party/LwIP/src/api/netbuf.c ****  * Redistribution and use in source and binary forms, with or without modification,
  18:Middlewares/Third_Party/LwIP/src/api/netbuf.c ****  * are permitted provided that the following conditions are met:
  19:Middlewares/Third_Party/LwIP/src/api/netbuf.c ****  *
  20:Middlewares/Third_Party/LwIP/src/api/netbuf.c ****  * 1. Redistributions of source code must retain the above copyright notice,
  21:Middlewares/Third_Party/LwIP/src/api/netbuf.c ****  *    this list of conditions and the following disclaimer.
  22:Middlewares/Third_Party/LwIP/src/api/netbuf.c ****  * 2. Redistributions in binary form must reproduce the above copyright notice,
  23:Middlewares/Third_Party/LwIP/src/api/netbuf.c ****  *    this list of conditions and the following disclaimer in the documentation
  24:Middlewares/Third_Party/LwIP/src/api/netbuf.c ****  *    and/or other materials provided with the distribution.
  25:Middlewares/Third_Party/LwIP/src/api/netbuf.c ****  * 3. The name of the author may not be used to endorse or promote products
  26:Middlewares/Third_Party/LwIP/src/api/netbuf.c ****  *    derived from this software without specific prior written permission.
  27:Middlewares/Third_Party/LwIP/src/api/netbuf.c ****  *
  28:Middlewares/Third_Party/LwIP/src/api/netbuf.c ****  * THIS SOFTWARE IS PROVIDED BY THE AUTHOR ``AS IS'' AND ANY EXPRESS OR IMPLIED
  29:Middlewares/Third_Party/LwIP/src/api/netbuf.c ****  * WARRANTIES, INCLUDING, BUT NOT LIMITED TO, THE IMPLIED WARRANTIES OF
  30:Middlewares/Third_Party/LwIP/src/api/netbuf.c ****  * MERCHANTABILITY AND FITNESS FOR A PARTICULAR PURPOSE ARE DISCLAIMED. IN NO EVENT
ARM GAS  /tmp/ccoHMJDA.s 			page 2


  31:Middlewares/Third_Party/LwIP/src/api/netbuf.c ****  * SHALL THE AUTHOR BE LIABLE FOR ANY DIRECT, INDIRECT, INCIDENTAL, SPECIAL,
  32:Middlewares/Third_Party/LwIP/src/api/netbuf.c ****  * EXEMPLARY, OR CONSEQUENTIAL DAMAGES (INCLUDING, BUT NOT LIMITED TO, PROCUREMENT
  33:Middlewares/Third_Party/LwIP/src/api/netbuf.c ****  * OF SUBSTITUTE GOODS OR SERVICES; LOSS OF USE, DATA, OR PROFITS; OR BUSINESS
  34:Middlewares/Third_Party/LwIP/src/api/netbuf.c ****  * INTERRUPTION) HOWEVER CAUSED AND ON ANY THEORY OF LIABILITY, WHETHER IN
  35:Middlewares/Third_Party/LwIP/src/api/netbuf.c ****  * CONTRACT, STRICT LIABILITY, OR TORT (INCLUDING NEGLIGENCE OR OTHERWISE) ARISING
  36:Middlewares/Third_Party/LwIP/src/api/netbuf.c ****  * IN ANY WAY OUT OF THE USE OF THIS SOFTWARE, EVEN IF ADVISED OF THE POSSIBILITY
  37:Middlewares/Third_Party/LwIP/src/api/netbuf.c ****  * OF SUCH DAMAGE.
  38:Middlewares/Third_Party/LwIP/src/api/netbuf.c ****  *
  39:Middlewares/Third_Party/LwIP/src/api/netbuf.c ****  * This file is part of the lwIP TCP/IP stack.
  40:Middlewares/Third_Party/LwIP/src/api/netbuf.c ****  *
  41:Middlewares/Third_Party/LwIP/src/api/netbuf.c ****  * Author: Adam Dunkels <adam@sics.se>
  42:Middlewares/Third_Party/LwIP/src/api/netbuf.c ****  *
  43:Middlewares/Third_Party/LwIP/src/api/netbuf.c ****  */
  44:Middlewares/Third_Party/LwIP/src/api/netbuf.c **** 
  45:Middlewares/Third_Party/LwIP/src/api/netbuf.c **** #include "lwip/opt.h"
  46:Middlewares/Third_Party/LwIP/src/api/netbuf.c **** 
  47:Middlewares/Third_Party/LwIP/src/api/netbuf.c **** #if LWIP_NETCONN /* don't build if not configured for use in lwipopts.h */
  48:Middlewares/Third_Party/LwIP/src/api/netbuf.c **** 
  49:Middlewares/Third_Party/LwIP/src/api/netbuf.c **** #include "lwip/netbuf.h"
  50:Middlewares/Third_Party/LwIP/src/api/netbuf.c **** #include "lwip/memp.h"
  51:Middlewares/Third_Party/LwIP/src/api/netbuf.c **** 
  52:Middlewares/Third_Party/LwIP/src/api/netbuf.c **** #include <string.h>
  53:Middlewares/Third_Party/LwIP/src/api/netbuf.c **** 
  54:Middlewares/Third_Party/LwIP/src/api/netbuf.c **** /**
  55:Middlewares/Third_Party/LwIP/src/api/netbuf.c ****  * @ingroup netbuf
  56:Middlewares/Third_Party/LwIP/src/api/netbuf.c ****  * Create (allocate) and initialize a new netbuf.
  57:Middlewares/Third_Party/LwIP/src/api/netbuf.c ****  * The netbuf doesn't yet contain a packet buffer!
  58:Middlewares/Third_Party/LwIP/src/api/netbuf.c ****  *
  59:Middlewares/Third_Party/LwIP/src/api/netbuf.c ****  * @return a pointer to a new netbuf
  60:Middlewares/Third_Party/LwIP/src/api/netbuf.c ****  *         NULL on lack of memory
  61:Middlewares/Third_Party/LwIP/src/api/netbuf.c ****  */
  62:Middlewares/Third_Party/LwIP/src/api/netbuf.c **** struct
  63:Middlewares/Third_Party/LwIP/src/api/netbuf.c **** netbuf *netbuf_new(void)
  64:Middlewares/Third_Party/LwIP/src/api/netbuf.c **** {
  29              		.loc 1 64 1
  30              		.cfi_startproc
  31              		@ args = 0, pretend = 0, frame = 8
  32              		@ frame_needed = 1, uses_anonymous_args = 0
  33 0000 80B5     		push	{r7, lr}
  34              	.LCFI0:
  35              		.cfi_def_cfa_offset 8
  36              		.cfi_offset 7, -8
  37              		.cfi_offset 14, -4
  38 0002 82B0     		sub	sp, sp, #8
  39              	.LCFI1:
  40              		.cfi_def_cfa_offset 16
  41 0004 00AF     		add	r7, sp, #0
  42              	.LCFI2:
  43              		.cfi_def_cfa_register 7
  65:Middlewares/Third_Party/LwIP/src/api/netbuf.c ****   struct netbuf *buf;
  66:Middlewares/Third_Party/LwIP/src/api/netbuf.c **** 
  67:Middlewares/Third_Party/LwIP/src/api/netbuf.c ****   buf = (struct netbuf *)memp_malloc(MEMP_NETBUF);
  44              		.loc 1 67 26
  45 0006 0620     		movs	r0, #6
  46 0008 FFF7FEFF 		bl	memp_malloc
  47 000c 7860     		str	r0, [r7, #4]
  68:Middlewares/Third_Party/LwIP/src/api/netbuf.c ****   if (buf != NULL) {
ARM GAS  /tmp/ccoHMJDA.s 			page 3


  48              		.loc 1 68 6
  49 000e 7B68     		ldr	r3, [r7, #4]
  50 0010 002B     		cmp	r3, #0
  51 0012 04D0     		beq	.L2
  69:Middlewares/Third_Party/LwIP/src/api/netbuf.c ****     memset(buf, 0, sizeof(struct netbuf));
  52              		.loc 1 69 5
  53 0014 1022     		movs	r2, #16
  54 0016 0021     		movs	r1, #0
  55 0018 7868     		ldr	r0, [r7, #4]
  56 001a FFF7FEFF 		bl	memset
  57              	.L2:
  70:Middlewares/Third_Party/LwIP/src/api/netbuf.c ****   }
  71:Middlewares/Third_Party/LwIP/src/api/netbuf.c ****   return buf;
  58              		.loc 1 71 10
  59 001e 7B68     		ldr	r3, [r7, #4]
  72:Middlewares/Third_Party/LwIP/src/api/netbuf.c **** }
  60              		.loc 1 72 1
  61 0020 1846     		mov	r0, r3
  62 0022 0837     		adds	r7, r7, #8
  63              	.LCFI3:
  64              		.cfi_def_cfa_offset 8
  65 0024 BD46     		mov	sp, r7
  66              	.LCFI4:
  67              		.cfi_def_cfa_register 13
  68              		@ sp needed
  69 0026 80BD     		pop	{r7, pc}
  70              		.cfi_endproc
  71              	.LFE133:
  73              		.section	.text.netbuf_delete,"ax",%progbits
  74              		.align	1
  75              		.global	netbuf_delete
  76              		.syntax unified
  77              		.thumb
  78              		.thumb_func
  79              		.fpu fpv4-sp-d16
  81              	netbuf_delete:
  82              	.LFB134:
  73:Middlewares/Third_Party/LwIP/src/api/netbuf.c **** 
  74:Middlewares/Third_Party/LwIP/src/api/netbuf.c **** /**
  75:Middlewares/Third_Party/LwIP/src/api/netbuf.c ****  * @ingroup netbuf
  76:Middlewares/Third_Party/LwIP/src/api/netbuf.c ****  * Deallocate a netbuf allocated by netbuf_new().
  77:Middlewares/Third_Party/LwIP/src/api/netbuf.c ****  *
  78:Middlewares/Third_Party/LwIP/src/api/netbuf.c ****  * @param buf pointer to a netbuf allocated by netbuf_new()
  79:Middlewares/Third_Party/LwIP/src/api/netbuf.c ****  */
  80:Middlewares/Third_Party/LwIP/src/api/netbuf.c **** void
  81:Middlewares/Third_Party/LwIP/src/api/netbuf.c **** netbuf_delete(struct netbuf *buf)
  82:Middlewares/Third_Party/LwIP/src/api/netbuf.c **** {
  83              		.loc 1 82 1
  84              		.cfi_startproc
  85              		@ args = 0, pretend = 0, frame = 8
  86              		@ frame_needed = 1, uses_anonymous_args = 0
  87 0000 80B5     		push	{r7, lr}
  88              	.LCFI5:
  89              		.cfi_def_cfa_offset 8
  90              		.cfi_offset 7, -8
  91              		.cfi_offset 14, -4
  92 0002 82B0     		sub	sp, sp, #8
ARM GAS  /tmp/ccoHMJDA.s 			page 4


  93              	.LCFI6:
  94              		.cfi_def_cfa_offset 16
  95 0004 00AF     		add	r7, sp, #0
  96              	.LCFI7:
  97              		.cfi_def_cfa_register 7
  98 0006 7860     		str	r0, [r7, #4]
  83:Middlewares/Third_Party/LwIP/src/api/netbuf.c ****   if (buf != NULL) {
  99              		.loc 1 83 6
 100 0008 7B68     		ldr	r3, [r7, #4]
 101 000a 002B     		cmp	r3, #0
 102 000c 13D0     		beq	.L7
  84:Middlewares/Third_Party/LwIP/src/api/netbuf.c ****     if (buf->p != NULL) {
 103              		.loc 1 84 12
 104 000e 7B68     		ldr	r3, [r7, #4]
 105 0010 1B68     		ldr	r3, [r3]
 106              		.loc 1 84 8
 107 0012 002B     		cmp	r3, #0
 108 0014 0BD0     		beq	.L6
  85:Middlewares/Third_Party/LwIP/src/api/netbuf.c ****       pbuf_free(buf->p);
 109              		.loc 1 85 7
 110 0016 7B68     		ldr	r3, [r7, #4]
 111 0018 1B68     		ldr	r3, [r3]
 112 001a 1846     		mov	r0, r3
 113 001c FFF7FEFF 		bl	pbuf_free
  86:Middlewares/Third_Party/LwIP/src/api/netbuf.c ****       buf->p = buf->ptr = NULL;
 114              		.loc 1 86 25
 115 0020 7B68     		ldr	r3, [r7, #4]
 116 0022 0022     		movs	r2, #0
 117 0024 5A60     		str	r2, [r3, #4]
 118              		.loc 1 86 19
 119 0026 7B68     		ldr	r3, [r7, #4]
 120 0028 5A68     		ldr	r2, [r3, #4]
 121              		.loc 1 86 14
 122 002a 7B68     		ldr	r3, [r7, #4]
 123 002c 1A60     		str	r2, [r3]
 124              	.L6:
  87:Middlewares/Third_Party/LwIP/src/api/netbuf.c ****     }
  88:Middlewares/Third_Party/LwIP/src/api/netbuf.c ****     memp_free(MEMP_NETBUF, buf);
 125              		.loc 1 88 5
 126 002e 7968     		ldr	r1, [r7, #4]
 127 0030 0620     		movs	r0, #6
 128 0032 FFF7FEFF 		bl	memp_free
 129              	.L7:
  89:Middlewares/Third_Party/LwIP/src/api/netbuf.c ****   }
  90:Middlewares/Third_Party/LwIP/src/api/netbuf.c **** }
 130              		.loc 1 90 1
 131 0036 00BF     		nop
 132 0038 0837     		adds	r7, r7, #8
 133              	.LCFI8:
 134              		.cfi_def_cfa_offset 8
 135 003a BD46     		mov	sp, r7
 136              	.LCFI9:
 137              		.cfi_def_cfa_register 13
 138              		@ sp needed
 139 003c 80BD     		pop	{r7, pc}
 140              		.cfi_endproc
 141              	.LFE134:
ARM GAS  /tmp/ccoHMJDA.s 			page 5


 143              		.section	.rodata
 144              		.align	2
 145              	.LC0:
 146 0000 4D696464 		.ascii	"Middlewares/Third_Party/LwIP/src/api/netbuf.c\000"
 146      6C657761 
 146      7265732F 
 146      54686972 
 146      645F5061 
 147 002e 0000     		.align	2
 148              	.LC1:
 149 0030 6E657462 		.ascii	"netbuf_alloc: invalid buf\000"
 149      75665F61 
 149      6C6C6F63 
 149      3A20696E 
 149      76616C69 
 150 004a 0000     		.align	2
 151              	.LC2:
 152 004c 41737365 		.ascii	"Assertion \"%s\" failed at line %d in %s\012\000"
 152      7274696F 
 152      6E202225 
 152      73222066 
 152      61696C65 
 153              		.align	2
 154              	.LC3:
 155 0074 63686563 		.ascii	"check that first pbuf can hold size\000"
 155      6B207468 
 155      61742066 
 155      69727374 
 155      20706275 
 156              		.section	.text.netbuf_alloc,"ax",%progbits
 157              		.align	1
 158              		.global	netbuf_alloc
 159              		.syntax unified
 160              		.thumb
 161              		.thumb_func
 162              		.fpu fpv4-sp-d16
 164              	netbuf_alloc:
 165              	.LFB135:
  91:Middlewares/Third_Party/LwIP/src/api/netbuf.c **** 
  92:Middlewares/Third_Party/LwIP/src/api/netbuf.c **** /**
  93:Middlewares/Third_Party/LwIP/src/api/netbuf.c ****  * @ingroup netbuf
  94:Middlewares/Third_Party/LwIP/src/api/netbuf.c ****  * Allocate memory for a packet buffer for a given netbuf.
  95:Middlewares/Third_Party/LwIP/src/api/netbuf.c ****  *
  96:Middlewares/Third_Party/LwIP/src/api/netbuf.c ****  * @param buf the netbuf for which to allocate a packet buffer
  97:Middlewares/Third_Party/LwIP/src/api/netbuf.c ****  * @param size the size of the packet buffer to allocate
  98:Middlewares/Third_Party/LwIP/src/api/netbuf.c ****  * @return pointer to the allocated memory
  99:Middlewares/Third_Party/LwIP/src/api/netbuf.c ****  *         NULL if no memory could be allocated
 100:Middlewares/Third_Party/LwIP/src/api/netbuf.c ****  */
 101:Middlewares/Third_Party/LwIP/src/api/netbuf.c **** void *
 102:Middlewares/Third_Party/LwIP/src/api/netbuf.c **** netbuf_alloc(struct netbuf *buf, u16_t size)
 103:Middlewares/Third_Party/LwIP/src/api/netbuf.c **** {
 166              		.loc 1 103 1
 167              		.cfi_startproc
 168              		@ args = 0, pretend = 0, frame = 8
 169              		@ frame_needed = 1, uses_anonymous_args = 0
 170 0000 80B5     		push	{r7, lr}
 171              	.LCFI10:
ARM GAS  /tmp/ccoHMJDA.s 			page 6


 172              		.cfi_def_cfa_offset 8
 173              		.cfi_offset 7, -8
 174              		.cfi_offset 14, -4
 175 0002 82B0     		sub	sp, sp, #8
 176              	.LCFI11:
 177              		.cfi_def_cfa_offset 16
 178 0004 00AF     		add	r7, sp, #0
 179              	.LCFI12:
 180              		.cfi_def_cfa_register 7
 181 0006 7860     		str	r0, [r7, #4]
 182 0008 0B46     		mov	r3, r1
 183 000a 7B80     		strh	r3, [r7, #2]	@ movhi
 104:Middlewares/Third_Party/LwIP/src/api/netbuf.c ****   LWIP_ERROR("netbuf_alloc: invalid buf", (buf != NULL), return NULL;);
 184              		.loc 1 104 3
 185 000c 7B68     		ldr	r3, [r7, #4]
 186 000e 002B     		cmp	r3, #0
 187 0010 07D1     		bne	.L9
 188              		.loc 1 104 3 is_stmt 0 discriminator 1
 189 0012 1C4B     		ldr	r3, .L14
 190 0014 6822     		movs	r2, #104
 191 0016 1C49     		ldr	r1, .L14+4
 192 0018 1C48     		ldr	r0, .L14+8
 193 001a FFF7FEFF 		bl	printf
 194 001e 0023     		movs	r3, #0
 195 0020 2BE0     		b	.L10
 196              	.L9:
 105:Middlewares/Third_Party/LwIP/src/api/netbuf.c **** 
 106:Middlewares/Third_Party/LwIP/src/api/netbuf.c ****   /* Deallocate any previously allocated memory. */
 107:Middlewares/Third_Party/LwIP/src/api/netbuf.c ****   if (buf->p != NULL) {
 197              		.loc 1 107 10 is_stmt 1
 198 0022 7B68     		ldr	r3, [r7, #4]
 199 0024 1B68     		ldr	r3, [r3]
 200              		.loc 1 107 6
 201 0026 002B     		cmp	r3, #0
 202 0028 04D0     		beq	.L11
 108:Middlewares/Third_Party/LwIP/src/api/netbuf.c ****     pbuf_free(buf->p);
 203              		.loc 1 108 5
 204 002a 7B68     		ldr	r3, [r7, #4]
 205 002c 1B68     		ldr	r3, [r3]
 206 002e 1846     		mov	r0, r3
 207 0030 FFF7FEFF 		bl	pbuf_free
 208              	.L11:
 109:Middlewares/Third_Party/LwIP/src/api/netbuf.c ****   }
 110:Middlewares/Third_Party/LwIP/src/api/netbuf.c ****   buf->p = pbuf_alloc(PBUF_TRANSPORT, size, PBUF_RAM);
 209              		.loc 1 110 12
 210 0034 7B88     		ldrh	r3, [r7, #2]
 211 0036 4FF42072 		mov	r2, #640
 212 003a 1946     		mov	r1, r3
 213 003c 3620     		movs	r0, #54
 214 003e FFF7FEFF 		bl	pbuf_alloc
 215 0042 0246     		mov	r2, r0
 216              		.loc 1 110 10
 217 0044 7B68     		ldr	r3, [r7, #4]
 218 0046 1A60     		str	r2, [r3]
 111:Middlewares/Third_Party/LwIP/src/api/netbuf.c ****   if (buf->p == NULL) {
 219              		.loc 1 111 10
 220 0048 7B68     		ldr	r3, [r7, #4]
ARM GAS  /tmp/ccoHMJDA.s 			page 7


 221 004a 1B68     		ldr	r3, [r3]
 222              		.loc 1 111 6
 223 004c 002B     		cmp	r3, #0
 224 004e 01D1     		bne	.L12
 112:Middlewares/Third_Party/LwIP/src/api/netbuf.c ****     return NULL;
 225              		.loc 1 112 12
 226 0050 0023     		movs	r3, #0
 227 0052 12E0     		b	.L10
 228              	.L12:
 113:Middlewares/Third_Party/LwIP/src/api/netbuf.c ****   }
 114:Middlewares/Third_Party/LwIP/src/api/netbuf.c ****   LWIP_ASSERT("check that first pbuf can hold size",
 229              		.loc 1 114 3
 230 0054 7B68     		ldr	r3, [r7, #4]
 231 0056 1B68     		ldr	r3, [r3]
 232 0058 5B89     		ldrh	r3, [r3, #10]
 233 005a 7A88     		ldrh	r2, [r7, #2]
 234 005c 9A42     		cmp	r2, r3
 235 005e 05D9     		bls	.L13
 236              		.loc 1 114 3 is_stmt 0 discriminator 1
 237 0060 084B     		ldr	r3, .L14
 238 0062 7322     		movs	r2, #115
 239 0064 0A49     		ldr	r1, .L14+12
 240 0066 0948     		ldr	r0, .L14+8
 241 0068 FFF7FEFF 		bl	printf
 242              	.L13:
 115:Middlewares/Third_Party/LwIP/src/api/netbuf.c ****               (buf->p->len >= size));
 116:Middlewares/Third_Party/LwIP/src/api/netbuf.c ****   buf->ptr = buf->p;
 243              		.loc 1 116 17 is_stmt 1
 244 006c 7B68     		ldr	r3, [r7, #4]
 245 006e 1A68     		ldr	r2, [r3]
 246              		.loc 1 116 12
 247 0070 7B68     		ldr	r3, [r7, #4]
 248 0072 5A60     		str	r2, [r3, #4]
 117:Middlewares/Third_Party/LwIP/src/api/netbuf.c ****   return buf->p->payload;
 249              		.loc 1 117 13
 250 0074 7B68     		ldr	r3, [r7, #4]
 251 0076 1B68     		ldr	r3, [r3]
 252              		.loc 1 117 16
 253 0078 5B68     		ldr	r3, [r3, #4]
 254              	.L10:
 118:Middlewares/Third_Party/LwIP/src/api/netbuf.c **** }
 255              		.loc 1 118 1
 256 007a 1846     		mov	r0, r3
 257 007c 0837     		adds	r7, r7, #8
 258              	.LCFI13:
 259              		.cfi_def_cfa_offset 8
 260 007e BD46     		mov	sp, r7
 261              	.LCFI14:
 262              		.cfi_def_cfa_register 13
 263              		@ sp needed
 264 0080 80BD     		pop	{r7, pc}
 265              	.L15:
 266 0082 00BF     		.align	2
 267              	.L14:
 268 0084 00000000 		.word	.LC0
 269 0088 30000000 		.word	.LC1
 270 008c 4C000000 		.word	.LC2
ARM GAS  /tmp/ccoHMJDA.s 			page 8


 271 0090 74000000 		.word	.LC3
 272              		.cfi_endproc
 273              	.LFE135:
 275              		.section	.rodata
 276              		.align	2
 277              	.LC4:
 278 0098 6E657462 		.ascii	"netbuf_free: invalid buf\000"
 278      75665F66 
 278      7265653A 
 278      20696E76 
 278      616C6964 
 279              		.section	.text.netbuf_free,"ax",%progbits
 280              		.align	1
 281              		.global	netbuf_free
 282              		.syntax unified
 283              		.thumb
 284              		.thumb_func
 285              		.fpu fpv4-sp-d16
 287              	netbuf_free:
 288              	.LFB136:
 119:Middlewares/Third_Party/LwIP/src/api/netbuf.c **** 
 120:Middlewares/Third_Party/LwIP/src/api/netbuf.c **** /**
 121:Middlewares/Third_Party/LwIP/src/api/netbuf.c ****  * @ingroup netbuf
 122:Middlewares/Third_Party/LwIP/src/api/netbuf.c ****  * Free the packet buffer included in a netbuf
 123:Middlewares/Third_Party/LwIP/src/api/netbuf.c ****  *
 124:Middlewares/Third_Party/LwIP/src/api/netbuf.c ****  * @param buf pointer to the netbuf which contains the packet buffer to free
 125:Middlewares/Third_Party/LwIP/src/api/netbuf.c ****  */
 126:Middlewares/Third_Party/LwIP/src/api/netbuf.c **** void
 127:Middlewares/Third_Party/LwIP/src/api/netbuf.c **** netbuf_free(struct netbuf *buf)
 128:Middlewares/Third_Party/LwIP/src/api/netbuf.c **** {
 289              		.loc 1 128 1
 290              		.cfi_startproc
 291              		@ args = 0, pretend = 0, frame = 8
 292              		@ frame_needed = 1, uses_anonymous_args = 0
 293 0000 80B5     		push	{r7, lr}
 294              	.LCFI15:
 295              		.cfi_def_cfa_offset 8
 296              		.cfi_offset 7, -8
 297              		.cfi_offset 14, -4
 298 0002 82B0     		sub	sp, sp, #8
 299              	.LCFI16:
 300              		.cfi_def_cfa_offset 16
 301 0004 00AF     		add	r7, sp, #0
 302              	.LCFI17:
 303              		.cfi_def_cfa_register 7
 304 0006 7860     		str	r0, [r7, #4]
 129:Middlewares/Third_Party/LwIP/src/api/netbuf.c ****   LWIP_ERROR("netbuf_free: invalid buf", (buf != NULL), return;);
 305              		.loc 1 129 3
 306 0008 7B68     		ldr	r3, [r7, #4]
 307 000a 002B     		cmp	r3, #0
 308 000c 06D1     		bne	.L17
 309              		.loc 1 129 3 is_stmt 0 discriminator 1
 310 000e 0D4B     		ldr	r3, .L20
 311 0010 8122     		movs	r2, #129
 312 0012 0D49     		ldr	r1, .L20+4
 313 0014 0D48     		ldr	r0, .L20+8
 314 0016 FFF7FEFF 		bl	printf
ARM GAS  /tmp/ccoHMJDA.s 			page 9


 315 001a 0FE0     		b	.L16
 316              	.L17:
 130:Middlewares/Third_Party/LwIP/src/api/netbuf.c ****   if (buf->p != NULL) {
 317              		.loc 1 130 10 is_stmt 1
 318 001c 7B68     		ldr	r3, [r7, #4]
 319 001e 1B68     		ldr	r3, [r3]
 320              		.loc 1 130 6
 321 0020 002B     		cmp	r3, #0
 322 0022 04D0     		beq	.L19
 131:Middlewares/Third_Party/LwIP/src/api/netbuf.c ****     pbuf_free(buf->p);
 323              		.loc 1 131 5
 324 0024 7B68     		ldr	r3, [r7, #4]
 325 0026 1B68     		ldr	r3, [r3]
 326 0028 1846     		mov	r0, r3
 327 002a FFF7FEFF 		bl	pbuf_free
 328              	.L19:
 132:Middlewares/Third_Party/LwIP/src/api/netbuf.c ****   }
 133:Middlewares/Third_Party/LwIP/src/api/netbuf.c ****   buf->p = buf->ptr = NULL;
 329              		.loc 1 133 21
 330 002e 7B68     		ldr	r3, [r7, #4]
 331 0030 0022     		movs	r2, #0
 332 0032 5A60     		str	r2, [r3, #4]
 333              		.loc 1 133 15
 334 0034 7B68     		ldr	r3, [r7, #4]
 335 0036 5A68     		ldr	r2, [r3, #4]
 336              		.loc 1 133 10
 337 0038 7B68     		ldr	r3, [r7, #4]
 338 003a 1A60     		str	r2, [r3]
 339              	.L16:
 134:Middlewares/Third_Party/LwIP/src/api/netbuf.c **** #if LWIP_CHECKSUM_ON_COPY
 135:Middlewares/Third_Party/LwIP/src/api/netbuf.c ****   buf->flags = 0;
 136:Middlewares/Third_Party/LwIP/src/api/netbuf.c ****   buf->toport_chksum = 0;
 137:Middlewares/Third_Party/LwIP/src/api/netbuf.c **** #endif /* LWIP_CHECKSUM_ON_COPY */
 138:Middlewares/Third_Party/LwIP/src/api/netbuf.c **** }
 340              		.loc 1 138 1
 341 003c 0837     		adds	r7, r7, #8
 342              	.LCFI18:
 343              		.cfi_def_cfa_offset 8
 344 003e BD46     		mov	sp, r7
 345              	.LCFI19:
 346              		.cfi_def_cfa_register 13
 347              		@ sp needed
 348 0040 80BD     		pop	{r7, pc}
 349              	.L21:
 350 0042 00BF     		.align	2
 351              	.L20:
 352 0044 00000000 		.word	.LC0
 353 0048 98000000 		.word	.LC4
 354 004c 4C000000 		.word	.LC2
 355              		.cfi_endproc
 356              	.LFE136:
 358              		.section	.rodata
 359 00b1 000000   		.align	2
 360              	.LC5:
 361 00b4 6E657462 		.ascii	"netbuf_ref: invalid buf\000"
 361      75665F72 
 361      65663A20 
ARM GAS  /tmp/ccoHMJDA.s 			page 10


 361      696E7661 
 361      6C696420 
 362              		.section	.text.netbuf_ref,"ax",%progbits
 363              		.align	1
 364              		.global	netbuf_ref
 365              		.syntax unified
 366              		.thumb
 367              		.thumb_func
 368              		.fpu fpv4-sp-d16
 370              	netbuf_ref:
 371              	.LFB137:
 139:Middlewares/Third_Party/LwIP/src/api/netbuf.c **** 
 140:Middlewares/Third_Party/LwIP/src/api/netbuf.c **** /**
 141:Middlewares/Third_Party/LwIP/src/api/netbuf.c ****  * @ingroup netbuf
 142:Middlewares/Third_Party/LwIP/src/api/netbuf.c ****  * Let a netbuf reference existing (non-volatile) data.
 143:Middlewares/Third_Party/LwIP/src/api/netbuf.c ****  *
 144:Middlewares/Third_Party/LwIP/src/api/netbuf.c ****  * @param buf netbuf which should reference the data
 145:Middlewares/Third_Party/LwIP/src/api/netbuf.c ****  * @param dataptr pointer to the data to reference
 146:Middlewares/Third_Party/LwIP/src/api/netbuf.c ****  * @param size size of the data
 147:Middlewares/Third_Party/LwIP/src/api/netbuf.c ****  * @return ERR_OK if data is referenced
 148:Middlewares/Third_Party/LwIP/src/api/netbuf.c ****  *         ERR_MEM if data couldn't be referenced due to lack of memory
 149:Middlewares/Third_Party/LwIP/src/api/netbuf.c ****  */
 150:Middlewares/Third_Party/LwIP/src/api/netbuf.c **** err_t
 151:Middlewares/Third_Party/LwIP/src/api/netbuf.c **** netbuf_ref(struct netbuf *buf, const void *dataptr, u16_t size)
 152:Middlewares/Third_Party/LwIP/src/api/netbuf.c **** {
 372              		.loc 1 152 1
 373              		.cfi_startproc
 374              		@ args = 0, pretend = 0, frame = 16
 375              		@ frame_needed = 1, uses_anonymous_args = 0
 376 0000 80B5     		push	{r7, lr}
 377              	.LCFI20:
 378              		.cfi_def_cfa_offset 8
 379              		.cfi_offset 7, -8
 380              		.cfi_offset 14, -4
 381 0002 84B0     		sub	sp, sp, #16
 382              	.LCFI21:
 383              		.cfi_def_cfa_offset 24
 384 0004 00AF     		add	r7, sp, #0
 385              	.LCFI22:
 386              		.cfi_def_cfa_register 7
 387 0006 F860     		str	r0, [r7, #12]
 388 0008 B960     		str	r1, [r7, #8]
 389 000a 1346     		mov	r3, r2
 390 000c FB80     		strh	r3, [r7, #6]	@ movhi
 153:Middlewares/Third_Party/LwIP/src/api/netbuf.c ****   LWIP_ERROR("netbuf_ref: invalid buf", (buf != NULL), return ERR_ARG;);
 391              		.loc 1 153 3
 392 000e FB68     		ldr	r3, [r7, #12]
 393 0010 002B     		cmp	r3, #0
 394 0012 08D1     		bne	.L23
 395              		.loc 1 153 3 is_stmt 0 discriminator 1
 396 0014 1C4B     		ldr	r3, .L27
 397 0016 9922     		movs	r2, #153
 398 0018 1C49     		ldr	r1, .L27+4
 399 001a 1D48     		ldr	r0, .L27+8
 400 001c FFF7FEFF 		bl	printf
 401 0020 6FF00F03 		mvn	r3, #15
 402 0024 2BE0     		b	.L24
ARM GAS  /tmp/ccoHMJDA.s 			page 11


 403              	.L23:
 154:Middlewares/Third_Party/LwIP/src/api/netbuf.c ****   if (buf->p != NULL) {
 404              		.loc 1 154 10 is_stmt 1
 405 0026 FB68     		ldr	r3, [r7, #12]
 406 0028 1B68     		ldr	r3, [r3]
 407              		.loc 1 154 6
 408 002a 002B     		cmp	r3, #0
 409 002c 04D0     		beq	.L25
 155:Middlewares/Third_Party/LwIP/src/api/netbuf.c ****     pbuf_free(buf->p);
 410              		.loc 1 155 5
 411 002e FB68     		ldr	r3, [r7, #12]
 412 0030 1B68     		ldr	r3, [r3]
 413 0032 1846     		mov	r0, r3
 414 0034 FFF7FEFF 		bl	pbuf_free
 415              	.L25:
 156:Middlewares/Third_Party/LwIP/src/api/netbuf.c ****   }
 157:Middlewares/Third_Party/LwIP/src/api/netbuf.c ****   buf->p = pbuf_alloc(PBUF_TRANSPORT, 0, PBUF_REF);
 416              		.loc 1 157 12
 417 0038 4122     		movs	r2, #65
 418 003a 0021     		movs	r1, #0
 419 003c 3620     		movs	r0, #54
 420 003e FFF7FEFF 		bl	pbuf_alloc
 421 0042 0246     		mov	r2, r0
 422              		.loc 1 157 10
 423 0044 FB68     		ldr	r3, [r7, #12]
 424 0046 1A60     		str	r2, [r3]
 158:Middlewares/Third_Party/LwIP/src/api/netbuf.c ****   if (buf->p == NULL) {
 425              		.loc 1 158 10
 426 0048 FB68     		ldr	r3, [r7, #12]
 427 004a 1B68     		ldr	r3, [r3]
 428              		.loc 1 158 6
 429 004c 002B     		cmp	r3, #0
 430 004e 05D1     		bne	.L26
 159:Middlewares/Third_Party/LwIP/src/api/netbuf.c ****     buf->ptr = NULL;
 431              		.loc 1 159 14
 432 0050 FB68     		ldr	r3, [r7, #12]
 433 0052 0022     		movs	r2, #0
 434 0054 5A60     		str	r2, [r3, #4]
 160:Middlewares/Third_Party/LwIP/src/api/netbuf.c ****     return ERR_MEM;
 435              		.loc 1 160 12
 436 0056 4FF0FF33 		mov	r3, #-1
 437 005a 10E0     		b	.L24
 438              	.L26:
 161:Middlewares/Third_Party/LwIP/src/api/netbuf.c ****   }
 162:Middlewares/Third_Party/LwIP/src/api/netbuf.c ****   ((struct pbuf_rom *)buf->p)->payload = dataptr;
 439              		.loc 1 162 26
 440 005c FB68     		ldr	r3, [r7, #12]
 441 005e 1B68     		ldr	r3, [r3]
 442              		.loc 1 162 40
 443 0060 BA68     		ldr	r2, [r7, #8]
 444 0062 5A60     		str	r2, [r3, #4]
 163:Middlewares/Third_Party/LwIP/src/api/netbuf.c ****   buf->p->len = buf->p->tot_len = size;
 445              		.loc 1 163 20
 446 0064 FB68     		ldr	r3, [r7, #12]
 447 0066 1B68     		ldr	r3, [r3]
 448              		.loc 1 163 33
 449 0068 FA88     		ldrh	r2, [r7, #6]	@ movhi
ARM GAS  /tmp/ccoHMJDA.s 			page 12


 450 006a 1A81     		strh	r2, [r3, #8]	@ movhi
 451              		.loc 1 163 6
 452 006c FA68     		ldr	r2, [r7, #12]
 453 006e 1268     		ldr	r2, [r2]
 454              		.loc 1 163 23
 455 0070 1B89     		ldrh	r3, [r3, #8]
 456              		.loc 1 163 15
 457 0072 5381     		strh	r3, [r2, #10]	@ movhi
 164:Middlewares/Third_Party/LwIP/src/api/netbuf.c ****   buf->ptr = buf->p;
 458              		.loc 1 164 17
 459 0074 FB68     		ldr	r3, [r7, #12]
 460 0076 1A68     		ldr	r2, [r3]
 461              		.loc 1 164 12
 462 0078 FB68     		ldr	r3, [r7, #12]
 463 007a 5A60     		str	r2, [r3, #4]
 165:Middlewares/Third_Party/LwIP/src/api/netbuf.c ****   return ERR_OK;
 464              		.loc 1 165 10
 465 007c 0023     		movs	r3, #0
 466              	.L24:
 166:Middlewares/Third_Party/LwIP/src/api/netbuf.c **** }
 467              		.loc 1 166 1
 468 007e 1846     		mov	r0, r3
 469 0080 1037     		adds	r7, r7, #16
 470              	.LCFI23:
 471              		.cfi_def_cfa_offset 8
 472 0082 BD46     		mov	sp, r7
 473              	.LCFI24:
 474              		.cfi_def_cfa_register 13
 475              		@ sp needed
 476 0084 80BD     		pop	{r7, pc}
 477              	.L28:
 478 0086 00BF     		.align	2
 479              	.L27:
 480 0088 00000000 		.word	.LC0
 481 008c B4000000 		.word	.LC5
 482 0090 4C000000 		.word	.LC2
 483              		.cfi_endproc
 484              	.LFE137:
 486              		.section	.rodata
 487              		.align	2
 488              	.LC6:
 489 00cc 6E657462 		.ascii	"netbuf_chain: invalid head\000"
 489      75665F63 
 489      6861696E 
 489      3A20696E 
 489      76616C69 
 490 00e7 00       		.align	2
 491              	.LC7:
 492 00e8 6E657462 		.ascii	"netbuf_chain: invalid tail\000"
 492      75665F63 
 492      6861696E 
 492      3A20696E 
 492      76616C69 
 493              		.section	.text.netbuf_chain,"ax",%progbits
 494              		.align	1
 495              		.global	netbuf_chain
 496              		.syntax unified
ARM GAS  /tmp/ccoHMJDA.s 			page 13


 497              		.thumb
 498              		.thumb_func
 499              		.fpu fpv4-sp-d16
 501              	netbuf_chain:
 502              	.LFB138:
 167:Middlewares/Third_Party/LwIP/src/api/netbuf.c **** 
 168:Middlewares/Third_Party/LwIP/src/api/netbuf.c **** /**
 169:Middlewares/Third_Party/LwIP/src/api/netbuf.c ****  * @ingroup netbuf
 170:Middlewares/Third_Party/LwIP/src/api/netbuf.c ****  * Chain one netbuf to another (@see pbuf_chain)
 171:Middlewares/Third_Party/LwIP/src/api/netbuf.c ****  *
 172:Middlewares/Third_Party/LwIP/src/api/netbuf.c ****  * @param head the first netbuf
 173:Middlewares/Third_Party/LwIP/src/api/netbuf.c ****  * @param tail netbuf to chain after head, freed by this function, may not be reference after retur
 174:Middlewares/Third_Party/LwIP/src/api/netbuf.c ****  */
 175:Middlewares/Third_Party/LwIP/src/api/netbuf.c **** void
 176:Middlewares/Third_Party/LwIP/src/api/netbuf.c **** netbuf_chain(struct netbuf *head, struct netbuf *tail)
 177:Middlewares/Third_Party/LwIP/src/api/netbuf.c **** {
 503              		.loc 1 177 1
 504              		.cfi_startproc
 505              		@ args = 0, pretend = 0, frame = 8
 506              		@ frame_needed = 1, uses_anonymous_args = 0
 507 0000 80B5     		push	{r7, lr}
 508              	.LCFI25:
 509              		.cfi_def_cfa_offset 8
 510              		.cfi_offset 7, -8
 511              		.cfi_offset 14, -4
 512 0002 82B0     		sub	sp, sp, #8
 513              	.LCFI26:
 514              		.cfi_def_cfa_offset 16
 515 0004 00AF     		add	r7, sp, #0
 516              	.LCFI27:
 517              		.cfi_def_cfa_register 7
 518 0006 7860     		str	r0, [r7, #4]
 519 0008 3960     		str	r1, [r7]
 178:Middlewares/Third_Party/LwIP/src/api/netbuf.c ****   LWIP_ERROR("netbuf_chain: invalid head", (head != NULL), return;);
 520              		.loc 1 178 3
 521 000a 7B68     		ldr	r3, [r7, #4]
 522 000c 002B     		cmp	r3, #0
 523 000e 06D1     		bne	.L30
 524              		.loc 1 178 3 is_stmt 0 discriminator 1
 525 0010 114B     		ldr	r3, .L33
 526 0012 B222     		movs	r2, #178
 527 0014 1149     		ldr	r1, .L33+4
 528 0016 1248     		ldr	r0, .L33+8
 529 0018 FFF7FEFF 		bl	printf
 530 001c 19E0     		b	.L29
 531              	.L30:
 179:Middlewares/Third_Party/LwIP/src/api/netbuf.c ****   LWIP_ERROR("netbuf_chain: invalid tail", (tail != NULL), return;);
 532              		.loc 1 179 3 is_stmt 1
 533 001e 3B68     		ldr	r3, [r7]
 534 0020 002B     		cmp	r3, #0
 535 0022 06D1     		bne	.L32
 536              		.loc 1 179 3 is_stmt 0 discriminator 1
 537 0024 0C4B     		ldr	r3, .L33
 538 0026 B322     		movs	r2, #179
 539 0028 0E49     		ldr	r1, .L33+12
 540 002a 0D48     		ldr	r0, .L33+8
 541 002c FFF7FEFF 		bl	printf
ARM GAS  /tmp/ccoHMJDA.s 			page 14


 542 0030 0FE0     		b	.L29
 543              	.L32:
 180:Middlewares/Third_Party/LwIP/src/api/netbuf.c ****   pbuf_cat(head->p, tail->p);
 544              		.loc 1 180 3 is_stmt 1
 545 0032 7B68     		ldr	r3, [r7, #4]
 546 0034 1A68     		ldr	r2, [r3]
 547 0036 3B68     		ldr	r3, [r7]
 548 0038 1B68     		ldr	r3, [r3]
 549 003a 1946     		mov	r1, r3
 550 003c 1046     		mov	r0, r2
 551 003e FFF7FEFF 		bl	pbuf_cat
 181:Middlewares/Third_Party/LwIP/src/api/netbuf.c ****   head->ptr = head->p;
 552              		.loc 1 181 19
 553 0042 7B68     		ldr	r3, [r7, #4]
 554 0044 1A68     		ldr	r2, [r3]
 555              		.loc 1 181 13
 556 0046 7B68     		ldr	r3, [r7, #4]
 557 0048 5A60     		str	r2, [r3, #4]
 182:Middlewares/Third_Party/LwIP/src/api/netbuf.c ****   memp_free(MEMP_NETBUF, tail);
 558              		.loc 1 182 3
 559 004a 3968     		ldr	r1, [r7]
 560 004c 0620     		movs	r0, #6
 561 004e FFF7FEFF 		bl	memp_free
 562              	.L29:
 183:Middlewares/Third_Party/LwIP/src/api/netbuf.c **** }
 563              		.loc 1 183 1
 564 0052 0837     		adds	r7, r7, #8
 565              	.LCFI28:
 566              		.cfi_def_cfa_offset 8
 567 0054 BD46     		mov	sp, r7
 568              	.LCFI29:
 569              		.cfi_def_cfa_register 13
 570              		@ sp needed
 571 0056 80BD     		pop	{r7, pc}
 572              	.L34:
 573              		.align	2
 574              	.L33:
 575 0058 00000000 		.word	.LC0
 576 005c CC000000 		.word	.LC6
 577 0060 4C000000 		.word	.LC2
 578 0064 E8000000 		.word	.LC7
 579              		.cfi_endproc
 580              	.LFE138:
 582              		.section	.rodata
 583 0103 00       		.align	2
 584              	.LC8:
 585 0104 6E657462 		.ascii	"netbuf_data: invalid buf\000"
 585      75665F64 
 585      6174613A 
 585      20696E76 
 585      616C6964 
 586 011d 000000   		.align	2
 587              	.LC9:
 588 0120 6E657462 		.ascii	"netbuf_data: invalid dataptr\000"
 588      75665F64 
 588      6174613A 
 588      20696E76 
ARM GAS  /tmp/ccoHMJDA.s 			page 15


 588      616C6964 
 589 013d 000000   		.align	2
 590              	.LC10:
 591 0140 6E657462 		.ascii	"netbuf_data: invalid len\000"
 591      75665F64 
 591      6174613A 
 591      20696E76 
 591      616C6964 
 592              		.section	.text.netbuf_data,"ax",%progbits
 593              		.align	1
 594              		.global	netbuf_data
 595              		.syntax unified
 596              		.thumb
 597              		.thumb_func
 598              		.fpu fpv4-sp-d16
 600              	netbuf_data:
 601              	.LFB139:
 184:Middlewares/Third_Party/LwIP/src/api/netbuf.c **** 
 185:Middlewares/Third_Party/LwIP/src/api/netbuf.c **** /**
 186:Middlewares/Third_Party/LwIP/src/api/netbuf.c ****  * @ingroup netbuf
 187:Middlewares/Third_Party/LwIP/src/api/netbuf.c ****  * Get the data pointer and length of the data inside a netbuf.
 188:Middlewares/Third_Party/LwIP/src/api/netbuf.c ****  *
 189:Middlewares/Third_Party/LwIP/src/api/netbuf.c ****  * @param buf netbuf to get the data from
 190:Middlewares/Third_Party/LwIP/src/api/netbuf.c ****  * @param dataptr pointer to a void pointer where to store the data pointer
 191:Middlewares/Third_Party/LwIP/src/api/netbuf.c ****  * @param len pointer to an u16_t where the length of the data is stored
 192:Middlewares/Third_Party/LwIP/src/api/netbuf.c ****  * @return ERR_OK if the information was retrieved,
 193:Middlewares/Third_Party/LwIP/src/api/netbuf.c ****  *         ERR_BUF on error.
 194:Middlewares/Third_Party/LwIP/src/api/netbuf.c ****  */
 195:Middlewares/Third_Party/LwIP/src/api/netbuf.c **** err_t
 196:Middlewares/Third_Party/LwIP/src/api/netbuf.c **** netbuf_data(struct netbuf *buf, void **dataptr, u16_t *len)
 197:Middlewares/Third_Party/LwIP/src/api/netbuf.c **** {
 602              		.loc 1 197 1
 603              		.cfi_startproc
 604              		@ args = 0, pretend = 0, frame = 16
 605              		@ frame_needed = 1, uses_anonymous_args = 0
 606 0000 80B5     		push	{r7, lr}
 607              	.LCFI30:
 608              		.cfi_def_cfa_offset 8
 609              		.cfi_offset 7, -8
 610              		.cfi_offset 14, -4
 611 0002 84B0     		sub	sp, sp, #16
 612              	.LCFI31:
 613              		.cfi_def_cfa_offset 24
 614 0004 00AF     		add	r7, sp, #0
 615              	.LCFI32:
 616              		.cfi_def_cfa_register 7
 617 0006 F860     		str	r0, [r7, #12]
 618 0008 B960     		str	r1, [r7, #8]
 619 000a 7A60     		str	r2, [r7, #4]
 198:Middlewares/Third_Party/LwIP/src/api/netbuf.c ****   LWIP_ERROR("netbuf_data: invalid buf", (buf != NULL), return ERR_ARG;);
 620              		.loc 1 198 3
 621 000c FB68     		ldr	r3, [r7, #12]
 622 000e 002B     		cmp	r3, #0
 623 0010 08D1     		bne	.L36
 624              		.loc 1 198 3 is_stmt 0 discriminator 1
 625 0012 1B4B     		ldr	r3, .L41
 626 0014 C622     		movs	r2, #198
ARM GAS  /tmp/ccoHMJDA.s 			page 16


 627 0016 1B49     		ldr	r1, .L41+4
 628 0018 1B48     		ldr	r0, .L41+8
 629 001a FFF7FEFF 		bl	printf
 630 001e 6FF00F03 		mvn	r3, #15
 631 0022 29E0     		b	.L37
 632              	.L36:
 199:Middlewares/Third_Party/LwIP/src/api/netbuf.c ****   LWIP_ERROR("netbuf_data: invalid dataptr", (dataptr != NULL), return ERR_ARG;);
 633              		.loc 1 199 3 is_stmt 1
 634 0024 BB68     		ldr	r3, [r7, #8]
 635 0026 002B     		cmp	r3, #0
 636 0028 08D1     		bne	.L38
 637              		.loc 1 199 3 is_stmt 0 discriminator 1
 638 002a 154B     		ldr	r3, .L41
 639 002c C722     		movs	r2, #199
 640 002e 1749     		ldr	r1, .L41+12
 641 0030 1548     		ldr	r0, .L41+8
 642 0032 FFF7FEFF 		bl	printf
 643 0036 6FF00F03 		mvn	r3, #15
 644 003a 1DE0     		b	.L37
 645              	.L38:
 200:Middlewares/Third_Party/LwIP/src/api/netbuf.c ****   LWIP_ERROR("netbuf_data: invalid len", (len != NULL), return ERR_ARG;);
 646              		.loc 1 200 3 is_stmt 1
 647 003c 7B68     		ldr	r3, [r7, #4]
 648 003e 002B     		cmp	r3, #0
 649 0040 08D1     		bne	.L39
 650              		.loc 1 200 3 is_stmt 0 discriminator 1
 651 0042 0F4B     		ldr	r3, .L41
 652 0044 C822     		movs	r2, #200
 653 0046 1249     		ldr	r1, .L41+16
 654 0048 0F48     		ldr	r0, .L41+8
 655 004a FFF7FEFF 		bl	printf
 656 004e 6FF00F03 		mvn	r3, #15
 657 0052 11E0     		b	.L37
 658              	.L39:
 201:Middlewares/Third_Party/LwIP/src/api/netbuf.c **** 
 202:Middlewares/Third_Party/LwIP/src/api/netbuf.c ****   if (buf->ptr == NULL) {
 659              		.loc 1 202 10 is_stmt 1
 660 0054 FB68     		ldr	r3, [r7, #12]
 661 0056 5B68     		ldr	r3, [r3, #4]
 662              		.loc 1 202 6
 663 0058 002B     		cmp	r3, #0
 664 005a 02D1     		bne	.L40
 203:Middlewares/Third_Party/LwIP/src/api/netbuf.c ****     return ERR_BUF;
 665              		.loc 1 203 12
 666 005c 6FF00103 		mvn	r3, #1
 667 0060 0AE0     		b	.L37
 668              	.L40:
 204:Middlewares/Third_Party/LwIP/src/api/netbuf.c ****   }
 205:Middlewares/Third_Party/LwIP/src/api/netbuf.c ****   *dataptr = buf->ptr->payload;
 669              		.loc 1 205 17
 670 0062 FB68     		ldr	r3, [r7, #12]
 671 0064 5B68     		ldr	r3, [r3, #4]
 672              		.loc 1 205 22
 673 0066 5A68     		ldr	r2, [r3, #4]
 674              		.loc 1 205 12
 675 0068 BB68     		ldr	r3, [r7, #8]
 676 006a 1A60     		str	r2, [r3]
ARM GAS  /tmp/ccoHMJDA.s 			page 17


 206:Middlewares/Third_Party/LwIP/src/api/netbuf.c ****   *len = buf->ptr->len;
 677              		.loc 1 206 13
 678 006c FB68     		ldr	r3, [r7, #12]
 679 006e 5B68     		ldr	r3, [r3, #4]
 680              		.loc 1 206 18
 681 0070 5A89     		ldrh	r2, [r3, #10]
 682              		.loc 1 206 8
 683 0072 7B68     		ldr	r3, [r7, #4]
 684 0074 1A80     		strh	r2, [r3]	@ movhi
 207:Middlewares/Third_Party/LwIP/src/api/netbuf.c ****   return ERR_OK;
 685              		.loc 1 207 10
 686 0076 0023     		movs	r3, #0
 687              	.L37:
 208:Middlewares/Third_Party/LwIP/src/api/netbuf.c **** }
 688              		.loc 1 208 1
 689 0078 1846     		mov	r0, r3
 690 007a 1037     		adds	r7, r7, #16
 691              	.LCFI33:
 692              		.cfi_def_cfa_offset 8
 693 007c BD46     		mov	sp, r7
 694              	.LCFI34:
 695              		.cfi_def_cfa_register 13
 696              		@ sp needed
 697 007e 80BD     		pop	{r7, pc}
 698              	.L42:
 699              		.align	2
 700              	.L41:
 701 0080 00000000 		.word	.LC0
 702 0084 04010000 		.word	.LC8
 703 0088 4C000000 		.word	.LC2
 704 008c 20010000 		.word	.LC9
 705 0090 40010000 		.word	.LC10
 706              		.cfi_endproc
 707              	.LFE139:
 709              		.section	.rodata
 710 0159 000000   		.align	2
 711              	.LC11:
 712 015c 6E657462 		.ascii	"netbuf_next: invalid buf\000"
 712      75665F6E 
 712      6578743A 
 712      20696E76 
 712      616C6964 
 713              		.section	.text.netbuf_next,"ax",%progbits
 714              		.align	1
 715              		.global	netbuf_next
 716              		.syntax unified
 717              		.thumb
 718              		.thumb_func
 719              		.fpu fpv4-sp-d16
 721              	netbuf_next:
 722              	.LFB140:
 209:Middlewares/Third_Party/LwIP/src/api/netbuf.c **** 
 210:Middlewares/Third_Party/LwIP/src/api/netbuf.c **** /**
 211:Middlewares/Third_Party/LwIP/src/api/netbuf.c ****  * @ingroup netbuf
 212:Middlewares/Third_Party/LwIP/src/api/netbuf.c ****  * Move the current data pointer of a packet buffer contained in a netbuf
 213:Middlewares/Third_Party/LwIP/src/api/netbuf.c ****  * to the next part.
 214:Middlewares/Third_Party/LwIP/src/api/netbuf.c ****  * The packet buffer itself is not modified.
ARM GAS  /tmp/ccoHMJDA.s 			page 18


 215:Middlewares/Third_Party/LwIP/src/api/netbuf.c ****  *
 216:Middlewares/Third_Party/LwIP/src/api/netbuf.c ****  * @param buf the netbuf to modify
 217:Middlewares/Third_Party/LwIP/src/api/netbuf.c ****  * @return -1 if there is no next part
 218:Middlewares/Third_Party/LwIP/src/api/netbuf.c ****  *         1  if moved to the next part but now there is no next part
 219:Middlewares/Third_Party/LwIP/src/api/netbuf.c ****  *         0  if moved to the next part and there are still more parts
 220:Middlewares/Third_Party/LwIP/src/api/netbuf.c ****  */
 221:Middlewares/Third_Party/LwIP/src/api/netbuf.c **** s8_t
 222:Middlewares/Third_Party/LwIP/src/api/netbuf.c **** netbuf_next(struct netbuf *buf)
 223:Middlewares/Third_Party/LwIP/src/api/netbuf.c **** {
 723              		.loc 1 223 1
 724              		.cfi_startproc
 725              		@ args = 0, pretend = 0, frame = 8
 726              		@ frame_needed = 1, uses_anonymous_args = 0
 727 0000 80B5     		push	{r7, lr}
 728              	.LCFI35:
 729              		.cfi_def_cfa_offset 8
 730              		.cfi_offset 7, -8
 731              		.cfi_offset 14, -4
 732 0002 82B0     		sub	sp, sp, #8
 733              	.LCFI36:
 734              		.cfi_def_cfa_offset 16
 735 0004 00AF     		add	r7, sp, #0
 736              	.LCFI37:
 737              		.cfi_def_cfa_register 7
 738 0006 7860     		str	r0, [r7, #4]
 224:Middlewares/Third_Party/LwIP/src/api/netbuf.c ****   LWIP_ERROR("netbuf_next: invalid buf", (buf != NULL), return -1;);
 739              		.loc 1 224 3
 740 0008 7B68     		ldr	r3, [r7, #4]
 741 000a 002B     		cmp	r3, #0
 742 000c 08D1     		bne	.L44
 743              		.loc 1 224 3 is_stmt 0 discriminator 1
 744 000e 114B     		ldr	r3, .L48
 745 0010 E022     		movs	r2, #224
 746 0012 1149     		ldr	r1, .L48+4
 747 0014 1148     		ldr	r0, .L48+8
 748 0016 FFF7FEFF 		bl	printf
 749 001a 4FF0FF33 		mov	r3, #-1
 750 001e 14E0     		b	.L45
 751              	.L44:
 225:Middlewares/Third_Party/LwIP/src/api/netbuf.c ****   if (buf->ptr->next == NULL) {
 752              		.loc 1 225 10 is_stmt 1
 753 0020 7B68     		ldr	r3, [r7, #4]
 754 0022 5B68     		ldr	r3, [r3, #4]
 755              		.loc 1 225 15
 756 0024 1B68     		ldr	r3, [r3]
 757              		.loc 1 225 6
 758 0026 002B     		cmp	r3, #0
 759 0028 02D1     		bne	.L46
 226:Middlewares/Third_Party/LwIP/src/api/netbuf.c ****     return -1;
 760              		.loc 1 226 12
 761 002a 4FF0FF33 		mov	r3, #-1
 762 002e 0CE0     		b	.L45
 763              	.L46:
 227:Middlewares/Third_Party/LwIP/src/api/netbuf.c ****   }
 228:Middlewares/Third_Party/LwIP/src/api/netbuf.c ****   buf->ptr = buf->ptr->next;
 764              		.loc 1 228 17
 765 0030 7B68     		ldr	r3, [r7, #4]
ARM GAS  /tmp/ccoHMJDA.s 			page 19


 766 0032 5B68     		ldr	r3, [r3, #4]
 767              		.loc 1 228 22
 768 0034 1A68     		ldr	r2, [r3]
 769              		.loc 1 228 12
 770 0036 7B68     		ldr	r3, [r7, #4]
 771 0038 5A60     		str	r2, [r3, #4]
 229:Middlewares/Third_Party/LwIP/src/api/netbuf.c ****   if (buf->ptr->next == NULL) {
 772              		.loc 1 229 10
 773 003a 7B68     		ldr	r3, [r7, #4]
 774 003c 5B68     		ldr	r3, [r3, #4]
 775              		.loc 1 229 15
 776 003e 1B68     		ldr	r3, [r3]
 777              		.loc 1 229 6
 778 0040 002B     		cmp	r3, #0
 779 0042 01D1     		bne	.L47
 230:Middlewares/Third_Party/LwIP/src/api/netbuf.c ****     return 1;
 780              		.loc 1 230 12
 781 0044 0123     		movs	r3, #1
 782 0046 00E0     		b	.L45
 783              	.L47:
 231:Middlewares/Third_Party/LwIP/src/api/netbuf.c ****   }
 232:Middlewares/Third_Party/LwIP/src/api/netbuf.c ****   return 0;
 784              		.loc 1 232 10
 785 0048 0023     		movs	r3, #0
 786              	.L45:
 233:Middlewares/Third_Party/LwIP/src/api/netbuf.c **** }
 787              		.loc 1 233 1
 788 004a 1846     		mov	r0, r3
 789 004c 0837     		adds	r7, r7, #8
 790              	.LCFI38:
 791              		.cfi_def_cfa_offset 8
 792 004e BD46     		mov	sp, r7
 793              	.LCFI39:
 794              		.cfi_def_cfa_register 13
 795              		@ sp needed
 796 0050 80BD     		pop	{r7, pc}
 797              	.L49:
 798 0052 00BF     		.align	2
 799              	.L48:
 800 0054 00000000 		.word	.LC0
 801 0058 5C010000 		.word	.LC11
 802 005c 4C000000 		.word	.LC2
 803              		.cfi_endproc
 804              	.LFE140:
 806              		.section	.rodata
 807 0175 000000   		.align	2
 808              	.LC12:
 809 0178 6E657462 		.ascii	"netbuf_first: invalid buf\000"
 809      75665F66 
 809      69727374 
 809      3A20696E 
 809      76616C69 
 810              		.section	.text.netbuf_first,"ax",%progbits
 811              		.align	1
 812              		.global	netbuf_first
 813              		.syntax unified
 814              		.thumb
ARM GAS  /tmp/ccoHMJDA.s 			page 20


 815              		.thumb_func
 816              		.fpu fpv4-sp-d16
 818              	netbuf_first:
 819              	.LFB141:
 234:Middlewares/Third_Party/LwIP/src/api/netbuf.c **** 
 235:Middlewares/Third_Party/LwIP/src/api/netbuf.c **** /**
 236:Middlewares/Third_Party/LwIP/src/api/netbuf.c ****  * @ingroup netbuf
 237:Middlewares/Third_Party/LwIP/src/api/netbuf.c ****  * Move the current data pointer of a packet buffer contained in a netbuf
 238:Middlewares/Third_Party/LwIP/src/api/netbuf.c ****  * to the beginning of the packet.
 239:Middlewares/Third_Party/LwIP/src/api/netbuf.c ****  * The packet buffer itself is not modified.
 240:Middlewares/Third_Party/LwIP/src/api/netbuf.c ****  *
 241:Middlewares/Third_Party/LwIP/src/api/netbuf.c ****  * @param buf the netbuf to modify
 242:Middlewares/Third_Party/LwIP/src/api/netbuf.c ****  */
 243:Middlewares/Third_Party/LwIP/src/api/netbuf.c **** void
 244:Middlewares/Third_Party/LwIP/src/api/netbuf.c **** netbuf_first(struct netbuf *buf)
 245:Middlewares/Third_Party/LwIP/src/api/netbuf.c **** {
 820              		.loc 1 245 1
 821              		.cfi_startproc
 822              		@ args = 0, pretend = 0, frame = 8
 823              		@ frame_needed = 1, uses_anonymous_args = 0
 824 0000 80B5     		push	{r7, lr}
 825              	.LCFI40:
 826              		.cfi_def_cfa_offset 8
 827              		.cfi_offset 7, -8
 828              		.cfi_offset 14, -4
 829 0002 82B0     		sub	sp, sp, #8
 830              	.LCFI41:
 831              		.cfi_def_cfa_offset 16
 832 0004 00AF     		add	r7, sp, #0
 833              	.LCFI42:
 834              		.cfi_def_cfa_register 7
 835 0006 7860     		str	r0, [r7, #4]
 246:Middlewares/Third_Party/LwIP/src/api/netbuf.c ****   LWIP_ERROR("netbuf_first: invalid buf", (buf != NULL), return;);
 836              		.loc 1 246 3
 837 0008 7B68     		ldr	r3, [r7, #4]
 838 000a 002B     		cmp	r3, #0
 839 000c 06D1     		bne	.L51
 840              		.loc 1 246 3 is_stmt 0 discriminator 1
 841 000e 074B     		ldr	r3, .L53
 842 0010 F622     		movs	r2, #246
 843 0012 0749     		ldr	r1, .L53+4
 844 0014 0748     		ldr	r0, .L53+8
 845 0016 FFF7FEFF 		bl	printf
 846 001a 03E0     		b	.L50
 847              	.L51:
 247:Middlewares/Third_Party/LwIP/src/api/netbuf.c ****   buf->ptr = buf->p;
 848              		.loc 1 247 17 is_stmt 1
 849 001c 7B68     		ldr	r3, [r7, #4]
 850 001e 1A68     		ldr	r2, [r3]
 851              		.loc 1 247 12
 852 0020 7B68     		ldr	r3, [r7, #4]
 853 0022 5A60     		str	r2, [r3, #4]
 854              	.L50:
 248:Middlewares/Third_Party/LwIP/src/api/netbuf.c **** }
 855              		.loc 1 248 1
 856 0024 0837     		adds	r7, r7, #8
 857              	.LCFI43:
ARM GAS  /tmp/ccoHMJDA.s 			page 21


 858              		.cfi_def_cfa_offset 8
 859 0026 BD46     		mov	sp, r7
 860              	.LCFI44:
 861              		.cfi_def_cfa_register 13
 862              		@ sp needed
 863 0028 80BD     		pop	{r7, pc}
 864              	.L54:
 865 002a 00BF     		.align	2
 866              	.L53:
 867 002c 00000000 		.word	.LC0
 868 0030 78010000 		.word	.LC12
 869 0034 4C000000 		.word	.LC2
 870              		.cfi_endproc
 871              	.LFE141:
 873              		.text
 874              	.Letext0:
 875              		.file 2 "/home/mego/microros_ws/firmware/toolchain/arm-none-eabi/include/machine/_default_types.h"
 876              		.file 3 "/home/mego/microros_ws/firmware/toolchain/arm-none-eabi/include/sys/_stdint.h"
 877              		.file 4 "Drivers/CMSIS/Include/core_cm4.h"
 878              		.file 5 "Drivers/CMSIS/Device/ST/STM32F4xx/Include/system_stm32f4xx.h"
 879              		.file 6 "Drivers/STM32F4xx_HAL_Driver/Inc/stm32f4xx_hal.h"
 880              		.file 7 "/home/mego/microros_ws/firmware/toolchain/lib/gcc/arm-none-eabi/8.3.1/include/stddef.h"
 881              		.file 8 "/home/mego/microros_ws/firmware/toolchain/arm-none-eabi/include/sys/_types.h"
 882              		.file 9 "/home/mego/microros_ws/firmware/toolchain/arm-none-eabi/include/sys/reent.h"
 883              		.file 10 "/home/mego/microros_ws/firmware/toolchain/arm-none-eabi/include/sys/lock.h"
 884              		.file 11 "/home/mego/microros_ws/firmware/toolchain/arm-none-eabi/include/stdlib.h"
 885              		.file 12 "Middlewares/Third_Party/LwIP/src/include/lwip/arch.h"
 886              		.file 13 "/home/mego/microros_ws/firmware/toolchain/arm-none-eabi/include/ctype.h"
 887              		.file 14 "Middlewares/Third_Party/LwIP/src/include/lwip/err.h"
 888              		.file 15 "Middlewares/Third_Party/LwIP/src/include/lwip/pbuf.h"
 889              		.file 16 "Middlewares/Third_Party/LwIP/src/include/lwip/ip4_addr.h"
 890              		.file 17 "Middlewares/Third_Party/LwIP/src/include/lwip/ip_addr.h"
 891              		.file 18 "Middlewares/Third_Party/LwIP/src/include/lwip/netbuf.h"
 892              		.file 19 "Middlewares/Third_Party/LwIP/src/include/lwip/memp.h"
 893              		.file 20 "Middlewares/Third_Party/LwIP/src/include/lwip/priv/memp_priv.h"
ARM GAS  /tmp/ccoHMJDA.s 			page 22

