ARM GAS  /tmp/ccKMFSjT.s 			page 1


   1              		.cpu cortex-m4
   2              		.eabi_attribute 27, 1
   3              		.eabi_attribute 28, 1
   4              		.eabi_attribute 20, 1
   5              		.eabi_attribute 21, 1
   6              		.eabi_attribute 23, 3
   7              		.eabi_attribute 24, 1
   8              		.eabi_attribute 25, 1
   9              		.eabi_attribute 26, 1
  10              		.eabi_attribute 30, 6
  11              		.eabi_attribute 34, 1
  12              		.eabi_attribute 18, 4
  13              		.file	"netif.c"
  14              		.text
  15              	.Ltext0:
  16              		.cfi_sections	.debug_frame
  17              		.comm	netif_list,4,4
  18              		.comm	netif_default,4,4
  19              		.section	.bss.netif_num,"aw",%nobits
  22              	netif_num:
  23 0000 00       		.space	1
  24              		.section	.text.netif_init,"ax",%progbits
  25              		.align	1
  26              		.global	netif_init
  27              		.arch armv7e-m
  28              		.syntax unified
  29              		.thumb
  30              		.thumb_func
  31              		.fpu fpv4-sp-d16
  33              	netif_init:
  34              	.LFB137:
  35              		.file 1 "Middlewares/Third_Party/LwIP/src/core/netif.c"
   1:Middlewares/Third_Party/LwIP/src/core/netif.c **** /**
   2:Middlewares/Third_Party/LwIP/src/core/netif.c ****  * @file
   3:Middlewares/Third_Party/LwIP/src/core/netif.c ****  * lwIP network interface abstraction
   4:Middlewares/Third_Party/LwIP/src/core/netif.c ****  *
   5:Middlewares/Third_Party/LwIP/src/core/netif.c ****  * @defgroup netif Network interface (NETIF)
   6:Middlewares/Third_Party/LwIP/src/core/netif.c ****  * @ingroup callbackstyle_api
   7:Middlewares/Third_Party/LwIP/src/core/netif.c ****  *
   8:Middlewares/Third_Party/LwIP/src/core/netif.c ****  * @defgroup netif_ip4 IPv4 address handling
   9:Middlewares/Third_Party/LwIP/src/core/netif.c ****  * @ingroup netif
  10:Middlewares/Third_Party/LwIP/src/core/netif.c ****  *
  11:Middlewares/Third_Party/LwIP/src/core/netif.c ****  * @defgroup netif_ip6 IPv6 address handling
  12:Middlewares/Third_Party/LwIP/src/core/netif.c ****  * @ingroup netif
  13:Middlewares/Third_Party/LwIP/src/core/netif.c ****  *
  14:Middlewares/Third_Party/LwIP/src/core/netif.c ****  * @defgroup netif_cd Client data handling
  15:Middlewares/Third_Party/LwIP/src/core/netif.c ****  * Store data (void*) on a netif for application usage.
  16:Middlewares/Third_Party/LwIP/src/core/netif.c ****  * @see @ref LWIP_NUM_NETIF_CLIENT_DATA
  17:Middlewares/Third_Party/LwIP/src/core/netif.c ****  * @ingroup netif
  18:Middlewares/Third_Party/LwIP/src/core/netif.c ****  */
  19:Middlewares/Third_Party/LwIP/src/core/netif.c **** 
  20:Middlewares/Third_Party/LwIP/src/core/netif.c **** /*
  21:Middlewares/Third_Party/LwIP/src/core/netif.c ****  * Copyright (c) 2001-2004 Swedish Institute of Computer Science.
  22:Middlewares/Third_Party/LwIP/src/core/netif.c ****  * All rights reserved.
  23:Middlewares/Third_Party/LwIP/src/core/netif.c ****  *
  24:Middlewares/Third_Party/LwIP/src/core/netif.c ****  * Redistribution and use in source and binary forms, with or without modification,
  25:Middlewares/Third_Party/LwIP/src/core/netif.c ****  * are permitted provided that the following conditions are met:
ARM GAS  /tmp/ccKMFSjT.s 			page 2


  26:Middlewares/Third_Party/LwIP/src/core/netif.c ****  *
  27:Middlewares/Third_Party/LwIP/src/core/netif.c ****  * 1. Redistributions of source code must retain the above copyright notice,
  28:Middlewares/Third_Party/LwIP/src/core/netif.c ****  *    this list of conditions and the following disclaimer.
  29:Middlewares/Third_Party/LwIP/src/core/netif.c ****  * 2. Redistributions in binary form must reproduce the above copyright notice,
  30:Middlewares/Third_Party/LwIP/src/core/netif.c ****  *    this list of conditions and the following disclaimer in the documentation
  31:Middlewares/Third_Party/LwIP/src/core/netif.c ****  *    and/or other materials provided with the distribution.
  32:Middlewares/Third_Party/LwIP/src/core/netif.c ****  * 3. The name of the author may not be used to endorse or promote products
  33:Middlewares/Third_Party/LwIP/src/core/netif.c ****  *    derived from this software without specific prior written permission.
  34:Middlewares/Third_Party/LwIP/src/core/netif.c ****  *
  35:Middlewares/Third_Party/LwIP/src/core/netif.c ****  * THIS SOFTWARE IS PROVIDED BY THE AUTHOR ``AS IS'' AND ANY EXPRESS OR IMPLIED
  36:Middlewares/Third_Party/LwIP/src/core/netif.c ****  * WARRANTIES, INCLUDING, BUT NOT LIMITED TO, THE IMPLIED WARRANTIES OF
  37:Middlewares/Third_Party/LwIP/src/core/netif.c ****  * MERCHANTABILITY AND FITNESS FOR A PARTICULAR PURPOSE ARE DISCLAIMED. IN NO EVENT
  38:Middlewares/Third_Party/LwIP/src/core/netif.c ****  * SHALL THE AUTHOR BE LIABLE FOR ANY DIRECT, INDIRECT, INCIDENTAL, SPECIAL,
  39:Middlewares/Third_Party/LwIP/src/core/netif.c ****  * EXEMPLARY, OR CONSEQUENTIAL DAMAGES (INCLUDING, BUT NOT LIMITED TO, PROCUREMENT
  40:Middlewares/Third_Party/LwIP/src/core/netif.c ****  * OF SUBSTITUTE GOODS OR SERVICES; LOSS OF USE, DATA, OR PROFITS; OR BUSINESS
  41:Middlewares/Third_Party/LwIP/src/core/netif.c ****  * INTERRUPTION) HOWEVER CAUSED AND ON ANY THEORY OF LIABILITY, WHETHER IN
  42:Middlewares/Third_Party/LwIP/src/core/netif.c ****  * CONTRACT, STRICT LIABILITY, OR TORT (INCLUDING NEGLIGENCE OR OTHERWISE) ARISING
  43:Middlewares/Third_Party/LwIP/src/core/netif.c ****  * IN ANY WAY OUT OF THE USE OF THIS SOFTWARE, EVEN IF ADVISED OF THE POSSIBILITY
  44:Middlewares/Third_Party/LwIP/src/core/netif.c ****  * OF SUCH DAMAGE.
  45:Middlewares/Third_Party/LwIP/src/core/netif.c ****  *
  46:Middlewares/Third_Party/LwIP/src/core/netif.c ****  * This file is part of the lwIP TCP/IP stack.
  47:Middlewares/Third_Party/LwIP/src/core/netif.c ****  *
  48:Middlewares/Third_Party/LwIP/src/core/netif.c ****  * Author: Adam Dunkels <adam@sics.se>
  49:Middlewares/Third_Party/LwIP/src/core/netif.c ****  */
  50:Middlewares/Third_Party/LwIP/src/core/netif.c **** 
  51:Middlewares/Third_Party/LwIP/src/core/netif.c **** #include "lwip/opt.h"
  52:Middlewares/Third_Party/LwIP/src/core/netif.c **** 
  53:Middlewares/Third_Party/LwIP/src/core/netif.c **** #include <string.h> /* memset */
  54:Middlewares/Third_Party/LwIP/src/core/netif.c **** #include <stdlib.h> /* atoi */
  55:Middlewares/Third_Party/LwIP/src/core/netif.c **** 
  56:Middlewares/Third_Party/LwIP/src/core/netif.c **** #include "lwip/def.h"
  57:Middlewares/Third_Party/LwIP/src/core/netif.c **** #include "lwip/ip_addr.h"
  58:Middlewares/Third_Party/LwIP/src/core/netif.c **** #include "lwip/ip6_addr.h"
  59:Middlewares/Third_Party/LwIP/src/core/netif.c **** #include "lwip/netif.h"
  60:Middlewares/Third_Party/LwIP/src/core/netif.c **** #include "lwip/priv/tcp_priv.h"
  61:Middlewares/Third_Party/LwIP/src/core/netif.c **** #include "lwip/udp.h"
  62:Middlewares/Third_Party/LwIP/src/core/netif.c **** #include "lwip/priv/raw_priv.h"
  63:Middlewares/Third_Party/LwIP/src/core/netif.c **** #include "lwip/snmp.h"
  64:Middlewares/Third_Party/LwIP/src/core/netif.c **** #include "lwip/igmp.h"
  65:Middlewares/Third_Party/LwIP/src/core/netif.c **** #include "lwip/etharp.h"
  66:Middlewares/Third_Party/LwIP/src/core/netif.c **** #include "lwip/stats.h"
  67:Middlewares/Third_Party/LwIP/src/core/netif.c **** #include "lwip/sys.h"
  68:Middlewares/Third_Party/LwIP/src/core/netif.c **** #include "lwip/ip.h"
  69:Middlewares/Third_Party/LwIP/src/core/netif.c **** #if ENABLE_LOOPBACK
  70:Middlewares/Third_Party/LwIP/src/core/netif.c **** #if LWIP_NETIF_LOOPBACK_MULTITHREADING
  71:Middlewares/Third_Party/LwIP/src/core/netif.c **** #include "lwip/tcpip.h"
  72:Middlewares/Third_Party/LwIP/src/core/netif.c **** #endif /* LWIP_NETIF_LOOPBACK_MULTITHREADING */
  73:Middlewares/Third_Party/LwIP/src/core/netif.c **** #endif /* ENABLE_LOOPBACK */
  74:Middlewares/Third_Party/LwIP/src/core/netif.c **** 
  75:Middlewares/Third_Party/LwIP/src/core/netif.c **** #include "netif/ethernet.h"
  76:Middlewares/Third_Party/LwIP/src/core/netif.c **** 
  77:Middlewares/Third_Party/LwIP/src/core/netif.c **** #if LWIP_AUTOIP
  78:Middlewares/Third_Party/LwIP/src/core/netif.c **** #include "lwip/autoip.h"
  79:Middlewares/Third_Party/LwIP/src/core/netif.c **** #endif /* LWIP_AUTOIP */
  80:Middlewares/Third_Party/LwIP/src/core/netif.c **** #if LWIP_DHCP
  81:Middlewares/Third_Party/LwIP/src/core/netif.c **** #include "lwip/dhcp.h"
  82:Middlewares/Third_Party/LwIP/src/core/netif.c **** #endif /* LWIP_DHCP */
ARM GAS  /tmp/ccKMFSjT.s 			page 3


  83:Middlewares/Third_Party/LwIP/src/core/netif.c **** #if LWIP_IPV6_DHCP6
  84:Middlewares/Third_Party/LwIP/src/core/netif.c **** #include "lwip/dhcp6.h"
  85:Middlewares/Third_Party/LwIP/src/core/netif.c **** #endif /* LWIP_IPV6_DHCP6 */
  86:Middlewares/Third_Party/LwIP/src/core/netif.c **** #if LWIP_IPV6_MLD
  87:Middlewares/Third_Party/LwIP/src/core/netif.c **** #include "lwip/mld6.h"
  88:Middlewares/Third_Party/LwIP/src/core/netif.c **** #endif /* LWIP_IPV6_MLD */
  89:Middlewares/Third_Party/LwIP/src/core/netif.c **** #if LWIP_IPV6
  90:Middlewares/Third_Party/LwIP/src/core/netif.c **** #include "lwip/nd6.h"
  91:Middlewares/Third_Party/LwIP/src/core/netif.c **** #endif
  92:Middlewares/Third_Party/LwIP/src/core/netif.c **** 
  93:Middlewares/Third_Party/LwIP/src/core/netif.c **** #if LWIP_NETIF_STATUS_CALLBACK
  94:Middlewares/Third_Party/LwIP/src/core/netif.c **** #define NETIF_STATUS_CALLBACK(n) do{ if (n->status_callback) { (n->status_callback)(n); }}while(0)
  95:Middlewares/Third_Party/LwIP/src/core/netif.c **** #else
  96:Middlewares/Third_Party/LwIP/src/core/netif.c **** #define NETIF_STATUS_CALLBACK(n)
  97:Middlewares/Third_Party/LwIP/src/core/netif.c **** #endif /* LWIP_NETIF_STATUS_CALLBACK */
  98:Middlewares/Third_Party/LwIP/src/core/netif.c **** 
  99:Middlewares/Third_Party/LwIP/src/core/netif.c **** #if LWIP_NETIF_LINK_CALLBACK
 100:Middlewares/Third_Party/LwIP/src/core/netif.c **** #define NETIF_LINK_CALLBACK(n) do{ if (n->link_callback) { (n->link_callback)(n); }}while(0)
 101:Middlewares/Third_Party/LwIP/src/core/netif.c **** #else
 102:Middlewares/Third_Party/LwIP/src/core/netif.c **** #define NETIF_LINK_CALLBACK(n)
 103:Middlewares/Third_Party/LwIP/src/core/netif.c **** #endif /* LWIP_NETIF_LINK_CALLBACK */
 104:Middlewares/Third_Party/LwIP/src/core/netif.c **** 
 105:Middlewares/Third_Party/LwIP/src/core/netif.c **** #if LWIP_NETIF_EXT_STATUS_CALLBACK
 106:Middlewares/Third_Party/LwIP/src/core/netif.c **** static netif_ext_callback_t *ext_callback;
 107:Middlewares/Third_Party/LwIP/src/core/netif.c **** #endif
 108:Middlewares/Third_Party/LwIP/src/core/netif.c **** 
 109:Middlewares/Third_Party/LwIP/src/core/netif.c **** #if !LWIP_SINGLE_NETIF
 110:Middlewares/Third_Party/LwIP/src/core/netif.c **** struct netif *netif_list;
 111:Middlewares/Third_Party/LwIP/src/core/netif.c **** #endif /* !LWIP_SINGLE_NETIF */
 112:Middlewares/Third_Party/LwIP/src/core/netif.c **** struct netif *netif_default;
 113:Middlewares/Third_Party/LwIP/src/core/netif.c **** 
 114:Middlewares/Third_Party/LwIP/src/core/netif.c **** #define netif_index_to_num(index)   ((index) - 1)
 115:Middlewares/Third_Party/LwIP/src/core/netif.c **** static u8_t netif_num;
 116:Middlewares/Third_Party/LwIP/src/core/netif.c **** 
 117:Middlewares/Third_Party/LwIP/src/core/netif.c **** #if LWIP_NUM_NETIF_CLIENT_DATA > 0
 118:Middlewares/Third_Party/LwIP/src/core/netif.c **** static u8_t netif_client_id;
 119:Middlewares/Third_Party/LwIP/src/core/netif.c **** #endif
 120:Middlewares/Third_Party/LwIP/src/core/netif.c **** 
 121:Middlewares/Third_Party/LwIP/src/core/netif.c **** #define NETIF_REPORT_TYPE_IPV4  0x01
 122:Middlewares/Third_Party/LwIP/src/core/netif.c **** #define NETIF_REPORT_TYPE_IPV6  0x02
 123:Middlewares/Third_Party/LwIP/src/core/netif.c **** static void netif_issue_reports(struct netif *netif, u8_t report_type);
 124:Middlewares/Third_Party/LwIP/src/core/netif.c **** 
 125:Middlewares/Third_Party/LwIP/src/core/netif.c **** #if LWIP_IPV6
 126:Middlewares/Third_Party/LwIP/src/core/netif.c **** static err_t netif_null_output_ip6(struct netif *netif, struct pbuf *p, const ip6_addr_t *ipaddr);
 127:Middlewares/Third_Party/LwIP/src/core/netif.c **** #endif /* LWIP_IPV6 */
 128:Middlewares/Third_Party/LwIP/src/core/netif.c **** #if LWIP_IPV4
 129:Middlewares/Third_Party/LwIP/src/core/netif.c **** static err_t netif_null_output_ip4(struct netif *netif, struct pbuf *p, const ip4_addr_t *ipaddr);
 130:Middlewares/Third_Party/LwIP/src/core/netif.c **** #endif /* LWIP_IPV4 */
 131:Middlewares/Third_Party/LwIP/src/core/netif.c **** 
 132:Middlewares/Third_Party/LwIP/src/core/netif.c **** #if LWIP_HAVE_LOOPIF
 133:Middlewares/Third_Party/LwIP/src/core/netif.c **** #if LWIP_IPV4
 134:Middlewares/Third_Party/LwIP/src/core/netif.c **** static err_t netif_loop_output_ipv4(struct netif *netif, struct pbuf *p, const ip4_addr_t *addr);
 135:Middlewares/Third_Party/LwIP/src/core/netif.c **** #endif
 136:Middlewares/Third_Party/LwIP/src/core/netif.c **** #if LWIP_IPV6
 137:Middlewares/Third_Party/LwIP/src/core/netif.c **** static err_t netif_loop_output_ipv6(struct netif *netif, struct pbuf *p, const ip6_addr_t *addr);
 138:Middlewares/Third_Party/LwIP/src/core/netif.c **** #endif
 139:Middlewares/Third_Party/LwIP/src/core/netif.c **** 
ARM GAS  /tmp/ccKMFSjT.s 			page 4


 140:Middlewares/Third_Party/LwIP/src/core/netif.c **** 
 141:Middlewares/Third_Party/LwIP/src/core/netif.c **** static struct netif loop_netif;
 142:Middlewares/Third_Party/LwIP/src/core/netif.c **** 
 143:Middlewares/Third_Party/LwIP/src/core/netif.c **** /**
 144:Middlewares/Third_Party/LwIP/src/core/netif.c ****  * Initialize a lwip network interface structure for a loopback interface
 145:Middlewares/Third_Party/LwIP/src/core/netif.c ****  *
 146:Middlewares/Third_Party/LwIP/src/core/netif.c ****  * @param netif the lwip network interface structure for this loopif
 147:Middlewares/Third_Party/LwIP/src/core/netif.c ****  * @return ERR_OK if the loopif is initialized
 148:Middlewares/Third_Party/LwIP/src/core/netif.c ****  *         ERR_MEM if private data couldn't be allocated
 149:Middlewares/Third_Party/LwIP/src/core/netif.c ****  */
 150:Middlewares/Third_Party/LwIP/src/core/netif.c **** static err_t
 151:Middlewares/Third_Party/LwIP/src/core/netif.c **** netif_loopif_init(struct netif *netif)
 152:Middlewares/Third_Party/LwIP/src/core/netif.c **** {
 153:Middlewares/Third_Party/LwIP/src/core/netif.c ****   LWIP_ASSERT("netif_loopif_init: invalid netif", netif != NULL);
 154:Middlewares/Third_Party/LwIP/src/core/netif.c **** 
 155:Middlewares/Third_Party/LwIP/src/core/netif.c ****   /* initialize the snmp variables and counters inside the struct netif
 156:Middlewares/Third_Party/LwIP/src/core/netif.c ****    * ifSpeed: no assumption can be made!
 157:Middlewares/Third_Party/LwIP/src/core/netif.c ****    */
 158:Middlewares/Third_Party/LwIP/src/core/netif.c ****   MIB2_INIT_NETIF(netif, snmp_ifType_softwareLoopback, 0);
 159:Middlewares/Third_Party/LwIP/src/core/netif.c **** 
 160:Middlewares/Third_Party/LwIP/src/core/netif.c ****   netif->name[0] = 'l';
 161:Middlewares/Third_Party/LwIP/src/core/netif.c ****   netif->name[1] = 'o';
 162:Middlewares/Third_Party/LwIP/src/core/netif.c **** #if LWIP_IPV4
 163:Middlewares/Third_Party/LwIP/src/core/netif.c ****   netif->output = netif_loop_output_ipv4;
 164:Middlewares/Third_Party/LwIP/src/core/netif.c **** #endif
 165:Middlewares/Third_Party/LwIP/src/core/netif.c **** #if LWIP_IPV6
 166:Middlewares/Third_Party/LwIP/src/core/netif.c ****   netif->output_ip6 = netif_loop_output_ipv6;
 167:Middlewares/Third_Party/LwIP/src/core/netif.c **** #endif
 168:Middlewares/Third_Party/LwIP/src/core/netif.c **** #if LWIP_LOOPIF_MULTICAST
 169:Middlewares/Third_Party/LwIP/src/core/netif.c ****   netif_set_flags(netif, NETIF_FLAG_IGMP);
 170:Middlewares/Third_Party/LwIP/src/core/netif.c **** #endif
 171:Middlewares/Third_Party/LwIP/src/core/netif.c ****   NETIF_SET_CHECKSUM_CTRL(netif, NETIF_CHECKSUM_DISABLE_ALL);
 172:Middlewares/Third_Party/LwIP/src/core/netif.c ****   return ERR_OK;
 173:Middlewares/Third_Party/LwIP/src/core/netif.c **** }
 174:Middlewares/Third_Party/LwIP/src/core/netif.c **** #endif /* LWIP_HAVE_LOOPIF */
 175:Middlewares/Third_Party/LwIP/src/core/netif.c **** 
 176:Middlewares/Third_Party/LwIP/src/core/netif.c **** void
 177:Middlewares/Third_Party/LwIP/src/core/netif.c **** netif_init(void)
 178:Middlewares/Third_Party/LwIP/src/core/netif.c **** {
  36              		.loc 1 178 1
  37              		.cfi_startproc
  38              		@ args = 0, pretend = 0, frame = 0
  39              		@ frame_needed = 1, uses_anonymous_args = 0
  40              		@ link register save eliminated.
  41 0000 80B4     		push	{r7}
  42              	.LCFI0:
  43              		.cfi_def_cfa_offset 4
  44              		.cfi_offset 7, -4
  45 0002 00AF     		add	r7, sp, #0
  46              	.LCFI1:
  47              		.cfi_def_cfa_register 7
 179:Middlewares/Third_Party/LwIP/src/core/netif.c **** #if LWIP_HAVE_LOOPIF
 180:Middlewares/Third_Party/LwIP/src/core/netif.c **** #if LWIP_IPV4
 181:Middlewares/Third_Party/LwIP/src/core/netif.c **** #define LOOPIF_ADDRINIT &loop_ipaddr, &loop_netmask, &loop_gw,
 182:Middlewares/Third_Party/LwIP/src/core/netif.c ****   ip4_addr_t loop_ipaddr, loop_netmask, loop_gw;
 183:Middlewares/Third_Party/LwIP/src/core/netif.c ****   IP4_ADDR(&loop_gw, 127, 0, 0, 1);
 184:Middlewares/Third_Party/LwIP/src/core/netif.c ****   IP4_ADDR(&loop_ipaddr, 127, 0, 0, 1);
ARM GAS  /tmp/ccKMFSjT.s 			page 5


 185:Middlewares/Third_Party/LwIP/src/core/netif.c ****   IP4_ADDR(&loop_netmask, 255, 0, 0, 0);
 186:Middlewares/Third_Party/LwIP/src/core/netif.c **** #else /* LWIP_IPV4 */
 187:Middlewares/Third_Party/LwIP/src/core/netif.c **** #define LOOPIF_ADDRINIT
 188:Middlewares/Third_Party/LwIP/src/core/netif.c **** #endif /* LWIP_IPV4 */
 189:Middlewares/Third_Party/LwIP/src/core/netif.c **** 
 190:Middlewares/Third_Party/LwIP/src/core/netif.c **** #if NO_SYS
 191:Middlewares/Third_Party/LwIP/src/core/netif.c ****   netif_add(&loop_netif, LOOPIF_ADDRINIT NULL, netif_loopif_init, ip_input);
 192:Middlewares/Third_Party/LwIP/src/core/netif.c **** #else  /* NO_SYS */
 193:Middlewares/Third_Party/LwIP/src/core/netif.c ****   netif_add(&loop_netif, LOOPIF_ADDRINIT NULL, netif_loopif_init, tcpip_input);
 194:Middlewares/Third_Party/LwIP/src/core/netif.c **** #endif /* NO_SYS */
 195:Middlewares/Third_Party/LwIP/src/core/netif.c **** 
 196:Middlewares/Third_Party/LwIP/src/core/netif.c **** #if LWIP_IPV6
 197:Middlewares/Third_Party/LwIP/src/core/netif.c ****   IP_ADDR6_HOST(loop_netif.ip6_addr, 0, 0, 0, 0x00000001UL);
 198:Middlewares/Third_Party/LwIP/src/core/netif.c ****   loop_netif.ip6_addr_state[0] = IP6_ADDR_VALID;
 199:Middlewares/Third_Party/LwIP/src/core/netif.c **** #endif /* LWIP_IPV6 */
 200:Middlewares/Third_Party/LwIP/src/core/netif.c **** 
 201:Middlewares/Third_Party/LwIP/src/core/netif.c ****   netif_set_link_up(&loop_netif);
 202:Middlewares/Third_Party/LwIP/src/core/netif.c ****   netif_set_up(&loop_netif);
 203:Middlewares/Third_Party/LwIP/src/core/netif.c **** 
 204:Middlewares/Third_Party/LwIP/src/core/netif.c **** #endif /* LWIP_HAVE_LOOPIF */
 205:Middlewares/Third_Party/LwIP/src/core/netif.c **** }
  48              		.loc 1 205 1
  49 0004 00BF     		nop
  50 0006 BD46     		mov	sp, r7
  51              	.LCFI2:
  52              		.cfi_def_cfa_register 13
  53              		@ sp needed
  54 0008 5DF8047B 		ldr	r7, [sp], #4
  55              	.LCFI3:
  56              		.cfi_restore 7
  57              		.cfi_def_cfa_offset 0
  58 000c 7047     		bx	lr
  59              		.cfi_endproc
  60              	.LFE137:
  62              		.section	.rodata
  63              		.align	2
  64              	.LC0:
  65 0000 4D696464 		.ascii	"Middlewares/Third_Party/LwIP/src/core/netif.c\000"
  65      6C657761 
  65      7265732F 
  65      54686972 
  65      645F5061 
  66 002e 0000     		.align	2
  67              	.LC1:
  68 0030 6E657469 		.ascii	"netif_input: invalid pbuf\000"
  68      665F696E 
  68      7075743A 
  68      20696E76 
  68      616C6964 
  69 004a 0000     		.align	2
  70              	.LC2:
  71 004c 41737365 		.ascii	"Assertion \"%s\" failed at line %d in %s\012\000"
  71      7274696F 
  71      6E202225 
  71      73222066 
  71      61696C65 
  72              		.align	2
ARM GAS  /tmp/ccKMFSjT.s 			page 6


  73              	.LC3:
  74 0074 6E657469 		.ascii	"netif_input: invalid netif\000"
  74      665F696E 
  74      7075743A 
  74      20696E76 
  74      616C6964 
  75              		.section	.text.netif_input,"ax",%progbits
  76              		.align	1
  77              		.global	netif_input
  78              		.syntax unified
  79              		.thumb
  80              		.thumb_func
  81              		.fpu fpv4-sp-d16
  83              	netif_input:
  84              	.LFB138:
 206:Middlewares/Third_Party/LwIP/src/core/netif.c **** 
 207:Middlewares/Third_Party/LwIP/src/core/netif.c **** /**
 208:Middlewares/Third_Party/LwIP/src/core/netif.c ****  * @ingroup lwip_nosys
 209:Middlewares/Third_Party/LwIP/src/core/netif.c ****  * Forwards a received packet for input processing with
 210:Middlewares/Third_Party/LwIP/src/core/netif.c ****  * ethernet_input() or ip_input() depending on netif flags.
 211:Middlewares/Third_Party/LwIP/src/core/netif.c ****  * Don't call directly, pass to netif_add() and call
 212:Middlewares/Third_Party/LwIP/src/core/netif.c ****  * netif->input().
 213:Middlewares/Third_Party/LwIP/src/core/netif.c ****  * Only works if the netif driver correctly sets
 214:Middlewares/Third_Party/LwIP/src/core/netif.c ****  * NETIF_FLAG_ETHARP and/or NETIF_FLAG_ETHERNET flag!
 215:Middlewares/Third_Party/LwIP/src/core/netif.c ****  */
 216:Middlewares/Third_Party/LwIP/src/core/netif.c **** err_t
 217:Middlewares/Third_Party/LwIP/src/core/netif.c **** netif_input(struct pbuf *p, struct netif *inp)
 218:Middlewares/Third_Party/LwIP/src/core/netif.c **** {
  85              		.loc 1 218 1
  86              		.cfi_startproc
  87              		@ args = 0, pretend = 0, frame = 8
  88              		@ frame_needed = 1, uses_anonymous_args = 0
  89 0000 80B5     		push	{r7, lr}
  90              	.LCFI4:
  91              		.cfi_def_cfa_offset 8
  92              		.cfi_offset 7, -8
  93              		.cfi_offset 14, -4
  94 0002 82B0     		sub	sp, sp, #8
  95              	.LCFI5:
  96              		.cfi_def_cfa_offset 16
  97 0004 00AF     		add	r7, sp, #0
  98              	.LCFI6:
  99              		.cfi_def_cfa_register 7
 100 0006 7860     		str	r0, [r7, #4]
 101 0008 3960     		str	r1, [r7]
 219:Middlewares/Third_Party/LwIP/src/core/netif.c ****   LWIP_ASSERT_CORE_LOCKED();
 220:Middlewares/Third_Party/LwIP/src/core/netif.c **** 
 221:Middlewares/Third_Party/LwIP/src/core/netif.c ****   LWIP_ASSERT("netif_input: invalid pbuf", p != NULL);
 102              		.loc 1 221 3
 103 000a 7B68     		ldr	r3, [r7, #4]
 104 000c 002B     		cmp	r3, #0
 105 000e 05D1     		bne	.L3
 106              		.loc 1 221 3 is_stmt 0 discriminator 1
 107 0010 124B     		ldr	r3, .L7
 108 0012 DD22     		movs	r2, #221
 109 0014 1249     		ldr	r1, .L7+4
 110 0016 1348     		ldr	r0, .L7+8
ARM GAS  /tmp/ccKMFSjT.s 			page 7


 111 0018 FFF7FEFF 		bl	printf
 112              	.L3:
 222:Middlewares/Third_Party/LwIP/src/core/netif.c ****   LWIP_ASSERT("netif_input: invalid netif", inp != NULL);
 113              		.loc 1 222 3 is_stmt 1
 114 001c 3B68     		ldr	r3, [r7]
 115 001e 002B     		cmp	r3, #0
 116 0020 05D1     		bne	.L4
 117              		.loc 1 222 3 is_stmt 0 discriminator 1
 118 0022 0E4B     		ldr	r3, .L7
 119 0024 DE22     		movs	r2, #222
 120 0026 1049     		ldr	r1, .L7+12
 121 0028 0E48     		ldr	r0, .L7+8
 122 002a FFF7FEFF 		bl	printf
 123              	.L4:
 223:Middlewares/Third_Party/LwIP/src/core/netif.c **** 
 224:Middlewares/Third_Party/LwIP/src/core/netif.c **** #if LWIP_ETHERNET
 225:Middlewares/Third_Party/LwIP/src/core/netif.c ****   if (inp->flags & (NETIF_FLAG_ETHARP | NETIF_FLAG_ETHERNET)) {
 124              		.loc 1 225 10 is_stmt 1
 125 002e 3B68     		ldr	r3, [r7]
 126 0030 93F83130 		ldrb	r3, [r3, #49]	@ zero_extendqisi2
 127              		.loc 1 225 18
 128 0034 03F01803 		and	r3, r3, #24
 129              		.loc 1 225 6
 130 0038 002B     		cmp	r3, #0
 131 003a 05D0     		beq	.L5
 226:Middlewares/Third_Party/LwIP/src/core/netif.c ****     return ethernet_input(p, inp);
 132              		.loc 1 226 12
 133 003c 3968     		ldr	r1, [r7]
 134 003e 7868     		ldr	r0, [r7, #4]
 135 0040 FFF7FEFF 		bl	ethernet_input
 136 0044 0346     		mov	r3, r0
 137 0046 04E0     		b	.L6
 138              	.L5:
 227:Middlewares/Third_Party/LwIP/src/core/netif.c ****   } else
 228:Middlewares/Third_Party/LwIP/src/core/netif.c **** #endif /* LWIP_ETHERNET */
 229:Middlewares/Third_Party/LwIP/src/core/netif.c ****     return ip_input(p, inp);
 139              		.loc 1 229 12
 140 0048 3968     		ldr	r1, [r7]
 141 004a 7868     		ldr	r0, [r7, #4]
 142 004c FFF7FEFF 		bl	ip4_input
 143 0050 0346     		mov	r3, r0
 144              	.L6:
 230:Middlewares/Third_Party/LwIP/src/core/netif.c **** }
 145              		.loc 1 230 1
 146 0052 1846     		mov	r0, r3
 147 0054 0837     		adds	r7, r7, #8
 148              	.LCFI7:
 149              		.cfi_def_cfa_offset 8
 150 0056 BD46     		mov	sp, r7
 151              	.LCFI8:
 152              		.cfi_def_cfa_register 13
 153              		@ sp needed
 154 0058 80BD     		pop	{r7, pc}
 155              	.L8:
 156 005a 00BF     		.align	2
 157              	.L7:
 158 005c 00000000 		.word	.LC0
ARM GAS  /tmp/ccKMFSjT.s 			page 8


 159 0060 30000000 		.word	.LC1
 160 0064 4C000000 		.word	.LC2
 161 0068 74000000 		.word	.LC3
 162              		.cfi_endproc
 163              	.LFE138:
 165              		.section	.text.netif_add_noaddr,"ax",%progbits
 166              		.align	1
 167              		.global	netif_add_noaddr
 168              		.syntax unified
 169              		.thumb
 170              		.thumb_func
 171              		.fpu fpv4-sp-d16
 173              	netif_add_noaddr:
 174              	.LFB139:
 231:Middlewares/Third_Party/LwIP/src/core/netif.c **** 
 232:Middlewares/Third_Party/LwIP/src/core/netif.c **** /**
 233:Middlewares/Third_Party/LwIP/src/core/netif.c ****  * @ingroup netif
 234:Middlewares/Third_Party/LwIP/src/core/netif.c ****  * Add a network interface to the list of lwIP netifs.
 235:Middlewares/Third_Party/LwIP/src/core/netif.c ****  *
 236:Middlewares/Third_Party/LwIP/src/core/netif.c ****  * Same as @ref netif_add but without IPv4 addresses
 237:Middlewares/Third_Party/LwIP/src/core/netif.c ****  */
 238:Middlewares/Third_Party/LwIP/src/core/netif.c **** struct netif *
 239:Middlewares/Third_Party/LwIP/src/core/netif.c **** netif_add_noaddr(struct netif *netif, void *state, netif_init_fn init, netif_input_fn input)
 240:Middlewares/Third_Party/LwIP/src/core/netif.c **** {
 175              		.loc 1 240 1
 176              		.cfi_startproc
 177              		@ args = 0, pretend = 0, frame = 16
 178              		@ frame_needed = 1, uses_anonymous_args = 0
 179 0000 80B5     		push	{r7, lr}
 180              	.LCFI9:
 181              		.cfi_def_cfa_offset 8
 182              		.cfi_offset 7, -8
 183              		.cfi_offset 14, -4
 184 0002 88B0     		sub	sp, sp, #32
 185              	.LCFI10:
 186              		.cfi_def_cfa_offset 40
 187 0004 04AF     		add	r7, sp, #16
 188              	.LCFI11:
 189              		.cfi_def_cfa 7, 24
 190 0006 F860     		str	r0, [r7, #12]
 191 0008 B960     		str	r1, [r7, #8]
 192 000a 7A60     		str	r2, [r7, #4]
 193 000c 3B60     		str	r3, [r7]
 241:Middlewares/Third_Party/LwIP/src/core/netif.c ****   return netif_add(netif,
 194              		.loc 1 241 10
 195 000e 3B68     		ldr	r3, [r7]
 196 0010 0293     		str	r3, [sp, #8]
 197 0012 7B68     		ldr	r3, [r7, #4]
 198 0014 0193     		str	r3, [sp, #4]
 199 0016 BB68     		ldr	r3, [r7, #8]
 200 0018 0093     		str	r3, [sp]
 201 001a 0023     		movs	r3, #0
 202 001c 0022     		movs	r2, #0
 203 001e 0021     		movs	r1, #0
 204 0020 F868     		ldr	r0, [r7, #12]
 205 0022 FFF7FEFF 		bl	netif_add
 206 0026 0346     		mov	r3, r0
ARM GAS  /tmp/ccKMFSjT.s 			page 9


 242:Middlewares/Third_Party/LwIP/src/core/netif.c **** #if LWIP_IPV4
 243:Middlewares/Third_Party/LwIP/src/core/netif.c ****                    NULL, NULL, NULL,
 244:Middlewares/Third_Party/LwIP/src/core/netif.c **** #endif /* LWIP_IPV4*/
 245:Middlewares/Third_Party/LwIP/src/core/netif.c ****                    state, init, input);
 246:Middlewares/Third_Party/LwIP/src/core/netif.c **** }
 207              		.loc 1 246 1
 208 0028 1846     		mov	r0, r3
 209 002a 1037     		adds	r7, r7, #16
 210              	.LCFI12:
 211              		.cfi_def_cfa_offset 8
 212 002c BD46     		mov	sp, r7
 213              	.LCFI13:
 214              		.cfi_def_cfa_register 13
 215              		@ sp needed
 216 002e 80BD     		pop	{r7, pc}
 217              		.cfi_endproc
 218              	.LFE139:
 220              		.section	.rodata
 221 008f 00       		.align	2
 222              	.LC4:
 223 0090 6E657469 		.ascii	"netif_add: invalid netif\000"
 223      665F6164 
 223      643A2069 
 223      6E76616C 
 223      6964206E 
 224 00a9 000000   		.align	2
 225              	.LC5:
 226 00ac 6E657469 		.ascii	"netif_add: No init function given\000"
 226      665F6164 
 226      643A204E 
 226      6F20696E 
 226      69742066 
 227 00ce 0000     		.align	2
 228              	.LC6:
 229 00d0 6E657469 		.ascii	"netif already added\000"
 229      6620616C 
 229      72656164 
 229      79206164 
 229      64656400 
 230              		.align	2
 231              	.LC7:
 232 00e4 746F6F20 		.ascii	"too many netifs, max. supported number is 255\000"
 232      6D616E79 
 232      206E6574 
 232      6966732C 
 232      206D6178 
 233              		.section	.text.netif_add,"ax",%progbits
 234              		.align	1
 235              		.global	netif_add
 236              		.syntax unified
 237              		.thumb
 238              		.thumb_func
 239              		.fpu fpv4-sp-d16
 241              	netif_add:
 242              	.LFB140:
 247:Middlewares/Third_Party/LwIP/src/core/netif.c **** 
 248:Middlewares/Third_Party/LwIP/src/core/netif.c **** /**
ARM GAS  /tmp/ccKMFSjT.s 			page 10


 249:Middlewares/Third_Party/LwIP/src/core/netif.c ****  * @ingroup netif
 250:Middlewares/Third_Party/LwIP/src/core/netif.c ****  * Add a network interface to the list of lwIP netifs.
 251:Middlewares/Third_Party/LwIP/src/core/netif.c ****  *
 252:Middlewares/Third_Party/LwIP/src/core/netif.c ****  * @param netif a pre-allocated netif structure
 253:Middlewares/Third_Party/LwIP/src/core/netif.c ****  * @param ipaddr IP address for the new netif
 254:Middlewares/Third_Party/LwIP/src/core/netif.c ****  * @param netmask network mask for the new netif
 255:Middlewares/Third_Party/LwIP/src/core/netif.c ****  * @param gw default gateway IP address for the new netif
 256:Middlewares/Third_Party/LwIP/src/core/netif.c ****  * @param state opaque data passed to the new netif
 257:Middlewares/Third_Party/LwIP/src/core/netif.c ****  * @param init callback function that initializes the interface
 258:Middlewares/Third_Party/LwIP/src/core/netif.c ****  * @param input callback function that is called to pass
 259:Middlewares/Third_Party/LwIP/src/core/netif.c ****  * ingress packets up in the protocol layer stack.\n
 260:Middlewares/Third_Party/LwIP/src/core/netif.c ****  * It is recommended to use a function that passes the input directly
 261:Middlewares/Third_Party/LwIP/src/core/netif.c ****  * to the stack (netif_input(), NO_SYS=1 mode) or via sending a
 262:Middlewares/Third_Party/LwIP/src/core/netif.c ****  * message to TCPIP thread (tcpip_input(), NO_SYS=0 mode).\n
 263:Middlewares/Third_Party/LwIP/src/core/netif.c ****  * These functions use netif flags NETIF_FLAG_ETHARP and NETIF_FLAG_ETHERNET
 264:Middlewares/Third_Party/LwIP/src/core/netif.c ****  * to decide whether to forward to ethernet_input() or ip_input().
 265:Middlewares/Third_Party/LwIP/src/core/netif.c ****  * In other words, the functions only work when the netif
 266:Middlewares/Third_Party/LwIP/src/core/netif.c ****  * driver is implemented correctly!\n
 267:Middlewares/Third_Party/LwIP/src/core/netif.c ****  * Most members of struct netif should be be initialized by the
 268:Middlewares/Third_Party/LwIP/src/core/netif.c ****  * netif init function = netif driver (init parameter of this function).\n
 269:Middlewares/Third_Party/LwIP/src/core/netif.c ****  * IPv6: Don't forget to call netif_create_ip6_linklocal_address() after
 270:Middlewares/Third_Party/LwIP/src/core/netif.c ****  * setting the MAC address in struct netif.hwaddr
 271:Middlewares/Third_Party/LwIP/src/core/netif.c ****  * (IPv6 requires a link-local address).
 272:Middlewares/Third_Party/LwIP/src/core/netif.c ****  *
 273:Middlewares/Third_Party/LwIP/src/core/netif.c ****  * @return netif, or NULL if failed.
 274:Middlewares/Third_Party/LwIP/src/core/netif.c ****  */
 275:Middlewares/Third_Party/LwIP/src/core/netif.c **** struct netif *
 276:Middlewares/Third_Party/LwIP/src/core/netif.c **** netif_add(struct netif *netif,
 277:Middlewares/Third_Party/LwIP/src/core/netif.c **** #if LWIP_IPV4
 278:Middlewares/Third_Party/LwIP/src/core/netif.c ****           const ip4_addr_t *ipaddr, const ip4_addr_t *netmask, const ip4_addr_t *gw,
 279:Middlewares/Third_Party/LwIP/src/core/netif.c **** #endif /* LWIP_IPV4 */
 280:Middlewares/Third_Party/LwIP/src/core/netif.c ****           void *state, netif_init_fn init, netif_input_fn input)
 281:Middlewares/Third_Party/LwIP/src/core/netif.c **** {
 243              		.loc 1 281 1
 244              		.cfi_startproc
 245              		@ args = 12, pretend = 0, frame = 24
 246              		@ frame_needed = 1, uses_anonymous_args = 0
 247 0000 80B5     		push	{r7, lr}
 248              	.LCFI14:
 249              		.cfi_def_cfa_offset 8
 250              		.cfi_offset 7, -8
 251              		.cfi_offset 14, -4
 252 0002 86B0     		sub	sp, sp, #24
 253              	.LCFI15:
 254              		.cfi_def_cfa_offset 32
 255 0004 00AF     		add	r7, sp, #0
 256              	.LCFI16:
 257              		.cfi_def_cfa_register 7
 258 0006 F860     		str	r0, [r7, #12]
 259 0008 B960     		str	r1, [r7, #8]
 260 000a 7A60     		str	r2, [r7, #4]
 261 000c 3B60     		str	r3, [r7]
 282:Middlewares/Third_Party/LwIP/src/core/netif.c **** #if LWIP_IPV6
 283:Middlewares/Third_Party/LwIP/src/core/netif.c ****   s8_t i;
 284:Middlewares/Third_Party/LwIP/src/core/netif.c **** #endif
 285:Middlewares/Third_Party/LwIP/src/core/netif.c **** 
 286:Middlewares/Third_Party/LwIP/src/core/netif.c ****   LWIP_ASSERT_CORE_LOCKED();
ARM GAS  /tmp/ccKMFSjT.s 			page 11


 287:Middlewares/Third_Party/LwIP/src/core/netif.c **** 
 288:Middlewares/Third_Party/LwIP/src/core/netif.c **** #if LWIP_SINGLE_NETIF
 289:Middlewares/Third_Party/LwIP/src/core/netif.c ****   if (netif_default != NULL) {
 290:Middlewares/Third_Party/LwIP/src/core/netif.c ****     LWIP_ASSERT("single netif already set", 0);
 291:Middlewares/Third_Party/LwIP/src/core/netif.c ****     return NULL;
 292:Middlewares/Third_Party/LwIP/src/core/netif.c ****   }
 293:Middlewares/Third_Party/LwIP/src/core/netif.c **** #endif
 294:Middlewares/Third_Party/LwIP/src/core/netif.c **** 
 295:Middlewares/Third_Party/LwIP/src/core/netif.c ****   LWIP_ERROR("netif_add: invalid netif", netif != NULL, return NULL);
 262              		.loc 1 295 3
 263 000e FB68     		ldr	r3, [r7, #12]
 264 0010 002B     		cmp	r3, #0
 265 0012 08D1     		bne	.L12
 266              		.loc 1 295 3 is_stmt 0 discriminator 1
 267 0014 5B4B     		ldr	r3, .L28
 268 0016 40F22712 		movw	r2, #295
 269 001a 5B49     		ldr	r1, .L28+4
 270 001c 5B48     		ldr	r0, .L28+8
 271 001e FFF7FEFF 		bl	printf
 272 0022 0023     		movs	r3, #0
 273 0024 A9E0     		b	.L13
 274              	.L12:
 296:Middlewares/Third_Party/LwIP/src/core/netif.c ****   LWIP_ERROR("netif_add: No init function given", init != NULL, return NULL);
 275              		.loc 1 296 3 is_stmt 1
 276 0026 7B6A     		ldr	r3, [r7, #36]
 277 0028 002B     		cmp	r3, #0
 278 002a 08D1     		bne	.L14
 279              		.loc 1 296 3 is_stmt 0 discriminator 1
 280 002c 554B     		ldr	r3, .L28
 281 002e 4FF49472 		mov	r2, #296
 282 0032 5749     		ldr	r1, .L28+12
 283 0034 5548     		ldr	r0, .L28+8
 284 0036 FFF7FEFF 		bl	printf
 285 003a 0023     		movs	r3, #0
 286 003c 9DE0     		b	.L13
 287              	.L14:
 297:Middlewares/Third_Party/LwIP/src/core/netif.c **** 
 298:Middlewares/Third_Party/LwIP/src/core/netif.c **** #if LWIP_IPV4
 299:Middlewares/Third_Party/LwIP/src/core/netif.c ****   if (ipaddr == NULL) {
 288              		.loc 1 299 6 is_stmt 1
 289 003e BB68     		ldr	r3, [r7, #8]
 290 0040 002B     		cmp	r3, #0
 291 0042 01D1     		bne	.L15
 300:Middlewares/Third_Party/LwIP/src/core/netif.c ****     ipaddr = ip_2_ip4(IP4_ADDR_ANY);
 292              		.loc 1 300 12
 293 0044 534B     		ldr	r3, .L28+16
 294 0046 BB60     		str	r3, [r7, #8]
 295              	.L15:
 301:Middlewares/Third_Party/LwIP/src/core/netif.c ****   }
 302:Middlewares/Third_Party/LwIP/src/core/netif.c ****   if (netmask == NULL) {
 296              		.loc 1 302 6
 297 0048 7B68     		ldr	r3, [r7, #4]
 298 004a 002B     		cmp	r3, #0
 299 004c 01D1     		bne	.L16
 303:Middlewares/Third_Party/LwIP/src/core/netif.c ****     netmask = ip_2_ip4(IP4_ADDR_ANY);
 300              		.loc 1 303 13
 301 004e 514B     		ldr	r3, .L28+16
ARM GAS  /tmp/ccKMFSjT.s 			page 12


 302 0050 7B60     		str	r3, [r7, #4]
 303              	.L16:
 304:Middlewares/Third_Party/LwIP/src/core/netif.c ****   }
 305:Middlewares/Third_Party/LwIP/src/core/netif.c ****   if (gw == NULL) {
 304              		.loc 1 305 6
 305 0052 3B68     		ldr	r3, [r7]
 306 0054 002B     		cmp	r3, #0
 307 0056 01D1     		bne	.L17
 306:Middlewares/Third_Party/LwIP/src/core/netif.c ****     gw = ip_2_ip4(IP4_ADDR_ANY);
 308              		.loc 1 306 8
 309 0058 4E4B     		ldr	r3, .L28+16
 310 005a 3B60     		str	r3, [r7]
 311              	.L17:
 307:Middlewares/Third_Party/LwIP/src/core/netif.c ****   }
 308:Middlewares/Third_Party/LwIP/src/core/netif.c **** 
 309:Middlewares/Third_Party/LwIP/src/core/netif.c ****   /* reset new interface configuration state */
 310:Middlewares/Third_Party/LwIP/src/core/netif.c ****   ip_addr_set_zero_ip4(&netif->ip_addr);
 312              		.loc 1 310 3
 313 005c FB68     		ldr	r3, [r7, #12]
 314 005e 0022     		movs	r2, #0
 315 0060 5A60     		str	r2, [r3, #4]
 311:Middlewares/Third_Party/LwIP/src/core/netif.c ****   ip_addr_set_zero_ip4(&netif->netmask);
 316              		.loc 1 311 3
 317 0062 FB68     		ldr	r3, [r7, #12]
 318 0064 0022     		movs	r2, #0
 319 0066 9A60     		str	r2, [r3, #8]
 312:Middlewares/Third_Party/LwIP/src/core/netif.c ****   ip_addr_set_zero_ip4(&netif->gw);
 320              		.loc 1 312 3
 321 0068 FB68     		ldr	r3, [r7, #12]
 322 006a 0022     		movs	r2, #0
 323 006c DA60     		str	r2, [r3, #12]
 313:Middlewares/Third_Party/LwIP/src/core/netif.c ****   netif->output = netif_null_output_ip4;
 324              		.loc 1 313 17
 325 006e FB68     		ldr	r3, [r7, #12]
 326 0070 494A     		ldr	r2, .L28+20
 327 0072 5A61     		str	r2, [r3, #20]
 314:Middlewares/Third_Party/LwIP/src/core/netif.c **** #endif /* LWIP_IPV4 */
 315:Middlewares/Third_Party/LwIP/src/core/netif.c **** #if LWIP_IPV6
 316:Middlewares/Third_Party/LwIP/src/core/netif.c ****   for (i = 0; i < LWIP_IPV6_NUM_ADDRESSES; i++) {
 317:Middlewares/Third_Party/LwIP/src/core/netif.c ****     ip_addr_set_zero_ip6(&netif->ip6_addr[i]);
 318:Middlewares/Third_Party/LwIP/src/core/netif.c ****     netif->ip6_addr_state[i] = IP6_ADDR_INVALID;
 319:Middlewares/Third_Party/LwIP/src/core/netif.c **** #if LWIP_IPV6_ADDRESS_LIFETIMES
 320:Middlewares/Third_Party/LwIP/src/core/netif.c ****     netif->ip6_addr_valid_life[i] = IP6_ADDR_LIFE_STATIC;
 321:Middlewares/Third_Party/LwIP/src/core/netif.c ****     netif->ip6_addr_pref_life[i] = IP6_ADDR_LIFE_STATIC;
 322:Middlewares/Third_Party/LwIP/src/core/netif.c **** #endif /* LWIP_IPV6_ADDRESS_LIFETIMES */
 323:Middlewares/Third_Party/LwIP/src/core/netif.c ****   }
 324:Middlewares/Third_Party/LwIP/src/core/netif.c ****   netif->output_ip6 = netif_null_output_ip6;
 325:Middlewares/Third_Party/LwIP/src/core/netif.c **** #endif /* LWIP_IPV6 */
 326:Middlewares/Third_Party/LwIP/src/core/netif.c ****   NETIF_SET_CHECKSUM_CTRL(netif, NETIF_CHECKSUM_ENABLE_ALL);
 327:Middlewares/Third_Party/LwIP/src/core/netif.c ****   netif->mtu = 0;
 328              		.loc 1 327 14
 329 0074 FB68     		ldr	r3, [r7, #12]
 330 0076 0022     		movs	r2, #0
 331 0078 1A85     		strh	r2, [r3, #40]	@ movhi
 328:Middlewares/Third_Party/LwIP/src/core/netif.c ****   netif->flags = 0;
 332              		.loc 1 328 16
 333 007a FB68     		ldr	r3, [r7, #12]
ARM GAS  /tmp/ccKMFSjT.s 			page 13


 334 007c 0022     		movs	r2, #0
 335 007e 83F83120 		strb	r2, [r3, #49]
 329:Middlewares/Third_Party/LwIP/src/core/netif.c **** #ifdef netif_get_client_data
 330:Middlewares/Third_Party/LwIP/src/core/netif.c ****   memset(netif->client_data, 0, sizeof(netif->client_data));
 336              		.loc 1 330 15
 337 0082 FB68     		ldr	r3, [r7, #12]
 338 0084 2433     		adds	r3, r3, #36
 339              		.loc 1 330 3
 340 0086 0422     		movs	r2, #4
 341 0088 0021     		movs	r1, #0
 342 008a 1846     		mov	r0, r3
 343 008c FFF7FEFF 		bl	memset
 331:Middlewares/Third_Party/LwIP/src/core/netif.c **** #endif /* LWIP_NUM_NETIF_CLIENT_DATA */
 332:Middlewares/Third_Party/LwIP/src/core/netif.c **** #if LWIP_IPV6
 333:Middlewares/Third_Party/LwIP/src/core/netif.c **** #if LWIP_IPV6_AUTOCONFIG
 334:Middlewares/Third_Party/LwIP/src/core/netif.c ****   /* IPv6 address autoconfiguration not enabled by default */
 335:Middlewares/Third_Party/LwIP/src/core/netif.c ****   netif->ip6_autoconfig_enabled = 0;
 336:Middlewares/Third_Party/LwIP/src/core/netif.c **** #endif /* LWIP_IPV6_AUTOCONFIG */
 337:Middlewares/Third_Party/LwIP/src/core/netif.c ****   nd6_restart_netif(netif);
 338:Middlewares/Third_Party/LwIP/src/core/netif.c **** #endif /* LWIP_IPV6 */
 339:Middlewares/Third_Party/LwIP/src/core/netif.c **** #if LWIP_NETIF_STATUS_CALLBACK
 340:Middlewares/Third_Party/LwIP/src/core/netif.c ****   netif->status_callback = NULL;
 341:Middlewares/Third_Party/LwIP/src/core/netif.c **** #endif /* LWIP_NETIF_STATUS_CALLBACK */
 342:Middlewares/Third_Party/LwIP/src/core/netif.c **** #if LWIP_NETIF_LINK_CALLBACK
 343:Middlewares/Third_Party/LwIP/src/core/netif.c ****   netif->link_callback = NULL;
 344              		.loc 1 343 24
 345 0090 FB68     		ldr	r3, [r7, #12]
 346 0092 0022     		movs	r2, #0
 347 0094 DA61     		str	r2, [r3, #28]
 344:Middlewares/Third_Party/LwIP/src/core/netif.c **** #endif /* LWIP_NETIF_LINK_CALLBACK */
 345:Middlewares/Third_Party/LwIP/src/core/netif.c **** #if LWIP_IGMP
 346:Middlewares/Third_Party/LwIP/src/core/netif.c ****   netif->igmp_mac_filter = NULL;
 347:Middlewares/Third_Party/LwIP/src/core/netif.c **** #endif /* LWIP_IGMP */
 348:Middlewares/Third_Party/LwIP/src/core/netif.c **** #if LWIP_IPV6 && LWIP_IPV6_MLD
 349:Middlewares/Third_Party/LwIP/src/core/netif.c ****   netif->mld_mac_filter = NULL;
 350:Middlewares/Third_Party/LwIP/src/core/netif.c **** #endif /* LWIP_IPV6 && LWIP_IPV6_MLD */
 351:Middlewares/Third_Party/LwIP/src/core/netif.c **** #if ENABLE_LOOPBACK
 352:Middlewares/Third_Party/LwIP/src/core/netif.c ****   netif->loop_first = NULL;
 353:Middlewares/Third_Party/LwIP/src/core/netif.c ****   netif->loop_last = NULL;
 354:Middlewares/Third_Party/LwIP/src/core/netif.c **** #endif /* ENABLE_LOOPBACK */
 355:Middlewares/Third_Party/LwIP/src/core/netif.c **** 
 356:Middlewares/Third_Party/LwIP/src/core/netif.c ****   /* remember netif specific state information data */
 357:Middlewares/Third_Party/LwIP/src/core/netif.c ****   netif->state = state;
 348              		.loc 1 357 16
 349 0096 FB68     		ldr	r3, [r7, #12]
 350 0098 3A6A     		ldr	r2, [r7, #32]
 351 009a 1A62     		str	r2, [r3, #32]
 358:Middlewares/Third_Party/LwIP/src/core/netif.c ****   netif->num = netif_num;
 352              		.loc 1 358 14
 353 009c 3F4B     		ldr	r3, .L28+24
 354 009e 1A78     		ldrb	r2, [r3]	@ zero_extendqisi2
 355 00a0 FB68     		ldr	r3, [r7, #12]
 356 00a2 83F83420 		strb	r2, [r3, #52]
 359:Middlewares/Third_Party/LwIP/src/core/netif.c ****   netif->input = input;
 357              		.loc 1 359 16
 358 00a6 FB68     		ldr	r3, [r7, #12]
 359 00a8 BA6A     		ldr	r2, [r7, #40]
ARM GAS  /tmp/ccKMFSjT.s 			page 14


 360 00aa 1A61     		str	r2, [r3, #16]
 360:Middlewares/Third_Party/LwIP/src/core/netif.c **** 
 361:Middlewares/Third_Party/LwIP/src/core/netif.c ****   NETIF_RESET_HINTS(netif);
 362:Middlewares/Third_Party/LwIP/src/core/netif.c **** #if ENABLE_LOOPBACK && LWIP_LOOPBACK_MAX_PBUFS
 363:Middlewares/Third_Party/LwIP/src/core/netif.c ****   netif->loop_cnt_current = 0;
 364:Middlewares/Third_Party/LwIP/src/core/netif.c **** #endif /* ENABLE_LOOPBACK && LWIP_LOOPBACK_MAX_PBUFS */
 365:Middlewares/Third_Party/LwIP/src/core/netif.c **** 
 366:Middlewares/Third_Party/LwIP/src/core/netif.c **** #if LWIP_IPV4
 367:Middlewares/Third_Party/LwIP/src/core/netif.c ****   netif_set_addr(netif, ipaddr, netmask, gw);
 361              		.loc 1 367 3
 362 00ac 3B68     		ldr	r3, [r7]
 363 00ae 7A68     		ldr	r2, [r7, #4]
 364 00b0 B968     		ldr	r1, [r7, #8]
 365 00b2 F868     		ldr	r0, [r7, #12]
 366 00b4 FFF7FEFF 		bl	netif_set_addr
 368:Middlewares/Third_Party/LwIP/src/core/netif.c **** #endif /* LWIP_IPV4 */
 369:Middlewares/Third_Party/LwIP/src/core/netif.c **** 
 370:Middlewares/Third_Party/LwIP/src/core/netif.c ****   /* call user specified initialization function for netif */
 371:Middlewares/Third_Party/LwIP/src/core/netif.c ****   if (init(netif) != ERR_OK) {
 367              		.loc 1 371 7
 368 00b8 7B6A     		ldr	r3, [r7, #36]
 369 00ba F868     		ldr	r0, [r7, #12]
 370 00bc 9847     		blx	r3
 371              	.LVL0:
 372 00be 0346     		mov	r3, r0
 373              		.loc 1 371 6
 374 00c0 002B     		cmp	r3, #0
 375 00c2 01D0     		beq	.L18
 372:Middlewares/Third_Party/LwIP/src/core/netif.c ****     return NULL;
 376              		.loc 1 372 12
 377 00c4 0023     		movs	r3, #0
 378 00c6 58E0     		b	.L13
 379              	.L18:
 380              	.LBB2:
 373:Middlewares/Third_Party/LwIP/src/core/netif.c ****   }
 374:Middlewares/Third_Party/LwIP/src/core/netif.c **** #if LWIP_IPV6 && LWIP_ND6_ALLOW_RA_UPDATES
 375:Middlewares/Third_Party/LwIP/src/core/netif.c ****   /* Initialize the MTU for IPv6 to the one set by the netif driver.
 376:Middlewares/Third_Party/LwIP/src/core/netif.c ****      This can be updated later by RA. */
 377:Middlewares/Third_Party/LwIP/src/core/netif.c ****   netif->mtu6 = netif->mtu;
 378:Middlewares/Third_Party/LwIP/src/core/netif.c **** #endif /* LWIP_IPV6 && LWIP_ND6_ALLOW_RA_UPDATES */
 379:Middlewares/Third_Party/LwIP/src/core/netif.c **** 
 380:Middlewares/Third_Party/LwIP/src/core/netif.c **** #if !LWIP_SINGLE_NETIF
 381:Middlewares/Third_Party/LwIP/src/core/netif.c ****   /* Assign a unique netif number in the range [0..254], so that (num+1) can
 382:Middlewares/Third_Party/LwIP/src/core/netif.c ****      serve as an interface index that fits in a u8_t.
 383:Middlewares/Third_Party/LwIP/src/core/netif.c ****      We assume that the new netif has not yet been added to the list here.
 384:Middlewares/Third_Party/LwIP/src/core/netif.c ****      This algorithm is O(n^2), but that should be OK for lwIP.
 385:Middlewares/Third_Party/LwIP/src/core/netif.c ****      */
 386:Middlewares/Third_Party/LwIP/src/core/netif.c ****   {
 387:Middlewares/Third_Party/LwIP/src/core/netif.c ****     struct netif *netif2;
 388:Middlewares/Third_Party/LwIP/src/core/netif.c ****     int num_netifs;
 389:Middlewares/Third_Party/LwIP/src/core/netif.c ****     do {
 390:Middlewares/Third_Party/LwIP/src/core/netif.c ****       if (netif->num == 255) {
 381              		.loc 1 390 16
 382 00c8 FB68     		ldr	r3, [r7, #12]
 383 00ca 93F83430 		ldrb	r3, [r3, #52]	@ zero_extendqisi2
 384              		.loc 1 390 10
 385 00ce FF2B     		cmp	r3, #255
ARM GAS  /tmp/ccKMFSjT.s 			page 15


 386 00d0 03D1     		bne	.L19
 391:Middlewares/Third_Party/LwIP/src/core/netif.c ****         netif->num = 0;
 387              		.loc 1 391 20
 388 00d2 FB68     		ldr	r3, [r7, #12]
 389 00d4 0022     		movs	r2, #0
 390 00d6 83F83420 		strb	r2, [r3, #52]
 391              	.L19:
 392:Middlewares/Third_Party/LwIP/src/core/netif.c ****       }
 393:Middlewares/Third_Party/LwIP/src/core/netif.c ****       num_netifs = 0;
 392              		.loc 1 393 18
 393 00da 0023     		movs	r3, #0
 394 00dc 3B61     		str	r3, [r7, #16]
 394:Middlewares/Third_Party/LwIP/src/core/netif.c ****       for (netif2 = netif_list; netif2 != NULL; netif2 = netif2->next) {
 395              		.loc 1 394 19
 396 00de 304B     		ldr	r3, .L28+28
 397 00e0 1B68     		ldr	r3, [r3]
 398 00e2 7B61     		str	r3, [r7, #20]
 399              		.loc 1 394 7
 400 00e4 2BE0     		b	.L20
 401              	.L25:
 395:Middlewares/Third_Party/LwIP/src/core/netif.c ****         LWIP_ASSERT("netif already added", netif2 != netif);
 402              		.loc 1 395 9
 403 00e6 7A69     		ldr	r2, [r7, #20]
 404 00e8 FB68     		ldr	r3, [r7, #12]
 405 00ea 9A42     		cmp	r2, r3
 406 00ec 06D1     		bne	.L21
 407              		.loc 1 395 9 is_stmt 0 discriminator 1
 408 00ee 254B     		ldr	r3, .L28
 409 00f0 40F28B12 		movw	r2, #395
 410 00f4 2B49     		ldr	r1, .L28+32
 411 00f6 2548     		ldr	r0, .L28+8
 412 00f8 FFF7FEFF 		bl	printf
 413              	.L21:
 396:Middlewares/Third_Party/LwIP/src/core/netif.c ****         num_netifs++;
 414              		.loc 1 396 19 is_stmt 1
 415 00fc 3B69     		ldr	r3, [r7, #16]
 416 00fe 0133     		adds	r3, r3, #1
 417 0100 3B61     		str	r3, [r7, #16]
 397:Middlewares/Third_Party/LwIP/src/core/netif.c ****         LWIP_ASSERT("too many netifs, max. supported number is 255", num_netifs <= 255);
 418              		.loc 1 397 9
 419 0102 3B69     		ldr	r3, [r7, #16]
 420 0104 FF2B     		cmp	r3, #255
 421 0106 06DD     		ble	.L22
 422              		.loc 1 397 9 is_stmt 0 discriminator 1
 423 0108 1E4B     		ldr	r3, .L28
 424 010a 40F28D12 		movw	r2, #397
 425 010e 2649     		ldr	r1, .L28+36
 426 0110 1E48     		ldr	r0, .L28+8
 427 0112 FFF7FEFF 		bl	printf
 428              	.L22:
 398:Middlewares/Third_Party/LwIP/src/core/netif.c ****         if (netif2->num == netif->num) {
 429              		.loc 1 398 19 is_stmt 1
 430 0116 7B69     		ldr	r3, [r7, #20]
 431 0118 93F83420 		ldrb	r2, [r3, #52]	@ zero_extendqisi2
 432              		.loc 1 398 33
 433 011c FB68     		ldr	r3, [r7, #12]
 434 011e 93F83430 		ldrb	r3, [r3, #52]	@ zero_extendqisi2
ARM GAS  /tmp/ccKMFSjT.s 			page 16


 435              		.loc 1 398 12
 436 0122 9A42     		cmp	r2, r3
 437 0124 08D1     		bne	.L23
 399:Middlewares/Third_Party/LwIP/src/core/netif.c ****           netif->num++;
 438              		.loc 1 399 16
 439 0126 FB68     		ldr	r3, [r7, #12]
 440 0128 93F83430 		ldrb	r3, [r3, #52]	@ zero_extendqisi2
 441              		.loc 1 399 21
 442 012c 0133     		adds	r3, r3, #1
 443 012e DAB2     		uxtb	r2, r3
 444 0130 FB68     		ldr	r3, [r7, #12]
 445 0132 83F83420 		strb	r2, [r3, #52]
 400:Middlewares/Third_Party/LwIP/src/core/netif.c ****           break;
 446              		.loc 1 400 11
 447 0136 05E0     		b	.L24
 448              	.L23:
 394:Middlewares/Third_Party/LwIP/src/core/netif.c ****         LWIP_ASSERT("netif already added", netif2 != netif);
 449              		.loc 1 394 56 discriminator 2
 450 0138 7B69     		ldr	r3, [r7, #20]
 451 013a 1B68     		ldr	r3, [r3]
 452 013c 7B61     		str	r3, [r7, #20]
 453              	.L20:
 394:Middlewares/Third_Party/LwIP/src/core/netif.c ****         LWIP_ASSERT("netif already added", netif2 != netif);
 454              		.loc 1 394 7 discriminator 1
 455 013e 7B69     		ldr	r3, [r7, #20]
 456 0140 002B     		cmp	r3, #0
 457 0142 D0D1     		bne	.L25
 458              	.L24:
 401:Middlewares/Third_Party/LwIP/src/core/netif.c ****         }
 402:Middlewares/Third_Party/LwIP/src/core/netif.c ****       }
 403:Middlewares/Third_Party/LwIP/src/core/netif.c ****     } while (netif2 != NULL);
 459              		.loc 1 403 5
 460 0144 7B69     		ldr	r3, [r7, #20]
 461 0146 002B     		cmp	r3, #0
 462 0148 BED1     		bne	.L18
 463              	.LBE2:
 404:Middlewares/Third_Party/LwIP/src/core/netif.c ****   }
 405:Middlewares/Third_Party/LwIP/src/core/netif.c ****   if (netif->num == 254) {
 464              		.loc 1 405 12
 465 014a FB68     		ldr	r3, [r7, #12]
 466 014c 93F83430 		ldrb	r3, [r3, #52]	@ zero_extendqisi2
 467              		.loc 1 405 6
 468 0150 FE2B     		cmp	r3, #254
 469 0152 03D1     		bne	.L26
 406:Middlewares/Third_Party/LwIP/src/core/netif.c ****     netif_num = 0;
 470              		.loc 1 406 15
 471 0154 114B     		ldr	r3, .L28+24
 472 0156 0022     		movs	r2, #0
 473 0158 1A70     		strb	r2, [r3]
 474 015a 06E0     		b	.L27
 475              	.L26:
 407:Middlewares/Third_Party/LwIP/src/core/netif.c ****   } else {
 408:Middlewares/Third_Party/LwIP/src/core/netif.c ****     netif_num = (u8_t)(netif->num + 1);
 476              		.loc 1 408 29
 477 015c FB68     		ldr	r3, [r7, #12]
 478 015e 93F83430 		ldrb	r3, [r3, #52]	@ zero_extendqisi2
 479              		.loc 1 408 17
ARM GAS  /tmp/ccKMFSjT.s 			page 17


 480 0162 0133     		adds	r3, r3, #1
 481 0164 DAB2     		uxtb	r2, r3
 482              		.loc 1 408 15
 483 0166 0D4B     		ldr	r3, .L28+24
 484 0168 1A70     		strb	r2, [r3]
 485              	.L27:
 409:Middlewares/Third_Party/LwIP/src/core/netif.c ****   }
 410:Middlewares/Third_Party/LwIP/src/core/netif.c **** 
 411:Middlewares/Third_Party/LwIP/src/core/netif.c ****   /* add this netif to the list */
 412:Middlewares/Third_Party/LwIP/src/core/netif.c ****   netif->next = netif_list;
 486              		.loc 1 412 15
 487 016a 0D4B     		ldr	r3, .L28+28
 488 016c 1A68     		ldr	r2, [r3]
 489 016e FB68     		ldr	r3, [r7, #12]
 490 0170 1A60     		str	r2, [r3]
 413:Middlewares/Third_Party/LwIP/src/core/netif.c ****   netif_list = netif;
 491              		.loc 1 413 14
 492 0172 0B4A     		ldr	r2, .L28+28
 493 0174 FB68     		ldr	r3, [r7, #12]
 494 0176 1360     		str	r3, [r2]
 414:Middlewares/Third_Party/LwIP/src/core/netif.c **** #endif /* "LWIP_SINGLE_NETIF */
 415:Middlewares/Third_Party/LwIP/src/core/netif.c ****   mib2_netif_added(netif);
 416:Middlewares/Third_Party/LwIP/src/core/netif.c **** 
 417:Middlewares/Third_Party/LwIP/src/core/netif.c **** #if LWIP_IGMP
 418:Middlewares/Third_Party/LwIP/src/core/netif.c ****   /* start IGMP processing */
 419:Middlewares/Third_Party/LwIP/src/core/netif.c ****   if (netif->flags & NETIF_FLAG_IGMP) {
 420:Middlewares/Third_Party/LwIP/src/core/netif.c ****     igmp_start(netif);
 421:Middlewares/Third_Party/LwIP/src/core/netif.c ****   }
 422:Middlewares/Third_Party/LwIP/src/core/netif.c **** #endif /* LWIP_IGMP */
 423:Middlewares/Third_Party/LwIP/src/core/netif.c **** 
 424:Middlewares/Third_Party/LwIP/src/core/netif.c ****   LWIP_DEBUGF(NETIF_DEBUG, ("netif: added interface %c%c IP",
 425:Middlewares/Third_Party/LwIP/src/core/netif.c ****                             netif->name[0], netif->name[1]));
 426:Middlewares/Third_Party/LwIP/src/core/netif.c **** #if LWIP_IPV4
 427:Middlewares/Third_Party/LwIP/src/core/netif.c ****   LWIP_DEBUGF(NETIF_DEBUG, (" addr "));
 428:Middlewares/Third_Party/LwIP/src/core/netif.c ****   ip4_addr_debug_print(NETIF_DEBUG, ipaddr);
 429:Middlewares/Third_Party/LwIP/src/core/netif.c ****   LWIP_DEBUGF(NETIF_DEBUG, (" netmask "));
 430:Middlewares/Third_Party/LwIP/src/core/netif.c ****   ip4_addr_debug_print(NETIF_DEBUG, netmask);
 431:Middlewares/Third_Party/LwIP/src/core/netif.c ****   LWIP_DEBUGF(NETIF_DEBUG, (" gw "));
 432:Middlewares/Third_Party/LwIP/src/core/netif.c ****   ip4_addr_debug_print(NETIF_DEBUG, gw);
 433:Middlewares/Third_Party/LwIP/src/core/netif.c **** #endif /* LWIP_IPV4 */
 434:Middlewares/Third_Party/LwIP/src/core/netif.c ****   LWIP_DEBUGF(NETIF_DEBUG, ("\n"));
 435:Middlewares/Third_Party/LwIP/src/core/netif.c **** 
 436:Middlewares/Third_Party/LwIP/src/core/netif.c ****   netif_invoke_ext_callback(netif, LWIP_NSC_NETIF_ADDED, NULL);
 437:Middlewares/Third_Party/LwIP/src/core/netif.c **** 
 438:Middlewares/Third_Party/LwIP/src/core/netif.c ****   return netif;
 495              		.loc 1 438 10
 496 0178 FB68     		ldr	r3, [r7, #12]
 497              	.L13:
 439:Middlewares/Third_Party/LwIP/src/core/netif.c **** }
 498              		.loc 1 439 1
 499 017a 1846     		mov	r0, r3
 500 017c 1837     		adds	r7, r7, #24
 501              	.LCFI17:
 502              		.cfi_def_cfa_offset 8
 503 017e BD46     		mov	sp, r7
 504              	.LCFI18:
 505              		.cfi_def_cfa_register 13
ARM GAS  /tmp/ccKMFSjT.s 			page 18


 506              		@ sp needed
 507 0180 80BD     		pop	{r7, pc}
 508              	.L29:
 509 0182 00BF     		.align	2
 510              	.L28:
 511 0184 00000000 		.word	.LC0
 512 0188 90000000 		.word	.LC4
 513 018c 4C000000 		.word	.LC2
 514 0190 AC000000 		.word	.LC5
 515 0194 00000000 		.word	ip_addr_any
 516 0198 00000000 		.word	netif_null_output_ip4
 517 019c 00000000 		.word	netif_num
 518 01a0 00000000 		.word	netif_list
 519 01a4 D0000000 		.word	.LC6
 520 01a8 E4000000 		.word	.LC7
 521              		.cfi_endproc
 522              	.LFE140:
 524              		.section	.text.netif_do_ip_addr_changed,"ax",%progbits
 525              		.align	1
 526              		.syntax unified
 527              		.thumb
 528              		.thumb_func
 529              		.fpu fpv4-sp-d16
 531              	netif_do_ip_addr_changed:
 532              	.LFB141:
 440:Middlewares/Third_Party/LwIP/src/core/netif.c **** 
 441:Middlewares/Third_Party/LwIP/src/core/netif.c **** static void
 442:Middlewares/Third_Party/LwIP/src/core/netif.c **** netif_do_ip_addr_changed(const ip_addr_t *old_addr, const ip_addr_t *new_addr)
 443:Middlewares/Third_Party/LwIP/src/core/netif.c **** {
 533              		.loc 1 443 1
 534              		.cfi_startproc
 535              		@ args = 0, pretend = 0, frame = 8
 536              		@ frame_needed = 1, uses_anonymous_args = 0
 537 0000 80B5     		push	{r7, lr}
 538              	.LCFI19:
 539              		.cfi_def_cfa_offset 8
 540              		.cfi_offset 7, -8
 541              		.cfi_offset 14, -4
 542 0002 82B0     		sub	sp, sp, #8
 543              	.LCFI20:
 544              		.cfi_def_cfa_offset 16
 545 0004 00AF     		add	r7, sp, #0
 546              	.LCFI21:
 547              		.cfi_def_cfa_register 7
 548 0006 7860     		str	r0, [r7, #4]
 549 0008 3960     		str	r1, [r7]
 444:Middlewares/Third_Party/LwIP/src/core/netif.c **** #if LWIP_TCP
 445:Middlewares/Third_Party/LwIP/src/core/netif.c ****   tcp_netif_ip_addr_changed(old_addr, new_addr);
 550              		.loc 1 445 3
 551 000a 3968     		ldr	r1, [r7]
 552 000c 7868     		ldr	r0, [r7, #4]
 553 000e FFF7FEFF 		bl	tcp_netif_ip_addr_changed
 446:Middlewares/Third_Party/LwIP/src/core/netif.c **** #endif /* LWIP_TCP */
 447:Middlewares/Third_Party/LwIP/src/core/netif.c **** #if LWIP_UDP
 448:Middlewares/Third_Party/LwIP/src/core/netif.c ****   udp_netif_ip_addr_changed(old_addr, new_addr);
 554              		.loc 1 448 3
 555 0012 3968     		ldr	r1, [r7]
ARM GAS  /tmp/ccKMFSjT.s 			page 19


 556 0014 7868     		ldr	r0, [r7, #4]
 557 0016 FFF7FEFF 		bl	udp_netif_ip_addr_changed
 449:Middlewares/Third_Party/LwIP/src/core/netif.c **** #endif /* LWIP_UDP */
 450:Middlewares/Third_Party/LwIP/src/core/netif.c **** #if LWIP_RAW
 451:Middlewares/Third_Party/LwIP/src/core/netif.c ****   raw_netif_ip_addr_changed(old_addr, new_addr);
 452:Middlewares/Third_Party/LwIP/src/core/netif.c **** #endif /* LWIP_RAW */
 453:Middlewares/Third_Party/LwIP/src/core/netif.c **** }
 558              		.loc 1 453 1
 559 001a 00BF     		nop
 560 001c 0837     		adds	r7, r7, #8
 561              	.LCFI22:
 562              		.cfi_def_cfa_offset 8
 563 001e BD46     		mov	sp, r7
 564              	.LCFI23:
 565              		.cfi_def_cfa_register 13
 566              		@ sp needed
 567 0020 80BD     		pop	{r7, pc}
 568              		.cfi_endproc
 569              	.LFE141:
 571              		.section	.rodata
 572 0112 0000     		.align	2
 573              	.LC8:
 574 0114 696E7661 		.ascii	"invalid pointer\000"
 574      6C696420 
 574      706F696E 
 574      74657200 
 575              		.section	.text.netif_do_set_ipaddr,"ax",%progbits
 576              		.align	1
 577              		.syntax unified
 578              		.thumb
 579              		.thumb_func
 580              		.fpu fpv4-sp-d16
 582              	netif_do_set_ipaddr:
 583              	.LFB142:
 454:Middlewares/Third_Party/LwIP/src/core/netif.c **** 
 455:Middlewares/Third_Party/LwIP/src/core/netif.c **** #if LWIP_IPV4
 456:Middlewares/Third_Party/LwIP/src/core/netif.c **** static int
 457:Middlewares/Third_Party/LwIP/src/core/netif.c **** netif_do_set_ipaddr(struct netif *netif, const ip4_addr_t *ipaddr, ip_addr_t *old_addr)
 458:Middlewares/Third_Party/LwIP/src/core/netif.c **** {
 584              		.loc 1 458 1
 585              		.cfi_startproc
 586              		@ args = 0, pretend = 0, frame = 24
 587              		@ frame_needed = 1, uses_anonymous_args = 0
 588 0000 80B5     		push	{r7, lr}
 589              	.LCFI24:
 590              		.cfi_def_cfa_offset 8
 591              		.cfi_offset 7, -8
 592              		.cfi_offset 14, -4
 593 0002 86B0     		sub	sp, sp, #24
 594              	.LCFI25:
 595              		.cfi_def_cfa_offset 32
 596 0004 00AF     		add	r7, sp, #0
 597              	.LCFI26:
 598              		.cfi_def_cfa_register 7
 599 0006 F860     		str	r0, [r7, #12]
 600 0008 B960     		str	r1, [r7, #8]
 601 000a 7A60     		str	r2, [r7, #4]
ARM GAS  /tmp/ccKMFSjT.s 			page 20


 459:Middlewares/Third_Party/LwIP/src/core/netif.c ****   LWIP_ASSERT("invalid pointer", ipaddr != NULL);
 602              		.loc 1 459 3
 603 000c BB68     		ldr	r3, [r7, #8]
 604 000e 002B     		cmp	r3, #0
 605 0010 06D1     		bne	.L32
 606              		.loc 1 459 3 is_stmt 0 discriminator 1
 607 0012 1D4B     		ldr	r3, .L38
 608 0014 40F2CB12 		movw	r2, #459
 609 0018 1C49     		ldr	r1, .L38+4
 610 001a 1D48     		ldr	r0, .L38+8
 611 001c FFF7FEFF 		bl	printf
 612              	.L32:
 460:Middlewares/Third_Party/LwIP/src/core/netif.c ****   LWIP_ASSERT("invalid pointer", old_addr != NULL);
 613              		.loc 1 460 3 is_stmt 1
 614 0020 7B68     		ldr	r3, [r7, #4]
 615 0022 002B     		cmp	r3, #0
 616 0024 06D1     		bne	.L33
 617              		.loc 1 460 3 is_stmt 0 discriminator 1
 618 0026 184B     		ldr	r3, .L38
 619 0028 4FF4E672 		mov	r2, #460
 620 002c 1749     		ldr	r1, .L38+4
 621 002e 1848     		ldr	r0, .L38+8
 622 0030 FFF7FEFF 		bl	printf
 623              	.L33:
 461:Middlewares/Third_Party/LwIP/src/core/netif.c **** 
 462:Middlewares/Third_Party/LwIP/src/core/netif.c ****   /* address is actually being changed? */
 463:Middlewares/Third_Party/LwIP/src/core/netif.c ****   if (ip4_addr_cmp(ipaddr, netif_ip4_addr(netif)) == 0) {
 624              		.loc 1 463 7 is_stmt 1
 625 0034 BB68     		ldr	r3, [r7, #8]
 626 0036 1A68     		ldr	r2, [r3]
 627 0038 FB68     		ldr	r3, [r7, #12]
 628 003a 0433     		adds	r3, r3, #4
 629 003c 1B68     		ldr	r3, [r3]
 630              		.loc 1 463 6
 631 003e 9A42     		cmp	r2, r3
 632 0040 1CD0     		beq	.L34
 633              	.LBB3:
 464:Middlewares/Third_Party/LwIP/src/core/netif.c ****     ip_addr_t new_addr;
 465:Middlewares/Third_Party/LwIP/src/core/netif.c ****     *ip_2_ip4(&new_addr) = *ipaddr;
 634              		.loc 1 465 26
 635 0042 BB68     		ldr	r3, [r7, #8]
 636 0044 1B68     		ldr	r3, [r3]
 637 0046 7B61     		str	r3, [r7, #20]
 466:Middlewares/Third_Party/LwIP/src/core/netif.c ****     IP_SET_TYPE_VAL(new_addr, IPADDR_TYPE_V4);
 467:Middlewares/Third_Party/LwIP/src/core/netif.c **** 
 468:Middlewares/Third_Party/LwIP/src/core/netif.c ****     ip_addr_copy(*old_addr, *netif_ip_addr4(netif));
 638              		.loc 1 468 5
 639 0048 FB68     		ldr	r3, [r7, #12]
 640 004a 0433     		adds	r3, r3, #4
 641 004c 1A68     		ldr	r2, [r3]
 642 004e 7B68     		ldr	r3, [r7, #4]
 643 0050 1A60     		str	r2, [r3]
 469:Middlewares/Third_Party/LwIP/src/core/netif.c **** 
 470:Middlewares/Third_Party/LwIP/src/core/netif.c ****     LWIP_DEBUGF(NETIF_DEBUG | LWIP_DBG_STATE, ("netif_set_ipaddr: netif address being changed\n"));
 471:Middlewares/Third_Party/LwIP/src/core/netif.c ****     netif_do_ip_addr_changed(old_addr, &new_addr);
 644              		.loc 1 471 5
 645 0052 07F11403 		add	r3, r7, #20
ARM GAS  /tmp/ccKMFSjT.s 			page 21


 646 0056 1946     		mov	r1, r3
 647 0058 7868     		ldr	r0, [r7, #4]
 648 005a FFF7FEFF 		bl	netif_do_ip_addr_changed
 472:Middlewares/Third_Party/LwIP/src/core/netif.c **** 
 473:Middlewares/Third_Party/LwIP/src/core/netif.c ****     mib2_remove_ip4(netif);
 474:Middlewares/Third_Party/LwIP/src/core/netif.c ****     mib2_remove_route_ip4(0, netif);
 475:Middlewares/Third_Party/LwIP/src/core/netif.c ****     /* set new IP address to netif */
 476:Middlewares/Third_Party/LwIP/src/core/netif.c ****     ip4_addr_set(ip_2_ip4(&netif->ip_addr), ipaddr);
 649              		.loc 1 476 5
 650 005e BB68     		ldr	r3, [r7, #8]
 651 0060 002B     		cmp	r3, #0
 652 0062 02D0     		beq	.L35
 653              		.loc 1 476 5 is_stmt 0 discriminator 1
 654 0064 BB68     		ldr	r3, [r7, #8]
 655 0066 1B68     		ldr	r3, [r3]
 656 0068 00E0     		b	.L36
 657              	.L35:
 658              		.loc 1 476 5 discriminator 2
 659 006a 0023     		movs	r3, #0
 660              	.L36:
 661              		.loc 1 476 5 discriminator 4
 662 006c FA68     		ldr	r2, [r7, #12]
 663 006e 5360     		str	r3, [r2, #4]
 477:Middlewares/Third_Party/LwIP/src/core/netif.c ****     IP_SET_TYPE_VAL(netif->ip_addr, IPADDR_TYPE_V4);
 478:Middlewares/Third_Party/LwIP/src/core/netif.c ****     mib2_add_ip4(netif);
 479:Middlewares/Third_Party/LwIP/src/core/netif.c ****     mib2_add_route_ip4(0, netif);
 480:Middlewares/Third_Party/LwIP/src/core/netif.c **** 
 481:Middlewares/Third_Party/LwIP/src/core/netif.c ****     netif_issue_reports(netif, NETIF_REPORT_TYPE_IPV4);
 664              		.loc 1 481 5 is_stmt 1 discriminator 4
 665 0070 0121     		movs	r1, #1
 666 0072 F868     		ldr	r0, [r7, #12]
 667 0074 FFF7FEFF 		bl	netif_issue_reports
 482:Middlewares/Third_Party/LwIP/src/core/netif.c **** 
 483:Middlewares/Third_Party/LwIP/src/core/netif.c ****     NETIF_STATUS_CALLBACK(netif);
 484:Middlewares/Third_Party/LwIP/src/core/netif.c ****     return 1; /* address changed */
 668              		.loc 1 484 12 discriminator 4
 669 0078 0123     		movs	r3, #1
 670 007a 00E0     		b	.L37
 671              	.L34:
 672              	.LBE3:
 485:Middlewares/Third_Party/LwIP/src/core/netif.c ****   }
 486:Middlewares/Third_Party/LwIP/src/core/netif.c ****   return 0; /* address unchanged */
 673              		.loc 1 486 10
 674 007c 0023     		movs	r3, #0
 675              	.L37:
 487:Middlewares/Third_Party/LwIP/src/core/netif.c **** }
 676              		.loc 1 487 1 discriminator 1
 677 007e 1846     		mov	r0, r3
 678 0080 1837     		adds	r7, r7, #24
 679              	.LCFI27:
 680              		.cfi_def_cfa_offset 8
 681 0082 BD46     		mov	sp, r7
 682              	.LCFI28:
 683              		.cfi_def_cfa_register 13
 684              		@ sp needed
 685 0084 80BD     		pop	{r7, pc}
 686              	.L39:
ARM GAS  /tmp/ccKMFSjT.s 			page 22


 687 0086 00BF     		.align	2
 688              	.L38:
 689 0088 00000000 		.word	.LC0
 690 008c 14010000 		.word	.LC8
 691 0090 4C000000 		.word	.LC2
 692              		.cfi_endproc
 693              	.LFE142:
 695              		.section	.rodata
 696              		.align	2
 697              	.LC9:
 698 0124 6E657469 		.ascii	"netif_set_ipaddr: invalid netif\000"
 698      665F7365 
 698      745F6970 
 698      61646472 
 698      3A20696E 
 699              		.section	.text.netif_set_ipaddr,"ax",%progbits
 700              		.align	1
 701              		.global	netif_set_ipaddr
 702              		.syntax unified
 703              		.thumb
 704              		.thumb_func
 705              		.fpu fpv4-sp-d16
 707              	netif_set_ipaddr:
 708              	.LFB143:
 488:Middlewares/Third_Party/LwIP/src/core/netif.c **** 
 489:Middlewares/Third_Party/LwIP/src/core/netif.c **** /**
 490:Middlewares/Third_Party/LwIP/src/core/netif.c ****  * @ingroup netif_ip4
 491:Middlewares/Third_Party/LwIP/src/core/netif.c ****  * Change the IP address of a network interface
 492:Middlewares/Third_Party/LwIP/src/core/netif.c ****  *
 493:Middlewares/Third_Party/LwIP/src/core/netif.c ****  * @param netif the network interface to change
 494:Middlewares/Third_Party/LwIP/src/core/netif.c ****  * @param ipaddr the new IP address
 495:Middlewares/Third_Party/LwIP/src/core/netif.c ****  *
 496:Middlewares/Third_Party/LwIP/src/core/netif.c ****  * @note call netif_set_addr() if you also want to change netmask and
 497:Middlewares/Third_Party/LwIP/src/core/netif.c ****  * default gateway
 498:Middlewares/Third_Party/LwIP/src/core/netif.c ****  */
 499:Middlewares/Third_Party/LwIP/src/core/netif.c **** void
 500:Middlewares/Third_Party/LwIP/src/core/netif.c **** netif_set_ipaddr(struct netif *netif, const ip4_addr_t *ipaddr)
 501:Middlewares/Third_Party/LwIP/src/core/netif.c **** {
 709              		.loc 1 501 1
 710              		.cfi_startproc
 711              		@ args = 0, pretend = 0, frame = 16
 712              		@ frame_needed = 1, uses_anonymous_args = 0
 713 0000 80B5     		push	{r7, lr}
 714              	.LCFI29:
 715              		.cfi_def_cfa_offset 8
 716              		.cfi_offset 7, -8
 717              		.cfi_offset 14, -4
 718 0002 84B0     		sub	sp, sp, #16
 719              	.LCFI30:
 720              		.cfi_def_cfa_offset 24
 721 0004 00AF     		add	r7, sp, #0
 722              	.LCFI31:
 723              		.cfi_def_cfa_register 7
 724 0006 7860     		str	r0, [r7, #4]
 725 0008 3960     		str	r1, [r7]
 502:Middlewares/Third_Party/LwIP/src/core/netif.c ****   ip_addr_t old_addr;
 503:Middlewares/Third_Party/LwIP/src/core/netif.c **** 
ARM GAS  /tmp/ccKMFSjT.s 			page 23


 504:Middlewares/Third_Party/LwIP/src/core/netif.c ****   LWIP_ERROR("netif_set_ipaddr: invalid netif", netif != NULL, return);
 726              		.loc 1 504 3
 727 000a 7B68     		ldr	r3, [r7, #4]
 728 000c 002B     		cmp	r3, #0
 729 000e 07D1     		bne	.L41
 730              		.loc 1 504 3 is_stmt 0 discriminator 1
 731 0010 0B4B     		ldr	r3, .L44
 732 0012 4FF4FC72 		mov	r2, #504
 733 0016 0B49     		ldr	r1, .L44+4
 734 0018 0B48     		ldr	r0, .L44+8
 735 001a FFF7FEFF 		bl	printf
 736 001e 0BE0     		b	.L40
 737              	.L41:
 505:Middlewares/Third_Party/LwIP/src/core/netif.c **** 
 506:Middlewares/Third_Party/LwIP/src/core/netif.c ****   /* Don't propagate NULL pointer (IPv4 ANY) to subsequent functions */
 507:Middlewares/Third_Party/LwIP/src/core/netif.c ****   if (ipaddr == NULL) {
 738              		.loc 1 507 6 is_stmt 1
 739 0020 3B68     		ldr	r3, [r7]
 740 0022 002B     		cmp	r3, #0
 741 0024 01D1     		bne	.L43
 508:Middlewares/Third_Party/LwIP/src/core/netif.c ****     ipaddr = IP4_ADDR_ANY4;
 742              		.loc 1 508 12
 743 0026 094B     		ldr	r3, .L44+12
 744 0028 3B60     		str	r3, [r7]
 745              	.L43:
 509:Middlewares/Third_Party/LwIP/src/core/netif.c ****   }
 510:Middlewares/Third_Party/LwIP/src/core/netif.c **** 
 511:Middlewares/Third_Party/LwIP/src/core/netif.c ****   LWIP_ASSERT_CORE_LOCKED();
 512:Middlewares/Third_Party/LwIP/src/core/netif.c **** 
 513:Middlewares/Third_Party/LwIP/src/core/netif.c ****   if (netif_do_set_ipaddr(netif, ipaddr, &old_addr)) {
 746              		.loc 1 513 7
 747 002a 07F10C03 		add	r3, r7, #12
 748 002e 1A46     		mov	r2, r3
 749 0030 3968     		ldr	r1, [r7]
 750 0032 7868     		ldr	r0, [r7, #4]
 751 0034 FFF7FEFF 		bl	netif_do_set_ipaddr
 752              	.L40:
 514:Middlewares/Third_Party/LwIP/src/core/netif.c **** #if LWIP_NETIF_EXT_STATUS_CALLBACK
 515:Middlewares/Third_Party/LwIP/src/core/netif.c ****     netif_ext_callback_args_t args;
 516:Middlewares/Third_Party/LwIP/src/core/netif.c ****     args.ipv4_changed.old_address = &old_addr;
 517:Middlewares/Third_Party/LwIP/src/core/netif.c ****     netif_invoke_ext_callback(netif, LWIP_NSC_IPV4_ADDRESS_CHANGED, &args);
 518:Middlewares/Third_Party/LwIP/src/core/netif.c **** #endif
 519:Middlewares/Third_Party/LwIP/src/core/netif.c ****   }
 520:Middlewares/Third_Party/LwIP/src/core/netif.c **** }
 753              		.loc 1 520 1
 754 0038 1037     		adds	r7, r7, #16
 755              	.LCFI32:
 756              		.cfi_def_cfa_offset 8
 757 003a BD46     		mov	sp, r7
 758              	.LCFI33:
 759              		.cfi_def_cfa_register 13
 760              		@ sp needed
 761 003c 80BD     		pop	{r7, pc}
 762              	.L45:
 763 003e 00BF     		.align	2
 764              	.L44:
 765 0040 00000000 		.word	.LC0
ARM GAS  /tmp/ccKMFSjT.s 			page 24


 766 0044 24010000 		.word	.LC9
 767 0048 4C000000 		.word	.LC2
 768 004c 00000000 		.word	ip_addr_any
 769              		.cfi_endproc
 770              	.LFE143:
 772              		.section	.text.netif_do_set_netmask,"ax",%progbits
 773              		.align	1
 774              		.syntax unified
 775              		.thumb
 776              		.thumb_func
 777              		.fpu fpv4-sp-d16
 779              	netif_do_set_netmask:
 780              	.LFB144:
 521:Middlewares/Third_Party/LwIP/src/core/netif.c **** 
 522:Middlewares/Third_Party/LwIP/src/core/netif.c **** static int
 523:Middlewares/Third_Party/LwIP/src/core/netif.c **** netif_do_set_netmask(struct netif *netif, const ip4_addr_t *netmask, ip_addr_t *old_nm)
 524:Middlewares/Third_Party/LwIP/src/core/netif.c **** {
 781              		.loc 1 524 1
 782              		.cfi_startproc
 783              		@ args = 0, pretend = 0, frame = 16
 784              		@ frame_needed = 1, uses_anonymous_args = 0
 785              		@ link register save eliminated.
 786 0000 80B4     		push	{r7}
 787              	.LCFI34:
 788              		.cfi_def_cfa_offset 4
 789              		.cfi_offset 7, -4
 790 0002 85B0     		sub	sp, sp, #20
 791              	.LCFI35:
 792              		.cfi_def_cfa_offset 24
 793 0004 00AF     		add	r7, sp, #0
 794              	.LCFI36:
 795              		.cfi_def_cfa_register 7
 796 0006 F860     		str	r0, [r7, #12]
 797 0008 B960     		str	r1, [r7, #8]
 798 000a 7A60     		str	r2, [r7, #4]
 525:Middlewares/Third_Party/LwIP/src/core/netif.c ****   /* address is actually being changed? */
 526:Middlewares/Third_Party/LwIP/src/core/netif.c ****   if (ip4_addr_cmp(netmask, netif_ip4_netmask(netif)) == 0) {
 799              		.loc 1 526 7
 800 000c BB68     		ldr	r3, [r7, #8]
 801 000e 1A68     		ldr	r2, [r3]
 802 0010 FB68     		ldr	r3, [r7, #12]
 803 0012 0833     		adds	r3, r3, #8
 804 0014 1B68     		ldr	r3, [r3]
 805              		.loc 1 526 6
 806 0016 9A42     		cmp	r2, r3
 807 0018 0AD0     		beq	.L47
 527:Middlewares/Third_Party/LwIP/src/core/netif.c **** #if LWIP_NETIF_EXT_STATUS_CALLBACK
 528:Middlewares/Third_Party/LwIP/src/core/netif.c ****     LWIP_ASSERT("invalid pointer", old_nm != NULL);
 529:Middlewares/Third_Party/LwIP/src/core/netif.c ****     ip_addr_copy(*old_nm, *netif_ip_netmask4(netif));
 530:Middlewares/Third_Party/LwIP/src/core/netif.c **** #else
 531:Middlewares/Third_Party/LwIP/src/core/netif.c ****     LWIP_UNUSED_ARG(old_nm);
 532:Middlewares/Third_Party/LwIP/src/core/netif.c **** #endif
 533:Middlewares/Third_Party/LwIP/src/core/netif.c ****     mib2_remove_route_ip4(0, netif);
 534:Middlewares/Third_Party/LwIP/src/core/netif.c ****     /* set new netmask to netif */
 535:Middlewares/Third_Party/LwIP/src/core/netif.c ****     ip4_addr_set(ip_2_ip4(&netif->netmask), netmask);
 808              		.loc 1 535 5
 809 001a BB68     		ldr	r3, [r7, #8]
ARM GAS  /tmp/ccKMFSjT.s 			page 25


 810 001c 002B     		cmp	r3, #0
 811 001e 02D0     		beq	.L48
 812              		.loc 1 535 5 is_stmt 0 discriminator 1
 813 0020 BB68     		ldr	r3, [r7, #8]
 814 0022 1B68     		ldr	r3, [r3]
 815 0024 00E0     		b	.L49
 816              	.L48:
 817              		.loc 1 535 5 discriminator 2
 818 0026 0023     		movs	r3, #0
 819              	.L49:
 820              		.loc 1 535 5 discriminator 4
 821 0028 FA68     		ldr	r2, [r7, #12]
 822 002a 9360     		str	r3, [r2, #8]
 536:Middlewares/Third_Party/LwIP/src/core/netif.c ****     IP_SET_TYPE_VAL(netif->netmask, IPADDR_TYPE_V4);
 537:Middlewares/Third_Party/LwIP/src/core/netif.c ****     mib2_add_route_ip4(0, netif);
 538:Middlewares/Third_Party/LwIP/src/core/netif.c ****     LWIP_DEBUGF(NETIF_DEBUG | LWIP_DBG_TRACE | LWIP_DBG_STATE, ("netif: netmask of interface %c%c s
 539:Middlewares/Third_Party/LwIP/src/core/netif.c ****                 netif->name[0], netif->name[1],
 540:Middlewares/Third_Party/LwIP/src/core/netif.c ****                 ip4_addr1_16(netif_ip4_netmask(netif)),
 541:Middlewares/Third_Party/LwIP/src/core/netif.c ****                 ip4_addr2_16(netif_ip4_netmask(netif)),
 542:Middlewares/Third_Party/LwIP/src/core/netif.c ****                 ip4_addr3_16(netif_ip4_netmask(netif)),
 543:Middlewares/Third_Party/LwIP/src/core/netif.c ****                 ip4_addr4_16(netif_ip4_netmask(netif))));
 544:Middlewares/Third_Party/LwIP/src/core/netif.c ****     return 1; /* netmask changed */
 823              		.loc 1 544 12 is_stmt 1 discriminator 4
 824 002c 0123     		movs	r3, #1
 825 002e 00E0     		b	.L50
 826              	.L47:
 545:Middlewares/Third_Party/LwIP/src/core/netif.c ****   }
 546:Middlewares/Third_Party/LwIP/src/core/netif.c ****   return 0; /* netmask unchanged */
 827              		.loc 1 546 10
 828 0030 0023     		movs	r3, #0
 829              	.L50:
 547:Middlewares/Third_Party/LwIP/src/core/netif.c **** }
 830              		.loc 1 547 1
 831 0032 1846     		mov	r0, r3
 832 0034 1437     		adds	r7, r7, #20
 833              	.LCFI37:
 834              		.cfi_def_cfa_offset 4
 835 0036 BD46     		mov	sp, r7
 836              	.LCFI38:
 837              		.cfi_def_cfa_register 13
 838              		@ sp needed
 839 0038 5DF8047B 		ldr	r7, [sp], #4
 840              	.LCFI39:
 841              		.cfi_restore 7
 842              		.cfi_def_cfa_offset 0
 843 003c 7047     		bx	lr
 844              		.cfi_endproc
 845              	.LFE144:
 847              		.section	.rodata
 848              		.align	2
 849              	.LC10:
 850 0144 6E657469 		.ascii	"netif_set_netmask: invalid netif\000"
 850      665F7365 
 850      745F6E65 
 850      746D6173 
 850      6B3A2069 
 851              		.section	.text.netif_set_netmask,"ax",%progbits
ARM GAS  /tmp/ccKMFSjT.s 			page 26


 852              		.align	1
 853              		.global	netif_set_netmask
 854              		.syntax unified
 855              		.thumb
 856              		.thumb_func
 857              		.fpu fpv4-sp-d16
 859              	netif_set_netmask:
 860              	.LFB145:
 548:Middlewares/Third_Party/LwIP/src/core/netif.c **** 
 549:Middlewares/Third_Party/LwIP/src/core/netif.c **** /**
 550:Middlewares/Third_Party/LwIP/src/core/netif.c ****  * @ingroup netif_ip4
 551:Middlewares/Third_Party/LwIP/src/core/netif.c ****  * Change the netmask of a network interface
 552:Middlewares/Third_Party/LwIP/src/core/netif.c ****  *
 553:Middlewares/Third_Party/LwIP/src/core/netif.c ****  * @param netif the network interface to change
 554:Middlewares/Third_Party/LwIP/src/core/netif.c ****  * @param netmask the new netmask
 555:Middlewares/Third_Party/LwIP/src/core/netif.c ****  *
 556:Middlewares/Third_Party/LwIP/src/core/netif.c ****  * @note call netif_set_addr() if you also want to change ip address and
 557:Middlewares/Third_Party/LwIP/src/core/netif.c ****  * default gateway
 558:Middlewares/Third_Party/LwIP/src/core/netif.c ****  */
 559:Middlewares/Third_Party/LwIP/src/core/netif.c **** void
 560:Middlewares/Third_Party/LwIP/src/core/netif.c **** netif_set_netmask(struct netif *netif, const ip4_addr_t *netmask)
 561:Middlewares/Third_Party/LwIP/src/core/netif.c **** {
 861              		.loc 1 561 1
 862              		.cfi_startproc
 863              		@ args = 0, pretend = 0, frame = 16
 864              		@ frame_needed = 1, uses_anonymous_args = 0
 865 0000 80B5     		push	{r7, lr}
 866              	.LCFI40:
 867              		.cfi_def_cfa_offset 8
 868              		.cfi_offset 7, -8
 869              		.cfi_offset 14, -4
 870 0002 84B0     		sub	sp, sp, #16
 871              	.LCFI41:
 872              		.cfi_def_cfa_offset 24
 873 0004 00AF     		add	r7, sp, #0
 874              	.LCFI42:
 875              		.cfi_def_cfa_register 7
 876 0006 7860     		str	r0, [r7, #4]
 877 0008 3960     		str	r1, [r7]
 562:Middlewares/Third_Party/LwIP/src/core/netif.c **** #if LWIP_NETIF_EXT_STATUS_CALLBACK
 563:Middlewares/Third_Party/LwIP/src/core/netif.c ****   ip_addr_t old_nm_val;
 564:Middlewares/Third_Party/LwIP/src/core/netif.c ****   ip_addr_t *old_nm = &old_nm_val;
 565:Middlewares/Third_Party/LwIP/src/core/netif.c **** #else
 566:Middlewares/Third_Party/LwIP/src/core/netif.c ****   ip_addr_t *old_nm = NULL;
 878              		.loc 1 566 14
 879 000a 0023     		movs	r3, #0
 880 000c FB60     		str	r3, [r7, #12]
 567:Middlewares/Third_Party/LwIP/src/core/netif.c **** #endif
 568:Middlewares/Third_Party/LwIP/src/core/netif.c ****   LWIP_ASSERT_CORE_LOCKED();
 569:Middlewares/Third_Party/LwIP/src/core/netif.c **** 
 570:Middlewares/Third_Party/LwIP/src/core/netif.c ****   LWIP_ERROR("netif_set_netmask: invalid netif", netif != NULL, return);
 881              		.loc 1 570 3
 882 000e 7B68     		ldr	r3, [r7, #4]
 883 0010 002B     		cmp	r3, #0
 884 0012 07D1     		bne	.L52
 885              		.loc 1 570 3 is_stmt 0 discriminator 1
 886 0014 0A4B     		ldr	r3, .L55
ARM GAS  /tmp/ccKMFSjT.s 			page 27


 887 0016 40F23A22 		movw	r2, #570
 888 001a 0A49     		ldr	r1, .L55+4
 889 001c 0A48     		ldr	r0, .L55+8
 890 001e FFF7FEFF 		bl	printf
 891 0022 09E0     		b	.L51
 892              	.L52:
 571:Middlewares/Third_Party/LwIP/src/core/netif.c **** 
 572:Middlewares/Third_Party/LwIP/src/core/netif.c ****   /* Don't propagate NULL pointer (IPv4 ANY) to subsequent functions */
 573:Middlewares/Third_Party/LwIP/src/core/netif.c ****   if (netmask == NULL) {
 893              		.loc 1 573 6 is_stmt 1
 894 0024 3B68     		ldr	r3, [r7]
 895 0026 002B     		cmp	r3, #0
 896 0028 01D1     		bne	.L54
 574:Middlewares/Third_Party/LwIP/src/core/netif.c ****     netmask = IP4_ADDR_ANY4;
 897              		.loc 1 574 13
 898 002a 084B     		ldr	r3, .L55+12
 899 002c 3B60     		str	r3, [r7]
 900              	.L54:
 575:Middlewares/Third_Party/LwIP/src/core/netif.c ****   }
 576:Middlewares/Third_Party/LwIP/src/core/netif.c **** 
 577:Middlewares/Third_Party/LwIP/src/core/netif.c ****   if (netif_do_set_netmask(netif, netmask, old_nm)) {
 901              		.loc 1 577 7
 902 002e FA68     		ldr	r2, [r7, #12]
 903 0030 3968     		ldr	r1, [r7]
 904 0032 7868     		ldr	r0, [r7, #4]
 905 0034 FFF7FEFF 		bl	netif_do_set_netmask
 906              	.L51:
 578:Middlewares/Third_Party/LwIP/src/core/netif.c **** #if LWIP_NETIF_EXT_STATUS_CALLBACK
 579:Middlewares/Third_Party/LwIP/src/core/netif.c ****     netif_ext_callback_args_t args;
 580:Middlewares/Third_Party/LwIP/src/core/netif.c ****     args.ipv4_changed.old_netmask = old_nm;
 581:Middlewares/Third_Party/LwIP/src/core/netif.c ****     netif_invoke_ext_callback(netif, LWIP_NSC_IPV4_NETMASK_CHANGED, &args);
 582:Middlewares/Third_Party/LwIP/src/core/netif.c **** #endif
 583:Middlewares/Third_Party/LwIP/src/core/netif.c ****   }
 584:Middlewares/Third_Party/LwIP/src/core/netif.c **** }
 907              		.loc 1 584 1
 908 0038 1037     		adds	r7, r7, #16
 909              	.LCFI43:
 910              		.cfi_def_cfa_offset 8
 911 003a BD46     		mov	sp, r7
 912              	.LCFI44:
 913              		.cfi_def_cfa_register 13
 914              		@ sp needed
 915 003c 80BD     		pop	{r7, pc}
 916              	.L56:
 917 003e 00BF     		.align	2
 918              	.L55:
 919 0040 00000000 		.word	.LC0
 920 0044 44010000 		.word	.LC10
 921 0048 4C000000 		.word	.LC2
 922 004c 00000000 		.word	ip_addr_any
 923              		.cfi_endproc
 924              	.LFE145:
 926              		.section	.text.netif_do_set_gw,"ax",%progbits
 927              		.align	1
 928              		.syntax unified
 929              		.thumb
 930              		.thumb_func
ARM GAS  /tmp/ccKMFSjT.s 			page 28


 931              		.fpu fpv4-sp-d16
 933              	netif_do_set_gw:
 934              	.LFB146:
 585:Middlewares/Third_Party/LwIP/src/core/netif.c **** 
 586:Middlewares/Third_Party/LwIP/src/core/netif.c **** static int
 587:Middlewares/Third_Party/LwIP/src/core/netif.c **** netif_do_set_gw(struct netif *netif, const ip4_addr_t *gw, ip_addr_t *old_gw)
 588:Middlewares/Third_Party/LwIP/src/core/netif.c **** {
 935              		.loc 1 588 1
 936              		.cfi_startproc
 937              		@ args = 0, pretend = 0, frame = 16
 938              		@ frame_needed = 1, uses_anonymous_args = 0
 939              		@ link register save eliminated.
 940 0000 80B4     		push	{r7}
 941              	.LCFI45:
 942              		.cfi_def_cfa_offset 4
 943              		.cfi_offset 7, -4
 944 0002 85B0     		sub	sp, sp, #20
 945              	.LCFI46:
 946              		.cfi_def_cfa_offset 24
 947 0004 00AF     		add	r7, sp, #0
 948              	.LCFI47:
 949              		.cfi_def_cfa_register 7
 950 0006 F860     		str	r0, [r7, #12]
 951 0008 B960     		str	r1, [r7, #8]
 952 000a 7A60     		str	r2, [r7, #4]
 589:Middlewares/Third_Party/LwIP/src/core/netif.c ****   /* address is actually being changed? */
 590:Middlewares/Third_Party/LwIP/src/core/netif.c ****   if (ip4_addr_cmp(gw, netif_ip4_gw(netif)) == 0) {
 953              		.loc 1 590 7
 954 000c BB68     		ldr	r3, [r7, #8]
 955 000e 1A68     		ldr	r2, [r3]
 956 0010 FB68     		ldr	r3, [r7, #12]
 957 0012 0C33     		adds	r3, r3, #12
 958 0014 1B68     		ldr	r3, [r3]
 959              		.loc 1 590 6
 960 0016 9A42     		cmp	r2, r3
 961 0018 0AD0     		beq	.L58
 591:Middlewares/Third_Party/LwIP/src/core/netif.c **** #if LWIP_NETIF_EXT_STATUS_CALLBACK
 592:Middlewares/Third_Party/LwIP/src/core/netif.c ****     LWIP_ASSERT("invalid pointer", old_gw != NULL);
 593:Middlewares/Third_Party/LwIP/src/core/netif.c ****     ip_addr_copy(*old_gw, *netif_ip_gw4(netif));
 594:Middlewares/Third_Party/LwIP/src/core/netif.c **** #else
 595:Middlewares/Third_Party/LwIP/src/core/netif.c ****     LWIP_UNUSED_ARG(old_gw);
 596:Middlewares/Third_Party/LwIP/src/core/netif.c **** #endif
 597:Middlewares/Third_Party/LwIP/src/core/netif.c **** 
 598:Middlewares/Third_Party/LwIP/src/core/netif.c ****     ip4_addr_set(ip_2_ip4(&netif->gw), gw);
 962              		.loc 1 598 5
 963 001a BB68     		ldr	r3, [r7, #8]
 964 001c 002B     		cmp	r3, #0
 965 001e 02D0     		beq	.L59
 966              		.loc 1 598 5 is_stmt 0 discriminator 1
 967 0020 BB68     		ldr	r3, [r7, #8]
 968 0022 1B68     		ldr	r3, [r3]
 969 0024 00E0     		b	.L60
 970              	.L59:
 971              		.loc 1 598 5 discriminator 2
 972 0026 0023     		movs	r3, #0
 973              	.L60:
 974              		.loc 1 598 5 discriminator 4
ARM GAS  /tmp/ccKMFSjT.s 			page 29


 975 0028 FA68     		ldr	r2, [r7, #12]
 976 002a D360     		str	r3, [r2, #12]
 599:Middlewares/Third_Party/LwIP/src/core/netif.c ****     IP_SET_TYPE_VAL(netif->gw, IPADDR_TYPE_V4);
 600:Middlewares/Third_Party/LwIP/src/core/netif.c ****     LWIP_DEBUGF(NETIF_DEBUG | LWIP_DBG_TRACE | LWIP_DBG_STATE, ("netif: GW address of interface %c%
 601:Middlewares/Third_Party/LwIP/src/core/netif.c ****                 netif->name[0], netif->name[1],
 602:Middlewares/Third_Party/LwIP/src/core/netif.c ****                 ip4_addr1_16(netif_ip4_gw(netif)),
 603:Middlewares/Third_Party/LwIP/src/core/netif.c ****                 ip4_addr2_16(netif_ip4_gw(netif)),
 604:Middlewares/Third_Party/LwIP/src/core/netif.c ****                 ip4_addr3_16(netif_ip4_gw(netif)),
 605:Middlewares/Third_Party/LwIP/src/core/netif.c ****                 ip4_addr4_16(netif_ip4_gw(netif))));
 606:Middlewares/Third_Party/LwIP/src/core/netif.c ****     return 1; /* gateway changed */
 977              		.loc 1 606 12 is_stmt 1 discriminator 4
 978 002c 0123     		movs	r3, #1
 979 002e 00E0     		b	.L61
 980              	.L58:
 607:Middlewares/Third_Party/LwIP/src/core/netif.c ****   }
 608:Middlewares/Third_Party/LwIP/src/core/netif.c ****   return 0; /* gateway unchanged */
 981              		.loc 1 608 10
 982 0030 0023     		movs	r3, #0
 983              	.L61:
 609:Middlewares/Third_Party/LwIP/src/core/netif.c **** }
 984              		.loc 1 609 1
 985 0032 1846     		mov	r0, r3
 986 0034 1437     		adds	r7, r7, #20
 987              	.LCFI48:
 988              		.cfi_def_cfa_offset 4
 989 0036 BD46     		mov	sp, r7
 990              	.LCFI49:
 991              		.cfi_def_cfa_register 13
 992              		@ sp needed
 993 0038 5DF8047B 		ldr	r7, [sp], #4
 994              	.LCFI50:
 995              		.cfi_restore 7
 996              		.cfi_def_cfa_offset 0
 997 003c 7047     		bx	lr
 998              		.cfi_endproc
 999              	.LFE146:
 1001              		.section	.rodata
 1002 0165 000000   		.align	2
 1003              	.LC11:
 1004 0168 6E657469 		.ascii	"netif_set_gw: invalid netif\000"
 1004      665F7365 
 1004      745F6777 
 1004      3A20696E 
 1004      76616C69 
 1005              		.section	.text.netif_set_gw,"ax",%progbits
 1006              		.align	1
 1007              		.global	netif_set_gw
 1008              		.syntax unified
 1009              		.thumb
 1010              		.thumb_func
 1011              		.fpu fpv4-sp-d16
 1013              	netif_set_gw:
 1014              	.LFB147:
 610:Middlewares/Third_Party/LwIP/src/core/netif.c **** 
 611:Middlewares/Third_Party/LwIP/src/core/netif.c **** /**
 612:Middlewares/Third_Party/LwIP/src/core/netif.c ****  * @ingroup netif_ip4
 613:Middlewares/Third_Party/LwIP/src/core/netif.c ****  * Change the default gateway for a network interface
ARM GAS  /tmp/ccKMFSjT.s 			page 30


 614:Middlewares/Third_Party/LwIP/src/core/netif.c ****  *
 615:Middlewares/Third_Party/LwIP/src/core/netif.c ****  * @param netif the network interface to change
 616:Middlewares/Third_Party/LwIP/src/core/netif.c ****  * @param gw the new default gateway
 617:Middlewares/Third_Party/LwIP/src/core/netif.c ****  *
 618:Middlewares/Third_Party/LwIP/src/core/netif.c ****  * @note call netif_set_addr() if you also want to change ip address and netmask
 619:Middlewares/Third_Party/LwIP/src/core/netif.c ****  */
 620:Middlewares/Third_Party/LwIP/src/core/netif.c **** void
 621:Middlewares/Third_Party/LwIP/src/core/netif.c **** netif_set_gw(struct netif *netif, const ip4_addr_t *gw)
 622:Middlewares/Third_Party/LwIP/src/core/netif.c **** {
 1015              		.loc 1 622 1
 1016              		.cfi_startproc
 1017              		@ args = 0, pretend = 0, frame = 16
 1018              		@ frame_needed = 1, uses_anonymous_args = 0
 1019 0000 80B5     		push	{r7, lr}
 1020              	.LCFI51:
 1021              		.cfi_def_cfa_offset 8
 1022              		.cfi_offset 7, -8
 1023              		.cfi_offset 14, -4
 1024 0002 84B0     		sub	sp, sp, #16
 1025              	.LCFI52:
 1026              		.cfi_def_cfa_offset 24
 1027 0004 00AF     		add	r7, sp, #0
 1028              	.LCFI53:
 1029              		.cfi_def_cfa_register 7
 1030 0006 7860     		str	r0, [r7, #4]
 1031 0008 3960     		str	r1, [r7]
 623:Middlewares/Third_Party/LwIP/src/core/netif.c **** #if LWIP_NETIF_EXT_STATUS_CALLBACK
 624:Middlewares/Third_Party/LwIP/src/core/netif.c ****   ip_addr_t old_gw_val;
 625:Middlewares/Third_Party/LwIP/src/core/netif.c ****   ip_addr_t *old_gw = &old_gw_val;
 626:Middlewares/Third_Party/LwIP/src/core/netif.c **** #else
 627:Middlewares/Third_Party/LwIP/src/core/netif.c ****   ip_addr_t *old_gw = NULL;
 1032              		.loc 1 627 14
 1033 000a 0023     		movs	r3, #0
 1034 000c FB60     		str	r3, [r7, #12]
 628:Middlewares/Third_Party/LwIP/src/core/netif.c **** #endif
 629:Middlewares/Third_Party/LwIP/src/core/netif.c ****   LWIP_ASSERT_CORE_LOCKED();
 630:Middlewares/Third_Party/LwIP/src/core/netif.c **** 
 631:Middlewares/Third_Party/LwIP/src/core/netif.c ****   LWIP_ERROR("netif_set_gw: invalid netif", netif != NULL, return);
 1035              		.loc 1 631 3
 1036 000e 7B68     		ldr	r3, [r7, #4]
 1037 0010 002B     		cmp	r3, #0
 1038 0012 07D1     		bne	.L63
 1039              		.loc 1 631 3 is_stmt 0 discriminator 1
 1040 0014 0A4B     		ldr	r3, .L66
 1041 0016 40F27722 		movw	r2, #631
 1042 001a 0A49     		ldr	r1, .L66+4
 1043 001c 0A48     		ldr	r0, .L66+8
 1044 001e FFF7FEFF 		bl	printf
 1045 0022 09E0     		b	.L62
 1046              	.L63:
 632:Middlewares/Third_Party/LwIP/src/core/netif.c **** 
 633:Middlewares/Third_Party/LwIP/src/core/netif.c ****   /* Don't propagate NULL pointer (IPv4 ANY) to subsequent functions */
 634:Middlewares/Third_Party/LwIP/src/core/netif.c ****   if (gw == NULL) {
 1047              		.loc 1 634 6 is_stmt 1
 1048 0024 3B68     		ldr	r3, [r7]
 1049 0026 002B     		cmp	r3, #0
 1050 0028 01D1     		bne	.L65
ARM GAS  /tmp/ccKMFSjT.s 			page 31


 635:Middlewares/Third_Party/LwIP/src/core/netif.c ****     gw = IP4_ADDR_ANY4;
 1051              		.loc 1 635 8
 1052 002a 084B     		ldr	r3, .L66+12
 1053 002c 3B60     		str	r3, [r7]
 1054              	.L65:
 636:Middlewares/Third_Party/LwIP/src/core/netif.c ****   }
 637:Middlewares/Third_Party/LwIP/src/core/netif.c **** 
 638:Middlewares/Third_Party/LwIP/src/core/netif.c ****   if (netif_do_set_gw(netif, gw, old_gw)) {
 1055              		.loc 1 638 7
 1056 002e FA68     		ldr	r2, [r7, #12]
 1057 0030 3968     		ldr	r1, [r7]
 1058 0032 7868     		ldr	r0, [r7, #4]
 1059 0034 FFF7FEFF 		bl	netif_do_set_gw
 1060              	.L62:
 639:Middlewares/Third_Party/LwIP/src/core/netif.c **** #if LWIP_NETIF_EXT_STATUS_CALLBACK
 640:Middlewares/Third_Party/LwIP/src/core/netif.c ****     netif_ext_callback_args_t args;
 641:Middlewares/Third_Party/LwIP/src/core/netif.c ****     args.ipv4_changed.old_gw = old_gw;
 642:Middlewares/Third_Party/LwIP/src/core/netif.c ****     netif_invoke_ext_callback(netif, LWIP_NSC_IPV4_GATEWAY_CHANGED, &args);
 643:Middlewares/Third_Party/LwIP/src/core/netif.c **** #endif
 644:Middlewares/Third_Party/LwIP/src/core/netif.c ****   }
 645:Middlewares/Third_Party/LwIP/src/core/netif.c **** }
 1061              		.loc 1 645 1
 1062 0038 1037     		adds	r7, r7, #16
 1063              	.LCFI54:
 1064              		.cfi_def_cfa_offset 8
 1065 003a BD46     		mov	sp, r7
 1066              	.LCFI55:
 1067              		.cfi_def_cfa_register 13
 1068              		@ sp needed
 1069 003c 80BD     		pop	{r7, pc}
 1070              	.L67:
 1071 003e 00BF     		.align	2
 1072              	.L66:
 1073 0040 00000000 		.word	.LC0
 1074 0044 68010000 		.word	.LC11
 1075 0048 4C000000 		.word	.LC2
 1076 004c 00000000 		.word	ip_addr_any
 1077              		.cfi_endproc
 1078              	.LFE147:
 1080              		.section	.text.netif_set_addr,"ax",%progbits
 1081              		.align	1
 1082              		.global	netif_set_addr
 1083              		.syntax unified
 1084              		.thumb
 1085              		.thumb_func
 1086              		.fpu fpv4-sp-d16
 1088              	netif_set_addr:
 1089              	.LFB148:
 646:Middlewares/Third_Party/LwIP/src/core/netif.c **** 
 647:Middlewares/Third_Party/LwIP/src/core/netif.c **** /**
 648:Middlewares/Third_Party/LwIP/src/core/netif.c ****  * @ingroup netif_ip4
 649:Middlewares/Third_Party/LwIP/src/core/netif.c ****  * Change IP address configuration for a network interface (including netmask
 650:Middlewares/Third_Party/LwIP/src/core/netif.c ****  * and default gateway).
 651:Middlewares/Third_Party/LwIP/src/core/netif.c ****  *
 652:Middlewares/Third_Party/LwIP/src/core/netif.c ****  * @param netif the network interface to change
 653:Middlewares/Third_Party/LwIP/src/core/netif.c ****  * @param ipaddr the new IP address
 654:Middlewares/Third_Party/LwIP/src/core/netif.c ****  * @param netmask the new netmask
ARM GAS  /tmp/ccKMFSjT.s 			page 32


 655:Middlewares/Third_Party/LwIP/src/core/netif.c ****  * @param gw the new default gateway
 656:Middlewares/Third_Party/LwIP/src/core/netif.c ****  */
 657:Middlewares/Third_Party/LwIP/src/core/netif.c **** void
 658:Middlewares/Third_Party/LwIP/src/core/netif.c **** netif_set_addr(struct netif *netif, const ip4_addr_t *ipaddr, const ip4_addr_t *netmask,
 659:Middlewares/Third_Party/LwIP/src/core/netif.c ****                const ip4_addr_t *gw)
 660:Middlewares/Third_Party/LwIP/src/core/netif.c **** {
 1090              		.loc 1 660 1
 1091              		.cfi_startproc
 1092              		@ args = 0, pretend = 0, frame = 32
 1093              		@ frame_needed = 1, uses_anonymous_args = 0
 1094 0000 80B5     		push	{r7, lr}
 1095              	.LCFI56:
 1096              		.cfi_def_cfa_offset 8
 1097              		.cfi_offset 7, -8
 1098              		.cfi_offset 14, -4
 1099 0002 88B0     		sub	sp, sp, #32
 1100              	.LCFI57:
 1101              		.cfi_def_cfa_offset 40
 1102 0004 00AF     		add	r7, sp, #0
 1103              	.LCFI58:
 1104              		.cfi_def_cfa_register 7
 1105 0006 F860     		str	r0, [r7, #12]
 1106 0008 B960     		str	r1, [r7, #8]
 1107 000a 7A60     		str	r2, [r7, #4]
 1108 000c 3B60     		str	r3, [r7]
 661:Middlewares/Third_Party/LwIP/src/core/netif.c **** #if LWIP_NETIF_EXT_STATUS_CALLBACK
 662:Middlewares/Third_Party/LwIP/src/core/netif.c ****   netif_nsc_reason_t change_reason = LWIP_NSC_NONE;
 663:Middlewares/Third_Party/LwIP/src/core/netif.c ****   netif_ext_callback_args_t cb_args;
 664:Middlewares/Third_Party/LwIP/src/core/netif.c ****   ip_addr_t old_nm_val;
 665:Middlewares/Third_Party/LwIP/src/core/netif.c ****   ip_addr_t old_gw_val;
 666:Middlewares/Third_Party/LwIP/src/core/netif.c ****   ip_addr_t *old_nm = &old_nm_val;
 667:Middlewares/Third_Party/LwIP/src/core/netif.c ****   ip_addr_t *old_gw = &old_gw_val;
 668:Middlewares/Third_Party/LwIP/src/core/netif.c **** #else
 669:Middlewares/Third_Party/LwIP/src/core/netif.c ****   ip_addr_t *old_nm = NULL;
 1109              		.loc 1 669 14
 1110 000e 0023     		movs	r3, #0
 1111 0010 FB61     		str	r3, [r7, #28]
 670:Middlewares/Third_Party/LwIP/src/core/netif.c ****   ip_addr_t *old_gw = NULL;
 1112              		.loc 1 670 14
 1113 0012 0023     		movs	r3, #0
 1114 0014 BB61     		str	r3, [r7, #24]
 671:Middlewares/Third_Party/LwIP/src/core/netif.c **** #endif
 672:Middlewares/Third_Party/LwIP/src/core/netif.c ****   ip_addr_t old_addr;
 673:Middlewares/Third_Party/LwIP/src/core/netif.c ****   int remove;
 674:Middlewares/Third_Party/LwIP/src/core/netif.c **** 
 675:Middlewares/Third_Party/LwIP/src/core/netif.c ****   LWIP_ASSERT_CORE_LOCKED();
 676:Middlewares/Third_Party/LwIP/src/core/netif.c **** 
 677:Middlewares/Third_Party/LwIP/src/core/netif.c ****   /* Don't propagate NULL pointer (IPv4 ANY) to subsequent functions */
 678:Middlewares/Third_Party/LwIP/src/core/netif.c ****   if (ipaddr == NULL) {
 1115              		.loc 1 678 6
 1116 0016 BB68     		ldr	r3, [r7, #8]
 1117 0018 002B     		cmp	r3, #0
 1118 001a 01D1     		bne	.L69
 679:Middlewares/Third_Party/LwIP/src/core/netif.c ****     ipaddr = IP4_ADDR_ANY4;
 1119              		.loc 1 679 12
 1120 001c 1C4B     		ldr	r3, .L78
 1121 001e BB60     		str	r3, [r7, #8]
ARM GAS  /tmp/ccKMFSjT.s 			page 33


 1122              	.L69:
 680:Middlewares/Third_Party/LwIP/src/core/netif.c ****   }
 681:Middlewares/Third_Party/LwIP/src/core/netif.c ****   if (netmask == NULL) {
 1123              		.loc 1 681 6
 1124 0020 7B68     		ldr	r3, [r7, #4]
 1125 0022 002B     		cmp	r3, #0
 1126 0024 01D1     		bne	.L70
 682:Middlewares/Third_Party/LwIP/src/core/netif.c ****     netmask = IP4_ADDR_ANY4;
 1127              		.loc 1 682 13
 1128 0026 1A4B     		ldr	r3, .L78
 1129 0028 7B60     		str	r3, [r7, #4]
 1130              	.L70:
 683:Middlewares/Third_Party/LwIP/src/core/netif.c ****   }
 684:Middlewares/Third_Party/LwIP/src/core/netif.c ****   if (gw == NULL) {
 1131              		.loc 1 684 6
 1132 002a 3B68     		ldr	r3, [r7]
 1133 002c 002B     		cmp	r3, #0
 1134 002e 01D1     		bne	.L71
 685:Middlewares/Third_Party/LwIP/src/core/netif.c ****     gw = IP4_ADDR_ANY4;
 1135              		.loc 1 685 8
 1136 0030 174B     		ldr	r3, .L78
 1137 0032 3B60     		str	r3, [r7]
 1138              	.L71:
 686:Middlewares/Third_Party/LwIP/src/core/netif.c ****   }
 687:Middlewares/Third_Party/LwIP/src/core/netif.c **** 
 688:Middlewares/Third_Party/LwIP/src/core/netif.c ****   remove = ip4_addr_isany(ipaddr);
 1139              		.loc 1 688 12
 1140 0034 BB68     		ldr	r3, [r7, #8]
 1141 0036 002B     		cmp	r3, #0
 1142 0038 03D0     		beq	.L72
 1143              		.loc 1 688 12 is_stmt 0 discriminator 2
 1144 003a BB68     		ldr	r3, [r7, #8]
 1145 003c 1B68     		ldr	r3, [r3]
 1146 003e 002B     		cmp	r3, #0
 1147 0040 01D1     		bne	.L73
 1148              	.L72:
 1149              		.loc 1 688 12 discriminator 3
 1150 0042 0123     		movs	r3, #1
 1151 0044 00E0     		b	.L74
 1152              	.L73:
 1153              		.loc 1 688 12 discriminator 4
 1154 0046 0023     		movs	r3, #0
 1155              	.L74:
 1156              		.loc 1 688 10 is_stmt 1 discriminator 6
 1157 0048 7B61     		str	r3, [r7, #20]
 689:Middlewares/Third_Party/LwIP/src/core/netif.c ****   if (remove) {
 1158              		.loc 1 689 6 discriminator 6
 1159 004a 7B69     		ldr	r3, [r7, #20]
 1160 004c 002B     		cmp	r3, #0
 1161 004e 06D0     		beq	.L75
 690:Middlewares/Third_Party/LwIP/src/core/netif.c ****     /* when removing an address, we have to remove it *before* changing netmask/gw
 691:Middlewares/Third_Party/LwIP/src/core/netif.c ****        to ensure that tcp RST segment can be sent correctly */
 692:Middlewares/Third_Party/LwIP/src/core/netif.c ****     if (netif_do_set_ipaddr(netif, ipaddr, &old_addr)) {
 1162              		.loc 1 692 9
 1163 0050 07F11003 		add	r3, r7, #16
 1164 0054 1A46     		mov	r2, r3
 1165 0056 B968     		ldr	r1, [r7, #8]
ARM GAS  /tmp/ccKMFSjT.s 			page 34


 1166 0058 F868     		ldr	r0, [r7, #12]
 1167 005a FFF7FEFF 		bl	netif_do_set_ipaddr
 1168              	.L75:
 693:Middlewares/Third_Party/LwIP/src/core/netif.c **** #if LWIP_NETIF_EXT_STATUS_CALLBACK
 694:Middlewares/Third_Party/LwIP/src/core/netif.c ****       change_reason |= LWIP_NSC_IPV4_ADDRESS_CHANGED;
 695:Middlewares/Third_Party/LwIP/src/core/netif.c ****       cb_args.ipv4_changed.old_address = &old_addr;
 696:Middlewares/Third_Party/LwIP/src/core/netif.c **** #endif
 697:Middlewares/Third_Party/LwIP/src/core/netif.c ****     }
 698:Middlewares/Third_Party/LwIP/src/core/netif.c ****   }
 699:Middlewares/Third_Party/LwIP/src/core/netif.c ****   if (netif_do_set_netmask(netif, netmask, old_nm)) {
 1169              		.loc 1 699 7
 1170 005e FA69     		ldr	r2, [r7, #28]
 1171 0060 7968     		ldr	r1, [r7, #4]
 1172 0062 F868     		ldr	r0, [r7, #12]
 1173 0064 FFF7FEFF 		bl	netif_do_set_netmask
 700:Middlewares/Third_Party/LwIP/src/core/netif.c **** #if LWIP_NETIF_EXT_STATUS_CALLBACK
 701:Middlewares/Third_Party/LwIP/src/core/netif.c ****     change_reason |= LWIP_NSC_IPV4_NETMASK_CHANGED;
 702:Middlewares/Third_Party/LwIP/src/core/netif.c ****     cb_args.ipv4_changed.old_netmask = old_nm;
 703:Middlewares/Third_Party/LwIP/src/core/netif.c **** #endif
 704:Middlewares/Third_Party/LwIP/src/core/netif.c ****   }
 705:Middlewares/Third_Party/LwIP/src/core/netif.c ****   if (netif_do_set_gw(netif, gw, old_gw)) {
 1174              		.loc 1 705 7
 1175 0068 BA69     		ldr	r2, [r7, #24]
 1176 006a 3968     		ldr	r1, [r7]
 1177 006c F868     		ldr	r0, [r7, #12]
 1178 006e FFF7FEFF 		bl	netif_do_set_gw
 706:Middlewares/Third_Party/LwIP/src/core/netif.c **** #if LWIP_NETIF_EXT_STATUS_CALLBACK
 707:Middlewares/Third_Party/LwIP/src/core/netif.c ****     change_reason |= LWIP_NSC_IPV4_GATEWAY_CHANGED;
 708:Middlewares/Third_Party/LwIP/src/core/netif.c ****     cb_args.ipv4_changed.old_gw = old_gw;
 709:Middlewares/Third_Party/LwIP/src/core/netif.c **** #endif
 710:Middlewares/Third_Party/LwIP/src/core/netif.c ****   }
 711:Middlewares/Third_Party/LwIP/src/core/netif.c ****   if (!remove) {
 1179              		.loc 1 711 6
 1180 0072 7B69     		ldr	r3, [r7, #20]
 1181 0074 002B     		cmp	r3, #0
 1182 0076 06D1     		bne	.L77
 712:Middlewares/Third_Party/LwIP/src/core/netif.c ****     /* set ipaddr last to ensure netmask/gw have been set when status callback is called */
 713:Middlewares/Third_Party/LwIP/src/core/netif.c ****     if (netif_do_set_ipaddr(netif, ipaddr, &old_addr)) {
 1183              		.loc 1 713 9
 1184 0078 07F11003 		add	r3, r7, #16
 1185 007c 1A46     		mov	r2, r3
 1186 007e B968     		ldr	r1, [r7, #8]
 1187 0080 F868     		ldr	r0, [r7, #12]
 1188 0082 FFF7FEFF 		bl	netif_do_set_ipaddr
 1189              	.L77:
 714:Middlewares/Third_Party/LwIP/src/core/netif.c **** #if LWIP_NETIF_EXT_STATUS_CALLBACK
 715:Middlewares/Third_Party/LwIP/src/core/netif.c ****       change_reason |= LWIP_NSC_IPV4_ADDRESS_CHANGED;
 716:Middlewares/Third_Party/LwIP/src/core/netif.c ****       cb_args.ipv4_changed.old_address = &old_addr;
 717:Middlewares/Third_Party/LwIP/src/core/netif.c **** #endif
 718:Middlewares/Third_Party/LwIP/src/core/netif.c ****     }
 719:Middlewares/Third_Party/LwIP/src/core/netif.c ****   }
 720:Middlewares/Third_Party/LwIP/src/core/netif.c **** 
 721:Middlewares/Third_Party/LwIP/src/core/netif.c **** #if LWIP_NETIF_EXT_STATUS_CALLBACK
 722:Middlewares/Third_Party/LwIP/src/core/netif.c ****   if (change_reason != LWIP_NSC_NONE) {
 723:Middlewares/Third_Party/LwIP/src/core/netif.c ****     change_reason |= LWIP_NSC_IPV4_SETTINGS_CHANGED;
 724:Middlewares/Third_Party/LwIP/src/core/netif.c ****     netif_invoke_ext_callback(netif, change_reason, &cb_args);
 725:Middlewares/Third_Party/LwIP/src/core/netif.c ****   }
ARM GAS  /tmp/ccKMFSjT.s 			page 35


 726:Middlewares/Third_Party/LwIP/src/core/netif.c **** #endif
 727:Middlewares/Third_Party/LwIP/src/core/netif.c **** }
 1190              		.loc 1 727 1
 1191 0086 00BF     		nop
 1192 0088 2037     		adds	r7, r7, #32
 1193              	.LCFI59:
 1194              		.cfi_def_cfa_offset 8
 1195 008a BD46     		mov	sp, r7
 1196              	.LCFI60:
 1197              		.cfi_def_cfa_register 13
 1198              		@ sp needed
 1199 008c 80BD     		pop	{r7, pc}
 1200              	.L79:
 1201 008e 00BF     		.align	2
 1202              	.L78:
 1203 0090 00000000 		.word	ip_addr_any
 1204              		.cfi_endproc
 1205              	.LFE148:
 1207              		.section	.text.netif_remove,"ax",%progbits
 1208              		.align	1
 1209              		.global	netif_remove
 1210              		.syntax unified
 1211              		.thumb
 1212              		.thumb_func
 1213              		.fpu fpv4-sp-d16
 1215              	netif_remove:
 1216              	.LFB149:
 728:Middlewares/Third_Party/LwIP/src/core/netif.c **** #endif /* LWIP_IPV4*/
 729:Middlewares/Third_Party/LwIP/src/core/netif.c **** 
 730:Middlewares/Third_Party/LwIP/src/core/netif.c **** /**
 731:Middlewares/Third_Party/LwIP/src/core/netif.c ****  * @ingroup netif
 732:Middlewares/Third_Party/LwIP/src/core/netif.c ****  * Remove a network interface from the list of lwIP netifs.
 733:Middlewares/Third_Party/LwIP/src/core/netif.c ****  *
 734:Middlewares/Third_Party/LwIP/src/core/netif.c ****  * @param netif the network interface to remove
 735:Middlewares/Third_Party/LwIP/src/core/netif.c ****  */
 736:Middlewares/Third_Party/LwIP/src/core/netif.c **** void
 737:Middlewares/Third_Party/LwIP/src/core/netif.c **** netif_remove(struct netif *netif)
 738:Middlewares/Third_Party/LwIP/src/core/netif.c **** {
 1217              		.loc 1 738 1
 1218              		.cfi_startproc
 1219              		@ args = 0, pretend = 0, frame = 16
 1220              		@ frame_needed = 1, uses_anonymous_args = 0
 1221 0000 80B5     		push	{r7, lr}
 1222              	.LCFI61:
 1223              		.cfi_def_cfa_offset 8
 1224              		.cfi_offset 7, -8
 1225              		.cfi_offset 14, -4
 1226 0002 84B0     		sub	sp, sp, #16
 1227              	.LCFI62:
 1228              		.cfi_def_cfa_offset 24
 1229 0004 00AF     		add	r7, sp, #0
 1230              	.LCFI63:
 1231              		.cfi_def_cfa_register 7
 1232 0006 7860     		str	r0, [r7, #4]
 739:Middlewares/Third_Party/LwIP/src/core/netif.c **** #if LWIP_IPV6
 740:Middlewares/Third_Party/LwIP/src/core/netif.c ****   int i;
 741:Middlewares/Third_Party/LwIP/src/core/netif.c **** #endif
ARM GAS  /tmp/ccKMFSjT.s 			page 36


 742:Middlewares/Third_Party/LwIP/src/core/netif.c **** 
 743:Middlewares/Third_Party/LwIP/src/core/netif.c ****   LWIP_ASSERT_CORE_LOCKED();
 744:Middlewares/Third_Party/LwIP/src/core/netif.c **** 
 745:Middlewares/Third_Party/LwIP/src/core/netif.c ****   if (netif == NULL) {
 1233              		.loc 1 745 6
 1234 0008 7B68     		ldr	r3, [r7, #4]
 1235 000a 002B     		cmp	r3, #0
 1236 000c 3ED0     		beq	.L91
 746:Middlewares/Third_Party/LwIP/src/core/netif.c ****     return;
 747:Middlewares/Third_Party/LwIP/src/core/netif.c ****   }
 748:Middlewares/Third_Party/LwIP/src/core/netif.c **** 
 749:Middlewares/Third_Party/LwIP/src/core/netif.c ****   netif_invoke_ext_callback(netif, LWIP_NSC_NETIF_REMOVED, NULL);
 750:Middlewares/Third_Party/LwIP/src/core/netif.c **** 
 751:Middlewares/Third_Party/LwIP/src/core/netif.c **** #if LWIP_IPV4
 752:Middlewares/Third_Party/LwIP/src/core/netif.c ****   if (!ip4_addr_isany_val(*netif_ip4_addr(netif))) {
 1237              		.loc 1 752 8
 1238 000e 7B68     		ldr	r3, [r7, #4]
 1239 0010 0433     		adds	r3, r3, #4
 1240 0012 1B68     		ldr	r3, [r3]
 1241              		.loc 1 752 6
 1242 0014 002B     		cmp	r3, #0
 1243 0016 05D0     		beq	.L83
 753:Middlewares/Third_Party/LwIP/src/core/netif.c ****     netif_do_ip_addr_changed(netif_ip_addr4(netif), NULL);
 1244              		.loc 1 753 30
 1245 0018 7B68     		ldr	r3, [r7, #4]
 1246 001a 0433     		adds	r3, r3, #4
 1247              		.loc 1 753 5
 1248 001c 0021     		movs	r1, #0
 1249 001e 1846     		mov	r0, r3
 1250 0020 FFF7FEFF 		bl	netif_do_ip_addr_changed
 1251              	.L83:
 754:Middlewares/Third_Party/LwIP/src/core/netif.c ****   }
 755:Middlewares/Third_Party/LwIP/src/core/netif.c **** 
 756:Middlewares/Third_Party/LwIP/src/core/netif.c **** #if LWIP_IGMP
 757:Middlewares/Third_Party/LwIP/src/core/netif.c ****   /* stop IGMP processing */
 758:Middlewares/Third_Party/LwIP/src/core/netif.c ****   if (netif->flags & NETIF_FLAG_IGMP) {
 759:Middlewares/Third_Party/LwIP/src/core/netif.c ****     igmp_stop(netif);
 760:Middlewares/Third_Party/LwIP/src/core/netif.c ****   }
 761:Middlewares/Third_Party/LwIP/src/core/netif.c **** #endif /* LWIP_IGMP */
 762:Middlewares/Third_Party/LwIP/src/core/netif.c **** #endif /* LWIP_IPV4*/
 763:Middlewares/Third_Party/LwIP/src/core/netif.c **** 
 764:Middlewares/Third_Party/LwIP/src/core/netif.c **** #if LWIP_IPV6
 765:Middlewares/Third_Party/LwIP/src/core/netif.c ****   for (i = 0; i < LWIP_IPV6_NUM_ADDRESSES; i++) {
 766:Middlewares/Third_Party/LwIP/src/core/netif.c ****     if (ip6_addr_isvalid(netif_ip6_addr_state(netif, i))) {
 767:Middlewares/Third_Party/LwIP/src/core/netif.c ****       netif_do_ip_addr_changed(netif_ip_addr6(netif, i), NULL);
 768:Middlewares/Third_Party/LwIP/src/core/netif.c ****     }
 769:Middlewares/Third_Party/LwIP/src/core/netif.c ****   }
 770:Middlewares/Third_Party/LwIP/src/core/netif.c **** #if LWIP_IPV6_MLD
 771:Middlewares/Third_Party/LwIP/src/core/netif.c ****   /* stop MLD processing */
 772:Middlewares/Third_Party/LwIP/src/core/netif.c ****   mld6_stop(netif);
 773:Middlewares/Third_Party/LwIP/src/core/netif.c **** #endif /* LWIP_IPV6_MLD */
 774:Middlewares/Third_Party/LwIP/src/core/netif.c **** #endif /* LWIP_IPV6 */
 775:Middlewares/Third_Party/LwIP/src/core/netif.c ****   if (netif_is_up(netif)) {
 1252              		.loc 1 775 7
 1253 0024 7B68     		ldr	r3, [r7, #4]
 1254 0026 93F83130 		ldrb	r3, [r3, #49]	@ zero_extendqisi2
 1255 002a 03F00103 		and	r3, r3, #1
ARM GAS  /tmp/ccKMFSjT.s 			page 37


 1256 002e DBB2     		uxtb	r3, r3
 1257              		.loc 1 775 6
 1258 0030 002B     		cmp	r3, #0
 1259 0032 02D0     		beq	.L84
 776:Middlewares/Third_Party/LwIP/src/core/netif.c ****     /* set netif down before removing (call callback function) */
 777:Middlewares/Third_Party/LwIP/src/core/netif.c ****     netif_set_down(netif);
 1260              		.loc 1 777 5
 1261 0034 7868     		ldr	r0, [r7, #4]
 1262 0036 FFF7FEFF 		bl	netif_set_down
 1263              	.L84:
 778:Middlewares/Third_Party/LwIP/src/core/netif.c ****   }
 779:Middlewares/Third_Party/LwIP/src/core/netif.c **** 
 780:Middlewares/Third_Party/LwIP/src/core/netif.c ****   mib2_remove_ip4(netif);
 781:Middlewares/Third_Party/LwIP/src/core/netif.c **** 
 782:Middlewares/Third_Party/LwIP/src/core/netif.c ****   /* this netif is default? */
 783:Middlewares/Third_Party/LwIP/src/core/netif.c ****   if (netif_default == netif) {
 1264              		.loc 1 783 21
 1265 003a 164B     		ldr	r3, .L92
 1266 003c 1B68     		ldr	r3, [r3]
 1267              		.loc 1 783 6
 1268 003e 7A68     		ldr	r2, [r7, #4]
 1269 0040 9A42     		cmp	r2, r3
 1270 0042 02D1     		bne	.L85
 784:Middlewares/Third_Party/LwIP/src/core/netif.c ****     /* reset default netif */
 785:Middlewares/Third_Party/LwIP/src/core/netif.c ****     netif_set_default(NULL);
 1271              		.loc 1 785 5
 1272 0044 0020     		movs	r0, #0
 1273 0046 FFF7FEFF 		bl	netif_set_default
 1274              	.L85:
 786:Middlewares/Third_Party/LwIP/src/core/netif.c ****   }
 787:Middlewares/Third_Party/LwIP/src/core/netif.c **** #if !LWIP_SINGLE_NETIF
 788:Middlewares/Third_Party/LwIP/src/core/netif.c ****   /*  is it the first netif? */
 789:Middlewares/Third_Party/LwIP/src/core/netif.c ****   if (netif_list == netif) {
 1275              		.loc 1 789 18
 1276 004a 134B     		ldr	r3, .L92+4
 1277 004c 1B68     		ldr	r3, [r3]
 1278              		.loc 1 789 6
 1279 004e 7A68     		ldr	r2, [r7, #4]
 1280 0050 9A42     		cmp	r2, r3
 1281 0052 04D1     		bne	.L86
 790:Middlewares/Third_Party/LwIP/src/core/netif.c ****     netif_list = netif->next;
 1282              		.loc 1 790 23
 1283 0054 7B68     		ldr	r3, [r7, #4]
 1284 0056 1B68     		ldr	r3, [r3]
 1285              		.loc 1 790 16
 1286 0058 0F4A     		ldr	r2, .L92+4
 1287 005a 1360     		str	r3, [r2]
 1288 005c 17E0     		b	.L80
 1289              	.L86:
 1290              	.LBB4:
 791:Middlewares/Third_Party/LwIP/src/core/netif.c ****   } else {
 792:Middlewares/Third_Party/LwIP/src/core/netif.c ****     /*  look for netif further down the list */
 793:Middlewares/Third_Party/LwIP/src/core/netif.c ****     struct netif *tmp_netif;
 794:Middlewares/Third_Party/LwIP/src/core/netif.c ****     NETIF_FOREACH(tmp_netif) {
 1291              		.loc 1 794 5
 1292 005e 0E4B     		ldr	r3, .L92+4
 1293 0060 1B68     		ldr	r3, [r3]
ARM GAS  /tmp/ccKMFSjT.s 			page 38


 1294 0062 FB60     		str	r3, [r7, #12]
 1295 0064 0CE0     		b	.L87
 1296              	.L90:
 795:Middlewares/Third_Party/LwIP/src/core/netif.c ****       if (tmp_netif->next == netif) {
 1297              		.loc 1 795 20
 1298 0066 FB68     		ldr	r3, [r7, #12]
 1299 0068 1B68     		ldr	r3, [r3]
 1300              		.loc 1 795 10
 1301 006a 7A68     		ldr	r2, [r7, #4]
 1302 006c 9A42     		cmp	r2, r3
 1303 006e 04D1     		bne	.L88
 796:Middlewares/Third_Party/LwIP/src/core/netif.c ****         tmp_netif->next = netif->next;
 1304              		.loc 1 796 32
 1305 0070 7B68     		ldr	r3, [r7, #4]
 1306 0072 1A68     		ldr	r2, [r3]
 1307              		.loc 1 796 25
 1308 0074 FB68     		ldr	r3, [r7, #12]
 1309 0076 1A60     		str	r2, [r3]
 797:Middlewares/Third_Party/LwIP/src/core/netif.c ****         break;
 1310              		.loc 1 797 9
 1311 0078 05E0     		b	.L89
 1312              	.L88:
 794:Middlewares/Third_Party/LwIP/src/core/netif.c ****       if (tmp_netif->next == netif) {
 1313              		.loc 1 794 5 discriminator 2
 1314 007a FB68     		ldr	r3, [r7, #12]
 1315 007c 1B68     		ldr	r3, [r3]
 1316 007e FB60     		str	r3, [r7, #12]
 1317              	.L87:
 794:Middlewares/Third_Party/LwIP/src/core/netif.c ****       if (tmp_netif->next == netif) {
 1318              		.loc 1 794 5 is_stmt 0 discriminator 1
 1319 0080 FB68     		ldr	r3, [r7, #12]
 1320 0082 002B     		cmp	r3, #0
 1321 0084 EFD1     		bne	.L90
 1322              	.L89:
 798:Middlewares/Third_Party/LwIP/src/core/netif.c ****       }
 799:Middlewares/Third_Party/LwIP/src/core/netif.c ****     }
 800:Middlewares/Third_Party/LwIP/src/core/netif.c ****     if (tmp_netif == NULL) {
 1323              		.loc 1 800 8 is_stmt 1
 1324 0086 FB68     		ldr	r3, [r7, #12]
 1325 0088 002B     		cmp	r3, #0
 1326 008a 00E0     		b	.L80
 1327              	.L91:
 1328              	.LBE4:
 746:Middlewares/Third_Party/LwIP/src/core/netif.c ****   }
 1329              		.loc 1 746 5
 1330 008c 00BF     		nop
 1331              	.L80:
 801:Middlewares/Third_Party/LwIP/src/core/netif.c ****       return; /* netif is not on the list */
 802:Middlewares/Third_Party/LwIP/src/core/netif.c ****     }
 803:Middlewares/Third_Party/LwIP/src/core/netif.c ****   }
 804:Middlewares/Third_Party/LwIP/src/core/netif.c **** #endif /* !LWIP_SINGLE_NETIF */
 805:Middlewares/Third_Party/LwIP/src/core/netif.c ****   mib2_netif_removed(netif);
 806:Middlewares/Third_Party/LwIP/src/core/netif.c **** #if LWIP_NETIF_REMOVE_CALLBACK
 807:Middlewares/Third_Party/LwIP/src/core/netif.c ****   if (netif->remove_callback) {
 808:Middlewares/Third_Party/LwIP/src/core/netif.c ****     netif->remove_callback(netif);
 809:Middlewares/Third_Party/LwIP/src/core/netif.c ****   }
 810:Middlewares/Third_Party/LwIP/src/core/netif.c **** #endif /* LWIP_NETIF_REMOVE_CALLBACK */
ARM GAS  /tmp/ccKMFSjT.s 			page 39


 811:Middlewares/Third_Party/LwIP/src/core/netif.c ****   LWIP_DEBUGF( NETIF_DEBUG, ("netif_remove: removed netif\n") );
 812:Middlewares/Third_Party/LwIP/src/core/netif.c **** }
 1332              		.loc 1 812 1
 1333 008e 1037     		adds	r7, r7, #16
 1334              	.LCFI64:
 1335              		.cfi_def_cfa_offset 8
 1336 0090 BD46     		mov	sp, r7
 1337              	.LCFI65:
 1338              		.cfi_def_cfa_register 13
 1339              		@ sp needed
 1340 0092 80BD     		pop	{r7, pc}
 1341              	.L93:
 1342              		.align	2
 1343              	.L92:
 1344 0094 00000000 		.word	netif_default
 1345 0098 00000000 		.word	netif_list
 1346              		.cfi_endproc
 1347              	.LFE149:
 1349              		.section	.text.netif_set_default,"ax",%progbits
 1350              		.align	1
 1351              		.global	netif_set_default
 1352              		.syntax unified
 1353              		.thumb
 1354              		.thumb_func
 1355              		.fpu fpv4-sp-d16
 1357              	netif_set_default:
 1358              	.LFB150:
 813:Middlewares/Third_Party/LwIP/src/core/netif.c **** 
 814:Middlewares/Third_Party/LwIP/src/core/netif.c **** /**
 815:Middlewares/Third_Party/LwIP/src/core/netif.c ****  * @ingroup netif
 816:Middlewares/Third_Party/LwIP/src/core/netif.c ****  * Set a network interface as the default network interface
 817:Middlewares/Third_Party/LwIP/src/core/netif.c ****  * (used to output all packets for which no specific route is found)
 818:Middlewares/Third_Party/LwIP/src/core/netif.c ****  *
 819:Middlewares/Third_Party/LwIP/src/core/netif.c ****  * @param netif the default network interface
 820:Middlewares/Third_Party/LwIP/src/core/netif.c ****  */
 821:Middlewares/Third_Party/LwIP/src/core/netif.c **** void
 822:Middlewares/Third_Party/LwIP/src/core/netif.c **** netif_set_default(struct netif *netif)
 823:Middlewares/Third_Party/LwIP/src/core/netif.c **** {
 1359              		.loc 1 823 1
 1360              		.cfi_startproc
 1361              		@ args = 0, pretend = 0, frame = 8
 1362              		@ frame_needed = 1, uses_anonymous_args = 0
 1363              		@ link register save eliminated.
 1364 0000 80B4     		push	{r7}
 1365              	.LCFI66:
 1366              		.cfi_def_cfa_offset 4
 1367              		.cfi_offset 7, -4
 1368 0002 83B0     		sub	sp, sp, #12
 1369              	.LCFI67:
 1370              		.cfi_def_cfa_offset 16
 1371 0004 00AF     		add	r7, sp, #0
 1372              	.LCFI68:
 1373              		.cfi_def_cfa_register 7
 1374 0006 7860     		str	r0, [r7, #4]
 824:Middlewares/Third_Party/LwIP/src/core/netif.c ****   LWIP_ASSERT_CORE_LOCKED();
 825:Middlewares/Third_Party/LwIP/src/core/netif.c **** 
 826:Middlewares/Third_Party/LwIP/src/core/netif.c ****   if (netif == NULL) {
ARM GAS  /tmp/ccKMFSjT.s 			page 40


 827:Middlewares/Third_Party/LwIP/src/core/netif.c ****     /* remove default route */
 828:Middlewares/Third_Party/LwIP/src/core/netif.c ****     mib2_remove_route_ip4(1, netif);
 829:Middlewares/Third_Party/LwIP/src/core/netif.c ****   } else {
 830:Middlewares/Third_Party/LwIP/src/core/netif.c ****     /* install default route */
 831:Middlewares/Third_Party/LwIP/src/core/netif.c ****     mib2_add_route_ip4(1, netif);
 832:Middlewares/Third_Party/LwIP/src/core/netif.c ****   }
 833:Middlewares/Third_Party/LwIP/src/core/netif.c ****   netif_default = netif;
 1375              		.loc 1 833 17
 1376 0008 044A     		ldr	r2, .L95
 1377 000a 7B68     		ldr	r3, [r7, #4]
 1378 000c 1360     		str	r3, [r2]
 834:Middlewares/Third_Party/LwIP/src/core/netif.c ****   LWIP_DEBUGF(NETIF_DEBUG, ("netif: setting default interface %c%c\n",
 835:Middlewares/Third_Party/LwIP/src/core/netif.c ****                             netif ? netif->name[0] : '\'', netif ? netif->name[1] : '\''));
 836:Middlewares/Third_Party/LwIP/src/core/netif.c **** }
 1379              		.loc 1 836 1
 1380 000e 00BF     		nop
 1381 0010 0C37     		adds	r7, r7, #12
 1382              	.LCFI69:
 1383              		.cfi_def_cfa_offset 4
 1384 0012 BD46     		mov	sp, r7
 1385              	.LCFI70:
 1386              		.cfi_def_cfa_register 13
 1387              		@ sp needed
 1388 0014 5DF8047B 		ldr	r7, [sp], #4
 1389              	.LCFI71:
 1390              		.cfi_restore 7
 1391              		.cfi_def_cfa_offset 0
 1392 0018 7047     		bx	lr
 1393              	.L96:
 1394 001a 00BF     		.align	2
 1395              	.L95:
 1396 001c 00000000 		.word	netif_default
 1397              		.cfi_endproc
 1398              	.LFE150:
 1400              		.section	.rodata
 1401              		.align	2
 1402              	.LC12:
 1403 0184 6E657469 		.ascii	"netif_set_up: invalid netif\000"
 1403      665F7365 
 1403      745F7570 
 1403      3A20696E 
 1403      76616C69 
 1404              		.section	.text.netif_set_up,"ax",%progbits
 1405              		.align	1
 1406              		.global	netif_set_up
 1407              		.syntax unified
 1408              		.thumb
 1409              		.thumb_func
 1410              		.fpu fpv4-sp-d16
 1412              	netif_set_up:
 1413              	.LFB151:
 837:Middlewares/Third_Party/LwIP/src/core/netif.c **** 
 838:Middlewares/Third_Party/LwIP/src/core/netif.c **** /**
 839:Middlewares/Third_Party/LwIP/src/core/netif.c ****  * @ingroup netif
 840:Middlewares/Third_Party/LwIP/src/core/netif.c ****  * Bring an interface up, available for processing
 841:Middlewares/Third_Party/LwIP/src/core/netif.c ****  * traffic.
 842:Middlewares/Third_Party/LwIP/src/core/netif.c ****  */
ARM GAS  /tmp/ccKMFSjT.s 			page 41


 843:Middlewares/Third_Party/LwIP/src/core/netif.c **** void
 844:Middlewares/Third_Party/LwIP/src/core/netif.c **** netif_set_up(struct netif *netif)
 845:Middlewares/Third_Party/LwIP/src/core/netif.c **** {
 1414              		.loc 1 845 1
 1415              		.cfi_startproc
 1416              		@ args = 0, pretend = 0, frame = 8
 1417              		@ frame_needed = 1, uses_anonymous_args = 0
 1418 0000 80B5     		push	{r7, lr}
 1419              	.LCFI72:
 1420              		.cfi_def_cfa_offset 8
 1421              		.cfi_offset 7, -8
 1422              		.cfi_offset 14, -4
 1423 0002 82B0     		sub	sp, sp, #8
 1424              	.LCFI73:
 1425              		.cfi_def_cfa_offset 16
 1426 0004 00AF     		add	r7, sp, #0
 1427              	.LCFI74:
 1428              		.cfi_def_cfa_register 7
 1429 0006 7860     		str	r0, [r7, #4]
 846:Middlewares/Third_Party/LwIP/src/core/netif.c ****   LWIP_ASSERT_CORE_LOCKED();
 847:Middlewares/Third_Party/LwIP/src/core/netif.c **** 
 848:Middlewares/Third_Party/LwIP/src/core/netif.c ****   LWIP_ERROR("netif_set_up: invalid netif", netif != NULL, return);
 1430              		.loc 1 848 3
 1431 0008 7B68     		ldr	r3, [r7, #4]
 1432 000a 002B     		cmp	r3, #0
 1433 000c 07D1     		bne	.L98
 1434              		.loc 1 848 3 is_stmt 0 discriminator 1
 1435 000e 0F4B     		ldr	r3, .L100
 1436 0010 4FF45472 		mov	r2, #848
 1437 0014 0E49     		ldr	r1, .L100+4
 1438 0016 0F48     		ldr	r0, .L100+8
 1439 0018 FFF7FEFF 		bl	printf
 1440 001c 13E0     		b	.L97
 1441              	.L98:
 849:Middlewares/Third_Party/LwIP/src/core/netif.c **** 
 850:Middlewares/Third_Party/LwIP/src/core/netif.c ****   if (!(netif->flags & NETIF_FLAG_UP)) {
 1442              		.loc 1 850 14 is_stmt 1
 1443 001e 7B68     		ldr	r3, [r7, #4]
 1444 0020 93F83130 		ldrb	r3, [r3, #49]	@ zero_extendqisi2
 1445              		.loc 1 850 22
 1446 0024 03F00103 		and	r3, r3, #1
 1447              		.loc 1 850 6
 1448 0028 002B     		cmp	r3, #0
 1449 002a 0CD1     		bne	.L97
 851:Middlewares/Third_Party/LwIP/src/core/netif.c ****     netif_set_flags(netif, NETIF_FLAG_UP);
 1450              		.loc 1 851 5
 1451 002c 7B68     		ldr	r3, [r7, #4]
 1452 002e 93F83130 		ldrb	r3, [r3, #49]	@ zero_extendqisi2
 1453 0032 43F00103 		orr	r3, r3, #1
 1454 0036 DAB2     		uxtb	r2, r3
 1455 0038 7B68     		ldr	r3, [r7, #4]
 1456 003a 83F83120 		strb	r2, [r3, #49]
 852:Middlewares/Third_Party/LwIP/src/core/netif.c **** 
 853:Middlewares/Third_Party/LwIP/src/core/netif.c ****     MIB2_COPY_SYSUPTIME_TO(&netif->ts);
 854:Middlewares/Third_Party/LwIP/src/core/netif.c **** 
 855:Middlewares/Third_Party/LwIP/src/core/netif.c ****     NETIF_STATUS_CALLBACK(netif);
 856:Middlewares/Third_Party/LwIP/src/core/netif.c **** 
ARM GAS  /tmp/ccKMFSjT.s 			page 42


 857:Middlewares/Third_Party/LwIP/src/core/netif.c **** #if LWIP_NETIF_EXT_STATUS_CALLBACK
 858:Middlewares/Third_Party/LwIP/src/core/netif.c ****     {
 859:Middlewares/Third_Party/LwIP/src/core/netif.c ****       netif_ext_callback_args_t args;
 860:Middlewares/Third_Party/LwIP/src/core/netif.c ****       args.status_changed.state = 1;
 861:Middlewares/Third_Party/LwIP/src/core/netif.c ****       netif_invoke_ext_callback(netif, LWIP_NSC_STATUS_CHANGED, &args);
 862:Middlewares/Third_Party/LwIP/src/core/netif.c ****     }
 863:Middlewares/Third_Party/LwIP/src/core/netif.c **** #endif
 864:Middlewares/Third_Party/LwIP/src/core/netif.c **** 
 865:Middlewares/Third_Party/LwIP/src/core/netif.c ****     netif_issue_reports(netif, NETIF_REPORT_TYPE_IPV4 | NETIF_REPORT_TYPE_IPV6);
 1457              		.loc 1 865 5
 1458 003e 0321     		movs	r1, #3
 1459 0040 7868     		ldr	r0, [r7, #4]
 1460 0042 FFF7FEFF 		bl	netif_issue_reports
 1461              	.L97:
 866:Middlewares/Third_Party/LwIP/src/core/netif.c **** #if LWIP_IPV6
 867:Middlewares/Third_Party/LwIP/src/core/netif.c ****     nd6_restart_netif(netif);
 868:Middlewares/Third_Party/LwIP/src/core/netif.c **** #endif /* LWIP_IPV6 */
 869:Middlewares/Third_Party/LwIP/src/core/netif.c ****   }
 870:Middlewares/Third_Party/LwIP/src/core/netif.c **** }
 1462              		.loc 1 870 1
 1463 0046 0837     		adds	r7, r7, #8
 1464              	.LCFI75:
 1465              		.cfi_def_cfa_offset 8
 1466 0048 BD46     		mov	sp, r7
 1467              	.LCFI76:
 1468              		.cfi_def_cfa_register 13
 1469              		@ sp needed
 1470 004a 80BD     		pop	{r7, pc}
 1471              	.L101:
 1472              		.align	2
 1473              	.L100:
 1474 004c 00000000 		.word	.LC0
 1475 0050 84010000 		.word	.LC12
 1476 0054 4C000000 		.word	.LC2
 1477              		.cfi_endproc
 1478              	.LFE151:
 1480              		.section	.rodata
 1481              		.align	2
 1482              	.LC13:
 1483 01a0 6E657469 		.ascii	"netif_issue_reports: invalid netif\000"
 1483      665F6973 
 1483      7375655F 
 1483      7265706F 
 1483      7274733A 
 1484              		.section	.text.netif_issue_reports,"ax",%progbits
 1485              		.align	1
 1486              		.syntax unified
 1487              		.thumb
 1488              		.thumb_func
 1489              		.fpu fpv4-sp-d16
 1491              	netif_issue_reports:
 1492              	.LFB152:
 871:Middlewares/Third_Party/LwIP/src/core/netif.c **** 
 872:Middlewares/Third_Party/LwIP/src/core/netif.c **** /** Send ARP/IGMP/MLD/RS events, e.g. on link-up/netif-up or addr-change
 873:Middlewares/Third_Party/LwIP/src/core/netif.c ****  */
 874:Middlewares/Third_Party/LwIP/src/core/netif.c **** static void
 875:Middlewares/Third_Party/LwIP/src/core/netif.c **** netif_issue_reports(struct netif *netif, u8_t report_type)
ARM GAS  /tmp/ccKMFSjT.s 			page 43


 876:Middlewares/Third_Party/LwIP/src/core/netif.c **** {
 1493              		.loc 1 876 1
 1494              		.cfi_startproc
 1495              		@ args = 0, pretend = 0, frame = 8
 1496              		@ frame_needed = 1, uses_anonymous_args = 0
 1497 0000 80B5     		push	{r7, lr}
 1498              	.LCFI77:
 1499              		.cfi_def_cfa_offset 8
 1500              		.cfi_offset 7, -8
 1501              		.cfi_offset 14, -4
 1502 0002 82B0     		sub	sp, sp, #8
 1503              	.LCFI78:
 1504              		.cfi_def_cfa_offset 16
 1505 0004 00AF     		add	r7, sp, #0
 1506              	.LCFI79:
 1507              		.cfi_def_cfa_register 7
 1508 0006 7860     		str	r0, [r7, #4]
 1509 0008 0B46     		mov	r3, r1
 1510 000a FB70     		strb	r3, [r7, #3]
 877:Middlewares/Third_Party/LwIP/src/core/netif.c ****   LWIP_ASSERT("netif_issue_reports: invalid netif", netif != NULL);
 1511              		.loc 1 877 3
 1512 000c 7B68     		ldr	r3, [r7, #4]
 1513 000e 002B     		cmp	r3, #0
 1514 0010 06D1     		bne	.L103
 1515              		.loc 1 877 3 is_stmt 0 discriminator 1
 1516 0012 184B     		ldr	r3, .L108
 1517 0014 40F26D32 		movw	r2, #877
 1518 0018 1749     		ldr	r1, .L108+4
 1519 001a 1848     		ldr	r0, .L108+8
 1520 001c FFF7FEFF 		bl	printf
 1521              	.L103:
 878:Middlewares/Third_Party/LwIP/src/core/netif.c **** 
 879:Middlewares/Third_Party/LwIP/src/core/netif.c ****   /* Only send reports when both link and admin states are up */
 880:Middlewares/Third_Party/LwIP/src/core/netif.c ****   if (!(netif->flags & NETIF_FLAG_LINK_UP) ||
 1522              		.loc 1 880 14 is_stmt 1
 1523 0020 7B68     		ldr	r3, [r7, #4]
 1524 0022 93F83130 		ldrb	r3, [r3, #49]	@ zero_extendqisi2
 1525              		.loc 1 880 22
 1526 0026 03F00403 		and	r3, r3, #4
 1527              		.loc 1 880 6
 1528 002a 002B     		cmp	r3, #0
 1529 002c 1ED0     		beq	.L107
 881:Middlewares/Third_Party/LwIP/src/core/netif.c ****       !(netif->flags & NETIF_FLAG_UP)) {
 1530              		.loc 1 881 14 discriminator 1
 1531 002e 7B68     		ldr	r3, [r7, #4]
 1532 0030 93F83130 		ldrb	r3, [r3, #49]	@ zero_extendqisi2
 1533              		.loc 1 881 22 discriminator 1
 1534 0034 03F00103 		and	r3, r3, #1
 880:Middlewares/Third_Party/LwIP/src/core/netif.c ****       !(netif->flags & NETIF_FLAG_UP)) {
 1535              		.loc 1 880 44 discriminator 1
 1536 0038 002B     		cmp	r3, #0
 1537 003a 17D0     		beq	.L107
 882:Middlewares/Third_Party/LwIP/src/core/netif.c ****     return;
 883:Middlewares/Third_Party/LwIP/src/core/netif.c ****   }
 884:Middlewares/Third_Party/LwIP/src/core/netif.c **** 
 885:Middlewares/Third_Party/LwIP/src/core/netif.c **** #if LWIP_IPV4
 886:Middlewares/Third_Party/LwIP/src/core/netif.c ****   if ((report_type & NETIF_REPORT_TYPE_IPV4) &&
ARM GAS  /tmp/ccKMFSjT.s 			page 44


 1538              		.loc 1 886 20
 1539 003c FB78     		ldrb	r3, [r7, #3]	@ zero_extendqisi2
 1540 003e 03F00103 		and	r3, r3, #1
 1541              		.loc 1 886 6
 1542 0042 002B     		cmp	r3, #0
 1543 0044 13D0     		beq	.L102
 887:Middlewares/Third_Party/LwIP/src/core/netif.c ****       !ip4_addr_isany_val(*netif_ip4_addr(netif))) {
 1544              		.loc 1 887 8 discriminator 1
 1545 0046 7B68     		ldr	r3, [r7, #4]
 1546 0048 0433     		adds	r3, r3, #4
 1547 004a 1B68     		ldr	r3, [r3]
 886:Middlewares/Third_Party/LwIP/src/core/netif.c ****       !ip4_addr_isany_val(*netif_ip4_addr(netif))) {
 1548              		.loc 1 886 46 discriminator 1
 1549 004c 002B     		cmp	r3, #0
 1550 004e 0ED0     		beq	.L102
 888:Middlewares/Third_Party/LwIP/src/core/netif.c **** #if LWIP_ARP
 889:Middlewares/Third_Party/LwIP/src/core/netif.c ****     /* For Ethernet network interfaces, we would like to send a "gratuitous ARP" */
 890:Middlewares/Third_Party/LwIP/src/core/netif.c ****     if (netif->flags & (NETIF_FLAG_ETHARP)) {
 1551              		.loc 1 890 14
 1552 0050 7B68     		ldr	r3, [r7, #4]
 1553 0052 93F83130 		ldrb	r3, [r3, #49]	@ zero_extendqisi2
 1554              		.loc 1 890 22
 1555 0056 03F00803 		and	r3, r3, #8
 1556              		.loc 1 890 8
 1557 005a 002B     		cmp	r3, #0
 1558 005c 07D0     		beq	.L102
 891:Middlewares/Third_Party/LwIP/src/core/netif.c ****       etharp_gratuitous(netif);
 1559              		.loc 1 891 7
 1560 005e 7B68     		ldr	r3, [r7, #4]
 1561 0060 0433     		adds	r3, r3, #4
 1562 0062 1946     		mov	r1, r3
 1563 0064 7868     		ldr	r0, [r7, #4]
 1564 0066 FFF7FEFF 		bl	etharp_request
 1565 006a 00E0     		b	.L102
 1566              	.L107:
 882:Middlewares/Third_Party/LwIP/src/core/netif.c ****   }
 1567              		.loc 1 882 5
 1568 006c 00BF     		nop
 1569              	.L102:
 892:Middlewares/Third_Party/LwIP/src/core/netif.c ****     }
 893:Middlewares/Third_Party/LwIP/src/core/netif.c **** #endif /* LWIP_ARP */
 894:Middlewares/Third_Party/LwIP/src/core/netif.c **** 
 895:Middlewares/Third_Party/LwIP/src/core/netif.c **** #if LWIP_IGMP
 896:Middlewares/Third_Party/LwIP/src/core/netif.c ****     /* resend IGMP memberships */
 897:Middlewares/Third_Party/LwIP/src/core/netif.c ****     if (netif->flags & NETIF_FLAG_IGMP) {
 898:Middlewares/Third_Party/LwIP/src/core/netif.c ****       igmp_report_groups(netif);
 899:Middlewares/Third_Party/LwIP/src/core/netif.c ****     }
 900:Middlewares/Third_Party/LwIP/src/core/netif.c **** #endif /* LWIP_IGMP */
 901:Middlewares/Third_Party/LwIP/src/core/netif.c ****   }
 902:Middlewares/Third_Party/LwIP/src/core/netif.c **** #endif /* LWIP_IPV4 */
 903:Middlewares/Third_Party/LwIP/src/core/netif.c **** 
 904:Middlewares/Third_Party/LwIP/src/core/netif.c **** #if LWIP_IPV6
 905:Middlewares/Third_Party/LwIP/src/core/netif.c ****   if (report_type & NETIF_REPORT_TYPE_IPV6) {
 906:Middlewares/Third_Party/LwIP/src/core/netif.c **** #if LWIP_IPV6_MLD
 907:Middlewares/Third_Party/LwIP/src/core/netif.c ****     /* send mld memberships */
 908:Middlewares/Third_Party/LwIP/src/core/netif.c ****     mld6_report_groups(netif);
 909:Middlewares/Third_Party/LwIP/src/core/netif.c **** #endif /* LWIP_IPV6_MLD */
ARM GAS  /tmp/ccKMFSjT.s 			page 45


 910:Middlewares/Third_Party/LwIP/src/core/netif.c ****   }
 911:Middlewares/Third_Party/LwIP/src/core/netif.c **** #endif /* LWIP_IPV6 */
 912:Middlewares/Third_Party/LwIP/src/core/netif.c **** }
 1570              		.loc 1 912 1
 1571 006e 0837     		adds	r7, r7, #8
 1572              	.LCFI80:
 1573              		.cfi_def_cfa_offset 8
 1574 0070 BD46     		mov	sp, r7
 1575              	.LCFI81:
 1576              		.cfi_def_cfa_register 13
 1577              		@ sp needed
 1578 0072 80BD     		pop	{r7, pc}
 1579              	.L109:
 1580              		.align	2
 1581              	.L108:
 1582 0074 00000000 		.word	.LC0
 1583 0078 A0010000 		.word	.LC13
 1584 007c 4C000000 		.word	.LC2
 1585              		.cfi_endproc
 1586              	.LFE152:
 1588              		.section	.rodata
 1589 01c3 00       		.align	2
 1590              	.LC14:
 1591 01c4 6E657469 		.ascii	"netif_set_down: invalid netif\000"
 1591      665F7365 
 1591      745F646F 
 1591      776E3A20 
 1591      696E7661 
 1592              		.section	.text.netif_set_down,"ax",%progbits
 1593              		.align	1
 1594              		.global	netif_set_down
 1595              		.syntax unified
 1596              		.thumb
 1597              		.thumb_func
 1598              		.fpu fpv4-sp-d16
 1600              	netif_set_down:
 1601              	.LFB153:
 913:Middlewares/Third_Party/LwIP/src/core/netif.c **** 
 914:Middlewares/Third_Party/LwIP/src/core/netif.c **** /**
 915:Middlewares/Third_Party/LwIP/src/core/netif.c ****  * @ingroup netif
 916:Middlewares/Third_Party/LwIP/src/core/netif.c ****  * Bring an interface down, disabling any traffic processing.
 917:Middlewares/Third_Party/LwIP/src/core/netif.c ****  */
 918:Middlewares/Third_Party/LwIP/src/core/netif.c **** void
 919:Middlewares/Third_Party/LwIP/src/core/netif.c **** netif_set_down(struct netif *netif)
 920:Middlewares/Third_Party/LwIP/src/core/netif.c **** {
 1602              		.loc 1 920 1
 1603              		.cfi_startproc
 1604              		@ args = 0, pretend = 0, frame = 8
 1605              		@ frame_needed = 1, uses_anonymous_args = 0
 1606 0000 80B5     		push	{r7, lr}
 1607              	.LCFI82:
 1608              		.cfi_def_cfa_offset 8
 1609              		.cfi_offset 7, -8
 1610              		.cfi_offset 14, -4
 1611 0002 82B0     		sub	sp, sp, #8
 1612              	.LCFI83:
 1613              		.cfi_def_cfa_offset 16
ARM GAS  /tmp/ccKMFSjT.s 			page 46


 1614 0004 00AF     		add	r7, sp, #0
 1615              	.LCFI84:
 1616              		.cfi_def_cfa_register 7
 1617 0006 7860     		str	r0, [r7, #4]
 921:Middlewares/Third_Party/LwIP/src/core/netif.c ****   LWIP_ASSERT_CORE_LOCKED();
 922:Middlewares/Third_Party/LwIP/src/core/netif.c **** 
 923:Middlewares/Third_Party/LwIP/src/core/netif.c ****   LWIP_ERROR("netif_set_down: invalid netif", netif != NULL, return);
 1618              		.loc 1 923 3
 1619 0008 7B68     		ldr	r3, [r7, #4]
 1620 000a 002B     		cmp	r3, #0
 1621 000c 07D1     		bne	.L111
 1622              		.loc 1 923 3 is_stmt 0 discriminator 1
 1623 000e 124B     		ldr	r3, .L113
 1624 0010 40F29B32 		movw	r2, #923
 1625 0014 1149     		ldr	r1, .L113+4
 1626 0016 1248     		ldr	r0, .L113+8
 1627 0018 FFF7FEFF 		bl	printf
 1628 001c 19E0     		b	.L110
 1629              	.L111:
 924:Middlewares/Third_Party/LwIP/src/core/netif.c **** 
 925:Middlewares/Third_Party/LwIP/src/core/netif.c ****   if (netif->flags & NETIF_FLAG_UP) {
 1630              		.loc 1 925 12 is_stmt 1
 1631 001e 7B68     		ldr	r3, [r7, #4]
 1632 0020 93F83130 		ldrb	r3, [r3, #49]	@ zero_extendqisi2
 1633              		.loc 1 925 20
 1634 0024 03F00103 		and	r3, r3, #1
 1635              		.loc 1 925 6
 1636 0028 002B     		cmp	r3, #0
 1637 002a 12D0     		beq	.L110
 926:Middlewares/Third_Party/LwIP/src/core/netif.c **** #if LWIP_NETIF_EXT_STATUS_CALLBACK
 927:Middlewares/Third_Party/LwIP/src/core/netif.c ****     {
 928:Middlewares/Third_Party/LwIP/src/core/netif.c ****       netif_ext_callback_args_t args;
 929:Middlewares/Third_Party/LwIP/src/core/netif.c ****       args.status_changed.state = 0;
 930:Middlewares/Third_Party/LwIP/src/core/netif.c ****       netif_invoke_ext_callback(netif, LWIP_NSC_STATUS_CHANGED, &args);
 931:Middlewares/Third_Party/LwIP/src/core/netif.c ****     }
 932:Middlewares/Third_Party/LwIP/src/core/netif.c **** #endif
 933:Middlewares/Third_Party/LwIP/src/core/netif.c **** 
 934:Middlewares/Third_Party/LwIP/src/core/netif.c ****     netif_clear_flags(netif, NETIF_FLAG_UP);
 1638              		.loc 1 934 5
 1639 002c 7B68     		ldr	r3, [r7, #4]
 1640 002e 93F83130 		ldrb	r3, [r3, #49]	@ zero_extendqisi2
 1641 0032 23F00103 		bic	r3, r3, #1
 1642 0036 DAB2     		uxtb	r2, r3
 1643 0038 7B68     		ldr	r3, [r7, #4]
 1644 003a 83F83120 		strb	r2, [r3, #49]
 935:Middlewares/Third_Party/LwIP/src/core/netif.c ****     MIB2_COPY_SYSUPTIME_TO(&netif->ts);
 936:Middlewares/Third_Party/LwIP/src/core/netif.c **** 
 937:Middlewares/Third_Party/LwIP/src/core/netif.c **** #if LWIP_IPV4 && LWIP_ARP
 938:Middlewares/Third_Party/LwIP/src/core/netif.c ****     if (netif->flags & NETIF_FLAG_ETHARP) {
 1645              		.loc 1 938 14
 1646 003e 7B68     		ldr	r3, [r7, #4]
 1647 0040 93F83130 		ldrb	r3, [r3, #49]	@ zero_extendqisi2
 1648              		.loc 1 938 22
 1649 0044 03F00803 		and	r3, r3, #8
 1650              		.loc 1 938 8
 1651 0048 002B     		cmp	r3, #0
 1652 004a 02D0     		beq	.L110
ARM GAS  /tmp/ccKMFSjT.s 			page 47


 939:Middlewares/Third_Party/LwIP/src/core/netif.c ****       etharp_cleanup_netif(netif);
 1653              		.loc 1 939 7
 1654 004c 7868     		ldr	r0, [r7, #4]
 1655 004e FFF7FEFF 		bl	etharp_cleanup_netif
 1656              	.L110:
 940:Middlewares/Third_Party/LwIP/src/core/netif.c ****     }
 941:Middlewares/Third_Party/LwIP/src/core/netif.c **** #endif /* LWIP_IPV4 && LWIP_ARP */
 942:Middlewares/Third_Party/LwIP/src/core/netif.c **** 
 943:Middlewares/Third_Party/LwIP/src/core/netif.c **** #if LWIP_IPV6
 944:Middlewares/Third_Party/LwIP/src/core/netif.c ****     nd6_cleanup_netif(netif);
 945:Middlewares/Third_Party/LwIP/src/core/netif.c **** #endif /* LWIP_IPV6 */
 946:Middlewares/Third_Party/LwIP/src/core/netif.c **** 
 947:Middlewares/Third_Party/LwIP/src/core/netif.c ****     NETIF_STATUS_CALLBACK(netif);
 948:Middlewares/Third_Party/LwIP/src/core/netif.c ****   }
 949:Middlewares/Third_Party/LwIP/src/core/netif.c **** }
 1657              		.loc 1 949 1
 1658 0052 0837     		adds	r7, r7, #8
 1659              	.LCFI85:
 1660              		.cfi_def_cfa_offset 8
 1661 0054 BD46     		mov	sp, r7
 1662              	.LCFI86:
 1663              		.cfi_def_cfa_register 13
 1664              		@ sp needed
 1665 0056 80BD     		pop	{r7, pc}
 1666              	.L114:
 1667              		.align	2
 1668              	.L113:
 1669 0058 00000000 		.word	.LC0
 1670 005c C4010000 		.word	.LC14
 1671 0060 4C000000 		.word	.LC2
 1672              		.cfi_endproc
 1673              	.LFE153:
 1675              		.section	.rodata
 1676 01e2 0000     		.align	2
 1677              	.LC15:
 1678 01e4 6E657469 		.ascii	"netif_set_link_up: invalid netif\000"
 1678      665F7365 
 1678      745F6C69 
 1678      6E6B5F75 
 1678      703A2069 
 1679              		.section	.text.netif_set_link_up,"ax",%progbits
 1680              		.align	1
 1681              		.global	netif_set_link_up
 1682              		.syntax unified
 1683              		.thumb
 1684              		.thumb_func
 1685              		.fpu fpv4-sp-d16
 1687              	netif_set_link_up:
 1688              	.LFB154:
 950:Middlewares/Third_Party/LwIP/src/core/netif.c **** 
 951:Middlewares/Third_Party/LwIP/src/core/netif.c **** #if LWIP_NETIF_STATUS_CALLBACK
 952:Middlewares/Third_Party/LwIP/src/core/netif.c **** /**
 953:Middlewares/Third_Party/LwIP/src/core/netif.c ****  * @ingroup netif
 954:Middlewares/Third_Party/LwIP/src/core/netif.c ****  * Set callback to be called when interface is brought up/down or address is changed while up
 955:Middlewares/Third_Party/LwIP/src/core/netif.c ****  */
 956:Middlewares/Third_Party/LwIP/src/core/netif.c **** void
 957:Middlewares/Third_Party/LwIP/src/core/netif.c **** netif_set_status_callback(struct netif *netif, netif_status_callback_fn status_callback)
ARM GAS  /tmp/ccKMFSjT.s 			page 48


 958:Middlewares/Third_Party/LwIP/src/core/netif.c **** {
 959:Middlewares/Third_Party/LwIP/src/core/netif.c ****   LWIP_ASSERT_CORE_LOCKED();
 960:Middlewares/Third_Party/LwIP/src/core/netif.c **** 
 961:Middlewares/Third_Party/LwIP/src/core/netif.c ****   if (netif) {
 962:Middlewares/Third_Party/LwIP/src/core/netif.c ****     netif->status_callback = status_callback;
 963:Middlewares/Third_Party/LwIP/src/core/netif.c ****   }
 964:Middlewares/Third_Party/LwIP/src/core/netif.c **** }
 965:Middlewares/Third_Party/LwIP/src/core/netif.c **** #endif /* LWIP_NETIF_STATUS_CALLBACK */
 966:Middlewares/Third_Party/LwIP/src/core/netif.c **** 
 967:Middlewares/Third_Party/LwIP/src/core/netif.c **** #if LWIP_NETIF_REMOVE_CALLBACK
 968:Middlewares/Third_Party/LwIP/src/core/netif.c **** /**
 969:Middlewares/Third_Party/LwIP/src/core/netif.c ****  * @ingroup netif
 970:Middlewares/Third_Party/LwIP/src/core/netif.c ****  * Set callback to be called when the interface has been removed
 971:Middlewares/Third_Party/LwIP/src/core/netif.c ****  */
 972:Middlewares/Third_Party/LwIP/src/core/netif.c **** void
 973:Middlewares/Third_Party/LwIP/src/core/netif.c **** netif_set_remove_callback(struct netif *netif, netif_status_callback_fn remove_callback)
 974:Middlewares/Third_Party/LwIP/src/core/netif.c **** {
 975:Middlewares/Third_Party/LwIP/src/core/netif.c ****   LWIP_ASSERT_CORE_LOCKED();
 976:Middlewares/Third_Party/LwIP/src/core/netif.c **** 
 977:Middlewares/Third_Party/LwIP/src/core/netif.c ****   if (netif) {
 978:Middlewares/Third_Party/LwIP/src/core/netif.c ****     netif->remove_callback = remove_callback;
 979:Middlewares/Third_Party/LwIP/src/core/netif.c ****   }
 980:Middlewares/Third_Party/LwIP/src/core/netif.c **** }
 981:Middlewares/Third_Party/LwIP/src/core/netif.c **** #endif /* LWIP_NETIF_REMOVE_CALLBACK */
 982:Middlewares/Third_Party/LwIP/src/core/netif.c **** 
 983:Middlewares/Third_Party/LwIP/src/core/netif.c **** /**
 984:Middlewares/Third_Party/LwIP/src/core/netif.c ****  * @ingroup netif
 985:Middlewares/Third_Party/LwIP/src/core/netif.c ****  * Called by a driver when its link goes up
 986:Middlewares/Third_Party/LwIP/src/core/netif.c ****  */
 987:Middlewares/Third_Party/LwIP/src/core/netif.c **** void
 988:Middlewares/Third_Party/LwIP/src/core/netif.c **** netif_set_link_up(struct netif *netif)
 989:Middlewares/Third_Party/LwIP/src/core/netif.c **** {
 1689              		.loc 1 989 1
 1690              		.cfi_startproc
 1691              		@ args = 0, pretend = 0, frame = 8
 1692              		@ frame_needed = 1, uses_anonymous_args = 0
 1693 0000 80B5     		push	{r7, lr}
 1694              	.LCFI87:
 1695              		.cfi_def_cfa_offset 8
 1696              		.cfi_offset 7, -8
 1697              		.cfi_offset 14, -4
 1698 0002 82B0     		sub	sp, sp, #8
 1699              	.LCFI88:
 1700              		.cfi_def_cfa_offset 16
 1701 0004 00AF     		add	r7, sp, #0
 1702              	.LCFI89:
 1703              		.cfi_def_cfa_register 7
 1704 0006 7860     		str	r0, [r7, #4]
 990:Middlewares/Third_Party/LwIP/src/core/netif.c ****   LWIP_ASSERT_CORE_LOCKED();
 991:Middlewares/Third_Party/LwIP/src/core/netif.c **** 
 992:Middlewares/Third_Party/LwIP/src/core/netif.c ****   LWIP_ERROR("netif_set_link_up: invalid netif", netif != NULL, return);
 1705              		.loc 1 992 3
 1706 0008 7B68     		ldr	r3, [r7, #4]
 1707 000a 002B     		cmp	r3, #0
 1708 000c 07D1     		bne	.L116
 1709              		.loc 1 992 3 is_stmt 0 discriminator 1
 1710 000e 154B     		ldr	r3, .L118
ARM GAS  /tmp/ccKMFSjT.s 			page 49


 1711 0010 4FF47872 		mov	r2, #992
 1712 0014 1449     		ldr	r1, .L118+4
 1713 0016 1548     		ldr	r0, .L118+8
 1714 0018 FFF7FEFF 		bl	printf
 1715 001c 1EE0     		b	.L115
 1716              	.L116:
 993:Middlewares/Third_Party/LwIP/src/core/netif.c **** 
 994:Middlewares/Third_Party/LwIP/src/core/netif.c ****   if (!(netif->flags & NETIF_FLAG_LINK_UP)) {
 1717              		.loc 1 994 14 is_stmt 1
 1718 001e 7B68     		ldr	r3, [r7, #4]
 1719 0020 93F83130 		ldrb	r3, [r3, #49]	@ zero_extendqisi2
 1720              		.loc 1 994 22
 1721 0024 03F00403 		and	r3, r3, #4
 1722              		.loc 1 994 6
 1723 0028 002B     		cmp	r3, #0
 1724 002a 17D1     		bne	.L115
 995:Middlewares/Third_Party/LwIP/src/core/netif.c ****     netif_set_flags(netif, NETIF_FLAG_LINK_UP);
 1725              		.loc 1 995 5
 1726 002c 7B68     		ldr	r3, [r7, #4]
 1727 002e 93F83130 		ldrb	r3, [r3, #49]	@ zero_extendqisi2
 1728 0032 43F00403 		orr	r3, r3, #4
 1729 0036 DAB2     		uxtb	r2, r3
 1730 0038 7B68     		ldr	r3, [r7, #4]
 1731 003a 83F83120 		strb	r2, [r3, #49]
 996:Middlewares/Third_Party/LwIP/src/core/netif.c **** 
 997:Middlewares/Third_Party/LwIP/src/core/netif.c **** #if LWIP_DHCP
 998:Middlewares/Third_Party/LwIP/src/core/netif.c ****     dhcp_network_changed(netif);
 1732              		.loc 1 998 5
 1733 003e 7868     		ldr	r0, [r7, #4]
 1734 0040 FFF7FEFF 		bl	dhcp_network_changed
 999:Middlewares/Third_Party/LwIP/src/core/netif.c **** #endif /* LWIP_DHCP */
1000:Middlewares/Third_Party/LwIP/src/core/netif.c **** 
1001:Middlewares/Third_Party/LwIP/src/core/netif.c **** #if LWIP_AUTOIP
1002:Middlewares/Third_Party/LwIP/src/core/netif.c ****     autoip_network_changed(netif);
1003:Middlewares/Third_Party/LwIP/src/core/netif.c **** #endif /* LWIP_AUTOIP */
1004:Middlewares/Third_Party/LwIP/src/core/netif.c **** 
1005:Middlewares/Third_Party/LwIP/src/core/netif.c ****     netif_issue_reports(netif, NETIF_REPORT_TYPE_IPV4 | NETIF_REPORT_TYPE_IPV6);
 1735              		.loc 1 1005 5
 1736 0044 0321     		movs	r1, #3
 1737 0046 7868     		ldr	r0, [r7, #4]
 1738 0048 FFF7FEFF 		bl	netif_issue_reports
1006:Middlewares/Third_Party/LwIP/src/core/netif.c **** #if LWIP_IPV6
1007:Middlewares/Third_Party/LwIP/src/core/netif.c ****     nd6_restart_netif(netif);
1008:Middlewares/Third_Party/LwIP/src/core/netif.c **** #endif /* LWIP_IPV6 */
1009:Middlewares/Third_Party/LwIP/src/core/netif.c **** 
1010:Middlewares/Third_Party/LwIP/src/core/netif.c ****     NETIF_LINK_CALLBACK(netif);
 1739              		.loc 1 1010 5
 1740 004c 7B68     		ldr	r3, [r7, #4]
 1741 004e DB69     		ldr	r3, [r3, #28]
 1742 0050 002B     		cmp	r3, #0
 1743 0052 03D0     		beq	.L115
 1744              		.loc 1 1010 5 is_stmt 0 discriminator 1
 1745 0054 7B68     		ldr	r3, [r7, #4]
 1746 0056 DB69     		ldr	r3, [r3, #28]
 1747 0058 7868     		ldr	r0, [r7, #4]
 1748 005a 9847     		blx	r3
 1749              	.LVL1:
ARM GAS  /tmp/ccKMFSjT.s 			page 50


 1750              	.L115:
1011:Middlewares/Third_Party/LwIP/src/core/netif.c **** #if LWIP_NETIF_EXT_STATUS_CALLBACK
1012:Middlewares/Third_Party/LwIP/src/core/netif.c ****     {
1013:Middlewares/Third_Party/LwIP/src/core/netif.c ****       netif_ext_callback_args_t args;
1014:Middlewares/Third_Party/LwIP/src/core/netif.c ****       args.link_changed.state = 1;
1015:Middlewares/Third_Party/LwIP/src/core/netif.c ****       netif_invoke_ext_callback(netif, LWIP_NSC_LINK_CHANGED, &args);
1016:Middlewares/Third_Party/LwIP/src/core/netif.c ****     }
1017:Middlewares/Third_Party/LwIP/src/core/netif.c **** #endif
1018:Middlewares/Third_Party/LwIP/src/core/netif.c ****   }
1019:Middlewares/Third_Party/LwIP/src/core/netif.c **** }
 1751              		.loc 1 1019 1 is_stmt 1
 1752 005c 0837     		adds	r7, r7, #8
 1753              	.LCFI90:
 1754              		.cfi_def_cfa_offset 8
 1755 005e BD46     		mov	sp, r7
 1756              	.LCFI91:
 1757              		.cfi_def_cfa_register 13
 1758              		@ sp needed
 1759 0060 80BD     		pop	{r7, pc}
 1760              	.L119:
 1761 0062 00BF     		.align	2
 1762              	.L118:
 1763 0064 00000000 		.word	.LC0
 1764 0068 E4010000 		.word	.LC15
 1765 006c 4C000000 		.word	.LC2
 1766              		.cfi_endproc
 1767              	.LFE154:
 1769              		.section	.rodata
 1770 0205 000000   		.align	2
 1771              	.LC16:
 1772 0208 6E657469 		.ascii	"netif_set_link_down: invalid netif\000"
 1772      665F7365 
 1772      745F6C69 
 1772      6E6B5F64 
 1772      6F776E3A 
 1773              		.section	.text.netif_set_link_down,"ax",%progbits
 1774              		.align	1
 1775              		.global	netif_set_link_down
 1776              		.syntax unified
 1777              		.thumb
 1778              		.thumb_func
 1779              		.fpu fpv4-sp-d16
 1781              	netif_set_link_down:
 1782              	.LFB155:
1020:Middlewares/Third_Party/LwIP/src/core/netif.c **** 
1021:Middlewares/Third_Party/LwIP/src/core/netif.c **** /**
1022:Middlewares/Third_Party/LwIP/src/core/netif.c ****  * @ingroup netif
1023:Middlewares/Third_Party/LwIP/src/core/netif.c ****  * Called by a driver when its link goes down
1024:Middlewares/Third_Party/LwIP/src/core/netif.c ****  */
1025:Middlewares/Third_Party/LwIP/src/core/netif.c **** void
1026:Middlewares/Third_Party/LwIP/src/core/netif.c **** netif_set_link_down(struct netif *netif)
1027:Middlewares/Third_Party/LwIP/src/core/netif.c **** {
 1783              		.loc 1 1027 1
 1784              		.cfi_startproc
 1785              		@ args = 0, pretend = 0, frame = 8
 1786              		@ frame_needed = 1, uses_anonymous_args = 0
 1787 0000 80B5     		push	{r7, lr}
ARM GAS  /tmp/ccKMFSjT.s 			page 51


 1788              	.LCFI92:
 1789              		.cfi_def_cfa_offset 8
 1790              		.cfi_offset 7, -8
 1791              		.cfi_offset 14, -4
 1792 0002 82B0     		sub	sp, sp, #8
 1793              	.LCFI93:
 1794              		.cfi_def_cfa_offset 16
 1795 0004 00AF     		add	r7, sp, #0
 1796              	.LCFI94:
 1797              		.cfi_def_cfa_register 7
 1798 0006 7860     		str	r0, [r7, #4]
1028:Middlewares/Third_Party/LwIP/src/core/netif.c ****   LWIP_ASSERT_CORE_LOCKED();
1029:Middlewares/Third_Party/LwIP/src/core/netif.c **** 
1030:Middlewares/Third_Party/LwIP/src/core/netif.c ****   LWIP_ERROR("netif_set_link_down: invalid netif", netif != NULL, return);
 1799              		.loc 1 1030 3
 1800 0008 7B68     		ldr	r3, [r7, #4]
 1801 000a 002B     		cmp	r3, #0
 1802 000c 07D1     		bne	.L121
 1803              		.loc 1 1030 3 is_stmt 0 discriminator 1
 1804 000e 114B     		ldr	r3, .L123
 1805 0010 40F20642 		movw	r2, #1030
 1806 0014 1049     		ldr	r1, .L123+4
 1807 0016 1148     		ldr	r0, .L123+8
 1808 0018 FFF7FEFF 		bl	printf
 1809 001c 17E0     		b	.L120
 1810              	.L121:
1031:Middlewares/Third_Party/LwIP/src/core/netif.c **** 
1032:Middlewares/Third_Party/LwIP/src/core/netif.c ****   if (netif->flags & NETIF_FLAG_LINK_UP) {
 1811              		.loc 1 1032 12 is_stmt 1
 1812 001e 7B68     		ldr	r3, [r7, #4]
 1813 0020 93F83130 		ldrb	r3, [r3, #49]	@ zero_extendqisi2
 1814              		.loc 1 1032 20
 1815 0024 03F00403 		and	r3, r3, #4
 1816              		.loc 1 1032 6
 1817 0028 002B     		cmp	r3, #0
 1818 002a 10D0     		beq	.L120
1033:Middlewares/Third_Party/LwIP/src/core/netif.c ****     netif_clear_flags(netif, NETIF_FLAG_LINK_UP);
 1819              		.loc 1 1033 5
 1820 002c 7B68     		ldr	r3, [r7, #4]
 1821 002e 93F83130 		ldrb	r3, [r3, #49]	@ zero_extendqisi2
 1822 0032 23F00403 		bic	r3, r3, #4
 1823 0036 DAB2     		uxtb	r2, r3
 1824 0038 7B68     		ldr	r3, [r7, #4]
 1825 003a 83F83120 		strb	r2, [r3, #49]
1034:Middlewares/Third_Party/LwIP/src/core/netif.c ****     NETIF_LINK_CALLBACK(netif);
 1826              		.loc 1 1034 5
 1827 003e 7B68     		ldr	r3, [r7, #4]
 1828 0040 DB69     		ldr	r3, [r3, #28]
 1829 0042 002B     		cmp	r3, #0
 1830 0044 03D0     		beq	.L120
 1831              		.loc 1 1034 5 is_stmt 0 discriminator 1
 1832 0046 7B68     		ldr	r3, [r7, #4]
 1833 0048 DB69     		ldr	r3, [r3, #28]
 1834 004a 7868     		ldr	r0, [r7, #4]
 1835 004c 9847     		blx	r3
 1836              	.LVL2:
 1837              	.L120:
ARM GAS  /tmp/ccKMFSjT.s 			page 52


1035:Middlewares/Third_Party/LwIP/src/core/netif.c **** #if LWIP_NETIF_EXT_STATUS_CALLBACK
1036:Middlewares/Third_Party/LwIP/src/core/netif.c ****     {
1037:Middlewares/Third_Party/LwIP/src/core/netif.c ****       netif_ext_callback_args_t args;
1038:Middlewares/Third_Party/LwIP/src/core/netif.c ****       args.link_changed.state = 0;
1039:Middlewares/Third_Party/LwIP/src/core/netif.c ****       netif_invoke_ext_callback(netif, LWIP_NSC_LINK_CHANGED, &args);
1040:Middlewares/Third_Party/LwIP/src/core/netif.c ****     }
1041:Middlewares/Third_Party/LwIP/src/core/netif.c **** #endif
1042:Middlewares/Third_Party/LwIP/src/core/netif.c ****   }
1043:Middlewares/Third_Party/LwIP/src/core/netif.c **** }
 1838              		.loc 1 1043 1 is_stmt 1
 1839 004e 0837     		adds	r7, r7, #8
 1840              	.LCFI95:
 1841              		.cfi_def_cfa_offset 8
 1842 0050 BD46     		mov	sp, r7
 1843              	.LCFI96:
 1844              		.cfi_def_cfa_register 13
 1845              		@ sp needed
 1846 0052 80BD     		pop	{r7, pc}
 1847              	.L124:
 1848              		.align	2
 1849              	.L123:
 1850 0054 00000000 		.word	.LC0
 1851 0058 08020000 		.word	.LC16
 1852 005c 4C000000 		.word	.LC2
 1853              		.cfi_endproc
 1854              	.LFE155:
 1856              		.section	.text.netif_set_link_callback,"ax",%progbits
 1857              		.align	1
 1858              		.global	netif_set_link_callback
 1859              		.syntax unified
 1860              		.thumb
 1861              		.thumb_func
 1862              		.fpu fpv4-sp-d16
 1864              	netif_set_link_callback:
 1865              	.LFB156:
1044:Middlewares/Third_Party/LwIP/src/core/netif.c **** 
1045:Middlewares/Third_Party/LwIP/src/core/netif.c **** #if LWIP_NETIF_LINK_CALLBACK
1046:Middlewares/Third_Party/LwIP/src/core/netif.c **** /**
1047:Middlewares/Third_Party/LwIP/src/core/netif.c ****  * @ingroup netif
1048:Middlewares/Third_Party/LwIP/src/core/netif.c ****  * Set callback to be called when link is brought up/down
1049:Middlewares/Third_Party/LwIP/src/core/netif.c ****  */
1050:Middlewares/Third_Party/LwIP/src/core/netif.c **** void
1051:Middlewares/Third_Party/LwIP/src/core/netif.c **** netif_set_link_callback(struct netif *netif, netif_status_callback_fn link_callback)
1052:Middlewares/Third_Party/LwIP/src/core/netif.c **** {
 1866              		.loc 1 1052 1
 1867              		.cfi_startproc
 1868              		@ args = 0, pretend = 0, frame = 8
 1869              		@ frame_needed = 1, uses_anonymous_args = 0
 1870              		@ link register save eliminated.
 1871 0000 80B4     		push	{r7}
 1872              	.LCFI97:
 1873              		.cfi_def_cfa_offset 4
 1874              		.cfi_offset 7, -4
 1875 0002 83B0     		sub	sp, sp, #12
 1876              	.LCFI98:
 1877              		.cfi_def_cfa_offset 16
 1878 0004 00AF     		add	r7, sp, #0
ARM GAS  /tmp/ccKMFSjT.s 			page 53


 1879              	.LCFI99:
 1880              		.cfi_def_cfa_register 7
 1881 0006 7860     		str	r0, [r7, #4]
 1882 0008 3960     		str	r1, [r7]
1053:Middlewares/Third_Party/LwIP/src/core/netif.c ****   LWIP_ASSERT_CORE_LOCKED();
1054:Middlewares/Third_Party/LwIP/src/core/netif.c **** 
1055:Middlewares/Third_Party/LwIP/src/core/netif.c ****   if (netif) {
 1883              		.loc 1 1055 6
 1884 000a 7B68     		ldr	r3, [r7, #4]
 1885 000c 002B     		cmp	r3, #0
 1886 000e 02D0     		beq	.L127
1056:Middlewares/Third_Party/LwIP/src/core/netif.c ****     netif->link_callback = link_callback;
 1887              		.loc 1 1056 26
 1888 0010 7B68     		ldr	r3, [r7, #4]
 1889 0012 3A68     		ldr	r2, [r7]
 1890 0014 DA61     		str	r2, [r3, #28]
 1891              	.L127:
1057:Middlewares/Third_Party/LwIP/src/core/netif.c ****   }
1058:Middlewares/Third_Party/LwIP/src/core/netif.c **** }
 1892              		.loc 1 1058 1
 1893 0016 00BF     		nop
 1894 0018 0C37     		adds	r7, r7, #12
 1895              	.LCFI100:
 1896              		.cfi_def_cfa_offset 4
 1897 001a BD46     		mov	sp, r7
 1898              	.LCFI101:
 1899              		.cfi_def_cfa_register 13
 1900              		@ sp needed
 1901 001c 5DF8047B 		ldr	r7, [sp], #4
 1902              	.LCFI102:
 1903              		.cfi_restore 7
 1904              		.cfi_def_cfa_offset 0
 1905 0020 7047     		bx	lr
 1906              		.cfi_endproc
 1907              	.LFE156:
 1909              		.section	.text.netif_null_output_ip4,"ax",%progbits
 1910              		.align	1
 1911              		.syntax unified
 1912              		.thumb
 1913              		.thumb_func
 1914              		.fpu fpv4-sp-d16
 1916              	netif_null_output_ip4:
 1917              	.LFB157:
1059:Middlewares/Third_Party/LwIP/src/core/netif.c **** #endif /* LWIP_NETIF_LINK_CALLBACK */
1060:Middlewares/Third_Party/LwIP/src/core/netif.c **** 
1061:Middlewares/Third_Party/LwIP/src/core/netif.c **** #if ENABLE_LOOPBACK
1062:Middlewares/Third_Party/LwIP/src/core/netif.c **** /**
1063:Middlewares/Third_Party/LwIP/src/core/netif.c ****  * @ingroup netif
1064:Middlewares/Third_Party/LwIP/src/core/netif.c ****  * Send an IP packet to be received on the same netif (loopif-like).
1065:Middlewares/Third_Party/LwIP/src/core/netif.c ****  * The pbuf is simply copied and handed back to netif->input.
1066:Middlewares/Third_Party/LwIP/src/core/netif.c ****  * In multithreaded mode, this is done directly since netif->input must put
1067:Middlewares/Third_Party/LwIP/src/core/netif.c ****  * the packet on a queue.
1068:Middlewares/Third_Party/LwIP/src/core/netif.c ****  * In callback mode, the packet is put on an internal queue and is fed to
1069:Middlewares/Third_Party/LwIP/src/core/netif.c ****  * netif->input by netif_poll().
1070:Middlewares/Third_Party/LwIP/src/core/netif.c ****  *
1071:Middlewares/Third_Party/LwIP/src/core/netif.c ****  * @param netif the lwip network interface structure
1072:Middlewares/Third_Party/LwIP/src/core/netif.c ****  * @param p the (IP) packet to 'send'
ARM GAS  /tmp/ccKMFSjT.s 			page 54


1073:Middlewares/Third_Party/LwIP/src/core/netif.c ****  * @return ERR_OK if the packet has been sent
1074:Middlewares/Third_Party/LwIP/src/core/netif.c ****  *         ERR_MEM if the pbuf used to copy the packet couldn't be allocated
1075:Middlewares/Third_Party/LwIP/src/core/netif.c ****  */
1076:Middlewares/Third_Party/LwIP/src/core/netif.c **** err_t
1077:Middlewares/Third_Party/LwIP/src/core/netif.c **** netif_loop_output(struct netif *netif, struct pbuf *p)
1078:Middlewares/Third_Party/LwIP/src/core/netif.c **** {
1079:Middlewares/Third_Party/LwIP/src/core/netif.c ****   struct pbuf *r;
1080:Middlewares/Third_Party/LwIP/src/core/netif.c ****   err_t err;
1081:Middlewares/Third_Party/LwIP/src/core/netif.c ****   struct pbuf *last;
1082:Middlewares/Third_Party/LwIP/src/core/netif.c **** #if LWIP_LOOPBACK_MAX_PBUFS
1083:Middlewares/Third_Party/LwIP/src/core/netif.c ****   u16_t clen = 0;
1084:Middlewares/Third_Party/LwIP/src/core/netif.c **** #endif /* LWIP_LOOPBACK_MAX_PBUFS */
1085:Middlewares/Third_Party/LwIP/src/core/netif.c ****   /* If we have a loopif, SNMP counters are adjusted for it,
1086:Middlewares/Third_Party/LwIP/src/core/netif.c ****    * if not they are adjusted for 'netif'. */
1087:Middlewares/Third_Party/LwIP/src/core/netif.c **** #if MIB2_STATS
1088:Middlewares/Third_Party/LwIP/src/core/netif.c **** #if LWIP_HAVE_LOOPIF
1089:Middlewares/Third_Party/LwIP/src/core/netif.c ****   struct netif *stats_if = &loop_netif;
1090:Middlewares/Third_Party/LwIP/src/core/netif.c **** #else /* LWIP_HAVE_LOOPIF */
1091:Middlewares/Third_Party/LwIP/src/core/netif.c ****   struct netif *stats_if = netif;
1092:Middlewares/Third_Party/LwIP/src/core/netif.c **** #endif /* LWIP_HAVE_LOOPIF */
1093:Middlewares/Third_Party/LwIP/src/core/netif.c **** #endif /* MIB2_STATS */
1094:Middlewares/Third_Party/LwIP/src/core/netif.c **** #if LWIP_NETIF_LOOPBACK_MULTITHREADING
1095:Middlewares/Third_Party/LwIP/src/core/netif.c ****   u8_t schedule_poll = 0;
1096:Middlewares/Third_Party/LwIP/src/core/netif.c **** #endif /* LWIP_NETIF_LOOPBACK_MULTITHREADING */
1097:Middlewares/Third_Party/LwIP/src/core/netif.c ****   SYS_ARCH_DECL_PROTECT(lev);
1098:Middlewares/Third_Party/LwIP/src/core/netif.c **** 
1099:Middlewares/Third_Party/LwIP/src/core/netif.c ****   LWIP_ASSERT("netif_loop_output: invalid netif", netif != NULL);
1100:Middlewares/Third_Party/LwIP/src/core/netif.c ****   LWIP_ASSERT("netif_loop_output: invalid pbuf", p != NULL);
1101:Middlewares/Third_Party/LwIP/src/core/netif.c **** 
1102:Middlewares/Third_Party/LwIP/src/core/netif.c ****   /* Allocate a new pbuf */
1103:Middlewares/Third_Party/LwIP/src/core/netif.c ****   r = pbuf_alloc(PBUF_LINK, p->tot_len, PBUF_RAM);
1104:Middlewares/Third_Party/LwIP/src/core/netif.c ****   if (r == NULL) {
1105:Middlewares/Third_Party/LwIP/src/core/netif.c ****     LINK_STATS_INC(link.memerr);
1106:Middlewares/Third_Party/LwIP/src/core/netif.c ****     LINK_STATS_INC(link.drop);
1107:Middlewares/Third_Party/LwIP/src/core/netif.c ****     MIB2_STATS_NETIF_INC(stats_if, ifoutdiscards);
1108:Middlewares/Third_Party/LwIP/src/core/netif.c ****     return ERR_MEM;
1109:Middlewares/Third_Party/LwIP/src/core/netif.c ****   }
1110:Middlewares/Third_Party/LwIP/src/core/netif.c **** #if LWIP_LOOPBACK_MAX_PBUFS
1111:Middlewares/Third_Party/LwIP/src/core/netif.c ****   clen = pbuf_clen(r);
1112:Middlewares/Third_Party/LwIP/src/core/netif.c ****   /* check for overflow or too many pbuf on queue */
1113:Middlewares/Third_Party/LwIP/src/core/netif.c ****   if (((netif->loop_cnt_current + clen) < netif->loop_cnt_current) ||
1114:Middlewares/Third_Party/LwIP/src/core/netif.c ****       ((netif->loop_cnt_current + clen) > LWIP_MIN(LWIP_LOOPBACK_MAX_PBUFS, 0xFFFF))) {
1115:Middlewares/Third_Party/LwIP/src/core/netif.c ****     pbuf_free(r);
1116:Middlewares/Third_Party/LwIP/src/core/netif.c ****     LINK_STATS_INC(link.memerr);
1117:Middlewares/Third_Party/LwIP/src/core/netif.c ****     LINK_STATS_INC(link.drop);
1118:Middlewares/Third_Party/LwIP/src/core/netif.c ****     MIB2_STATS_NETIF_INC(stats_if, ifoutdiscards);
1119:Middlewares/Third_Party/LwIP/src/core/netif.c ****     return ERR_MEM;
1120:Middlewares/Third_Party/LwIP/src/core/netif.c ****   }
1121:Middlewares/Third_Party/LwIP/src/core/netif.c ****   netif->loop_cnt_current = (u16_t)(netif->loop_cnt_current + clen);
1122:Middlewares/Third_Party/LwIP/src/core/netif.c **** #endif /* LWIP_LOOPBACK_MAX_PBUFS */
1123:Middlewares/Third_Party/LwIP/src/core/netif.c **** 
1124:Middlewares/Third_Party/LwIP/src/core/netif.c ****   /* Copy the whole pbuf queue p into the single pbuf r */
1125:Middlewares/Third_Party/LwIP/src/core/netif.c ****   if ((err = pbuf_copy(r, p)) != ERR_OK) {
1126:Middlewares/Third_Party/LwIP/src/core/netif.c ****     pbuf_free(r);
1127:Middlewares/Third_Party/LwIP/src/core/netif.c ****     LINK_STATS_INC(link.memerr);
1128:Middlewares/Third_Party/LwIP/src/core/netif.c ****     LINK_STATS_INC(link.drop);
1129:Middlewares/Third_Party/LwIP/src/core/netif.c ****     MIB2_STATS_NETIF_INC(stats_if, ifoutdiscards);
ARM GAS  /tmp/ccKMFSjT.s 			page 55


1130:Middlewares/Third_Party/LwIP/src/core/netif.c ****     return err;
1131:Middlewares/Third_Party/LwIP/src/core/netif.c ****   }
1132:Middlewares/Third_Party/LwIP/src/core/netif.c **** 
1133:Middlewares/Third_Party/LwIP/src/core/netif.c ****   /* Put the packet on a linked list which gets emptied through calling
1134:Middlewares/Third_Party/LwIP/src/core/netif.c ****      netif_poll(). */
1135:Middlewares/Third_Party/LwIP/src/core/netif.c **** 
1136:Middlewares/Third_Party/LwIP/src/core/netif.c ****   /* let last point to the last pbuf in chain r */
1137:Middlewares/Third_Party/LwIP/src/core/netif.c ****   for (last = r; last->next != NULL; last = last->next) {
1138:Middlewares/Third_Party/LwIP/src/core/netif.c ****     /* nothing to do here, just get to the last pbuf */
1139:Middlewares/Third_Party/LwIP/src/core/netif.c ****   }
1140:Middlewares/Third_Party/LwIP/src/core/netif.c **** 
1141:Middlewares/Third_Party/LwIP/src/core/netif.c ****   SYS_ARCH_PROTECT(lev);
1142:Middlewares/Third_Party/LwIP/src/core/netif.c ****   if (netif->loop_first != NULL) {
1143:Middlewares/Third_Party/LwIP/src/core/netif.c ****     LWIP_ASSERT("if first != NULL, last must also be != NULL", netif->loop_last != NULL);
1144:Middlewares/Third_Party/LwIP/src/core/netif.c ****     netif->loop_last->next = r;
1145:Middlewares/Third_Party/LwIP/src/core/netif.c ****     netif->loop_last = last;
1146:Middlewares/Third_Party/LwIP/src/core/netif.c ****   } else {
1147:Middlewares/Third_Party/LwIP/src/core/netif.c ****     netif->loop_first = r;
1148:Middlewares/Third_Party/LwIP/src/core/netif.c ****     netif->loop_last = last;
1149:Middlewares/Third_Party/LwIP/src/core/netif.c **** #if LWIP_NETIF_LOOPBACK_MULTITHREADING
1150:Middlewares/Third_Party/LwIP/src/core/netif.c ****     /* No existing packets queued, schedule poll */
1151:Middlewares/Third_Party/LwIP/src/core/netif.c ****     schedule_poll = 1;
1152:Middlewares/Third_Party/LwIP/src/core/netif.c **** #endif /* LWIP_NETIF_LOOPBACK_MULTITHREADING */
1153:Middlewares/Third_Party/LwIP/src/core/netif.c ****   }
1154:Middlewares/Third_Party/LwIP/src/core/netif.c ****   SYS_ARCH_UNPROTECT(lev);
1155:Middlewares/Third_Party/LwIP/src/core/netif.c **** 
1156:Middlewares/Third_Party/LwIP/src/core/netif.c ****   LINK_STATS_INC(link.xmit);
1157:Middlewares/Third_Party/LwIP/src/core/netif.c ****   MIB2_STATS_NETIF_ADD(stats_if, ifoutoctets, p->tot_len);
1158:Middlewares/Third_Party/LwIP/src/core/netif.c ****   MIB2_STATS_NETIF_INC(stats_if, ifoutucastpkts);
1159:Middlewares/Third_Party/LwIP/src/core/netif.c **** 
1160:Middlewares/Third_Party/LwIP/src/core/netif.c **** #if LWIP_NETIF_LOOPBACK_MULTITHREADING
1161:Middlewares/Third_Party/LwIP/src/core/netif.c ****   /* For multithreading environment, schedule a call to netif_poll */
1162:Middlewares/Third_Party/LwIP/src/core/netif.c ****   if (schedule_poll) {
1163:Middlewares/Third_Party/LwIP/src/core/netif.c ****     tcpip_try_callback((tcpip_callback_fn)netif_poll, netif);
1164:Middlewares/Third_Party/LwIP/src/core/netif.c ****   }
1165:Middlewares/Third_Party/LwIP/src/core/netif.c **** #endif /* LWIP_NETIF_LOOPBACK_MULTITHREADING */
1166:Middlewares/Third_Party/LwIP/src/core/netif.c **** 
1167:Middlewares/Third_Party/LwIP/src/core/netif.c ****   return ERR_OK;
1168:Middlewares/Third_Party/LwIP/src/core/netif.c **** }
1169:Middlewares/Third_Party/LwIP/src/core/netif.c **** 
1170:Middlewares/Third_Party/LwIP/src/core/netif.c **** #if LWIP_HAVE_LOOPIF
1171:Middlewares/Third_Party/LwIP/src/core/netif.c **** #if LWIP_IPV4
1172:Middlewares/Third_Party/LwIP/src/core/netif.c **** static err_t
1173:Middlewares/Third_Party/LwIP/src/core/netif.c **** netif_loop_output_ipv4(struct netif *netif, struct pbuf *p, const ip4_addr_t *addr)
1174:Middlewares/Third_Party/LwIP/src/core/netif.c **** {
1175:Middlewares/Third_Party/LwIP/src/core/netif.c ****   LWIP_UNUSED_ARG(addr);
1176:Middlewares/Third_Party/LwIP/src/core/netif.c ****   return netif_loop_output(netif, p);
1177:Middlewares/Third_Party/LwIP/src/core/netif.c **** }
1178:Middlewares/Third_Party/LwIP/src/core/netif.c **** #endif /* LWIP_IPV4 */
1179:Middlewares/Third_Party/LwIP/src/core/netif.c **** 
1180:Middlewares/Third_Party/LwIP/src/core/netif.c **** #if LWIP_IPV6
1181:Middlewares/Third_Party/LwIP/src/core/netif.c **** static err_t
1182:Middlewares/Third_Party/LwIP/src/core/netif.c **** netif_loop_output_ipv6(struct netif *netif, struct pbuf *p, const ip6_addr_t *addr)
1183:Middlewares/Third_Party/LwIP/src/core/netif.c **** {
1184:Middlewares/Third_Party/LwIP/src/core/netif.c ****   LWIP_UNUSED_ARG(addr);
1185:Middlewares/Third_Party/LwIP/src/core/netif.c ****   return netif_loop_output(netif, p);
1186:Middlewares/Third_Party/LwIP/src/core/netif.c **** }
ARM GAS  /tmp/ccKMFSjT.s 			page 56


1187:Middlewares/Third_Party/LwIP/src/core/netif.c **** #endif /* LWIP_IPV6 */
1188:Middlewares/Third_Party/LwIP/src/core/netif.c **** #endif /* LWIP_HAVE_LOOPIF */
1189:Middlewares/Third_Party/LwIP/src/core/netif.c **** 
1190:Middlewares/Third_Party/LwIP/src/core/netif.c **** 
1191:Middlewares/Third_Party/LwIP/src/core/netif.c **** /**
1192:Middlewares/Third_Party/LwIP/src/core/netif.c ****  * Call netif_poll() in the main loop of your application. This is to prevent
1193:Middlewares/Third_Party/LwIP/src/core/netif.c ****  * reentering non-reentrant functions like tcp_input(). Packets passed to
1194:Middlewares/Third_Party/LwIP/src/core/netif.c ****  * netif_loop_output() are put on a list that is passed to netif->input() by
1195:Middlewares/Third_Party/LwIP/src/core/netif.c ****  * netif_poll().
1196:Middlewares/Third_Party/LwIP/src/core/netif.c ****  */
1197:Middlewares/Third_Party/LwIP/src/core/netif.c **** void
1198:Middlewares/Third_Party/LwIP/src/core/netif.c **** netif_poll(struct netif *netif)
1199:Middlewares/Third_Party/LwIP/src/core/netif.c **** {
1200:Middlewares/Third_Party/LwIP/src/core/netif.c ****   /* If we have a loopif, SNMP counters are adjusted for it,
1201:Middlewares/Third_Party/LwIP/src/core/netif.c ****    * if not they are adjusted for 'netif'. */
1202:Middlewares/Third_Party/LwIP/src/core/netif.c **** #if MIB2_STATS
1203:Middlewares/Third_Party/LwIP/src/core/netif.c **** #if LWIP_HAVE_LOOPIF
1204:Middlewares/Third_Party/LwIP/src/core/netif.c ****   struct netif *stats_if = &loop_netif;
1205:Middlewares/Third_Party/LwIP/src/core/netif.c **** #else /* LWIP_HAVE_LOOPIF */
1206:Middlewares/Third_Party/LwIP/src/core/netif.c ****   struct netif *stats_if = netif;
1207:Middlewares/Third_Party/LwIP/src/core/netif.c **** #endif /* LWIP_HAVE_LOOPIF */
1208:Middlewares/Third_Party/LwIP/src/core/netif.c **** #endif /* MIB2_STATS */
1209:Middlewares/Third_Party/LwIP/src/core/netif.c ****   SYS_ARCH_DECL_PROTECT(lev);
1210:Middlewares/Third_Party/LwIP/src/core/netif.c **** 
1211:Middlewares/Third_Party/LwIP/src/core/netif.c ****   LWIP_ASSERT("netif_poll: invalid netif", netif != NULL);
1212:Middlewares/Third_Party/LwIP/src/core/netif.c **** 
1213:Middlewares/Third_Party/LwIP/src/core/netif.c ****   /* Get a packet from the list. With SYS_LIGHTWEIGHT_PROT=1, this is protected */
1214:Middlewares/Third_Party/LwIP/src/core/netif.c ****   SYS_ARCH_PROTECT(lev);
1215:Middlewares/Third_Party/LwIP/src/core/netif.c ****   while (netif->loop_first != NULL) {
1216:Middlewares/Third_Party/LwIP/src/core/netif.c ****     struct pbuf *in, *in_end;
1217:Middlewares/Third_Party/LwIP/src/core/netif.c **** #if LWIP_LOOPBACK_MAX_PBUFS
1218:Middlewares/Third_Party/LwIP/src/core/netif.c ****     u8_t clen = 1;
1219:Middlewares/Third_Party/LwIP/src/core/netif.c **** #endif /* LWIP_LOOPBACK_MAX_PBUFS */
1220:Middlewares/Third_Party/LwIP/src/core/netif.c **** 
1221:Middlewares/Third_Party/LwIP/src/core/netif.c ****     in = in_end = netif->loop_first;
1222:Middlewares/Third_Party/LwIP/src/core/netif.c ****     while (in_end->len != in_end->tot_len) {
1223:Middlewares/Third_Party/LwIP/src/core/netif.c ****       LWIP_ASSERT("bogus pbuf: len != tot_len but next == NULL!", in_end->next != NULL);
1224:Middlewares/Third_Party/LwIP/src/core/netif.c ****       in_end = in_end->next;
1225:Middlewares/Third_Party/LwIP/src/core/netif.c **** #if LWIP_LOOPBACK_MAX_PBUFS
1226:Middlewares/Third_Party/LwIP/src/core/netif.c ****       clen++;
1227:Middlewares/Third_Party/LwIP/src/core/netif.c **** #endif /* LWIP_LOOPBACK_MAX_PBUFS */
1228:Middlewares/Third_Party/LwIP/src/core/netif.c ****     }
1229:Middlewares/Third_Party/LwIP/src/core/netif.c **** #if LWIP_LOOPBACK_MAX_PBUFS
1230:Middlewares/Third_Party/LwIP/src/core/netif.c ****     /* adjust the number of pbufs on queue */
1231:Middlewares/Third_Party/LwIP/src/core/netif.c ****     LWIP_ASSERT("netif->loop_cnt_current underflow",
1232:Middlewares/Third_Party/LwIP/src/core/netif.c ****                 ((netif->loop_cnt_current - clen) < netif->loop_cnt_current));
1233:Middlewares/Third_Party/LwIP/src/core/netif.c ****     netif->loop_cnt_current = (u16_t)(netif->loop_cnt_current - clen);
1234:Middlewares/Third_Party/LwIP/src/core/netif.c **** #endif /* LWIP_LOOPBACK_MAX_PBUFS */
1235:Middlewares/Third_Party/LwIP/src/core/netif.c **** 
1236:Middlewares/Third_Party/LwIP/src/core/netif.c ****     /* 'in_end' now points to the last pbuf from 'in' */
1237:Middlewares/Third_Party/LwIP/src/core/netif.c ****     if (in_end == netif->loop_last) {
1238:Middlewares/Third_Party/LwIP/src/core/netif.c ****       /* this was the last pbuf in the list */
1239:Middlewares/Third_Party/LwIP/src/core/netif.c ****       netif->loop_first = netif->loop_last = NULL;
1240:Middlewares/Third_Party/LwIP/src/core/netif.c ****     } else {
1241:Middlewares/Third_Party/LwIP/src/core/netif.c ****       /* pop the pbuf off the list */
1242:Middlewares/Third_Party/LwIP/src/core/netif.c ****       netif->loop_first = in_end->next;
1243:Middlewares/Third_Party/LwIP/src/core/netif.c ****       LWIP_ASSERT("should not be null since first != last!", netif->loop_first != NULL);
ARM GAS  /tmp/ccKMFSjT.s 			page 57


1244:Middlewares/Third_Party/LwIP/src/core/netif.c ****     }
1245:Middlewares/Third_Party/LwIP/src/core/netif.c ****     /* De-queue the pbuf from its successors on the 'loop_' list. */
1246:Middlewares/Third_Party/LwIP/src/core/netif.c ****     in_end->next = NULL;
1247:Middlewares/Third_Party/LwIP/src/core/netif.c ****     SYS_ARCH_UNPROTECT(lev);
1248:Middlewares/Third_Party/LwIP/src/core/netif.c **** 
1249:Middlewares/Third_Party/LwIP/src/core/netif.c ****     in->if_idx = netif_get_index(netif);
1250:Middlewares/Third_Party/LwIP/src/core/netif.c **** 
1251:Middlewares/Third_Party/LwIP/src/core/netif.c ****     LINK_STATS_INC(link.recv);
1252:Middlewares/Third_Party/LwIP/src/core/netif.c ****     MIB2_STATS_NETIF_ADD(stats_if, ifinoctets, in->tot_len);
1253:Middlewares/Third_Party/LwIP/src/core/netif.c ****     MIB2_STATS_NETIF_INC(stats_if, ifinucastpkts);
1254:Middlewares/Third_Party/LwIP/src/core/netif.c ****     /* loopback packets are always IP packets! */
1255:Middlewares/Third_Party/LwIP/src/core/netif.c ****     if (ip_input(in, netif) != ERR_OK) {
1256:Middlewares/Third_Party/LwIP/src/core/netif.c ****       pbuf_free(in);
1257:Middlewares/Third_Party/LwIP/src/core/netif.c ****     }
1258:Middlewares/Third_Party/LwIP/src/core/netif.c ****     SYS_ARCH_PROTECT(lev);
1259:Middlewares/Third_Party/LwIP/src/core/netif.c ****   }
1260:Middlewares/Third_Party/LwIP/src/core/netif.c ****   SYS_ARCH_UNPROTECT(lev);
1261:Middlewares/Third_Party/LwIP/src/core/netif.c **** }
1262:Middlewares/Third_Party/LwIP/src/core/netif.c **** 
1263:Middlewares/Third_Party/LwIP/src/core/netif.c **** #if !LWIP_NETIF_LOOPBACK_MULTITHREADING
1264:Middlewares/Third_Party/LwIP/src/core/netif.c **** /**
1265:Middlewares/Third_Party/LwIP/src/core/netif.c ****  * Calls netif_poll() for every netif on the netif_list.
1266:Middlewares/Third_Party/LwIP/src/core/netif.c ****  */
1267:Middlewares/Third_Party/LwIP/src/core/netif.c **** void
1268:Middlewares/Third_Party/LwIP/src/core/netif.c **** netif_poll_all(void)
1269:Middlewares/Third_Party/LwIP/src/core/netif.c **** {
1270:Middlewares/Third_Party/LwIP/src/core/netif.c ****   struct netif *netif;
1271:Middlewares/Third_Party/LwIP/src/core/netif.c ****   /* loop through netifs */
1272:Middlewares/Third_Party/LwIP/src/core/netif.c ****   NETIF_FOREACH(netif) {
1273:Middlewares/Third_Party/LwIP/src/core/netif.c ****     netif_poll(netif);
1274:Middlewares/Third_Party/LwIP/src/core/netif.c ****   }
1275:Middlewares/Third_Party/LwIP/src/core/netif.c **** }
1276:Middlewares/Third_Party/LwIP/src/core/netif.c **** #endif /* !LWIP_NETIF_LOOPBACK_MULTITHREADING */
1277:Middlewares/Third_Party/LwIP/src/core/netif.c **** #endif /* ENABLE_LOOPBACK */
1278:Middlewares/Third_Party/LwIP/src/core/netif.c **** 
1279:Middlewares/Third_Party/LwIP/src/core/netif.c **** #if LWIP_NUM_NETIF_CLIENT_DATA > 0
1280:Middlewares/Third_Party/LwIP/src/core/netif.c **** /**
1281:Middlewares/Third_Party/LwIP/src/core/netif.c ****  * @ingroup netif_cd
1282:Middlewares/Third_Party/LwIP/src/core/netif.c ****  * Allocate an index to store data in client_data member of struct netif.
1283:Middlewares/Third_Party/LwIP/src/core/netif.c ****  * Returned value is an index in mentioned array.
1284:Middlewares/Third_Party/LwIP/src/core/netif.c ****  * @see LWIP_NUM_NETIF_CLIENT_DATA
1285:Middlewares/Third_Party/LwIP/src/core/netif.c ****  */
1286:Middlewares/Third_Party/LwIP/src/core/netif.c **** u8_t
1287:Middlewares/Third_Party/LwIP/src/core/netif.c **** netif_alloc_client_data_id(void)
1288:Middlewares/Third_Party/LwIP/src/core/netif.c **** {
1289:Middlewares/Third_Party/LwIP/src/core/netif.c ****   u8_t result = netif_client_id;
1290:Middlewares/Third_Party/LwIP/src/core/netif.c ****   netif_client_id++;
1291:Middlewares/Third_Party/LwIP/src/core/netif.c **** 
1292:Middlewares/Third_Party/LwIP/src/core/netif.c ****   LWIP_ASSERT_CORE_LOCKED();
1293:Middlewares/Third_Party/LwIP/src/core/netif.c **** 
1294:Middlewares/Third_Party/LwIP/src/core/netif.c **** #if LWIP_NUM_NETIF_CLIENT_DATA > 256
1295:Middlewares/Third_Party/LwIP/src/core/netif.c **** #error LWIP_NUM_NETIF_CLIENT_DATA must be <= 256
1296:Middlewares/Third_Party/LwIP/src/core/netif.c **** #endif
1297:Middlewares/Third_Party/LwIP/src/core/netif.c ****   LWIP_ASSERT("Increase LWIP_NUM_NETIF_CLIENT_DATA in lwipopts.h", result < LWIP_NUM_NETIF_CLIENT_D
1298:Middlewares/Third_Party/LwIP/src/core/netif.c ****   return (u8_t)(result + LWIP_NETIF_CLIENT_DATA_INDEX_MAX);
1299:Middlewares/Third_Party/LwIP/src/core/netif.c **** }
1300:Middlewares/Third_Party/LwIP/src/core/netif.c **** #endif
ARM GAS  /tmp/ccKMFSjT.s 			page 58


1301:Middlewares/Third_Party/LwIP/src/core/netif.c **** 
1302:Middlewares/Third_Party/LwIP/src/core/netif.c **** #if LWIP_IPV6
1303:Middlewares/Third_Party/LwIP/src/core/netif.c **** /**
1304:Middlewares/Third_Party/LwIP/src/core/netif.c ****  * @ingroup netif_ip6
1305:Middlewares/Third_Party/LwIP/src/core/netif.c ****  * Change an IPv6 address of a network interface
1306:Middlewares/Third_Party/LwIP/src/core/netif.c ****  *
1307:Middlewares/Third_Party/LwIP/src/core/netif.c ****  * @param netif the network interface to change
1308:Middlewares/Third_Party/LwIP/src/core/netif.c ****  * @param addr_idx index of the IPv6 address
1309:Middlewares/Third_Party/LwIP/src/core/netif.c ****  * @param addr6 the new IPv6 address
1310:Middlewares/Third_Party/LwIP/src/core/netif.c ****  *
1311:Middlewares/Third_Party/LwIP/src/core/netif.c ****  * @note call netif_ip6_addr_set_state() to set the address valid/temptative
1312:Middlewares/Third_Party/LwIP/src/core/netif.c ****  */
1313:Middlewares/Third_Party/LwIP/src/core/netif.c **** void
1314:Middlewares/Third_Party/LwIP/src/core/netif.c **** netif_ip6_addr_set(struct netif *netif, s8_t addr_idx, const ip6_addr_t *addr6)
1315:Middlewares/Third_Party/LwIP/src/core/netif.c **** {
1316:Middlewares/Third_Party/LwIP/src/core/netif.c ****   LWIP_ASSERT_CORE_LOCKED();
1317:Middlewares/Third_Party/LwIP/src/core/netif.c **** 
1318:Middlewares/Third_Party/LwIP/src/core/netif.c ****   LWIP_ASSERT("netif_ip6_addr_set: invalid netif", netif != NULL);
1319:Middlewares/Third_Party/LwIP/src/core/netif.c ****   LWIP_ASSERT("netif_ip6_addr_set: invalid addr6", addr6 != NULL);
1320:Middlewares/Third_Party/LwIP/src/core/netif.c **** 
1321:Middlewares/Third_Party/LwIP/src/core/netif.c ****   netif_ip6_addr_set_parts(netif, addr_idx, addr6->addr[0], addr6->addr[1],
1322:Middlewares/Third_Party/LwIP/src/core/netif.c ****                            addr6->addr[2], addr6->addr[3]);
1323:Middlewares/Third_Party/LwIP/src/core/netif.c **** }
1324:Middlewares/Third_Party/LwIP/src/core/netif.c **** 
1325:Middlewares/Third_Party/LwIP/src/core/netif.c **** /*
1326:Middlewares/Third_Party/LwIP/src/core/netif.c ****  * Change an IPv6 address of a network interface (internal version taking 4 * u32_t)
1327:Middlewares/Third_Party/LwIP/src/core/netif.c ****  *
1328:Middlewares/Third_Party/LwIP/src/core/netif.c ****  * @param netif the network interface to change
1329:Middlewares/Third_Party/LwIP/src/core/netif.c ****  * @param addr_idx index of the IPv6 address
1330:Middlewares/Third_Party/LwIP/src/core/netif.c ****  * @param i0 word0 of the new IPv6 address
1331:Middlewares/Third_Party/LwIP/src/core/netif.c ****  * @param i1 word1 of the new IPv6 address
1332:Middlewares/Third_Party/LwIP/src/core/netif.c ****  * @param i2 word2 of the new IPv6 address
1333:Middlewares/Third_Party/LwIP/src/core/netif.c ****  * @param i3 word3 of the new IPv6 address
1334:Middlewares/Third_Party/LwIP/src/core/netif.c ****  */
1335:Middlewares/Third_Party/LwIP/src/core/netif.c **** void
1336:Middlewares/Third_Party/LwIP/src/core/netif.c **** netif_ip6_addr_set_parts(struct netif *netif, s8_t addr_idx, u32_t i0, u32_t i1, u32_t i2, u32_t i3
1337:Middlewares/Third_Party/LwIP/src/core/netif.c **** {
1338:Middlewares/Third_Party/LwIP/src/core/netif.c ****   ip_addr_t old_addr;
1339:Middlewares/Third_Party/LwIP/src/core/netif.c ****   ip_addr_t new_ipaddr;
1340:Middlewares/Third_Party/LwIP/src/core/netif.c ****   LWIP_ASSERT_CORE_LOCKED();
1341:Middlewares/Third_Party/LwIP/src/core/netif.c ****   LWIP_ASSERT("netif != NULL", netif != NULL);
1342:Middlewares/Third_Party/LwIP/src/core/netif.c ****   LWIP_ASSERT("invalid index", addr_idx < LWIP_IPV6_NUM_ADDRESSES);
1343:Middlewares/Third_Party/LwIP/src/core/netif.c **** 
1344:Middlewares/Third_Party/LwIP/src/core/netif.c ****   ip6_addr_copy(*ip_2_ip6(&old_addr), *netif_ip6_addr(netif, addr_idx));
1345:Middlewares/Third_Party/LwIP/src/core/netif.c ****   IP_SET_TYPE_VAL(old_addr, IPADDR_TYPE_V6);
1346:Middlewares/Third_Party/LwIP/src/core/netif.c **** 
1347:Middlewares/Third_Party/LwIP/src/core/netif.c ****   /* address is actually being changed? */
1348:Middlewares/Third_Party/LwIP/src/core/netif.c ****   if ((ip_2_ip6(&old_addr)->addr[0] != i0) || (ip_2_ip6(&old_addr)->addr[1] != i1) ||
1349:Middlewares/Third_Party/LwIP/src/core/netif.c ****       (ip_2_ip6(&old_addr)->addr[2] != i2) || (ip_2_ip6(&old_addr)->addr[3] != i3)) {
1350:Middlewares/Third_Party/LwIP/src/core/netif.c ****     LWIP_DEBUGF(NETIF_DEBUG | LWIP_DBG_STATE, ("netif_ip6_addr_set: netif address being changed\n")
1351:Middlewares/Third_Party/LwIP/src/core/netif.c **** 
1352:Middlewares/Third_Party/LwIP/src/core/netif.c ****     IP_ADDR6(&new_ipaddr, i0, i1, i2, i3);
1353:Middlewares/Third_Party/LwIP/src/core/netif.c ****     ip6_addr_assign_zone(ip_2_ip6(&new_ipaddr), IP6_UNICAST, netif);
1354:Middlewares/Third_Party/LwIP/src/core/netif.c **** 
1355:Middlewares/Third_Party/LwIP/src/core/netif.c ****     if (ip6_addr_isvalid(netif_ip6_addr_state(netif, addr_idx))) {
1356:Middlewares/Third_Party/LwIP/src/core/netif.c ****       netif_do_ip_addr_changed(netif_ip_addr6(netif, addr_idx), &new_ipaddr);
1357:Middlewares/Third_Party/LwIP/src/core/netif.c ****     }
ARM GAS  /tmp/ccKMFSjT.s 			page 59


1358:Middlewares/Third_Party/LwIP/src/core/netif.c ****     /* @todo: remove/readd mib2 ip6 entries? */
1359:Middlewares/Third_Party/LwIP/src/core/netif.c **** 
1360:Middlewares/Third_Party/LwIP/src/core/netif.c ****     ip_addr_copy(netif->ip6_addr[addr_idx], new_ipaddr);
1361:Middlewares/Third_Party/LwIP/src/core/netif.c **** 
1362:Middlewares/Third_Party/LwIP/src/core/netif.c ****     if (ip6_addr_isvalid(netif_ip6_addr_state(netif, addr_idx))) {
1363:Middlewares/Third_Party/LwIP/src/core/netif.c ****       netif_issue_reports(netif, NETIF_REPORT_TYPE_IPV6);
1364:Middlewares/Third_Party/LwIP/src/core/netif.c ****       NETIF_STATUS_CALLBACK(netif);
1365:Middlewares/Third_Party/LwIP/src/core/netif.c ****     }
1366:Middlewares/Third_Party/LwIP/src/core/netif.c **** 
1367:Middlewares/Third_Party/LwIP/src/core/netif.c **** #if LWIP_NETIF_EXT_STATUS_CALLBACK
1368:Middlewares/Third_Party/LwIP/src/core/netif.c ****     {
1369:Middlewares/Third_Party/LwIP/src/core/netif.c ****       netif_ext_callback_args_t args;
1370:Middlewares/Third_Party/LwIP/src/core/netif.c ****       args.ipv6_set.addr_index  = addr_idx;
1371:Middlewares/Third_Party/LwIP/src/core/netif.c ****       args.ipv6_set.old_address = &old_addr;
1372:Middlewares/Third_Party/LwIP/src/core/netif.c ****       netif_invoke_ext_callback(netif, LWIP_NSC_IPV6_SET, &args);
1373:Middlewares/Third_Party/LwIP/src/core/netif.c ****     }
1374:Middlewares/Third_Party/LwIP/src/core/netif.c **** #endif
1375:Middlewares/Third_Party/LwIP/src/core/netif.c ****   }
1376:Middlewares/Third_Party/LwIP/src/core/netif.c **** 
1377:Middlewares/Third_Party/LwIP/src/core/netif.c ****   LWIP_DEBUGF(NETIF_DEBUG | LWIP_DBG_TRACE | LWIP_DBG_STATE, ("netif: IPv6 address %d of interface 
1378:Middlewares/Third_Party/LwIP/src/core/netif.c ****               addr_idx, netif->name[0], netif->name[1], ip6addr_ntoa(netif_ip6_addr(netif, addr_idx
1379:Middlewares/Third_Party/LwIP/src/core/netif.c ****               netif_ip6_addr_state(netif, addr_idx)));
1380:Middlewares/Third_Party/LwIP/src/core/netif.c **** }
1381:Middlewares/Third_Party/LwIP/src/core/netif.c **** 
1382:Middlewares/Third_Party/LwIP/src/core/netif.c **** /**
1383:Middlewares/Third_Party/LwIP/src/core/netif.c ****  * @ingroup netif_ip6
1384:Middlewares/Third_Party/LwIP/src/core/netif.c ****  * Change the state of an IPv6 address of a network interface
1385:Middlewares/Third_Party/LwIP/src/core/netif.c ****  * (INVALID, TEMPTATIVE, PREFERRED, DEPRECATED, where TEMPTATIVE
1386:Middlewares/Third_Party/LwIP/src/core/netif.c ****  * includes the number of checks done, see ip6_addr.h)
1387:Middlewares/Third_Party/LwIP/src/core/netif.c ****  *
1388:Middlewares/Third_Party/LwIP/src/core/netif.c ****  * @param netif the network interface to change
1389:Middlewares/Third_Party/LwIP/src/core/netif.c ****  * @param addr_idx index of the IPv6 address
1390:Middlewares/Third_Party/LwIP/src/core/netif.c ****  * @param state the new IPv6 address state
1391:Middlewares/Third_Party/LwIP/src/core/netif.c ****  */
1392:Middlewares/Third_Party/LwIP/src/core/netif.c **** void
1393:Middlewares/Third_Party/LwIP/src/core/netif.c **** netif_ip6_addr_set_state(struct netif *netif, s8_t addr_idx, u8_t state)
1394:Middlewares/Third_Party/LwIP/src/core/netif.c **** {
1395:Middlewares/Third_Party/LwIP/src/core/netif.c ****   u8_t old_state;
1396:Middlewares/Third_Party/LwIP/src/core/netif.c ****   LWIP_ASSERT_CORE_LOCKED();
1397:Middlewares/Third_Party/LwIP/src/core/netif.c ****   LWIP_ASSERT("netif != NULL", netif != NULL);
1398:Middlewares/Third_Party/LwIP/src/core/netif.c ****   LWIP_ASSERT("invalid index", addr_idx < LWIP_IPV6_NUM_ADDRESSES);
1399:Middlewares/Third_Party/LwIP/src/core/netif.c **** 
1400:Middlewares/Third_Party/LwIP/src/core/netif.c ****   old_state = netif_ip6_addr_state(netif, addr_idx);
1401:Middlewares/Third_Party/LwIP/src/core/netif.c ****   /* state is actually being changed? */
1402:Middlewares/Third_Party/LwIP/src/core/netif.c ****   if (old_state != state) {
1403:Middlewares/Third_Party/LwIP/src/core/netif.c ****     u8_t old_valid = old_state & IP6_ADDR_VALID;
1404:Middlewares/Third_Party/LwIP/src/core/netif.c ****     u8_t new_valid = state & IP6_ADDR_VALID;
1405:Middlewares/Third_Party/LwIP/src/core/netif.c ****     LWIP_DEBUGF(NETIF_DEBUG | LWIP_DBG_STATE, ("netif_ip6_addr_set_state: netif address state being
1406:Middlewares/Third_Party/LwIP/src/core/netif.c **** 
1407:Middlewares/Third_Party/LwIP/src/core/netif.c **** #if LWIP_IPV6_MLD
1408:Middlewares/Third_Party/LwIP/src/core/netif.c ****     /* Reevaluate solicited-node multicast group membership. */
1409:Middlewares/Third_Party/LwIP/src/core/netif.c ****     if (netif->flags & NETIF_FLAG_MLD6) {
1410:Middlewares/Third_Party/LwIP/src/core/netif.c ****       nd6_adjust_mld_membership(netif, addr_idx, state);
1411:Middlewares/Third_Party/LwIP/src/core/netif.c ****     }
1412:Middlewares/Third_Party/LwIP/src/core/netif.c **** #endif /* LWIP_IPV6_MLD */
1413:Middlewares/Third_Party/LwIP/src/core/netif.c **** 
1414:Middlewares/Third_Party/LwIP/src/core/netif.c ****     if (old_valid && !new_valid) {
ARM GAS  /tmp/ccKMFSjT.s 			page 60


1415:Middlewares/Third_Party/LwIP/src/core/netif.c ****       /* address about to be removed by setting invalid */
1416:Middlewares/Third_Party/LwIP/src/core/netif.c ****       netif_do_ip_addr_changed(netif_ip_addr6(netif, addr_idx), NULL);
1417:Middlewares/Third_Party/LwIP/src/core/netif.c ****       /* @todo: remove mib2 ip6 entries? */
1418:Middlewares/Third_Party/LwIP/src/core/netif.c ****     }
1419:Middlewares/Third_Party/LwIP/src/core/netif.c ****     netif->ip6_addr_state[addr_idx] = state;
1420:Middlewares/Third_Party/LwIP/src/core/netif.c **** 
1421:Middlewares/Third_Party/LwIP/src/core/netif.c ****     if (!old_valid && new_valid) {
1422:Middlewares/Third_Party/LwIP/src/core/netif.c ****       /* address added by setting valid */
1423:Middlewares/Third_Party/LwIP/src/core/netif.c ****       /* This is a good moment to check that the address is properly zoned. */
1424:Middlewares/Third_Party/LwIP/src/core/netif.c ****       IP6_ADDR_ZONECHECK_NETIF(netif_ip6_addr(netif, addr_idx), netif);
1425:Middlewares/Third_Party/LwIP/src/core/netif.c ****       /* @todo: add mib2 ip6 entries? */
1426:Middlewares/Third_Party/LwIP/src/core/netif.c ****       netif_issue_reports(netif, NETIF_REPORT_TYPE_IPV6);
1427:Middlewares/Third_Party/LwIP/src/core/netif.c ****     }
1428:Middlewares/Third_Party/LwIP/src/core/netif.c ****     if ((old_state & ~IP6_ADDR_TENTATIVE_COUNT_MASK) !=
1429:Middlewares/Third_Party/LwIP/src/core/netif.c ****         (state     & ~IP6_ADDR_TENTATIVE_COUNT_MASK)) {
1430:Middlewares/Third_Party/LwIP/src/core/netif.c ****       /* address state has changed -> call the callback function */
1431:Middlewares/Third_Party/LwIP/src/core/netif.c ****       NETIF_STATUS_CALLBACK(netif);
1432:Middlewares/Third_Party/LwIP/src/core/netif.c ****     }
1433:Middlewares/Third_Party/LwIP/src/core/netif.c **** 
1434:Middlewares/Third_Party/LwIP/src/core/netif.c **** #if LWIP_NETIF_EXT_STATUS_CALLBACK
1435:Middlewares/Third_Party/LwIP/src/core/netif.c ****     {
1436:Middlewares/Third_Party/LwIP/src/core/netif.c ****       netif_ext_callback_args_t args;
1437:Middlewares/Third_Party/LwIP/src/core/netif.c ****       args.ipv6_addr_state_changed.addr_index = addr_idx;
1438:Middlewares/Third_Party/LwIP/src/core/netif.c ****       args.ipv6_addr_state_changed.old_state  = old_state;
1439:Middlewares/Third_Party/LwIP/src/core/netif.c ****       args.ipv6_addr_state_changed.address    = netif_ip_addr6(netif, addr_idx);
1440:Middlewares/Third_Party/LwIP/src/core/netif.c ****       netif_invoke_ext_callback(netif, LWIP_NSC_IPV6_ADDR_STATE_CHANGED, &args);
1441:Middlewares/Third_Party/LwIP/src/core/netif.c ****     }
1442:Middlewares/Third_Party/LwIP/src/core/netif.c **** #endif
1443:Middlewares/Third_Party/LwIP/src/core/netif.c ****   }
1444:Middlewares/Third_Party/LwIP/src/core/netif.c ****   LWIP_DEBUGF(NETIF_DEBUG | LWIP_DBG_TRACE | LWIP_DBG_STATE, ("netif: IPv6 address %d of interface 
1445:Middlewares/Third_Party/LwIP/src/core/netif.c ****               addr_idx, netif->name[0], netif->name[1], ip6addr_ntoa(netif_ip6_addr(netif, addr_idx
1446:Middlewares/Third_Party/LwIP/src/core/netif.c ****               netif_ip6_addr_state(netif, addr_idx)));
1447:Middlewares/Third_Party/LwIP/src/core/netif.c **** }
1448:Middlewares/Third_Party/LwIP/src/core/netif.c **** 
1449:Middlewares/Third_Party/LwIP/src/core/netif.c **** /**
1450:Middlewares/Third_Party/LwIP/src/core/netif.c ****  * Checks if a specific local address is present on the netif and returns its
1451:Middlewares/Third_Party/LwIP/src/core/netif.c ****  * index. Depending on its state, it may or may not be assigned to the
1452:Middlewares/Third_Party/LwIP/src/core/netif.c ****  * interface (as per RFC terminology).
1453:Middlewares/Third_Party/LwIP/src/core/netif.c ****  *
1454:Middlewares/Third_Party/LwIP/src/core/netif.c ****  * The given address may or may not be zoned (i.e., have a zone index other
1455:Middlewares/Third_Party/LwIP/src/core/netif.c ****  * than IP6_NO_ZONE). If the address is zoned, it must have the correct zone
1456:Middlewares/Third_Party/LwIP/src/core/netif.c ****  * for the given netif, or no match will be found.
1457:Middlewares/Third_Party/LwIP/src/core/netif.c ****  *
1458:Middlewares/Third_Party/LwIP/src/core/netif.c ****  * @param netif the netif to check
1459:Middlewares/Third_Party/LwIP/src/core/netif.c ****  * @param ip6addr the IPv6 address to find
1460:Middlewares/Third_Party/LwIP/src/core/netif.c ****  * @return >= 0: address found, this is its index
1461:Middlewares/Third_Party/LwIP/src/core/netif.c ****  *         -1: address not found on this netif
1462:Middlewares/Third_Party/LwIP/src/core/netif.c ****  */
1463:Middlewares/Third_Party/LwIP/src/core/netif.c **** s8_t
1464:Middlewares/Third_Party/LwIP/src/core/netif.c **** netif_get_ip6_addr_match(struct netif *netif, const ip6_addr_t *ip6addr)
1465:Middlewares/Third_Party/LwIP/src/core/netif.c **** {
1466:Middlewares/Third_Party/LwIP/src/core/netif.c ****   s8_t i;
1467:Middlewares/Third_Party/LwIP/src/core/netif.c **** 
1468:Middlewares/Third_Party/LwIP/src/core/netif.c ****   LWIP_ASSERT_CORE_LOCKED();
1469:Middlewares/Third_Party/LwIP/src/core/netif.c **** 
1470:Middlewares/Third_Party/LwIP/src/core/netif.c ****   LWIP_ASSERT("netif_get_ip6_addr_match: invalid netif", netif != NULL);
1471:Middlewares/Third_Party/LwIP/src/core/netif.c ****   LWIP_ASSERT("netif_get_ip6_addr_match: invalid ip6addr", ip6addr != NULL);
ARM GAS  /tmp/ccKMFSjT.s 			page 61


1472:Middlewares/Third_Party/LwIP/src/core/netif.c **** 
1473:Middlewares/Third_Party/LwIP/src/core/netif.c **** #if LWIP_IPV6_SCOPES
1474:Middlewares/Third_Party/LwIP/src/core/netif.c ****   if (ip6_addr_has_zone(ip6addr) && !ip6_addr_test_zone(ip6addr, netif)) {
1475:Middlewares/Third_Party/LwIP/src/core/netif.c ****     return -1; /* wrong zone, no match */
1476:Middlewares/Third_Party/LwIP/src/core/netif.c ****   }
1477:Middlewares/Third_Party/LwIP/src/core/netif.c **** #endif /* LWIP_IPV6_SCOPES */
1478:Middlewares/Third_Party/LwIP/src/core/netif.c **** 
1479:Middlewares/Third_Party/LwIP/src/core/netif.c ****   for (i = 0; i < LWIP_IPV6_NUM_ADDRESSES; i++) {
1480:Middlewares/Third_Party/LwIP/src/core/netif.c ****     if (!ip6_addr_isinvalid(netif_ip6_addr_state(netif, i)) &&
1481:Middlewares/Third_Party/LwIP/src/core/netif.c ****         ip6_addr_cmp_zoneless(netif_ip6_addr(netif, i), ip6addr)) {
1482:Middlewares/Third_Party/LwIP/src/core/netif.c ****       return i;
1483:Middlewares/Third_Party/LwIP/src/core/netif.c ****     }
1484:Middlewares/Third_Party/LwIP/src/core/netif.c ****   }
1485:Middlewares/Third_Party/LwIP/src/core/netif.c ****   return -1;
1486:Middlewares/Third_Party/LwIP/src/core/netif.c **** }
1487:Middlewares/Third_Party/LwIP/src/core/netif.c **** 
1488:Middlewares/Third_Party/LwIP/src/core/netif.c **** /**
1489:Middlewares/Third_Party/LwIP/src/core/netif.c ****  * @ingroup netif_ip6
1490:Middlewares/Third_Party/LwIP/src/core/netif.c ****  * Create a link-local IPv6 address on a netif (stored in slot 0)
1491:Middlewares/Third_Party/LwIP/src/core/netif.c ****  *
1492:Middlewares/Third_Party/LwIP/src/core/netif.c ****  * @param netif the netif to create the address on
1493:Middlewares/Third_Party/LwIP/src/core/netif.c ****  * @param from_mac_48bit if != 0, assume hwadr is a 48-bit MAC address (std conversion)
1494:Middlewares/Third_Party/LwIP/src/core/netif.c ****  *                       if == 0, use hwaddr directly as interface ID
1495:Middlewares/Third_Party/LwIP/src/core/netif.c ****  */
1496:Middlewares/Third_Party/LwIP/src/core/netif.c **** void
1497:Middlewares/Third_Party/LwIP/src/core/netif.c **** netif_create_ip6_linklocal_address(struct netif *netif, u8_t from_mac_48bit)
1498:Middlewares/Third_Party/LwIP/src/core/netif.c **** {
1499:Middlewares/Third_Party/LwIP/src/core/netif.c ****   u8_t i, addr_index;
1500:Middlewares/Third_Party/LwIP/src/core/netif.c **** 
1501:Middlewares/Third_Party/LwIP/src/core/netif.c ****   LWIP_ASSERT_CORE_LOCKED();
1502:Middlewares/Third_Party/LwIP/src/core/netif.c **** 
1503:Middlewares/Third_Party/LwIP/src/core/netif.c ****   LWIP_ASSERT("netif_create_ip6_linklocal_address: invalid netif", netif != NULL);
1504:Middlewares/Third_Party/LwIP/src/core/netif.c **** 
1505:Middlewares/Third_Party/LwIP/src/core/netif.c ****   /* Link-local prefix. */
1506:Middlewares/Third_Party/LwIP/src/core/netif.c ****   ip_2_ip6(&netif->ip6_addr[0])->addr[0] = PP_HTONL(0xfe800000ul);
1507:Middlewares/Third_Party/LwIP/src/core/netif.c ****   ip_2_ip6(&netif->ip6_addr[0])->addr[1] = 0;
1508:Middlewares/Third_Party/LwIP/src/core/netif.c **** 
1509:Middlewares/Third_Party/LwIP/src/core/netif.c ****   /* Generate interface ID. */
1510:Middlewares/Third_Party/LwIP/src/core/netif.c ****   if (from_mac_48bit) {
1511:Middlewares/Third_Party/LwIP/src/core/netif.c ****     /* Assume hwaddr is a 48-bit IEEE 802 MAC. Convert to EUI-64 address. Complement Group bit. */
1512:Middlewares/Third_Party/LwIP/src/core/netif.c ****     ip_2_ip6(&netif->ip6_addr[0])->addr[2] = lwip_htonl((((u32_t)(netif->hwaddr[0] ^ 0x02)) << 24) 
1513:Middlewares/Third_Party/LwIP/src/core/netif.c ****         ((u32_t)(netif->hwaddr[1]) << 16) |
1514:Middlewares/Third_Party/LwIP/src/core/netif.c ****         ((u32_t)(netif->hwaddr[2]) << 8) |
1515:Middlewares/Third_Party/LwIP/src/core/netif.c ****         (0xff));
1516:Middlewares/Third_Party/LwIP/src/core/netif.c ****     ip_2_ip6(&netif->ip6_addr[0])->addr[3] = lwip_htonl((u32_t)(0xfeul << 24) |
1517:Middlewares/Third_Party/LwIP/src/core/netif.c ****         ((u32_t)(netif->hwaddr[3]) << 16) |
1518:Middlewares/Third_Party/LwIP/src/core/netif.c ****         ((u32_t)(netif->hwaddr[4]) << 8) |
1519:Middlewares/Third_Party/LwIP/src/core/netif.c ****         (netif->hwaddr[5]));
1520:Middlewares/Third_Party/LwIP/src/core/netif.c ****   } else {
1521:Middlewares/Third_Party/LwIP/src/core/netif.c ****     /* Use hwaddr directly as interface ID. */
1522:Middlewares/Third_Party/LwIP/src/core/netif.c ****     ip_2_ip6(&netif->ip6_addr[0])->addr[2] = 0;
1523:Middlewares/Third_Party/LwIP/src/core/netif.c ****     ip_2_ip6(&netif->ip6_addr[0])->addr[3] = 0;
1524:Middlewares/Third_Party/LwIP/src/core/netif.c **** 
1525:Middlewares/Third_Party/LwIP/src/core/netif.c ****     addr_index = 3;
1526:Middlewares/Third_Party/LwIP/src/core/netif.c ****     for (i = 0; (i < 8) && (i < netif->hwaddr_len); i++) {
1527:Middlewares/Third_Party/LwIP/src/core/netif.c ****       if (i == 4) {
1528:Middlewares/Third_Party/LwIP/src/core/netif.c ****         addr_index--;
ARM GAS  /tmp/ccKMFSjT.s 			page 62


1529:Middlewares/Third_Party/LwIP/src/core/netif.c ****       }
1530:Middlewares/Third_Party/LwIP/src/core/netif.c ****       ip_2_ip6(&netif->ip6_addr[0])->addr[addr_index] |= lwip_htonl(((u32_t)(netif->hwaddr[netif->h
1531:Middlewares/Third_Party/LwIP/src/core/netif.c ****     }
1532:Middlewares/Third_Party/LwIP/src/core/netif.c ****   }
1533:Middlewares/Third_Party/LwIP/src/core/netif.c **** 
1534:Middlewares/Third_Party/LwIP/src/core/netif.c ****   /* Set a link-local zone. Even though the zone is implied by the owning
1535:Middlewares/Third_Party/LwIP/src/core/netif.c ****    * netif, setting the zone anyway has two important conceptual advantages:
1536:Middlewares/Third_Party/LwIP/src/core/netif.c ****    * 1) it avoids the need for a ton of exceptions in internal code, allowing
1537:Middlewares/Third_Party/LwIP/src/core/netif.c ****    *    e.g. ip6_addr_cmp() to be used on local addresses;
1538:Middlewares/Third_Party/LwIP/src/core/netif.c ****    * 2) the properly zoned address is visible externally, e.g. when any outside
1539:Middlewares/Third_Party/LwIP/src/core/netif.c ****    *    code enumerates available addresses or uses one to bind a socket.
1540:Middlewares/Third_Party/LwIP/src/core/netif.c ****    * Any external code unaware of address scoping is likely to just ignore the
1541:Middlewares/Third_Party/LwIP/src/core/netif.c ****    * zone field, so this should not create any compatibility problems. */
1542:Middlewares/Third_Party/LwIP/src/core/netif.c ****   ip6_addr_assign_zone(ip_2_ip6(&netif->ip6_addr[0]), IP6_UNICAST, netif);
1543:Middlewares/Third_Party/LwIP/src/core/netif.c **** 
1544:Middlewares/Third_Party/LwIP/src/core/netif.c ****   /* Set address state. */
1545:Middlewares/Third_Party/LwIP/src/core/netif.c **** #if LWIP_IPV6_DUP_DETECT_ATTEMPTS
1546:Middlewares/Third_Party/LwIP/src/core/netif.c ****   /* Will perform duplicate address detection (DAD). */
1547:Middlewares/Third_Party/LwIP/src/core/netif.c ****   netif_ip6_addr_set_state(netif, 0, IP6_ADDR_TENTATIVE);
1548:Middlewares/Third_Party/LwIP/src/core/netif.c **** #else
1549:Middlewares/Third_Party/LwIP/src/core/netif.c ****   /* Consider address valid. */
1550:Middlewares/Third_Party/LwIP/src/core/netif.c ****   netif_ip6_addr_set_state(netif, 0, IP6_ADDR_PREFERRED);
1551:Middlewares/Third_Party/LwIP/src/core/netif.c **** #endif /* LWIP_IPV6_AUTOCONFIG */
1552:Middlewares/Third_Party/LwIP/src/core/netif.c **** }
1553:Middlewares/Third_Party/LwIP/src/core/netif.c **** 
1554:Middlewares/Third_Party/LwIP/src/core/netif.c **** /**
1555:Middlewares/Third_Party/LwIP/src/core/netif.c ****  * @ingroup netif_ip6
1556:Middlewares/Third_Party/LwIP/src/core/netif.c ****  * This function allows for the easy addition of a new IPv6 address to an interface.
1557:Middlewares/Third_Party/LwIP/src/core/netif.c ****  * It takes care of finding an empty slot and then sets the address tentative
1558:Middlewares/Third_Party/LwIP/src/core/netif.c ****  * (to make sure that all the subsequent processing happens).
1559:Middlewares/Third_Party/LwIP/src/core/netif.c ****  *
1560:Middlewares/Third_Party/LwIP/src/core/netif.c ****  * @param netif netif to add the address on
1561:Middlewares/Third_Party/LwIP/src/core/netif.c ****  * @param ip6addr address to add
1562:Middlewares/Third_Party/LwIP/src/core/netif.c ****  * @param chosen_idx if != NULL, the chosen IPv6 address index will be stored here
1563:Middlewares/Third_Party/LwIP/src/core/netif.c ****  */
1564:Middlewares/Third_Party/LwIP/src/core/netif.c **** err_t
1565:Middlewares/Third_Party/LwIP/src/core/netif.c **** netif_add_ip6_address(struct netif *netif, const ip6_addr_t *ip6addr, s8_t *chosen_idx)
1566:Middlewares/Third_Party/LwIP/src/core/netif.c **** {
1567:Middlewares/Third_Party/LwIP/src/core/netif.c ****   s8_t i;
1568:Middlewares/Third_Party/LwIP/src/core/netif.c **** 
1569:Middlewares/Third_Party/LwIP/src/core/netif.c ****   LWIP_ASSERT_CORE_LOCKED();
1570:Middlewares/Third_Party/LwIP/src/core/netif.c **** 
1571:Middlewares/Third_Party/LwIP/src/core/netif.c ****   LWIP_ASSERT("netif_add_ip6_address: invalid netif", netif != NULL);
1572:Middlewares/Third_Party/LwIP/src/core/netif.c ****   LWIP_ASSERT("netif_add_ip6_address: invalid ip6addr", ip6addr != NULL);
1573:Middlewares/Third_Party/LwIP/src/core/netif.c **** 
1574:Middlewares/Third_Party/LwIP/src/core/netif.c ****   i = netif_get_ip6_addr_match(netif, ip6addr);
1575:Middlewares/Third_Party/LwIP/src/core/netif.c ****   if (i >= 0) {
1576:Middlewares/Third_Party/LwIP/src/core/netif.c ****     /* Address already added */
1577:Middlewares/Third_Party/LwIP/src/core/netif.c ****     if (chosen_idx != NULL) {
1578:Middlewares/Third_Party/LwIP/src/core/netif.c ****       *chosen_idx = i;
1579:Middlewares/Third_Party/LwIP/src/core/netif.c ****     }
1580:Middlewares/Third_Party/LwIP/src/core/netif.c ****     return ERR_OK;
1581:Middlewares/Third_Party/LwIP/src/core/netif.c ****   }
1582:Middlewares/Third_Party/LwIP/src/core/netif.c **** 
1583:Middlewares/Third_Party/LwIP/src/core/netif.c ****   /* Find a free slot. The first one is reserved for link-local addresses. */
1584:Middlewares/Third_Party/LwIP/src/core/netif.c ****   for (i = ip6_addr_islinklocal(ip6addr) ? 0 : 1; i < LWIP_IPV6_NUM_ADDRESSES; i++) {
1585:Middlewares/Third_Party/LwIP/src/core/netif.c ****     if (ip6_addr_isinvalid(netif_ip6_addr_state(netif, i))) {
ARM GAS  /tmp/ccKMFSjT.s 			page 63


1586:Middlewares/Third_Party/LwIP/src/core/netif.c ****       ip_addr_copy_from_ip6(netif->ip6_addr[i], *ip6addr);
1587:Middlewares/Third_Party/LwIP/src/core/netif.c ****       ip6_addr_assign_zone(ip_2_ip6(&netif->ip6_addr[i]), IP6_UNICAST, netif);
1588:Middlewares/Third_Party/LwIP/src/core/netif.c ****       netif_ip6_addr_set_state(netif, i, IP6_ADDR_TENTATIVE);
1589:Middlewares/Third_Party/LwIP/src/core/netif.c ****       if (chosen_idx != NULL) {
1590:Middlewares/Third_Party/LwIP/src/core/netif.c ****         *chosen_idx = i;
1591:Middlewares/Third_Party/LwIP/src/core/netif.c ****       }
1592:Middlewares/Third_Party/LwIP/src/core/netif.c ****       return ERR_OK;
1593:Middlewares/Third_Party/LwIP/src/core/netif.c ****     }
1594:Middlewares/Third_Party/LwIP/src/core/netif.c ****   }
1595:Middlewares/Third_Party/LwIP/src/core/netif.c **** 
1596:Middlewares/Third_Party/LwIP/src/core/netif.c ****   if (chosen_idx != NULL) {
1597:Middlewares/Third_Party/LwIP/src/core/netif.c ****     *chosen_idx = -1;
1598:Middlewares/Third_Party/LwIP/src/core/netif.c ****   }
1599:Middlewares/Third_Party/LwIP/src/core/netif.c ****   return ERR_VAL;
1600:Middlewares/Third_Party/LwIP/src/core/netif.c **** }
1601:Middlewares/Third_Party/LwIP/src/core/netif.c **** 
1602:Middlewares/Third_Party/LwIP/src/core/netif.c **** /** Dummy IPv6 output function for netifs not supporting IPv6
1603:Middlewares/Third_Party/LwIP/src/core/netif.c ****  */
1604:Middlewares/Third_Party/LwIP/src/core/netif.c **** static err_t
1605:Middlewares/Third_Party/LwIP/src/core/netif.c **** netif_null_output_ip6(struct netif *netif, struct pbuf *p, const ip6_addr_t *ipaddr)
1606:Middlewares/Third_Party/LwIP/src/core/netif.c **** {
1607:Middlewares/Third_Party/LwIP/src/core/netif.c ****   LWIP_UNUSED_ARG(netif);
1608:Middlewares/Third_Party/LwIP/src/core/netif.c ****   LWIP_UNUSED_ARG(p);
1609:Middlewares/Third_Party/LwIP/src/core/netif.c ****   LWIP_UNUSED_ARG(ipaddr);
1610:Middlewares/Third_Party/LwIP/src/core/netif.c **** 
1611:Middlewares/Third_Party/LwIP/src/core/netif.c ****   return ERR_IF;
1612:Middlewares/Third_Party/LwIP/src/core/netif.c **** }
1613:Middlewares/Third_Party/LwIP/src/core/netif.c **** #endif /* LWIP_IPV6 */
1614:Middlewares/Third_Party/LwIP/src/core/netif.c **** 
1615:Middlewares/Third_Party/LwIP/src/core/netif.c **** #if LWIP_IPV4
1616:Middlewares/Third_Party/LwIP/src/core/netif.c **** /** Dummy IPv4 output function for netifs not supporting IPv4
1617:Middlewares/Third_Party/LwIP/src/core/netif.c ****  */
1618:Middlewares/Third_Party/LwIP/src/core/netif.c **** static err_t
1619:Middlewares/Third_Party/LwIP/src/core/netif.c **** netif_null_output_ip4(struct netif *netif, struct pbuf *p, const ip4_addr_t *ipaddr)
1620:Middlewares/Third_Party/LwIP/src/core/netif.c **** {
 1918              		.loc 1 1620 1
 1919              		.cfi_startproc
 1920              		@ args = 0, pretend = 0, frame = 16
 1921              		@ frame_needed = 1, uses_anonymous_args = 0
 1922              		@ link register save eliminated.
 1923 0000 80B4     		push	{r7}
 1924              	.LCFI103:
 1925              		.cfi_def_cfa_offset 4
 1926              		.cfi_offset 7, -4
 1927 0002 85B0     		sub	sp, sp, #20
 1928              	.LCFI104:
 1929              		.cfi_def_cfa_offset 24
 1930 0004 00AF     		add	r7, sp, #0
 1931              	.LCFI105:
 1932              		.cfi_def_cfa_register 7
 1933 0006 F860     		str	r0, [r7, #12]
 1934 0008 B960     		str	r1, [r7, #8]
 1935 000a 7A60     		str	r2, [r7, #4]
1621:Middlewares/Third_Party/LwIP/src/core/netif.c ****   LWIP_UNUSED_ARG(netif);
1622:Middlewares/Third_Party/LwIP/src/core/netif.c ****   LWIP_UNUSED_ARG(p);
1623:Middlewares/Third_Party/LwIP/src/core/netif.c ****   LWIP_UNUSED_ARG(ipaddr);
1624:Middlewares/Third_Party/LwIP/src/core/netif.c **** 
ARM GAS  /tmp/ccKMFSjT.s 			page 64


1625:Middlewares/Third_Party/LwIP/src/core/netif.c ****   return ERR_IF;
 1936              		.loc 1 1625 10
 1937 000c 6FF00B03 		mvn	r3, #11
1626:Middlewares/Third_Party/LwIP/src/core/netif.c **** }
 1938              		.loc 1 1626 1
 1939 0010 1846     		mov	r0, r3
 1940 0012 1437     		adds	r7, r7, #20
 1941              	.LCFI106:
 1942              		.cfi_def_cfa_offset 4
 1943 0014 BD46     		mov	sp, r7
 1944              	.LCFI107:
 1945              		.cfi_def_cfa_register 13
 1946              		@ sp needed
 1947 0016 5DF8047B 		ldr	r7, [sp], #4
 1948              	.LCFI108:
 1949              		.cfi_restore 7
 1950              		.cfi_def_cfa_offset 0
 1951 001a 7047     		bx	lr
 1952              		.cfi_endproc
 1953              	.LFE157:
 1955              		.section	.text.netif_name_to_index,"ax",%progbits
 1956              		.align	1
 1957              		.global	netif_name_to_index
 1958              		.syntax unified
 1959              		.thumb
 1960              		.thumb_func
 1961              		.fpu fpv4-sp-d16
 1963              	netif_name_to_index:
 1964              	.LFB158:
1627:Middlewares/Third_Party/LwIP/src/core/netif.c **** #endif /* LWIP_IPV4 */
1628:Middlewares/Third_Party/LwIP/src/core/netif.c **** 
1629:Middlewares/Third_Party/LwIP/src/core/netif.c **** /**
1630:Middlewares/Third_Party/LwIP/src/core/netif.c **** * @ingroup netif
1631:Middlewares/Third_Party/LwIP/src/core/netif.c **** * Return the interface index for the netif with name
1632:Middlewares/Third_Party/LwIP/src/core/netif.c **** * or NETIF_NO_INDEX if not found/on error
1633:Middlewares/Third_Party/LwIP/src/core/netif.c **** *
1634:Middlewares/Third_Party/LwIP/src/core/netif.c **** * @param name the name of the netif
1635:Middlewares/Third_Party/LwIP/src/core/netif.c **** */
1636:Middlewares/Third_Party/LwIP/src/core/netif.c **** u8_t
1637:Middlewares/Third_Party/LwIP/src/core/netif.c **** netif_name_to_index(const char *name)
1638:Middlewares/Third_Party/LwIP/src/core/netif.c **** {
 1965              		.loc 1 1638 1
 1966              		.cfi_startproc
 1967              		@ args = 0, pretend = 0, frame = 16
 1968              		@ frame_needed = 1, uses_anonymous_args = 0
 1969 0000 80B5     		push	{r7, lr}
 1970              	.LCFI109:
 1971              		.cfi_def_cfa_offset 8
 1972              		.cfi_offset 7, -8
 1973              		.cfi_offset 14, -4
 1974 0002 84B0     		sub	sp, sp, #16
 1975              	.LCFI110:
 1976              		.cfi_def_cfa_offset 24
 1977 0004 00AF     		add	r7, sp, #0
 1978              	.LCFI111:
 1979              		.cfi_def_cfa_register 7
 1980 0006 7860     		str	r0, [r7, #4]
ARM GAS  /tmp/ccKMFSjT.s 			page 65


1639:Middlewares/Third_Party/LwIP/src/core/netif.c ****   struct netif *netif = netif_find(name);
 1981              		.loc 1 1639 25
 1982 0008 7868     		ldr	r0, [r7, #4]
 1983 000a FFF7FEFF 		bl	netif_find
 1984 000e F860     		str	r0, [r7, #12]
1640:Middlewares/Third_Party/LwIP/src/core/netif.c ****   if (netif != NULL) {
 1985              		.loc 1 1640 6
 1986 0010 FB68     		ldr	r3, [r7, #12]
 1987 0012 002B     		cmp	r3, #0
 1988 0014 05D0     		beq	.L131
1641:Middlewares/Third_Party/LwIP/src/core/netif.c ****     return netif_get_index(netif);
 1989              		.loc 1 1641 12
 1990 0016 FB68     		ldr	r3, [r7, #12]
 1991 0018 93F83430 		ldrb	r3, [r3, #52]	@ zero_extendqisi2
 1992 001c 0133     		adds	r3, r3, #1
 1993 001e DBB2     		uxtb	r3, r3
 1994 0020 00E0     		b	.L132
 1995              	.L131:
1642:Middlewares/Third_Party/LwIP/src/core/netif.c ****   }
1643:Middlewares/Third_Party/LwIP/src/core/netif.c ****   /* No name found, return invalid index */
1644:Middlewares/Third_Party/LwIP/src/core/netif.c ****   return NETIF_NO_INDEX;
 1996              		.loc 1 1644 10
 1997 0022 0023     		movs	r3, #0
 1998              	.L132:
1645:Middlewares/Third_Party/LwIP/src/core/netif.c **** }
 1999              		.loc 1 1645 1
 2000 0024 1846     		mov	r0, r3
 2001 0026 1037     		adds	r7, r7, #16
 2002              	.LCFI112:
 2003              		.cfi_def_cfa_offset 8
 2004 0028 BD46     		mov	sp, r7
 2005              	.LCFI113:
 2006              		.cfi_def_cfa_register 13
 2007              		@ sp needed
 2008 002a 80BD     		pop	{r7, pc}
 2009              		.cfi_endproc
 2010              	.LFE158:
 2012              		.section	.text.netif_index_to_name,"ax",%progbits
 2013              		.align	1
 2014              		.global	netif_index_to_name
 2015              		.syntax unified
 2016              		.thumb
 2017              		.thumb_func
 2018              		.fpu fpv4-sp-d16
 2020              	netif_index_to_name:
 2021              	.LFB159:
1646:Middlewares/Third_Party/LwIP/src/core/netif.c **** 
1647:Middlewares/Third_Party/LwIP/src/core/netif.c **** /**
1648:Middlewares/Third_Party/LwIP/src/core/netif.c **** * @ingroup netif
1649:Middlewares/Third_Party/LwIP/src/core/netif.c **** * Return the interface name for the netif matching index
1650:Middlewares/Third_Party/LwIP/src/core/netif.c **** * or NULL if not found/on error
1651:Middlewares/Third_Party/LwIP/src/core/netif.c **** *
1652:Middlewares/Third_Party/LwIP/src/core/netif.c **** * @param idx the interface index of the netif
1653:Middlewares/Third_Party/LwIP/src/core/netif.c **** * @param name char buffer of at least NETIF_NAMESIZE bytes
1654:Middlewares/Third_Party/LwIP/src/core/netif.c **** */
1655:Middlewares/Third_Party/LwIP/src/core/netif.c **** char *
1656:Middlewares/Third_Party/LwIP/src/core/netif.c **** netif_index_to_name(u8_t idx, char *name)
ARM GAS  /tmp/ccKMFSjT.s 			page 66


1657:Middlewares/Third_Party/LwIP/src/core/netif.c **** {
 2022              		.loc 1 1657 1
 2023              		.cfi_startproc
 2024              		@ args = 0, pretend = 0, frame = 16
 2025              		@ frame_needed = 1, uses_anonymous_args = 0
 2026 0000 80B5     		push	{r7, lr}
 2027              	.LCFI114:
 2028              		.cfi_def_cfa_offset 8
 2029              		.cfi_offset 7, -8
 2030              		.cfi_offset 14, -4
 2031 0002 84B0     		sub	sp, sp, #16
 2032              	.LCFI115:
 2033              		.cfi_def_cfa_offset 24
 2034 0004 00AF     		add	r7, sp, #0
 2035              	.LCFI116:
 2036              		.cfi_def_cfa_register 7
 2037 0006 0346     		mov	r3, r0
 2038 0008 3960     		str	r1, [r7]
 2039 000a FB71     		strb	r3, [r7, #7]
1658:Middlewares/Third_Party/LwIP/src/core/netif.c ****   struct netif *netif = netif_get_by_index(idx);
 2040              		.loc 1 1658 25
 2041 000c FB79     		ldrb	r3, [r7, #7]	@ zero_extendqisi2
 2042 000e 1846     		mov	r0, r3
 2043 0010 FFF7FEFF 		bl	netif_get_by_index
 2044 0014 F860     		str	r0, [r7, #12]
1659:Middlewares/Third_Party/LwIP/src/core/netif.c **** 
1660:Middlewares/Third_Party/LwIP/src/core/netif.c ****   if (netif != NULL) {
 2045              		.loc 1 1660 6
 2046 0016 FB68     		ldr	r3, [r7, #12]
 2047 0018 002B     		cmp	r3, #0
 2048 001a 14D0     		beq	.L134
1661:Middlewares/Third_Party/LwIP/src/core/netif.c ****     name[0] = netif->name[0];
 2049              		.loc 1 1661 26
 2050 001c FB68     		ldr	r3, [r7, #12]
 2051 001e 93F83220 		ldrb	r2, [r3, #50]	@ zero_extendqisi2
 2052              		.loc 1 1661 13
 2053 0022 3B68     		ldr	r3, [r7]
 2054 0024 1A70     		strb	r2, [r3]
1662:Middlewares/Third_Party/LwIP/src/core/netif.c ****     name[1] = netif->name[1];
 2055              		.loc 1 1662 9
 2056 0026 3B68     		ldr	r3, [r7]
 2057 0028 0133     		adds	r3, r3, #1
 2058              		.loc 1 1662 26
 2059 002a FA68     		ldr	r2, [r7, #12]
 2060 002c 92F83320 		ldrb	r2, [r2, #51]	@ zero_extendqisi2
 2061              		.loc 1 1662 13
 2062 0030 1A70     		strb	r2, [r3]
1663:Middlewares/Third_Party/LwIP/src/core/netif.c ****     lwip_itoa(&name[2], NETIF_NAMESIZE - 2, netif_index_to_num(idx));
 2063              		.loc 1 1663 5
 2064 0032 3B68     		ldr	r3, [r7]
 2065 0034 981C     		adds	r0, r3, #2
 2066 0036 FB79     		ldrb	r3, [r7, #7]	@ zero_extendqisi2
 2067 0038 013B     		subs	r3, r3, #1
 2068 003a 1A46     		mov	r2, r3
 2069 003c 0421     		movs	r1, #4
 2070 003e FFF7FEFF 		bl	lwip_itoa
1664:Middlewares/Third_Party/LwIP/src/core/netif.c ****     return name;
ARM GAS  /tmp/ccKMFSjT.s 			page 67


 2071              		.loc 1 1664 12
 2072 0042 3B68     		ldr	r3, [r7]
 2073 0044 00E0     		b	.L135
 2074              	.L134:
1665:Middlewares/Third_Party/LwIP/src/core/netif.c ****   }
1666:Middlewares/Third_Party/LwIP/src/core/netif.c ****   return NULL;
 2075              		.loc 1 1666 10
 2076 0046 0023     		movs	r3, #0
 2077              	.L135:
1667:Middlewares/Third_Party/LwIP/src/core/netif.c **** }
 2078              		.loc 1 1667 1
 2079 0048 1846     		mov	r0, r3
 2080 004a 1037     		adds	r7, r7, #16
 2081              	.LCFI117:
 2082              		.cfi_def_cfa_offset 8
 2083 004c BD46     		mov	sp, r7
 2084              	.LCFI118:
 2085              		.cfi_def_cfa_register 13
 2086              		@ sp needed
 2087 004e 80BD     		pop	{r7, pc}
 2088              		.cfi_endproc
 2089              	.LFE159:
 2091              		.section	.text.netif_get_by_index,"ax",%progbits
 2092              		.align	1
 2093              		.global	netif_get_by_index
 2094              		.syntax unified
 2095              		.thumb
 2096              		.thumb_func
 2097              		.fpu fpv4-sp-d16
 2099              	netif_get_by_index:
 2100              	.LFB160:
1668:Middlewares/Third_Party/LwIP/src/core/netif.c **** 
1669:Middlewares/Third_Party/LwIP/src/core/netif.c **** /**
1670:Middlewares/Third_Party/LwIP/src/core/netif.c **** * @ingroup netif
1671:Middlewares/Third_Party/LwIP/src/core/netif.c **** * Return the interface for the netif index
1672:Middlewares/Third_Party/LwIP/src/core/netif.c **** *
1673:Middlewares/Third_Party/LwIP/src/core/netif.c **** * @param idx index of netif to find
1674:Middlewares/Third_Party/LwIP/src/core/netif.c **** */
1675:Middlewares/Third_Party/LwIP/src/core/netif.c **** struct netif *
1676:Middlewares/Third_Party/LwIP/src/core/netif.c **** netif_get_by_index(u8_t idx)
1677:Middlewares/Third_Party/LwIP/src/core/netif.c **** {
 2101              		.loc 1 1677 1
 2102              		.cfi_startproc
 2103              		@ args = 0, pretend = 0, frame = 16
 2104              		@ frame_needed = 1, uses_anonymous_args = 0
 2105              		@ link register save eliminated.
 2106 0000 80B4     		push	{r7}
 2107              	.LCFI119:
 2108              		.cfi_def_cfa_offset 4
 2109              		.cfi_offset 7, -4
 2110 0002 85B0     		sub	sp, sp, #20
 2111              	.LCFI120:
 2112              		.cfi_def_cfa_offset 24
 2113 0004 00AF     		add	r7, sp, #0
 2114              	.LCFI121:
 2115              		.cfi_def_cfa_register 7
 2116 0006 0346     		mov	r3, r0
ARM GAS  /tmp/ccKMFSjT.s 			page 68


 2117 0008 FB71     		strb	r3, [r7, #7]
1678:Middlewares/Third_Party/LwIP/src/core/netif.c ****   struct netif *netif;
1679:Middlewares/Third_Party/LwIP/src/core/netif.c **** 
1680:Middlewares/Third_Party/LwIP/src/core/netif.c ****   LWIP_ASSERT_CORE_LOCKED();
1681:Middlewares/Third_Party/LwIP/src/core/netif.c **** 
1682:Middlewares/Third_Party/LwIP/src/core/netif.c ****   if (idx != NETIF_NO_INDEX) {
 2118              		.loc 1 1682 6
 2119 000a FB79     		ldrb	r3, [r7, #7]	@ zero_extendqisi2
 2120 000c 002B     		cmp	r3, #0
 2121 000e 13D0     		beq	.L137
1683:Middlewares/Third_Party/LwIP/src/core/netif.c ****     NETIF_FOREACH(netif) {
 2122              		.loc 1 1683 5
 2123 0010 0D4B     		ldr	r3, .L142
 2124 0012 1B68     		ldr	r3, [r3]
 2125 0014 FB60     		str	r3, [r7, #12]
 2126 0016 0CE0     		b	.L138
 2127              	.L141:
1684:Middlewares/Third_Party/LwIP/src/core/netif.c ****       if (idx == netif_get_index(netif)) {
 2128              		.loc 1 1684 18
 2129 0018 FB68     		ldr	r3, [r7, #12]
 2130 001a 93F83430 		ldrb	r3, [r3, #52]	@ zero_extendqisi2
 2131 001e 0133     		adds	r3, r3, #1
 2132 0020 DBB2     		uxtb	r3, r3
 2133              		.loc 1 1684 10
 2134 0022 FA79     		ldrb	r2, [r7, #7]	@ zero_extendqisi2
 2135 0024 9A42     		cmp	r2, r3
 2136 0026 01D1     		bne	.L139
1685:Middlewares/Third_Party/LwIP/src/core/netif.c ****         return netif; /* found! */
 2137              		.loc 1 1685 16
 2138 0028 FB68     		ldr	r3, [r7, #12]
 2139 002a 06E0     		b	.L140
 2140              	.L139:
1683:Middlewares/Third_Party/LwIP/src/core/netif.c ****     NETIF_FOREACH(netif) {
 2141              		.loc 1 1683 5 discriminator 2
 2142 002c FB68     		ldr	r3, [r7, #12]
 2143 002e 1B68     		ldr	r3, [r3]
 2144 0030 FB60     		str	r3, [r7, #12]
 2145              	.L138:
1683:Middlewares/Third_Party/LwIP/src/core/netif.c ****     NETIF_FOREACH(netif) {
 2146              		.loc 1 1683 5 is_stmt 0 discriminator 1
 2147 0032 FB68     		ldr	r3, [r7, #12]
 2148 0034 002B     		cmp	r3, #0
 2149 0036 EFD1     		bne	.L141
 2150              	.L137:
1686:Middlewares/Third_Party/LwIP/src/core/netif.c ****       }
1687:Middlewares/Third_Party/LwIP/src/core/netif.c ****     }
1688:Middlewares/Third_Party/LwIP/src/core/netif.c ****   }
1689:Middlewares/Third_Party/LwIP/src/core/netif.c **** 
1690:Middlewares/Third_Party/LwIP/src/core/netif.c ****   return NULL;
 2151              		.loc 1 1690 10 is_stmt 1
 2152 0038 0023     		movs	r3, #0
 2153              	.L140:
1691:Middlewares/Third_Party/LwIP/src/core/netif.c **** }
 2154              		.loc 1 1691 1
 2155 003a 1846     		mov	r0, r3
 2156 003c 1437     		adds	r7, r7, #20
 2157              	.LCFI122:
ARM GAS  /tmp/ccKMFSjT.s 			page 69


 2158              		.cfi_def_cfa_offset 4
 2159 003e BD46     		mov	sp, r7
 2160              	.LCFI123:
 2161              		.cfi_def_cfa_register 13
 2162              		@ sp needed
 2163 0040 5DF8047B 		ldr	r7, [sp], #4
 2164              	.LCFI124:
 2165              		.cfi_restore 7
 2166              		.cfi_def_cfa_offset 0
 2167 0044 7047     		bx	lr
 2168              	.L143:
 2169 0046 00BF     		.align	2
 2170              	.L142:
 2171 0048 00000000 		.word	netif_list
 2172              		.cfi_endproc
 2173              	.LFE160:
 2175              		.section	.text.netif_find,"ax",%progbits
 2176              		.align	1
 2177              		.global	netif_find
 2178              		.syntax unified
 2179              		.thumb
 2180              		.thumb_func
 2181              		.fpu fpv4-sp-d16
 2183              	netif_find:
 2184              	.LFB161:
1692:Middlewares/Third_Party/LwIP/src/core/netif.c **** 
1693:Middlewares/Third_Party/LwIP/src/core/netif.c **** /**
1694:Middlewares/Third_Party/LwIP/src/core/netif.c ****  * @ingroup netif
1695:Middlewares/Third_Party/LwIP/src/core/netif.c ****  * Find a network interface by searching for its name
1696:Middlewares/Third_Party/LwIP/src/core/netif.c ****  *
1697:Middlewares/Third_Party/LwIP/src/core/netif.c ****  * @param name the name of the netif (like netif->name) plus concatenated number
1698:Middlewares/Third_Party/LwIP/src/core/netif.c ****  * in ascii representation (e.g. 'en0')
1699:Middlewares/Third_Party/LwIP/src/core/netif.c ****  */
1700:Middlewares/Third_Party/LwIP/src/core/netif.c **** struct netif *
1701:Middlewares/Third_Party/LwIP/src/core/netif.c **** netif_find(const char *name)
1702:Middlewares/Third_Party/LwIP/src/core/netif.c **** {
 2185              		.loc 1 1702 1
 2186              		.cfi_startproc
 2187              		@ args = 0, pretend = 0, frame = 16
 2188              		@ frame_needed = 1, uses_anonymous_args = 0
 2189 0000 80B5     		push	{r7, lr}
 2190              	.LCFI125:
 2191              		.cfi_def_cfa_offset 8
 2192              		.cfi_offset 7, -8
 2193              		.cfi_offset 14, -4
 2194 0002 84B0     		sub	sp, sp, #16
 2195              	.LCFI126:
 2196              		.cfi_def_cfa_offset 24
 2197 0004 00AF     		add	r7, sp, #0
 2198              	.LCFI127:
 2199              		.cfi_def_cfa_register 7
 2200 0006 7860     		str	r0, [r7, #4]
1703:Middlewares/Third_Party/LwIP/src/core/netif.c ****   struct netif *netif;
1704:Middlewares/Third_Party/LwIP/src/core/netif.c ****   u8_t num;
1705:Middlewares/Third_Party/LwIP/src/core/netif.c **** 
1706:Middlewares/Third_Party/LwIP/src/core/netif.c ****   LWIP_ASSERT_CORE_LOCKED();
1707:Middlewares/Third_Party/LwIP/src/core/netif.c **** 
ARM GAS  /tmp/ccKMFSjT.s 			page 70


1708:Middlewares/Third_Party/LwIP/src/core/netif.c ****   if (name == NULL) {
 2201              		.loc 1 1708 6
 2202 0008 7B68     		ldr	r3, [r7, #4]
 2203 000a 002B     		cmp	r3, #0
 2204 000c 01D1     		bne	.L145
1709:Middlewares/Third_Party/LwIP/src/core/netif.c ****     return NULL;
 2205              		.loc 1 1709 12
 2206 000e 0023     		movs	r3, #0
 2207 0010 28E0     		b	.L146
 2208              	.L145:
1710:Middlewares/Third_Party/LwIP/src/core/netif.c ****   }
1711:Middlewares/Third_Party/LwIP/src/core/netif.c **** 
1712:Middlewares/Third_Party/LwIP/src/core/netif.c ****   num = (u8_t)atoi(&name[2]);
 2209              		.loc 1 1712 15
 2210 0012 7B68     		ldr	r3, [r7, #4]
 2211 0014 0233     		adds	r3, r3, #2
 2212 0016 1846     		mov	r0, r3
 2213 0018 FFF7FEFF 		bl	atoi
 2214 001c 0346     		mov	r3, r0
 2215              		.loc 1 1712 7
 2216 001e FB72     		strb	r3, [r7, #11]
1713:Middlewares/Third_Party/LwIP/src/core/netif.c **** 
1714:Middlewares/Third_Party/LwIP/src/core/netif.c ****   NETIF_FOREACH(netif) {
 2217              		.loc 1 1714 3
 2218 0020 124B     		ldr	r3, .L150
 2219 0022 1B68     		ldr	r3, [r3]
 2220 0024 FB60     		str	r3, [r7, #12]
 2221 0026 19E0     		b	.L147
 2222              	.L149:
1715:Middlewares/Third_Party/LwIP/src/core/netif.c ****     if (num == netif->num &&
 2223              		.loc 1 1715 21
 2224 0028 FB68     		ldr	r3, [r7, #12]
 2225 002a 93F83430 		ldrb	r3, [r3, #52]	@ zero_extendqisi2
 2226              		.loc 1 1715 8
 2227 002e FA7A     		ldrb	r2, [r7, #11]	@ zero_extendqisi2
 2228 0030 9A42     		cmp	r2, r3
 2229 0032 10D1     		bne	.L148
1716:Middlewares/Third_Party/LwIP/src/core/netif.c ****         name[0] == netif->name[0] &&
 2230              		.loc 1 1716 13 discriminator 1
 2231 0034 7B68     		ldr	r3, [r7, #4]
 2232 0036 1A78     		ldrb	r2, [r3]	@ zero_extendqisi2
 2233              		.loc 1 1716 31 discriminator 1
 2234 0038 FB68     		ldr	r3, [r7, #12]
 2235 003a 93F83230 		ldrb	r3, [r3, #50]	@ zero_extendqisi2
1715:Middlewares/Third_Party/LwIP/src/core/netif.c ****     if (num == netif->num &&
 2236              		.loc 1 1715 27 discriminator 1
 2237 003e 9A42     		cmp	r2, r3
 2238 0040 09D1     		bne	.L148
1717:Middlewares/Third_Party/LwIP/src/core/netif.c ****         name[1] == netif->name[1]) {
 2239              		.loc 1 1717 13
 2240 0042 7B68     		ldr	r3, [r7, #4]
 2241 0044 0133     		adds	r3, r3, #1
 2242 0046 1A78     		ldrb	r2, [r3]	@ zero_extendqisi2
 2243              		.loc 1 1717 31
 2244 0048 FB68     		ldr	r3, [r7, #12]
 2245 004a 93F83330 		ldrb	r3, [r3, #51]	@ zero_extendqisi2
1716:Middlewares/Third_Party/LwIP/src/core/netif.c ****         name[0] == netif->name[0] &&
ARM GAS  /tmp/ccKMFSjT.s 			page 71


 2246              		.loc 1 1716 35
 2247 004e 9A42     		cmp	r2, r3
 2248 0050 01D1     		bne	.L148
1718:Middlewares/Third_Party/LwIP/src/core/netif.c ****       LWIP_DEBUGF(NETIF_DEBUG, ("netif_find: found %c%c\n", name[0], name[1]));
1719:Middlewares/Third_Party/LwIP/src/core/netif.c ****       return netif;
 2249              		.loc 1 1719 14
 2250 0052 FB68     		ldr	r3, [r7, #12]
 2251 0054 06E0     		b	.L146
 2252              	.L148:
1714:Middlewares/Third_Party/LwIP/src/core/netif.c ****     if (num == netif->num &&
 2253              		.loc 1 1714 3 discriminator 2
 2254 0056 FB68     		ldr	r3, [r7, #12]
 2255 0058 1B68     		ldr	r3, [r3]
 2256 005a FB60     		str	r3, [r7, #12]
 2257              	.L147:
1714:Middlewares/Third_Party/LwIP/src/core/netif.c ****     if (num == netif->num &&
 2258              		.loc 1 1714 3 is_stmt 0 discriminator 1
 2259 005c FB68     		ldr	r3, [r7, #12]
 2260 005e 002B     		cmp	r3, #0
 2261 0060 E2D1     		bne	.L149
1720:Middlewares/Third_Party/LwIP/src/core/netif.c ****     }
1721:Middlewares/Third_Party/LwIP/src/core/netif.c ****   }
1722:Middlewares/Third_Party/LwIP/src/core/netif.c ****   LWIP_DEBUGF(NETIF_DEBUG, ("netif_find: didn't find %c%c\n", name[0], name[1]));
1723:Middlewares/Third_Party/LwIP/src/core/netif.c ****   return NULL;
 2262              		.loc 1 1723 10 is_stmt 1
 2263 0062 0023     		movs	r3, #0
 2264              	.L146:
1724:Middlewares/Third_Party/LwIP/src/core/netif.c **** }
 2265              		.loc 1 1724 1
 2266 0064 1846     		mov	r0, r3
 2267 0066 1037     		adds	r7, r7, #16
 2268              	.LCFI128:
 2269              		.cfi_def_cfa_offset 8
 2270 0068 BD46     		mov	sp, r7
 2271              	.LCFI129:
 2272              		.cfi_def_cfa_register 13
 2273              		@ sp needed
 2274 006a 80BD     		pop	{r7, pc}
 2275              	.L151:
 2276              		.align	2
 2277              	.L150:
 2278 006c 00000000 		.word	netif_list
 2279              		.cfi_endproc
 2280              	.LFE161:
 2282              		.text
 2283              	.Letext0:
 2284              		.file 2 "/home/mego-ros2/microros_ws/firmware/toolchain/arm-none-eabi/include/machine/_default_typ
 2285              		.file 3 "/home/mego-ros2/microros_ws/firmware/toolchain/arm-none-eabi/include/sys/_stdint.h"
 2286              		.file 4 "Drivers/CMSIS/Include/core_cm4.h"
 2287              		.file 5 "Drivers/CMSIS/Device/ST/STM32F4xx/Include/system_stm32f4xx.h"
 2288              		.file 6 "Drivers/STM32F4xx_HAL_Driver/Inc/stm32f4xx_hal.h"
 2289              		.file 7 "/home/mego-ros2/microros_ws/firmware/toolchain/lib/gcc/arm-none-eabi/8.3.1/include/stddef
 2290              		.file 8 "/home/mego-ros2/microros_ws/firmware/toolchain/arm-none-eabi/include/sys/_types.h"
 2291              		.file 9 "/home/mego-ros2/microros_ws/firmware/toolchain/arm-none-eabi/include/sys/reent.h"
 2292              		.file 10 "/home/mego-ros2/microros_ws/firmware/toolchain/arm-none-eabi/include/sys/lock.h"
 2293              		.file 11 "/home/mego-ros2/microros_ws/firmware/toolchain/arm-none-eabi/include/stdlib.h"
 2294              		.file 12 "Middlewares/Third_Party/LwIP/src/include/lwip/arch.h"
ARM GAS  /tmp/ccKMFSjT.s 			page 72


 2295              		.file 13 "/home/mego-ros2/microros_ws/firmware/toolchain/arm-none-eabi/include/ctype.h"
 2296              		.file 14 "Middlewares/Third_Party/LwIP/src/include/lwip/ip4_addr.h"
 2297              		.file 15 "Middlewares/Third_Party/LwIP/src/include/lwip/ip_addr.h"
 2298              		.file 16 "Middlewares/Third_Party/LwIP/src/include/lwip/err.h"
 2299              		.file 17 "Middlewares/Third_Party/LwIP/src/include/lwip/pbuf.h"
 2300              		.file 18 "Middlewares/Third_Party/LwIP/src/include/lwip/memp.h"
 2301              		.file 19 "Middlewares/Third_Party/LwIP/src/include/lwip/priv/memp_priv.h"
 2302              		.file 20 "Middlewares/Third_Party/LwIP/src/include/lwip/netif.h"
 2303              		.file 21 "Middlewares/Third_Party/LwIP/src/include/lwip/tcpbase.h"
 2304              		.file 22 "Middlewares/Third_Party/LwIP/src/include/lwip/prot/ip4.h"
 2305              		.file 23 "Middlewares/Third_Party/LwIP/src/include/lwip/ip.h"
 2306              		.file 24 "Middlewares/Third_Party/LwIP/src/include/lwip/tcp.h"
 2307              		.file 25 "Middlewares/Third_Party/LwIP/src/include/lwip/priv/tcp_priv.h"
 2308              		.file 26 "Middlewares/Third_Party/LwIP/src/include/lwip/prot/tcp.h"
 2309              		.file 27 "Middlewares/Third_Party/LwIP/src/include/lwip/udp.h"
 2310              		.file 28 "Middlewares/Third_Party/LwIP/src/include/lwip/prot/ethernet.h"
 2311              		.file 29 "Middlewares/Third_Party/LwIP/src/include/netif/ethernet.h"
ARM GAS  /tmp/ccKMFSjT.s 			page 73

