ARM GAS  /tmp/ccKqF7MA.s 			page 1


   1              		.cpu cortex-m4
   2              		.eabi_attribute 27, 1
   3              		.eabi_attribute 28, 1
   4              		.eabi_attribute 20, 1
   5              		.eabi_attribute 21, 1
   6              		.eabi_attribute 23, 3
   7              		.eabi_attribute 24, 1
   8              		.eabi_attribute 25, 1
   9              		.eabi_attribute 26, 1
  10              		.eabi_attribute 30, 6
  11              		.eabi_attribute 34, 1
  12              		.eabi_attribute 18, 4
  13              		.file	"pwm.c"
  14              		.text
  15              	.Ltext0:
  16              		.cfi_sections	.debug_frame
  17              		.section	.text.PWM_Init,"ax",%progbits
  18              		.align	1
  19              		.global	PWM_Init
  20              		.arch armv7e-m
  21              		.syntax unified
  22              		.thumb
  23              		.thumb_func
  24              		.fpu fpv4-sp-d16
  26              	PWM_Init:
  27              	.LFB130:
  28              		.file 1 "Component/PWM/pwm.c"
   1:Component/PWM/pwm.c **** #include"pwm.h"
   2:Component/PWM/pwm.c **** 
   3:Component/PWM/pwm.c **** void PWM_Init(){
  29              		.loc 1 3 16
  30              		.cfi_startproc
  31              		@ args = 0, pretend = 0, frame = 0
  32              		@ frame_needed = 1, uses_anonymous_args = 0
  33              		@ link register save eliminated.
  34 0000 80B4     		push	{r7}
  35              	.LCFI0:
  36              		.cfi_def_cfa_offset 4
  37              		.cfi_offset 7, -4
  38 0002 00AF     		add	r7, sp, #0
  39              	.LCFI1:
  40              		.cfi_def_cfa_register 7
   4:Component/PWM/pwm.c **** 
   5:Component/PWM/pwm.c **** }
  41              		.loc 1 5 1
  42 0004 00BF     		nop
  43 0006 BD46     		mov	sp, r7
  44              	.LCFI2:
  45              		.cfi_def_cfa_register 13
  46              		@ sp needed
  47 0008 5DF8047B 		ldr	r7, [sp], #4
  48              	.LCFI3:
  49              		.cfi_restore 7
  50              		.cfi_def_cfa_offset 0
  51 000c 7047     		bx	lr
  52              		.cfi_endproc
  53              	.LFE130:
ARM GAS  /tmp/ccKqF7MA.s 			page 2


  55              		.section	.text.PWM_SetMode,"ax",%progbits
  56              		.align	1
  57              		.global	PWM_SetMode
  58              		.syntax unified
  59              		.thumb
  60              		.thumb_func
  61              		.fpu fpv4-sp-d16
  63              	PWM_SetMode:
  64              	.LFB131:
   6:Component/PWM/pwm.c **** 
   7:Component/PWM/pwm.c **** void PWM_SetMode(PWM_Mode_t _mode){
  65              		.loc 1 7 35
  66              		.cfi_startproc
  67              		@ args = 0, pretend = 0, frame = 8
  68              		@ frame_needed = 1, uses_anonymous_args = 0
  69 0000 80B5     		push	{r7, lr}
  70              	.LCFI4:
  71              		.cfi_def_cfa_offset 8
  72              		.cfi_offset 7, -8
  73              		.cfi_offset 14, -4
  74 0002 82B0     		sub	sp, sp, #8
  75              	.LCFI5:
  76              		.cfi_def_cfa_offset 16
  77 0004 00AF     		add	r7, sp, #0
  78              	.LCFI6:
  79              		.cfi_def_cfa_register 7
  80 0006 0346     		mov	r3, r0
  81 0008 FB71     		strb	r3, [r7, #7]
   8:Component/PWM/pwm.c **** 	if(_mode == PWM_OPM){
  82              		.loc 1 8 4
  83 000a FB79     		ldrb	r3, [r7, #7]	@ zero_extendqisi2
  84 000c 002B     		cmp	r3, #0
  85 000e 04D1     		bne	.L3
   9:Component/PWM/pwm.c **** 		HAL_TIM_PWM_Stop(&htim9, TIM_CHANNEL_1);
  86              		.loc 1 9 3
  87 0010 0021     		movs	r1, #0
  88 0012 0748     		ldr	r0, .L6
  89 0014 FFF7FEFF 		bl	HAL_TIM_PWM_Stop
  10:Component/PWM/pwm.c **** 	} else if(_mode == PWM_NOR){
  11:Component/PWM/pwm.c **** 		HAL_TIM_PWM_Start(&htim9, TIM_CHANNEL_1);
  12:Component/PWM/pwm.c **** 	}
  13:Component/PWM/pwm.c **** }
  90              		.loc 1 13 1
  91 0018 06E0     		b	.L5
  92              	.L3:
  10:Component/PWM/pwm.c **** 	} else if(_mode == PWM_NOR){
  93              		.loc 1 10 11
  94 001a FB79     		ldrb	r3, [r7, #7]	@ zero_extendqisi2
  95 001c 012B     		cmp	r3, #1
  96 001e 03D1     		bne	.L5
  11:Component/PWM/pwm.c **** 	}
  97              		.loc 1 11 3
  98 0020 0021     		movs	r1, #0
  99 0022 0348     		ldr	r0, .L6
 100 0024 FFF7FEFF 		bl	HAL_TIM_PWM_Start
 101              	.L5:
 102              		.loc 1 13 1
ARM GAS  /tmp/ccKqF7MA.s 			page 3


 103 0028 00BF     		nop
 104 002a 0837     		adds	r7, r7, #8
 105              	.LCFI7:
 106              		.cfi_def_cfa_offset 8
 107 002c BD46     		mov	sp, r7
 108              	.LCFI8:
 109              		.cfi_def_cfa_register 13
 110              		@ sp needed
 111 002e 80BD     		pop	{r7, pc}
 112              	.L7:
 113              		.align	2
 114              	.L6:
 115 0030 00000000 		.word	htim9
 116              		.cfi_endproc
 117              	.LFE131:
 119              		.text
 120              	.Letext0:
 121              		.file 2 "/home/mego/microros_ws/firmware/toolchain/arm-none-eabi/include/machine/_default_types.h"
 122              		.file 3 "/home/mego/microros_ws/firmware/toolchain/arm-none-eabi/include/sys/_stdint.h"
 123              		.file 4 "Drivers/CMSIS/Include/core_cm4.h"
 124              		.file 5 "Drivers/CMSIS/Device/ST/STM32F4xx/Include/system_stm32f4xx.h"
 125              		.file 6 "Drivers/CMSIS/Device/ST/STM32F4xx/Include/stm32f407xx.h"
 126              		.file 7 "Drivers/STM32F4xx_HAL_Driver/Inc/stm32f4xx_hal_def.h"
 127              		.file 8 "Drivers/STM32F4xx_HAL_Driver/Inc/stm32f4xx_hal_dma.h"
 128              		.file 9 "Drivers/STM32F4xx_HAL_Driver/Inc/stm32f4xx_hal_tim.h"
 129              		.file 10 "Drivers/STM32F4xx_HAL_Driver/Inc/stm32f4xx_hal.h"
 130              		.file 11 "Core/Inc/tim.h"
 131              		.file 12 "Component/PWM/pwm.h"
ARM GAS  /tmp/ccKqF7MA.s 			page 4

