ARM GAS  /tmp/ccsCUhT2.s 			page 1


   1              		.cpu cortex-m4
   2              		.eabi_attribute 27, 1
   3              		.eabi_attribute 28, 1
   4              		.eabi_attribute 20, 1
   5              		.eabi_attribute 21, 1
   6              		.eabi_attribute 23, 3
   7              		.eabi_attribute 24, 1
   8              		.eabi_attribute 25, 1
   9              		.eabi_attribute 26, 1
  10              		.eabi_attribute 30, 6
  11              		.eabi_attribute 34, 1
  12              		.eabi_attribute 18, 4
  13              		.file	"sockets.c"
  14              		.text
  15              	.Ltext0:
  16              		.cfi_sections	.debug_frame
  17              		.section	.bss.sockets,"aw",%nobits
  18              		.align	2
  21              	sockets:
  22 0000 00000000 		.space	64
  22      00000000 
  22      00000000 
  22      00000000 
  22      00000000 
  23              		.section	.bss.select_cb_list,"aw",%nobits
  24              		.align	2
  27              	select_cb_list:
  28 0000 00000000 		.space	4
  29              		.section	.text.lwip_socket_thread_init,"ax",%progbits
  30              		.align	1
  31              		.global	lwip_socket_thread_init
  32              		.arch armv7e-m
  33              		.syntax unified
  34              		.thumb
  35              		.thumb_func
  36              		.fpu fpv4-sp-d16
  38              	lwip_socket_thread_init:
  39              	.LFB137:
  40              		.file 1 "Middlewares/Third_Party/LwIP/src/api/sockets.c"
   1:Middlewares/Third_Party/LwIP/src/api/sockets.c **** /**
   2:Middlewares/Third_Party/LwIP/src/api/sockets.c ****  * @file
   3:Middlewares/Third_Party/LwIP/src/api/sockets.c ****  * Sockets BSD-Like API module
   4:Middlewares/Third_Party/LwIP/src/api/sockets.c ****  */
   5:Middlewares/Third_Party/LwIP/src/api/sockets.c **** 
   6:Middlewares/Third_Party/LwIP/src/api/sockets.c **** /*
   7:Middlewares/Third_Party/LwIP/src/api/sockets.c ****  * Copyright (c) 2001-2004 Swedish Institute of Computer Science.
   8:Middlewares/Third_Party/LwIP/src/api/sockets.c ****  * All rights reserved.
   9:Middlewares/Third_Party/LwIP/src/api/sockets.c ****  *
  10:Middlewares/Third_Party/LwIP/src/api/sockets.c ****  * Redistribution and use in source and binary forms, with or without modification,
  11:Middlewares/Third_Party/LwIP/src/api/sockets.c ****  * are permitted provided that the following conditions are met:
  12:Middlewares/Third_Party/LwIP/src/api/sockets.c ****  *
  13:Middlewares/Third_Party/LwIP/src/api/sockets.c ****  * 1. Redistributions of source code must retain the above copyright notice,
  14:Middlewares/Third_Party/LwIP/src/api/sockets.c ****  *    this list of conditions and the following disclaimer.
  15:Middlewares/Third_Party/LwIP/src/api/sockets.c ****  * 2. Redistributions in binary form must reproduce the above copyright notice,
  16:Middlewares/Third_Party/LwIP/src/api/sockets.c ****  *    this list of conditions and the following disclaimer in the documentation
  17:Middlewares/Third_Party/LwIP/src/api/sockets.c ****  *    and/or other materials provided with the distribution.
  18:Middlewares/Third_Party/LwIP/src/api/sockets.c ****  * 3. The name of the author may not be used to endorse or promote products
ARM GAS  /tmp/ccsCUhT2.s 			page 2


  19:Middlewares/Third_Party/LwIP/src/api/sockets.c ****  *    derived from this software without specific prior written permission.
  20:Middlewares/Third_Party/LwIP/src/api/sockets.c ****  *
  21:Middlewares/Third_Party/LwIP/src/api/sockets.c ****  * THIS SOFTWARE IS PROVIDED BY THE AUTHOR ``AS IS'' AND ANY EXPRESS OR IMPLIED
  22:Middlewares/Third_Party/LwIP/src/api/sockets.c ****  * WARRANTIES, INCLUDING, BUT NOT LIMITED TO, THE IMPLIED WARRANTIES OF
  23:Middlewares/Third_Party/LwIP/src/api/sockets.c ****  * MERCHANTABILITY AND FITNESS FOR A PARTICULAR PURPOSE ARE DISCLAIMED. IN NO EVENT
  24:Middlewares/Third_Party/LwIP/src/api/sockets.c ****  * SHALL THE AUTHOR BE LIABLE FOR ANY DIRECT, INDIRECT, INCIDENTAL, SPECIAL,
  25:Middlewares/Third_Party/LwIP/src/api/sockets.c ****  * EXEMPLARY, OR CONSEQUENTIAL DAMAGES (INCLUDING, BUT NOT LIMITED TO, PROCUREMENT
  26:Middlewares/Third_Party/LwIP/src/api/sockets.c ****  * OF SUBSTITUTE GOODS OR SERVICES; LOSS OF USE, DATA, OR PROFITS; OR BUSINESS
  27:Middlewares/Third_Party/LwIP/src/api/sockets.c ****  * INTERRUPTION) HOWEVER CAUSED AND ON ANY THEORY OF LIABILITY, WHETHER IN
  28:Middlewares/Third_Party/LwIP/src/api/sockets.c ****  * CONTRACT, STRICT LIABILITY, OR TORT (INCLUDING NEGLIGENCE OR OTHERWISE) ARISING
  29:Middlewares/Third_Party/LwIP/src/api/sockets.c ****  * IN ANY WAY OUT OF THE USE OF THIS SOFTWARE, EVEN IF ADVISED OF THE POSSIBILITY
  30:Middlewares/Third_Party/LwIP/src/api/sockets.c ****  * OF SUCH DAMAGE.
  31:Middlewares/Third_Party/LwIP/src/api/sockets.c ****  *
  32:Middlewares/Third_Party/LwIP/src/api/sockets.c ****  * This file is part of the lwIP TCP/IP stack.
  33:Middlewares/Third_Party/LwIP/src/api/sockets.c ****  *
  34:Middlewares/Third_Party/LwIP/src/api/sockets.c ****  * Author: Adam Dunkels <adam@sics.se>
  35:Middlewares/Third_Party/LwIP/src/api/sockets.c ****  *
  36:Middlewares/Third_Party/LwIP/src/api/sockets.c ****  * Improved by Marc Boucher <marc@mbsi.ca> and David Haas <dhaas@alum.rpi.edu>
  37:Middlewares/Third_Party/LwIP/src/api/sockets.c ****  *
  38:Middlewares/Third_Party/LwIP/src/api/sockets.c ****  */
  39:Middlewares/Third_Party/LwIP/src/api/sockets.c **** 
  40:Middlewares/Third_Party/LwIP/src/api/sockets.c **** #include "lwip/opt.h"
  41:Middlewares/Third_Party/LwIP/src/api/sockets.c **** 
  42:Middlewares/Third_Party/LwIP/src/api/sockets.c **** #if LWIP_SOCKET /* don't build if not configured for use in lwipopts.h */
  43:Middlewares/Third_Party/LwIP/src/api/sockets.c **** 
  44:Middlewares/Third_Party/LwIP/src/api/sockets.c **** #include "lwip/sockets.h"
  45:Middlewares/Third_Party/LwIP/src/api/sockets.c **** #include "lwip/priv/sockets_priv.h"
  46:Middlewares/Third_Party/LwIP/src/api/sockets.c **** #include "lwip/api.h"
  47:Middlewares/Third_Party/LwIP/src/api/sockets.c **** #include "lwip/igmp.h"
  48:Middlewares/Third_Party/LwIP/src/api/sockets.c **** #include "lwip/inet.h"
  49:Middlewares/Third_Party/LwIP/src/api/sockets.c **** #include "lwip/tcp.h"
  50:Middlewares/Third_Party/LwIP/src/api/sockets.c **** #include "lwip/raw.h"
  51:Middlewares/Third_Party/LwIP/src/api/sockets.c **** #include "lwip/udp.h"
  52:Middlewares/Third_Party/LwIP/src/api/sockets.c **** #include "lwip/memp.h"
  53:Middlewares/Third_Party/LwIP/src/api/sockets.c **** #include "lwip/pbuf.h"
  54:Middlewares/Third_Party/LwIP/src/api/sockets.c **** #include "lwip/netif.h"
  55:Middlewares/Third_Party/LwIP/src/api/sockets.c **** #include "lwip/priv/tcpip_priv.h"
  56:Middlewares/Third_Party/LwIP/src/api/sockets.c **** #include "lwip/mld6.h"
  57:Middlewares/Third_Party/LwIP/src/api/sockets.c **** #if LWIP_CHECKSUM_ON_COPY
  58:Middlewares/Third_Party/LwIP/src/api/sockets.c **** #include "lwip/inet_chksum.h"
  59:Middlewares/Third_Party/LwIP/src/api/sockets.c **** #endif
  60:Middlewares/Third_Party/LwIP/src/api/sockets.c **** 
  61:Middlewares/Third_Party/LwIP/src/api/sockets.c **** #if LWIP_COMPAT_SOCKETS == 2 && LWIP_POSIX_SOCKETS_IO_NAMES
  62:Middlewares/Third_Party/LwIP/src/api/sockets.c **** #include <stdarg.h>
  63:Middlewares/Third_Party/LwIP/src/api/sockets.c **** #endif
  64:Middlewares/Third_Party/LwIP/src/api/sockets.c **** 
  65:Middlewares/Third_Party/LwIP/src/api/sockets.c **** #include <string.h>
  66:Middlewares/Third_Party/LwIP/src/api/sockets.c **** 
  67:Middlewares/Third_Party/LwIP/src/api/sockets.c **** #ifdef LWIP_HOOK_FILENAME
  68:Middlewares/Third_Party/LwIP/src/api/sockets.c **** #include LWIP_HOOK_FILENAME
  69:Middlewares/Third_Party/LwIP/src/api/sockets.c **** #endif
  70:Middlewares/Third_Party/LwIP/src/api/sockets.c **** 
  71:Middlewares/Third_Party/LwIP/src/api/sockets.c **** /* If the netconn API is not required publicly, then we include the necessary
  72:Middlewares/Third_Party/LwIP/src/api/sockets.c ****    files here to get the implementation */
  73:Middlewares/Third_Party/LwIP/src/api/sockets.c **** #if !LWIP_NETCONN
  74:Middlewares/Third_Party/LwIP/src/api/sockets.c **** #undef LWIP_NETCONN
  75:Middlewares/Third_Party/LwIP/src/api/sockets.c **** #define LWIP_NETCONN 1
ARM GAS  /tmp/ccsCUhT2.s 			page 3


  76:Middlewares/Third_Party/LwIP/src/api/sockets.c **** #include "api_msg.c"
  77:Middlewares/Third_Party/LwIP/src/api/sockets.c **** #include "api_lib.c"
  78:Middlewares/Third_Party/LwIP/src/api/sockets.c **** #include "netbuf.c"
  79:Middlewares/Third_Party/LwIP/src/api/sockets.c **** #undef LWIP_NETCONN
  80:Middlewares/Third_Party/LwIP/src/api/sockets.c **** #define LWIP_NETCONN 0
  81:Middlewares/Third_Party/LwIP/src/api/sockets.c **** #endif
  82:Middlewares/Third_Party/LwIP/src/api/sockets.c **** 
  83:Middlewares/Third_Party/LwIP/src/api/sockets.c **** #define API_SELECT_CB_VAR_REF(name)               API_VAR_REF(name)
  84:Middlewares/Third_Party/LwIP/src/api/sockets.c **** #define API_SELECT_CB_VAR_DECLARE(name)           API_VAR_DECLARE(struct lwip_select_cb, name)
  85:Middlewares/Third_Party/LwIP/src/api/sockets.c **** #define API_SELECT_CB_VAR_ALLOC(name, retblock)   API_VAR_ALLOC_EXT(struct lwip_select_cb, MEMP_SEL
  86:Middlewares/Third_Party/LwIP/src/api/sockets.c **** #define API_SELECT_CB_VAR_FREE(name)              API_VAR_FREE(MEMP_SELECT_CB, name)
  87:Middlewares/Third_Party/LwIP/src/api/sockets.c **** 
  88:Middlewares/Third_Party/LwIP/src/api/sockets.c **** #if LWIP_IPV4
  89:Middlewares/Third_Party/LwIP/src/api/sockets.c **** #define IP4ADDR_PORT_TO_SOCKADDR(sin, ipaddr, port) do { \
  90:Middlewares/Third_Party/LwIP/src/api/sockets.c ****       (sin)->sin_len = sizeof(struct sockaddr_in); \
  91:Middlewares/Third_Party/LwIP/src/api/sockets.c ****       (sin)->sin_family = AF_INET; \
  92:Middlewares/Third_Party/LwIP/src/api/sockets.c ****       (sin)->sin_port = lwip_htons((port)); \
  93:Middlewares/Third_Party/LwIP/src/api/sockets.c ****       inet_addr_from_ip4addr(&(sin)->sin_addr, ipaddr); \
  94:Middlewares/Third_Party/LwIP/src/api/sockets.c ****       memset((sin)->sin_zero, 0, SIN_ZERO_LEN); }while(0)
  95:Middlewares/Third_Party/LwIP/src/api/sockets.c **** #define SOCKADDR4_TO_IP4ADDR_PORT(sin, ipaddr, port) do { \
  96:Middlewares/Third_Party/LwIP/src/api/sockets.c ****     inet_addr_to_ip4addr(ip_2_ip4(ipaddr), &((sin)->sin_addr)); \
  97:Middlewares/Third_Party/LwIP/src/api/sockets.c ****     (port) = lwip_ntohs((sin)->sin_port); }while(0)
  98:Middlewares/Third_Party/LwIP/src/api/sockets.c **** #endif /* LWIP_IPV4 */
  99:Middlewares/Third_Party/LwIP/src/api/sockets.c **** 
 100:Middlewares/Third_Party/LwIP/src/api/sockets.c **** #if LWIP_IPV6
 101:Middlewares/Third_Party/LwIP/src/api/sockets.c **** #define IP6ADDR_PORT_TO_SOCKADDR(sin6, ipaddr, port) do { \
 102:Middlewares/Third_Party/LwIP/src/api/sockets.c ****       (sin6)->sin6_len = sizeof(struct sockaddr_in6); \
 103:Middlewares/Third_Party/LwIP/src/api/sockets.c ****       (sin6)->sin6_family = AF_INET6; \
 104:Middlewares/Third_Party/LwIP/src/api/sockets.c ****       (sin6)->sin6_port = lwip_htons((port)); \
 105:Middlewares/Third_Party/LwIP/src/api/sockets.c ****       (sin6)->sin6_flowinfo = 0; \
 106:Middlewares/Third_Party/LwIP/src/api/sockets.c ****       inet6_addr_from_ip6addr(&(sin6)->sin6_addr, ipaddr); \
 107:Middlewares/Third_Party/LwIP/src/api/sockets.c ****       (sin6)->sin6_scope_id = ip6_addr_zone(ipaddr); }while(0)
 108:Middlewares/Third_Party/LwIP/src/api/sockets.c **** #define SOCKADDR6_TO_IP6ADDR_PORT(sin6, ipaddr, port) do { \
 109:Middlewares/Third_Party/LwIP/src/api/sockets.c ****     inet6_addr_to_ip6addr(ip_2_ip6(ipaddr), &((sin6)->sin6_addr)); \
 110:Middlewares/Third_Party/LwIP/src/api/sockets.c ****     if (ip6_addr_has_scope(ip_2_ip6(ipaddr), IP6_UNKNOWN)) { \
 111:Middlewares/Third_Party/LwIP/src/api/sockets.c ****       ip6_addr_set_zone(ip_2_ip6(ipaddr), (u8_t)((sin6)->sin6_scope_id)); \
 112:Middlewares/Third_Party/LwIP/src/api/sockets.c ****     } \
 113:Middlewares/Third_Party/LwIP/src/api/sockets.c ****     (port) = lwip_ntohs((sin6)->sin6_port); }while(0)
 114:Middlewares/Third_Party/LwIP/src/api/sockets.c **** #endif /* LWIP_IPV6 */
 115:Middlewares/Third_Party/LwIP/src/api/sockets.c **** 
 116:Middlewares/Third_Party/LwIP/src/api/sockets.c **** #if LWIP_IPV4 && LWIP_IPV6
 117:Middlewares/Third_Party/LwIP/src/api/sockets.c **** static void sockaddr_to_ipaddr_port(const struct sockaddr *sockaddr, ip_addr_t *ipaddr, u16_t *port
 118:Middlewares/Third_Party/LwIP/src/api/sockets.c **** 
 119:Middlewares/Third_Party/LwIP/src/api/sockets.c **** #define IS_SOCK_ADDR_LEN_VALID(namelen)  (((namelen) == sizeof(struct sockaddr_in)) || \
 120:Middlewares/Third_Party/LwIP/src/api/sockets.c ****                                          ((namelen) == sizeof(struct sockaddr_in6)))
 121:Middlewares/Third_Party/LwIP/src/api/sockets.c **** #define IS_SOCK_ADDR_TYPE_VALID(name)    (((name)->sa_family == AF_INET) || \
 122:Middlewares/Third_Party/LwIP/src/api/sockets.c ****                                          ((name)->sa_family == AF_INET6))
 123:Middlewares/Third_Party/LwIP/src/api/sockets.c **** #define SOCK_ADDR_TYPE_MATCH(name, sock) \
 124:Middlewares/Third_Party/LwIP/src/api/sockets.c ****        ((((name)->sa_family == AF_INET) && !(NETCONNTYPE_ISIPV6((sock)->conn->type))) || \
 125:Middlewares/Third_Party/LwIP/src/api/sockets.c ****        (((name)->sa_family == AF_INET6) && (NETCONNTYPE_ISIPV6((sock)->conn->type))))
 126:Middlewares/Third_Party/LwIP/src/api/sockets.c **** #define IPADDR_PORT_TO_SOCKADDR(sockaddr, ipaddr, port) do { \
 127:Middlewares/Third_Party/LwIP/src/api/sockets.c ****     if (IP_IS_ANY_TYPE_VAL(*ipaddr) || IP_IS_V6_VAL(*ipaddr)) { \
 128:Middlewares/Third_Party/LwIP/src/api/sockets.c ****       IP6ADDR_PORT_TO_SOCKADDR((struct sockaddr_in6*)(void*)(sockaddr), ip_2_ip6(ipaddr), port); \
 129:Middlewares/Third_Party/LwIP/src/api/sockets.c ****     } else { \
 130:Middlewares/Third_Party/LwIP/src/api/sockets.c ****       IP4ADDR_PORT_TO_SOCKADDR((struct sockaddr_in*)(void*)(sockaddr), ip_2_ip4(ipaddr), port); \
 131:Middlewares/Third_Party/LwIP/src/api/sockets.c ****     } } while(0)
 132:Middlewares/Third_Party/LwIP/src/api/sockets.c **** #define SOCKADDR_TO_IPADDR_PORT(sockaddr, ipaddr, port) sockaddr_to_ipaddr_port(sockaddr, ipaddr, &
ARM GAS  /tmp/ccsCUhT2.s 			page 4


 133:Middlewares/Third_Party/LwIP/src/api/sockets.c **** #define DOMAIN_TO_NETCONN_TYPE(domain, type) (((domain) == AF_INET) ? \
 134:Middlewares/Third_Party/LwIP/src/api/sockets.c ****   (type) : (enum netconn_type)((type) | NETCONN_TYPE_IPV6))
 135:Middlewares/Third_Party/LwIP/src/api/sockets.c **** #elif LWIP_IPV6 /* LWIP_IPV4 && LWIP_IPV6 */
 136:Middlewares/Third_Party/LwIP/src/api/sockets.c **** #define IS_SOCK_ADDR_LEN_VALID(namelen)  ((namelen) == sizeof(struct sockaddr_in6))
 137:Middlewares/Third_Party/LwIP/src/api/sockets.c **** #define IS_SOCK_ADDR_TYPE_VALID(name)    ((name)->sa_family == AF_INET6)
 138:Middlewares/Third_Party/LwIP/src/api/sockets.c **** #define SOCK_ADDR_TYPE_MATCH(name, sock) 1
 139:Middlewares/Third_Party/LwIP/src/api/sockets.c **** #define IPADDR_PORT_TO_SOCKADDR(sockaddr, ipaddr, port) \
 140:Middlewares/Third_Party/LwIP/src/api/sockets.c ****         IP6ADDR_PORT_TO_SOCKADDR((struct sockaddr_in6*)(void*)(sockaddr), ip_2_ip6(ipaddr), port)
 141:Middlewares/Third_Party/LwIP/src/api/sockets.c **** #define SOCKADDR_TO_IPADDR_PORT(sockaddr, ipaddr, port) \
 142:Middlewares/Third_Party/LwIP/src/api/sockets.c ****         SOCKADDR6_TO_IP6ADDR_PORT((const struct sockaddr_in6*)(const void*)(sockaddr), ipaddr, port
 143:Middlewares/Third_Party/LwIP/src/api/sockets.c **** #define DOMAIN_TO_NETCONN_TYPE(domain, netconn_type) (netconn_type)
 144:Middlewares/Third_Party/LwIP/src/api/sockets.c **** #else /*-> LWIP_IPV4: LWIP_IPV4 && LWIP_IPV6 */
 145:Middlewares/Third_Party/LwIP/src/api/sockets.c **** #define IS_SOCK_ADDR_LEN_VALID(namelen)  ((namelen) == sizeof(struct sockaddr_in))
 146:Middlewares/Third_Party/LwIP/src/api/sockets.c **** #define IS_SOCK_ADDR_TYPE_VALID(name)    ((name)->sa_family == AF_INET)
 147:Middlewares/Third_Party/LwIP/src/api/sockets.c **** #define SOCK_ADDR_TYPE_MATCH(name, sock) 1
 148:Middlewares/Third_Party/LwIP/src/api/sockets.c **** #define IPADDR_PORT_TO_SOCKADDR(sockaddr, ipaddr, port) \
 149:Middlewares/Third_Party/LwIP/src/api/sockets.c ****         IP4ADDR_PORT_TO_SOCKADDR((struct sockaddr_in*)(void*)(sockaddr), ip_2_ip4(ipaddr), port)
 150:Middlewares/Third_Party/LwIP/src/api/sockets.c **** #define SOCKADDR_TO_IPADDR_PORT(sockaddr, ipaddr, port) \
 151:Middlewares/Third_Party/LwIP/src/api/sockets.c ****         SOCKADDR4_TO_IP4ADDR_PORT((const struct sockaddr_in*)(const void*)(sockaddr), ipaddr, port)
 152:Middlewares/Third_Party/LwIP/src/api/sockets.c **** #define DOMAIN_TO_NETCONN_TYPE(domain, netconn_type) (netconn_type)
 153:Middlewares/Third_Party/LwIP/src/api/sockets.c **** #endif /* LWIP_IPV6 */
 154:Middlewares/Third_Party/LwIP/src/api/sockets.c **** 
 155:Middlewares/Third_Party/LwIP/src/api/sockets.c **** #define IS_SOCK_ADDR_TYPE_VALID_OR_UNSPEC(name)    (((name)->sa_family == AF_UNSPEC) || \
 156:Middlewares/Third_Party/LwIP/src/api/sockets.c ****                                                     IS_SOCK_ADDR_TYPE_VALID(name))
 157:Middlewares/Third_Party/LwIP/src/api/sockets.c **** #define SOCK_ADDR_TYPE_MATCH_OR_UNSPEC(name, sock) (((name)->sa_family == AF_UNSPEC) || \
 158:Middlewares/Third_Party/LwIP/src/api/sockets.c ****                                                     SOCK_ADDR_TYPE_MATCH(name, sock))
 159:Middlewares/Third_Party/LwIP/src/api/sockets.c **** #define IS_SOCK_ADDR_ALIGNED(name)      ((((mem_ptr_t)(name)) % 4) == 0)
 160:Middlewares/Third_Party/LwIP/src/api/sockets.c **** 
 161:Middlewares/Third_Party/LwIP/src/api/sockets.c **** 
 162:Middlewares/Third_Party/LwIP/src/api/sockets.c **** #define LWIP_SOCKOPT_CHECK_OPTLEN(sock, optlen, opttype) do { if ((optlen) < sizeof(opttype)) { don
 163:Middlewares/Third_Party/LwIP/src/api/sockets.c **** #define LWIP_SOCKOPT_CHECK_OPTLEN_CONN(sock, optlen, opttype) do { \
 164:Middlewares/Third_Party/LwIP/src/api/sockets.c ****   LWIP_SOCKOPT_CHECK_OPTLEN(sock, optlen, opttype); \
 165:Middlewares/Third_Party/LwIP/src/api/sockets.c ****   if ((sock)->conn == NULL) { done_socket(sock); return EINVAL; } }while(0)
 166:Middlewares/Third_Party/LwIP/src/api/sockets.c **** #define LWIP_SOCKOPT_CHECK_OPTLEN_CONN_PCB(sock, optlen, opttype) do { \
 167:Middlewares/Third_Party/LwIP/src/api/sockets.c ****   LWIP_SOCKOPT_CHECK_OPTLEN(sock, optlen, opttype); \
 168:Middlewares/Third_Party/LwIP/src/api/sockets.c ****   if (((sock)->conn == NULL) || ((sock)->conn->pcb.tcp == NULL)) { done_socket(sock); return EINVAL
 169:Middlewares/Third_Party/LwIP/src/api/sockets.c **** #define LWIP_SOCKOPT_CHECK_OPTLEN_CONN_PCB_TYPE(sock, optlen, opttype, netconntype) do { \
 170:Middlewares/Third_Party/LwIP/src/api/sockets.c ****   LWIP_SOCKOPT_CHECK_OPTLEN_CONN_PCB(sock, optlen, opttype); \
 171:Middlewares/Third_Party/LwIP/src/api/sockets.c ****   if (NETCONNTYPE_GROUP(netconn_type((sock)->conn)) != netconntype) { done_socket(sock); return ENO
 172:Middlewares/Third_Party/LwIP/src/api/sockets.c **** 
 173:Middlewares/Third_Party/LwIP/src/api/sockets.c **** 
 174:Middlewares/Third_Party/LwIP/src/api/sockets.c **** #define LWIP_SETGETSOCKOPT_DATA_VAR_REF(name)     API_VAR_REF(name)
 175:Middlewares/Third_Party/LwIP/src/api/sockets.c **** #define LWIP_SETGETSOCKOPT_DATA_VAR_DECLARE(name) API_VAR_DECLARE(struct lwip_setgetsockopt_data, n
 176:Middlewares/Third_Party/LwIP/src/api/sockets.c **** #define LWIP_SETGETSOCKOPT_DATA_VAR_FREE(name)    API_VAR_FREE(MEMP_SOCKET_SETGETSOCKOPT_DATA, name
 177:Middlewares/Third_Party/LwIP/src/api/sockets.c **** #if LWIP_MPU_COMPATIBLE
 178:Middlewares/Third_Party/LwIP/src/api/sockets.c **** #define LWIP_SETGETSOCKOPT_DATA_VAR_ALLOC(name, sock) do { \
 179:Middlewares/Third_Party/LwIP/src/api/sockets.c ****   name = (struct lwip_setgetsockopt_data *)memp_malloc(MEMP_SOCKET_SETGETSOCKOPT_DATA); \
 180:Middlewares/Third_Party/LwIP/src/api/sockets.c ****   if (name == NULL) { \
 181:Middlewares/Third_Party/LwIP/src/api/sockets.c ****     sock_set_errno(sock, ENOMEM); \
 182:Middlewares/Third_Party/LwIP/src/api/sockets.c ****     done_socket(sock); \
 183:Middlewares/Third_Party/LwIP/src/api/sockets.c ****     return -1; \
 184:Middlewares/Third_Party/LwIP/src/api/sockets.c ****   } }while(0)
 185:Middlewares/Third_Party/LwIP/src/api/sockets.c **** #else /* LWIP_MPU_COMPATIBLE */
 186:Middlewares/Third_Party/LwIP/src/api/sockets.c **** #define LWIP_SETGETSOCKOPT_DATA_VAR_ALLOC(name, sock)
 187:Middlewares/Third_Party/LwIP/src/api/sockets.c **** #endif /* LWIP_MPU_COMPATIBLE */
 188:Middlewares/Third_Party/LwIP/src/api/sockets.c **** 
 189:Middlewares/Third_Party/LwIP/src/api/sockets.c **** #if LWIP_SO_SNDRCVTIMEO_NONSTANDARD
ARM GAS  /tmp/ccsCUhT2.s 			page 5


 190:Middlewares/Third_Party/LwIP/src/api/sockets.c **** #define LWIP_SO_SNDRCVTIMEO_OPTTYPE int
 191:Middlewares/Third_Party/LwIP/src/api/sockets.c **** #define LWIP_SO_SNDRCVTIMEO_SET(optval, val) (*(int *)(optval) = (val))
 192:Middlewares/Third_Party/LwIP/src/api/sockets.c **** #define LWIP_SO_SNDRCVTIMEO_GET_MS(optval)   ((long)*(const int*)(optval))
 193:Middlewares/Third_Party/LwIP/src/api/sockets.c **** #else
 194:Middlewares/Third_Party/LwIP/src/api/sockets.c **** #define LWIP_SO_SNDRCVTIMEO_OPTTYPE struct timeval
 195:Middlewares/Third_Party/LwIP/src/api/sockets.c **** #define LWIP_SO_SNDRCVTIMEO_SET(optval, val)  do { \
 196:Middlewares/Third_Party/LwIP/src/api/sockets.c ****   u32_t loc = (val); \
 197:Middlewares/Third_Party/LwIP/src/api/sockets.c ****   ((struct timeval *)(optval))->tv_sec = (long)((loc) / 1000U); \
 198:Middlewares/Third_Party/LwIP/src/api/sockets.c ****   ((struct timeval *)(optval))->tv_usec = (long)(((loc) % 1000U) * 1000U); }while(0)
 199:Middlewares/Third_Party/LwIP/src/api/sockets.c **** #define LWIP_SO_SNDRCVTIMEO_GET_MS(optval) ((((const struct timeval *)(optval))->tv_sec * 1000) + (
 200:Middlewares/Third_Party/LwIP/src/api/sockets.c **** #endif
 201:Middlewares/Third_Party/LwIP/src/api/sockets.c **** 
 202:Middlewares/Third_Party/LwIP/src/api/sockets.c **** 
 203:Middlewares/Third_Party/LwIP/src/api/sockets.c **** /** A struct sockaddr replacement that has the same alignment as sockaddr_in/
 204:Middlewares/Third_Party/LwIP/src/api/sockets.c ****  *  sockaddr_in6 if instantiated.
 205:Middlewares/Third_Party/LwIP/src/api/sockets.c ****  */
 206:Middlewares/Third_Party/LwIP/src/api/sockets.c **** union sockaddr_aligned {
 207:Middlewares/Third_Party/LwIP/src/api/sockets.c ****   struct sockaddr sa;
 208:Middlewares/Third_Party/LwIP/src/api/sockets.c **** #if LWIP_IPV6
 209:Middlewares/Third_Party/LwIP/src/api/sockets.c ****   struct sockaddr_in6 sin6;
 210:Middlewares/Third_Party/LwIP/src/api/sockets.c **** #endif /* LWIP_IPV6 */
 211:Middlewares/Third_Party/LwIP/src/api/sockets.c **** #if LWIP_IPV4
 212:Middlewares/Third_Party/LwIP/src/api/sockets.c ****   struct sockaddr_in sin;
 213:Middlewares/Third_Party/LwIP/src/api/sockets.c **** #endif /* LWIP_IPV4 */
 214:Middlewares/Third_Party/LwIP/src/api/sockets.c **** };
 215:Middlewares/Third_Party/LwIP/src/api/sockets.c **** 
 216:Middlewares/Third_Party/LwIP/src/api/sockets.c **** /* Define the number of IPv4 multicast memberships, default is one per socket */
 217:Middlewares/Third_Party/LwIP/src/api/sockets.c **** #ifndef LWIP_SOCKET_MAX_MEMBERSHIPS
 218:Middlewares/Third_Party/LwIP/src/api/sockets.c **** #define LWIP_SOCKET_MAX_MEMBERSHIPS NUM_SOCKETS
 219:Middlewares/Third_Party/LwIP/src/api/sockets.c **** #endif
 220:Middlewares/Third_Party/LwIP/src/api/sockets.c **** 
 221:Middlewares/Third_Party/LwIP/src/api/sockets.c **** #if LWIP_IGMP
 222:Middlewares/Third_Party/LwIP/src/api/sockets.c **** /* This is to keep track of IP_ADD_MEMBERSHIP calls to drop the membership when
 223:Middlewares/Third_Party/LwIP/src/api/sockets.c ****    a socket is closed */
 224:Middlewares/Third_Party/LwIP/src/api/sockets.c **** struct lwip_socket_multicast_pair {
 225:Middlewares/Third_Party/LwIP/src/api/sockets.c ****   /** the socket */
 226:Middlewares/Third_Party/LwIP/src/api/sockets.c ****   struct lwip_sock *sock;
 227:Middlewares/Third_Party/LwIP/src/api/sockets.c ****   /** the interface address */
 228:Middlewares/Third_Party/LwIP/src/api/sockets.c ****   ip4_addr_t if_addr;
 229:Middlewares/Third_Party/LwIP/src/api/sockets.c ****   /** the group address */
 230:Middlewares/Third_Party/LwIP/src/api/sockets.c ****   ip4_addr_t multi_addr;
 231:Middlewares/Third_Party/LwIP/src/api/sockets.c **** };
 232:Middlewares/Third_Party/LwIP/src/api/sockets.c **** 
 233:Middlewares/Third_Party/LwIP/src/api/sockets.c **** static struct lwip_socket_multicast_pair socket_ipv4_multicast_memberships[LWIP_SOCKET_MAX_MEMBERSH
 234:Middlewares/Third_Party/LwIP/src/api/sockets.c **** 
 235:Middlewares/Third_Party/LwIP/src/api/sockets.c **** static int  lwip_socket_register_membership(int s, const ip4_addr_t *if_addr, const ip4_addr_t *mul
 236:Middlewares/Third_Party/LwIP/src/api/sockets.c **** static void lwip_socket_unregister_membership(int s, const ip4_addr_t *if_addr, const ip4_addr_t *m
 237:Middlewares/Third_Party/LwIP/src/api/sockets.c **** static void lwip_socket_drop_registered_memberships(int s);
 238:Middlewares/Third_Party/LwIP/src/api/sockets.c **** #endif /* LWIP_IGMP */
 239:Middlewares/Third_Party/LwIP/src/api/sockets.c **** 
 240:Middlewares/Third_Party/LwIP/src/api/sockets.c **** #if LWIP_IPV6_MLD
 241:Middlewares/Third_Party/LwIP/src/api/sockets.c **** /* This is to keep track of IP_JOIN_GROUP calls to drop the membership when
 242:Middlewares/Third_Party/LwIP/src/api/sockets.c ****    a socket is closed */
 243:Middlewares/Third_Party/LwIP/src/api/sockets.c **** struct lwip_socket_multicast_mld6_pair {
 244:Middlewares/Third_Party/LwIP/src/api/sockets.c ****   /** the socket */
 245:Middlewares/Third_Party/LwIP/src/api/sockets.c ****   struct lwip_sock *sock;
 246:Middlewares/Third_Party/LwIP/src/api/sockets.c ****   /** the interface index */
ARM GAS  /tmp/ccsCUhT2.s 			page 6


 247:Middlewares/Third_Party/LwIP/src/api/sockets.c ****   u8_t if_idx;
 248:Middlewares/Third_Party/LwIP/src/api/sockets.c ****   /** the group address */
 249:Middlewares/Third_Party/LwIP/src/api/sockets.c ****   ip6_addr_t multi_addr;
 250:Middlewares/Third_Party/LwIP/src/api/sockets.c **** };
 251:Middlewares/Third_Party/LwIP/src/api/sockets.c **** 
 252:Middlewares/Third_Party/LwIP/src/api/sockets.c **** static struct lwip_socket_multicast_mld6_pair socket_ipv6_multicast_memberships[LWIP_SOCKET_MAX_MEM
 253:Middlewares/Third_Party/LwIP/src/api/sockets.c **** 
 254:Middlewares/Third_Party/LwIP/src/api/sockets.c **** static int  lwip_socket_register_mld6_membership(int s, unsigned int if_idx, const ip6_addr_t *mult
 255:Middlewares/Third_Party/LwIP/src/api/sockets.c **** static void lwip_socket_unregister_mld6_membership(int s, unsigned int if_idx, const ip6_addr_t *mu
 256:Middlewares/Third_Party/LwIP/src/api/sockets.c **** static void lwip_socket_drop_registered_mld6_memberships(int s);
 257:Middlewares/Third_Party/LwIP/src/api/sockets.c **** #endif /* LWIP_IPV6_MLD */
 258:Middlewares/Third_Party/LwIP/src/api/sockets.c **** 
 259:Middlewares/Third_Party/LwIP/src/api/sockets.c **** /** The global array of available sockets */
 260:Middlewares/Third_Party/LwIP/src/api/sockets.c **** static struct lwip_sock sockets[NUM_SOCKETS];
 261:Middlewares/Third_Party/LwIP/src/api/sockets.c **** 
 262:Middlewares/Third_Party/LwIP/src/api/sockets.c **** #if LWIP_SOCKET_SELECT || LWIP_SOCKET_POLL
 263:Middlewares/Third_Party/LwIP/src/api/sockets.c **** #if LWIP_TCPIP_CORE_LOCKING
 264:Middlewares/Third_Party/LwIP/src/api/sockets.c **** /* protect the select_cb_list using core lock */
 265:Middlewares/Third_Party/LwIP/src/api/sockets.c **** #define LWIP_SOCKET_SELECT_DECL_PROTECT(lev)
 266:Middlewares/Third_Party/LwIP/src/api/sockets.c **** #define LWIP_SOCKET_SELECT_PROTECT(lev)   LOCK_TCPIP_CORE()
 267:Middlewares/Third_Party/LwIP/src/api/sockets.c **** #define LWIP_SOCKET_SELECT_UNPROTECT(lev) UNLOCK_TCPIP_CORE()
 268:Middlewares/Third_Party/LwIP/src/api/sockets.c **** #else /* LWIP_TCPIP_CORE_LOCKING */
 269:Middlewares/Third_Party/LwIP/src/api/sockets.c **** /* protect the select_cb_list using SYS_LIGHTWEIGHT_PROT */
 270:Middlewares/Third_Party/LwIP/src/api/sockets.c **** #define LWIP_SOCKET_SELECT_DECL_PROTECT(lev)  SYS_ARCH_DECL_PROTECT(lev)
 271:Middlewares/Third_Party/LwIP/src/api/sockets.c **** #define LWIP_SOCKET_SELECT_PROTECT(lev)       SYS_ARCH_PROTECT(lev)
 272:Middlewares/Third_Party/LwIP/src/api/sockets.c **** #define LWIP_SOCKET_SELECT_UNPROTECT(lev)     SYS_ARCH_UNPROTECT(lev)
 273:Middlewares/Third_Party/LwIP/src/api/sockets.c **** /** This counter is increased from lwip_select when the list is changed
 274:Middlewares/Third_Party/LwIP/src/api/sockets.c ****     and checked in select_check_waiters to see if it has changed. */
 275:Middlewares/Third_Party/LwIP/src/api/sockets.c **** static volatile int select_cb_ctr;
 276:Middlewares/Third_Party/LwIP/src/api/sockets.c **** #endif /* LWIP_TCPIP_CORE_LOCKING */
 277:Middlewares/Third_Party/LwIP/src/api/sockets.c **** /** The global list of tasks waiting for select */
 278:Middlewares/Third_Party/LwIP/src/api/sockets.c **** static struct lwip_select_cb *select_cb_list;
 279:Middlewares/Third_Party/LwIP/src/api/sockets.c **** #endif /* LWIP_SOCKET_SELECT || LWIP_SOCKET_POLL */
 280:Middlewares/Third_Party/LwIP/src/api/sockets.c **** 
 281:Middlewares/Third_Party/LwIP/src/api/sockets.c **** #define sock_set_errno(sk, e) do { \
 282:Middlewares/Third_Party/LwIP/src/api/sockets.c ****   const int sockerr = (e); \
 283:Middlewares/Third_Party/LwIP/src/api/sockets.c ****   set_errno(sockerr); \
 284:Middlewares/Third_Party/LwIP/src/api/sockets.c **** } while (0)
 285:Middlewares/Third_Party/LwIP/src/api/sockets.c **** 
 286:Middlewares/Third_Party/LwIP/src/api/sockets.c **** /* Forward declaration of some functions */
 287:Middlewares/Third_Party/LwIP/src/api/sockets.c **** #if LWIP_SOCKET_SELECT || LWIP_SOCKET_POLL
 288:Middlewares/Third_Party/LwIP/src/api/sockets.c **** static void event_callback(struct netconn *conn, enum netconn_evt evt, u16_t len);
 289:Middlewares/Third_Party/LwIP/src/api/sockets.c **** #define DEFAULT_SOCKET_EVENTCB event_callback
 290:Middlewares/Third_Party/LwIP/src/api/sockets.c **** static void select_check_waiters(int s, int has_recvevent, int has_sendevent, int has_errevent);
 291:Middlewares/Third_Party/LwIP/src/api/sockets.c **** #else
 292:Middlewares/Third_Party/LwIP/src/api/sockets.c **** #define DEFAULT_SOCKET_EVENTCB NULL
 293:Middlewares/Third_Party/LwIP/src/api/sockets.c **** #endif
 294:Middlewares/Third_Party/LwIP/src/api/sockets.c **** #if !LWIP_TCPIP_CORE_LOCKING
 295:Middlewares/Third_Party/LwIP/src/api/sockets.c **** static void lwip_getsockopt_callback(void *arg);
 296:Middlewares/Third_Party/LwIP/src/api/sockets.c **** static void lwip_setsockopt_callback(void *arg);
 297:Middlewares/Third_Party/LwIP/src/api/sockets.c **** #endif
 298:Middlewares/Third_Party/LwIP/src/api/sockets.c **** static int lwip_getsockopt_impl(int s, int level, int optname, void *optval, socklen_t *optlen);
 299:Middlewares/Third_Party/LwIP/src/api/sockets.c **** static int lwip_setsockopt_impl(int s, int level, int optname, const void *optval, socklen_t optlen
 300:Middlewares/Third_Party/LwIP/src/api/sockets.c **** static int free_socket_locked(struct lwip_sock *sock, int is_tcp, struct netconn **conn,
 301:Middlewares/Third_Party/LwIP/src/api/sockets.c ****                               union lwip_sock_lastdata *lastdata);
 302:Middlewares/Third_Party/LwIP/src/api/sockets.c **** static void free_socket_free_elements(int is_tcp, struct netconn *conn, union lwip_sock_lastdata *l
 303:Middlewares/Third_Party/LwIP/src/api/sockets.c **** 
ARM GAS  /tmp/ccsCUhT2.s 			page 7


 304:Middlewares/Third_Party/LwIP/src/api/sockets.c **** #if LWIP_IPV4 && LWIP_IPV6
 305:Middlewares/Third_Party/LwIP/src/api/sockets.c **** static void
 306:Middlewares/Third_Party/LwIP/src/api/sockets.c **** sockaddr_to_ipaddr_port(const struct sockaddr *sockaddr, ip_addr_t *ipaddr, u16_t *port)
 307:Middlewares/Third_Party/LwIP/src/api/sockets.c **** {
 308:Middlewares/Third_Party/LwIP/src/api/sockets.c ****   if ((sockaddr->sa_family) == AF_INET6) {
 309:Middlewares/Third_Party/LwIP/src/api/sockets.c ****     SOCKADDR6_TO_IP6ADDR_PORT((const struct sockaddr_in6 *)(const void *)(sockaddr), ipaddr, *port)
 310:Middlewares/Third_Party/LwIP/src/api/sockets.c ****     ipaddr->type = IPADDR_TYPE_V6;
 311:Middlewares/Third_Party/LwIP/src/api/sockets.c ****   } else {
 312:Middlewares/Third_Party/LwIP/src/api/sockets.c ****     SOCKADDR4_TO_IP4ADDR_PORT((const struct sockaddr_in *)(const void *)(sockaddr), ipaddr, *port);
 313:Middlewares/Third_Party/LwIP/src/api/sockets.c ****     ipaddr->type = IPADDR_TYPE_V4;
 314:Middlewares/Third_Party/LwIP/src/api/sockets.c ****   }
 315:Middlewares/Third_Party/LwIP/src/api/sockets.c **** }
 316:Middlewares/Third_Party/LwIP/src/api/sockets.c **** #endif /* LWIP_IPV4 && LWIP_IPV6 */
 317:Middlewares/Third_Party/LwIP/src/api/sockets.c **** 
 318:Middlewares/Third_Party/LwIP/src/api/sockets.c **** /** LWIP_NETCONN_SEM_PER_THREAD==1: initialize thread-local semaphore */
 319:Middlewares/Third_Party/LwIP/src/api/sockets.c **** void
 320:Middlewares/Third_Party/LwIP/src/api/sockets.c **** lwip_socket_thread_init(void)
 321:Middlewares/Third_Party/LwIP/src/api/sockets.c **** {
  41              		.loc 1 321 1
  42              		.cfi_startproc
  43              		@ args = 0, pretend = 0, frame = 0
  44              		@ frame_needed = 1, uses_anonymous_args = 0
  45              		@ link register save eliminated.
  46 0000 80B4     		push	{r7}
  47              	.LCFI0:
  48              		.cfi_def_cfa_offset 4
  49              		.cfi_offset 7, -4
  50 0002 00AF     		add	r7, sp, #0
  51              	.LCFI1:
  52              		.cfi_def_cfa_register 7
 322:Middlewares/Third_Party/LwIP/src/api/sockets.c ****   netconn_thread_init();
 323:Middlewares/Third_Party/LwIP/src/api/sockets.c **** }
  53              		.loc 1 323 1
  54 0004 00BF     		nop
  55 0006 BD46     		mov	sp, r7
  56              	.LCFI2:
  57              		.cfi_def_cfa_register 13
  58              		@ sp needed
  59 0008 5DF8047B 		ldr	r7, [sp], #4
  60              	.LCFI3:
  61              		.cfi_restore 7
  62              		.cfi_def_cfa_offset 0
  63 000c 7047     		bx	lr
  64              		.cfi_endproc
  65              	.LFE137:
  67              		.section	.text.lwip_socket_thread_cleanup,"ax",%progbits
  68              		.align	1
  69              		.global	lwip_socket_thread_cleanup
  70              		.syntax unified
  71              		.thumb
  72              		.thumb_func
  73              		.fpu fpv4-sp-d16
  75              	lwip_socket_thread_cleanup:
  76              	.LFB138:
 324:Middlewares/Third_Party/LwIP/src/api/sockets.c **** 
 325:Middlewares/Third_Party/LwIP/src/api/sockets.c **** /** LWIP_NETCONN_SEM_PER_THREAD==1: destroy thread-local semaphore */
 326:Middlewares/Third_Party/LwIP/src/api/sockets.c **** void
ARM GAS  /tmp/ccsCUhT2.s 			page 8


 327:Middlewares/Third_Party/LwIP/src/api/sockets.c **** lwip_socket_thread_cleanup(void)
 328:Middlewares/Third_Party/LwIP/src/api/sockets.c **** {
  77              		.loc 1 328 1
  78              		.cfi_startproc
  79              		@ args = 0, pretend = 0, frame = 0
  80              		@ frame_needed = 1, uses_anonymous_args = 0
  81              		@ link register save eliminated.
  82 0000 80B4     		push	{r7}
  83              	.LCFI4:
  84              		.cfi_def_cfa_offset 4
  85              		.cfi_offset 7, -4
  86 0002 00AF     		add	r7, sp, #0
  87              	.LCFI5:
  88              		.cfi_def_cfa_register 7
 329:Middlewares/Third_Party/LwIP/src/api/sockets.c ****   netconn_thread_cleanup();
 330:Middlewares/Third_Party/LwIP/src/api/sockets.c **** }
  89              		.loc 1 330 1
  90 0004 00BF     		nop
  91 0006 BD46     		mov	sp, r7
  92              	.LCFI6:
  93              		.cfi_def_cfa_register 13
  94              		@ sp needed
  95 0008 5DF8047B 		ldr	r7, [sp], #4
  96              	.LCFI7:
  97              		.cfi_restore 7
  98              		.cfi_def_cfa_offset 0
  99 000c 7047     		bx	lr
 100              		.cfi_endproc
 101              	.LFE138:
 103              		.section	.text.tryget_socket_unconn_nouse,"ax",%progbits
 104              		.align	1
 105              		.syntax unified
 106              		.thumb
 107              		.thumb_func
 108              		.fpu fpv4-sp-d16
 110              	tryget_socket_unconn_nouse:
 111              	.LFB139:
 331:Middlewares/Third_Party/LwIP/src/api/sockets.c **** 
 332:Middlewares/Third_Party/LwIP/src/api/sockets.c **** #if LWIP_NETCONN_FULLDUPLEX
 333:Middlewares/Third_Party/LwIP/src/api/sockets.c **** /* Thread-safe increment of sock->fd_used, with overflow check */
 334:Middlewares/Third_Party/LwIP/src/api/sockets.c **** static int
 335:Middlewares/Third_Party/LwIP/src/api/sockets.c **** sock_inc_used(struct lwip_sock *sock)
 336:Middlewares/Third_Party/LwIP/src/api/sockets.c **** {
 337:Middlewares/Third_Party/LwIP/src/api/sockets.c ****   int ret;
 338:Middlewares/Third_Party/LwIP/src/api/sockets.c ****   SYS_ARCH_DECL_PROTECT(lev);
 339:Middlewares/Third_Party/LwIP/src/api/sockets.c **** 
 340:Middlewares/Third_Party/LwIP/src/api/sockets.c ****   LWIP_ASSERT("sock != NULL", sock != NULL);
 341:Middlewares/Third_Party/LwIP/src/api/sockets.c **** 
 342:Middlewares/Third_Party/LwIP/src/api/sockets.c ****   SYS_ARCH_PROTECT(lev);
 343:Middlewares/Third_Party/LwIP/src/api/sockets.c ****   if (sock->fd_free_pending) {
 344:Middlewares/Third_Party/LwIP/src/api/sockets.c ****     /* prevent new usage of this socket if free is pending */
 345:Middlewares/Third_Party/LwIP/src/api/sockets.c ****     ret = 0;
 346:Middlewares/Third_Party/LwIP/src/api/sockets.c ****   } else {
 347:Middlewares/Third_Party/LwIP/src/api/sockets.c ****     ++sock->fd_used;
 348:Middlewares/Third_Party/LwIP/src/api/sockets.c ****     ret = 1;
 349:Middlewares/Third_Party/LwIP/src/api/sockets.c ****     LWIP_ASSERT("sock->fd_used != 0", sock->fd_used != 0);
 350:Middlewares/Third_Party/LwIP/src/api/sockets.c ****   }
ARM GAS  /tmp/ccsCUhT2.s 			page 9


 351:Middlewares/Third_Party/LwIP/src/api/sockets.c ****   SYS_ARCH_UNPROTECT(lev);
 352:Middlewares/Third_Party/LwIP/src/api/sockets.c ****   return ret;
 353:Middlewares/Third_Party/LwIP/src/api/sockets.c **** }
 354:Middlewares/Third_Party/LwIP/src/api/sockets.c **** 
 355:Middlewares/Third_Party/LwIP/src/api/sockets.c **** /* Like sock_inc_used(), but called under SYS_ARCH_PROTECT lock. */
 356:Middlewares/Third_Party/LwIP/src/api/sockets.c **** static int
 357:Middlewares/Third_Party/LwIP/src/api/sockets.c **** sock_inc_used_locked(struct lwip_sock *sock)
 358:Middlewares/Third_Party/LwIP/src/api/sockets.c **** {
 359:Middlewares/Third_Party/LwIP/src/api/sockets.c ****   LWIP_ASSERT("sock != NULL", sock != NULL);
 360:Middlewares/Third_Party/LwIP/src/api/sockets.c **** 
 361:Middlewares/Third_Party/LwIP/src/api/sockets.c ****   if (sock->fd_free_pending) {
 362:Middlewares/Third_Party/LwIP/src/api/sockets.c ****     LWIP_ASSERT("sock->fd_used != 0", sock->fd_used != 0);
 363:Middlewares/Third_Party/LwIP/src/api/sockets.c ****     return 0;
 364:Middlewares/Third_Party/LwIP/src/api/sockets.c ****   }
 365:Middlewares/Third_Party/LwIP/src/api/sockets.c **** 
 366:Middlewares/Third_Party/LwIP/src/api/sockets.c ****   ++sock->fd_used;
 367:Middlewares/Third_Party/LwIP/src/api/sockets.c ****   LWIP_ASSERT("sock->fd_used != 0", sock->fd_used != 0);
 368:Middlewares/Third_Party/LwIP/src/api/sockets.c ****   return 1;
 369:Middlewares/Third_Party/LwIP/src/api/sockets.c **** }
 370:Middlewares/Third_Party/LwIP/src/api/sockets.c **** 
 371:Middlewares/Third_Party/LwIP/src/api/sockets.c **** /* In full-duplex mode,sock->fd_used != 0 prevents a socket descriptor from being
 372:Middlewares/Third_Party/LwIP/src/api/sockets.c ****  * released (and possibly reused) when used from more than one thread
 373:Middlewares/Third_Party/LwIP/src/api/sockets.c ****  * (e.g. read-while-write or close-while-write, etc)
 374:Middlewares/Third_Party/LwIP/src/api/sockets.c ****  * This function is called at the end of functions using (try)get_socket*().
 375:Middlewares/Third_Party/LwIP/src/api/sockets.c ****  */
 376:Middlewares/Third_Party/LwIP/src/api/sockets.c **** static void
 377:Middlewares/Third_Party/LwIP/src/api/sockets.c **** done_socket(struct lwip_sock *sock)
 378:Middlewares/Third_Party/LwIP/src/api/sockets.c **** {
 379:Middlewares/Third_Party/LwIP/src/api/sockets.c ****   int freed = 0;
 380:Middlewares/Third_Party/LwIP/src/api/sockets.c ****   int is_tcp = 0;
 381:Middlewares/Third_Party/LwIP/src/api/sockets.c ****   struct netconn *conn = NULL;
 382:Middlewares/Third_Party/LwIP/src/api/sockets.c ****   union lwip_sock_lastdata lastdata;
 383:Middlewares/Third_Party/LwIP/src/api/sockets.c ****   SYS_ARCH_DECL_PROTECT(lev);
 384:Middlewares/Third_Party/LwIP/src/api/sockets.c ****   LWIP_ASSERT("sock != NULL", sock != NULL);
 385:Middlewares/Third_Party/LwIP/src/api/sockets.c **** 
 386:Middlewares/Third_Party/LwIP/src/api/sockets.c ****   SYS_ARCH_PROTECT(lev);
 387:Middlewares/Third_Party/LwIP/src/api/sockets.c ****   LWIP_ASSERT("sock->fd_used > 0", sock->fd_used > 0);
 388:Middlewares/Third_Party/LwIP/src/api/sockets.c ****   if (--sock->fd_used == 0) {
 389:Middlewares/Third_Party/LwIP/src/api/sockets.c ****     if (sock->fd_free_pending) {
 390:Middlewares/Third_Party/LwIP/src/api/sockets.c ****       /* free the socket */
 391:Middlewares/Third_Party/LwIP/src/api/sockets.c ****       sock->fd_used = 1;
 392:Middlewares/Third_Party/LwIP/src/api/sockets.c ****       is_tcp = sock->fd_free_pending & LWIP_SOCK_FD_FREE_TCP;
 393:Middlewares/Third_Party/LwIP/src/api/sockets.c ****       freed = free_socket_locked(sock, is_tcp, &conn, &lastdata);
 394:Middlewares/Third_Party/LwIP/src/api/sockets.c ****     }
 395:Middlewares/Third_Party/LwIP/src/api/sockets.c ****   }
 396:Middlewares/Third_Party/LwIP/src/api/sockets.c ****   SYS_ARCH_UNPROTECT(lev);
 397:Middlewares/Third_Party/LwIP/src/api/sockets.c **** 
 398:Middlewares/Third_Party/LwIP/src/api/sockets.c ****   if (freed) {
 399:Middlewares/Third_Party/LwIP/src/api/sockets.c ****     free_socket_free_elements(is_tcp, conn, &lastdata);
 400:Middlewares/Third_Party/LwIP/src/api/sockets.c ****   }
 401:Middlewares/Third_Party/LwIP/src/api/sockets.c **** }
 402:Middlewares/Third_Party/LwIP/src/api/sockets.c **** 
 403:Middlewares/Third_Party/LwIP/src/api/sockets.c **** #else /* LWIP_NETCONN_FULLDUPLEX */
 404:Middlewares/Third_Party/LwIP/src/api/sockets.c **** #define sock_inc_used(sock)         1
 405:Middlewares/Third_Party/LwIP/src/api/sockets.c **** #define sock_inc_used_locked(sock)  1
 406:Middlewares/Third_Party/LwIP/src/api/sockets.c **** #define done_socket(sock)
 407:Middlewares/Third_Party/LwIP/src/api/sockets.c **** #endif /* LWIP_NETCONN_FULLDUPLEX */
ARM GAS  /tmp/ccsCUhT2.s 			page 10


 408:Middlewares/Third_Party/LwIP/src/api/sockets.c **** 
 409:Middlewares/Third_Party/LwIP/src/api/sockets.c **** /* Translate a socket 'int' into a pointer (only fails if the index is invalid) */
 410:Middlewares/Third_Party/LwIP/src/api/sockets.c **** static struct lwip_sock *
 411:Middlewares/Third_Party/LwIP/src/api/sockets.c **** tryget_socket_unconn_nouse(int fd)
 412:Middlewares/Third_Party/LwIP/src/api/sockets.c **** {
 112              		.loc 1 412 1
 113              		.cfi_startproc
 114              		@ args = 0, pretend = 0, frame = 16
 115              		@ frame_needed = 1, uses_anonymous_args = 0
 116              		@ link register save eliminated.
 117 0000 80B4     		push	{r7}
 118              	.LCFI8:
 119              		.cfi_def_cfa_offset 4
 120              		.cfi_offset 7, -4
 121 0002 85B0     		sub	sp, sp, #20
 122              	.LCFI9:
 123              		.cfi_def_cfa_offset 24
 124 0004 00AF     		add	r7, sp, #0
 125              	.LCFI10:
 126              		.cfi_def_cfa_register 7
 127 0006 7860     		str	r0, [r7, #4]
 413:Middlewares/Third_Party/LwIP/src/api/sockets.c ****   int s = fd - LWIP_SOCKET_OFFSET;
 128              		.loc 1 413 7
 129 0008 7B68     		ldr	r3, [r7, #4]
 130 000a FB60     		str	r3, [r7, #12]
 414:Middlewares/Third_Party/LwIP/src/api/sockets.c ****   if ((s < 0) || (s >= NUM_SOCKETS)) {
 131              		.loc 1 414 6
 132 000c FB68     		ldr	r3, [r7, #12]
 133 000e 002B     		cmp	r3, #0
 134 0010 02DB     		blt	.L4
 135              		.loc 1 414 15 discriminator 1
 136 0012 FB68     		ldr	r3, [r7, #12]
 137 0014 032B     		cmp	r3, #3
 138 0016 01DD     		ble	.L5
 139              	.L4:
 415:Middlewares/Third_Party/LwIP/src/api/sockets.c ****     LWIP_DEBUGF(SOCKETS_DEBUG, ("tryget_socket_unconn(%d): invalid\n", fd));
 416:Middlewares/Third_Party/LwIP/src/api/sockets.c ****     return NULL;
 140              		.loc 1 416 12
 141 0018 0023     		movs	r3, #0
 142 001a 03E0     		b	.L6
 143              	.L5:
 417:Middlewares/Third_Party/LwIP/src/api/sockets.c ****   }
 418:Middlewares/Third_Party/LwIP/src/api/sockets.c ****   return &sockets[s];
 144              		.loc 1 418 10
 145 001c FB68     		ldr	r3, [r7, #12]
 146 001e 1B01     		lsls	r3, r3, #4
 147 0020 034A     		ldr	r2, .L7
 148 0022 1344     		add	r3, r3, r2
 149              	.L6:
 419:Middlewares/Third_Party/LwIP/src/api/sockets.c **** }
 150              		.loc 1 419 1
 151 0024 1846     		mov	r0, r3
 152 0026 1437     		adds	r7, r7, #20
 153              	.LCFI11:
 154              		.cfi_def_cfa_offset 4
 155 0028 BD46     		mov	sp, r7
 156              	.LCFI12:
ARM GAS  /tmp/ccsCUhT2.s 			page 11


 157              		.cfi_def_cfa_register 13
 158              		@ sp needed
 159 002a 5DF8047B 		ldr	r7, [sp], #4
 160              	.LCFI13:
 161              		.cfi_restore 7
 162              		.cfi_def_cfa_offset 0
 163 002e 7047     		bx	lr
 164              	.L8:
 165              		.align	2
 166              	.L7:
 167 0030 00000000 		.word	sockets
 168              		.cfi_endproc
 169              	.LFE139:
 171              		.section	.text.lwip_socket_dbg_get_socket,"ax",%progbits
 172              		.align	1
 173              		.global	lwip_socket_dbg_get_socket
 174              		.syntax unified
 175              		.thumb
 176              		.thumb_func
 177              		.fpu fpv4-sp-d16
 179              	lwip_socket_dbg_get_socket:
 180              	.LFB140:
 420:Middlewares/Third_Party/LwIP/src/api/sockets.c **** 
 421:Middlewares/Third_Party/LwIP/src/api/sockets.c **** struct lwip_sock *
 422:Middlewares/Third_Party/LwIP/src/api/sockets.c **** lwip_socket_dbg_get_socket(int fd)
 423:Middlewares/Third_Party/LwIP/src/api/sockets.c **** {
 181              		.loc 1 423 1
 182              		.cfi_startproc
 183              		@ args = 0, pretend = 0, frame = 8
 184              		@ frame_needed = 1, uses_anonymous_args = 0
 185 0000 80B5     		push	{r7, lr}
 186              	.LCFI14:
 187              		.cfi_def_cfa_offset 8
 188              		.cfi_offset 7, -8
 189              		.cfi_offset 14, -4
 190 0002 82B0     		sub	sp, sp, #8
 191              	.LCFI15:
 192              		.cfi_def_cfa_offset 16
 193 0004 00AF     		add	r7, sp, #0
 194              	.LCFI16:
 195              		.cfi_def_cfa_register 7
 196 0006 7860     		str	r0, [r7, #4]
 424:Middlewares/Third_Party/LwIP/src/api/sockets.c ****   return tryget_socket_unconn_nouse(fd);
 197              		.loc 1 424 10
 198 0008 7868     		ldr	r0, [r7, #4]
 199 000a FFF7FEFF 		bl	tryget_socket_unconn_nouse
 200 000e 0346     		mov	r3, r0
 425:Middlewares/Third_Party/LwIP/src/api/sockets.c **** }
 201              		.loc 1 425 1
 202 0010 1846     		mov	r0, r3
 203 0012 0837     		adds	r7, r7, #8
 204              	.LCFI17:
 205              		.cfi_def_cfa_offset 8
 206 0014 BD46     		mov	sp, r7
 207              	.LCFI18:
 208              		.cfi_def_cfa_register 13
 209              		@ sp needed
ARM GAS  /tmp/ccsCUhT2.s 			page 12


 210 0016 80BD     		pop	{r7, pc}
 211              		.cfi_endproc
 212              	.LFE140:
 214              		.section	.text.tryget_socket_unconn,"ax",%progbits
 215              		.align	1
 216              		.syntax unified
 217              		.thumb
 218              		.thumb_func
 219              		.fpu fpv4-sp-d16
 221              	tryget_socket_unconn:
 222              	.LFB141:
 426:Middlewares/Third_Party/LwIP/src/api/sockets.c **** 
 427:Middlewares/Third_Party/LwIP/src/api/sockets.c **** /* Translate a socket 'int' into a pointer (only fails if the index is invalid) */
 428:Middlewares/Third_Party/LwIP/src/api/sockets.c **** static struct lwip_sock *
 429:Middlewares/Third_Party/LwIP/src/api/sockets.c **** tryget_socket_unconn(int fd)
 430:Middlewares/Third_Party/LwIP/src/api/sockets.c **** {
 223              		.loc 1 430 1
 224              		.cfi_startproc
 225              		@ args = 0, pretend = 0, frame = 16
 226              		@ frame_needed = 1, uses_anonymous_args = 0
 227 0000 80B5     		push	{r7, lr}
 228              	.LCFI19:
 229              		.cfi_def_cfa_offset 8
 230              		.cfi_offset 7, -8
 231              		.cfi_offset 14, -4
 232 0002 84B0     		sub	sp, sp, #16
 233              	.LCFI20:
 234              		.cfi_def_cfa_offset 24
 235 0004 00AF     		add	r7, sp, #0
 236              	.LCFI21:
 237              		.cfi_def_cfa_register 7
 238 0006 7860     		str	r0, [r7, #4]
 431:Middlewares/Third_Party/LwIP/src/api/sockets.c ****   struct lwip_sock *ret = tryget_socket_unconn_nouse(fd);
 239              		.loc 1 431 27
 240 0008 7868     		ldr	r0, [r7, #4]
 241 000a FFF7FEFF 		bl	tryget_socket_unconn_nouse
 242 000e F860     		str	r0, [r7, #12]
 432:Middlewares/Third_Party/LwIP/src/api/sockets.c ****   if (ret != NULL) {
 433:Middlewares/Third_Party/LwIP/src/api/sockets.c ****     if (!sock_inc_used(ret)) {
 434:Middlewares/Third_Party/LwIP/src/api/sockets.c ****       return NULL;
 435:Middlewares/Third_Party/LwIP/src/api/sockets.c ****     }
 436:Middlewares/Third_Party/LwIP/src/api/sockets.c ****   }
 437:Middlewares/Third_Party/LwIP/src/api/sockets.c ****   return ret;
 243              		.loc 1 437 10
 244 0010 FB68     		ldr	r3, [r7, #12]
 438:Middlewares/Third_Party/LwIP/src/api/sockets.c **** }
 245              		.loc 1 438 1
 246 0012 1846     		mov	r0, r3
 247 0014 1037     		adds	r7, r7, #16
 248              	.LCFI22:
 249              		.cfi_def_cfa_offset 8
 250 0016 BD46     		mov	sp, r7
 251              	.LCFI23:
 252              		.cfi_def_cfa_register 13
 253              		@ sp needed
 254 0018 80BD     		pop	{r7, pc}
 255              		.cfi_endproc
ARM GAS  /tmp/ccsCUhT2.s 			page 13


 256              	.LFE141:
 258              		.section	.text.tryget_socket_unconn_locked,"ax",%progbits
 259              		.align	1
 260              		.syntax unified
 261              		.thumb
 262              		.thumb_func
 263              		.fpu fpv4-sp-d16
 265              	tryget_socket_unconn_locked:
 266              	.LFB142:
 439:Middlewares/Third_Party/LwIP/src/api/sockets.c **** 
 440:Middlewares/Third_Party/LwIP/src/api/sockets.c **** /* Like tryget_socket_unconn(), but called under SYS_ARCH_PROTECT lock. */
 441:Middlewares/Third_Party/LwIP/src/api/sockets.c **** static struct lwip_sock *
 442:Middlewares/Third_Party/LwIP/src/api/sockets.c **** tryget_socket_unconn_locked(int fd)
 443:Middlewares/Third_Party/LwIP/src/api/sockets.c **** {
 267              		.loc 1 443 1
 268              		.cfi_startproc
 269              		@ args = 0, pretend = 0, frame = 16
 270              		@ frame_needed = 1, uses_anonymous_args = 0
 271 0000 80B5     		push	{r7, lr}
 272              	.LCFI24:
 273              		.cfi_def_cfa_offset 8
 274              		.cfi_offset 7, -8
 275              		.cfi_offset 14, -4
 276 0002 84B0     		sub	sp, sp, #16
 277              	.LCFI25:
 278              		.cfi_def_cfa_offset 24
 279 0004 00AF     		add	r7, sp, #0
 280              	.LCFI26:
 281              		.cfi_def_cfa_register 7
 282 0006 7860     		str	r0, [r7, #4]
 444:Middlewares/Third_Party/LwIP/src/api/sockets.c ****   struct lwip_sock *ret = tryget_socket_unconn_nouse(fd);
 283              		.loc 1 444 27
 284 0008 7868     		ldr	r0, [r7, #4]
 285 000a FFF7FEFF 		bl	tryget_socket_unconn_nouse
 286 000e F860     		str	r0, [r7, #12]
 445:Middlewares/Third_Party/LwIP/src/api/sockets.c ****   if (ret != NULL) {
 446:Middlewares/Third_Party/LwIP/src/api/sockets.c ****     if (!sock_inc_used_locked(ret)) {
 447:Middlewares/Third_Party/LwIP/src/api/sockets.c ****       return NULL;
 448:Middlewares/Third_Party/LwIP/src/api/sockets.c ****     }
 449:Middlewares/Third_Party/LwIP/src/api/sockets.c ****   }
 450:Middlewares/Third_Party/LwIP/src/api/sockets.c ****   return ret;
 287              		.loc 1 450 10
 288 0010 FB68     		ldr	r3, [r7, #12]
 451:Middlewares/Third_Party/LwIP/src/api/sockets.c **** }
 289              		.loc 1 451 1
 290 0012 1846     		mov	r0, r3
 291 0014 1037     		adds	r7, r7, #16
 292              	.LCFI27:
 293              		.cfi_def_cfa_offset 8
 294 0016 BD46     		mov	sp, r7
 295              	.LCFI28:
 296              		.cfi_def_cfa_register 13
 297              		@ sp needed
 298 0018 80BD     		pop	{r7, pc}
 299              		.cfi_endproc
 300              	.LFE142:
 302              		.section	.text.tryget_socket,"ax",%progbits
ARM GAS  /tmp/ccsCUhT2.s 			page 14


 303              		.align	1
 304              		.syntax unified
 305              		.thumb
 306              		.thumb_func
 307              		.fpu fpv4-sp-d16
 309              	tryget_socket:
 310              	.LFB143:
 452:Middlewares/Third_Party/LwIP/src/api/sockets.c **** 
 453:Middlewares/Third_Party/LwIP/src/api/sockets.c **** /**
 454:Middlewares/Third_Party/LwIP/src/api/sockets.c ****  * Same as get_socket but doesn't set errno
 455:Middlewares/Third_Party/LwIP/src/api/sockets.c ****  *
 456:Middlewares/Third_Party/LwIP/src/api/sockets.c ****  * @param fd externally used socket index
 457:Middlewares/Third_Party/LwIP/src/api/sockets.c ****  * @return struct lwip_sock for the socket or NULL if not found
 458:Middlewares/Third_Party/LwIP/src/api/sockets.c ****  */
 459:Middlewares/Third_Party/LwIP/src/api/sockets.c **** static struct lwip_sock *
 460:Middlewares/Third_Party/LwIP/src/api/sockets.c **** tryget_socket(int fd)
 461:Middlewares/Third_Party/LwIP/src/api/sockets.c **** {
 311              		.loc 1 461 1
 312              		.cfi_startproc
 313              		@ args = 0, pretend = 0, frame = 16
 314              		@ frame_needed = 1, uses_anonymous_args = 0
 315 0000 80B5     		push	{r7, lr}
 316              	.LCFI29:
 317              		.cfi_def_cfa_offset 8
 318              		.cfi_offset 7, -8
 319              		.cfi_offset 14, -4
 320 0002 84B0     		sub	sp, sp, #16
 321              	.LCFI30:
 322              		.cfi_def_cfa_offset 24
 323 0004 00AF     		add	r7, sp, #0
 324              	.LCFI31:
 325              		.cfi_def_cfa_register 7
 326 0006 7860     		str	r0, [r7, #4]
 462:Middlewares/Third_Party/LwIP/src/api/sockets.c ****   struct lwip_sock *sock = tryget_socket_unconn(fd);
 327              		.loc 1 462 28
 328 0008 7868     		ldr	r0, [r7, #4]
 329 000a FFF7FEFF 		bl	tryget_socket_unconn
 330 000e F860     		str	r0, [r7, #12]
 463:Middlewares/Third_Party/LwIP/src/api/sockets.c ****   if (sock != NULL) {
 331              		.loc 1 463 6
 332 0010 FB68     		ldr	r3, [r7, #12]
 333 0012 002B     		cmp	r3, #0
 334 0014 05D0     		beq	.L16
 464:Middlewares/Third_Party/LwIP/src/api/sockets.c ****     if (sock->conn) {
 335              		.loc 1 464 13
 336 0016 FB68     		ldr	r3, [r7, #12]
 337 0018 1B68     		ldr	r3, [r3]
 338              		.loc 1 464 8
 339 001a 002B     		cmp	r3, #0
 340 001c 01D0     		beq	.L16
 465:Middlewares/Third_Party/LwIP/src/api/sockets.c ****       return sock;
 341              		.loc 1 465 14
 342 001e FB68     		ldr	r3, [r7, #12]
 343 0020 00E0     		b	.L17
 344              	.L16:
 466:Middlewares/Third_Party/LwIP/src/api/sockets.c ****     }
 467:Middlewares/Third_Party/LwIP/src/api/sockets.c ****     done_socket(sock);
ARM GAS  /tmp/ccsCUhT2.s 			page 15


 468:Middlewares/Third_Party/LwIP/src/api/sockets.c ****   }
 469:Middlewares/Third_Party/LwIP/src/api/sockets.c ****   return NULL;
 345              		.loc 1 469 10
 346 0022 0023     		movs	r3, #0
 347              	.L17:
 470:Middlewares/Third_Party/LwIP/src/api/sockets.c **** }
 348              		.loc 1 470 1
 349 0024 1846     		mov	r0, r3
 350 0026 1037     		adds	r7, r7, #16
 351              	.LCFI32:
 352              		.cfi_def_cfa_offset 8
 353 0028 BD46     		mov	sp, r7
 354              	.LCFI33:
 355              		.cfi_def_cfa_register 13
 356              		@ sp needed
 357 002a 80BD     		pop	{r7, pc}
 358              		.cfi_endproc
 359              	.LFE143:
 361              		.section	.text.get_socket,"ax",%progbits
 362              		.align	1
 363              		.syntax unified
 364              		.thumb
 365              		.thumb_func
 366              		.fpu fpv4-sp-d16
 368              	get_socket:
 369              	.LFB144:
 471:Middlewares/Third_Party/LwIP/src/api/sockets.c **** 
 472:Middlewares/Third_Party/LwIP/src/api/sockets.c **** /**
 473:Middlewares/Third_Party/LwIP/src/api/sockets.c ****  * Map a externally used socket index to the internal socket representation.
 474:Middlewares/Third_Party/LwIP/src/api/sockets.c ****  *
 475:Middlewares/Third_Party/LwIP/src/api/sockets.c ****  * @param fd externally used socket index
 476:Middlewares/Third_Party/LwIP/src/api/sockets.c ****  * @return struct lwip_sock for the socket or NULL if not found
 477:Middlewares/Third_Party/LwIP/src/api/sockets.c ****  */
 478:Middlewares/Third_Party/LwIP/src/api/sockets.c **** static struct lwip_sock *
 479:Middlewares/Third_Party/LwIP/src/api/sockets.c **** get_socket(int fd)
 480:Middlewares/Third_Party/LwIP/src/api/sockets.c **** {
 370              		.loc 1 480 1
 371              		.cfi_startproc
 372              		@ args = 0, pretend = 0, frame = 16
 373              		@ frame_needed = 1, uses_anonymous_args = 0
 374 0000 80B5     		push	{r7, lr}
 375              	.LCFI34:
 376              		.cfi_def_cfa_offset 8
 377              		.cfi_offset 7, -8
 378              		.cfi_offset 14, -4
 379 0002 84B0     		sub	sp, sp, #16
 380              	.LCFI35:
 381              		.cfi_def_cfa_offset 24
 382 0004 00AF     		add	r7, sp, #0
 383              	.LCFI36:
 384              		.cfi_def_cfa_register 7
 385 0006 7860     		str	r0, [r7, #4]
 481:Middlewares/Third_Party/LwIP/src/api/sockets.c ****   struct lwip_sock *sock = tryget_socket(fd);
 386              		.loc 1 481 28
 387 0008 7868     		ldr	r0, [r7, #4]
 388 000a FFF7FEFF 		bl	tryget_socket
 389 000e F860     		str	r0, [r7, #12]
ARM GAS  /tmp/ccsCUhT2.s 			page 16


 482:Middlewares/Third_Party/LwIP/src/api/sockets.c ****   if (!sock) {
 390              		.loc 1 482 6
 391 0010 FB68     		ldr	r3, [r7, #12]
 392 0012 002B     		cmp	r3, #0
 393 0014 04D1     		bne	.L19
 483:Middlewares/Third_Party/LwIP/src/api/sockets.c ****     if ((fd < LWIP_SOCKET_OFFSET) || (fd >= (LWIP_SOCKET_OFFSET + NUM_SOCKETS))) {
 484:Middlewares/Third_Party/LwIP/src/api/sockets.c ****       LWIP_DEBUGF(SOCKETS_DEBUG, ("get_socket(%d): invalid\n", fd));
 485:Middlewares/Third_Party/LwIP/src/api/sockets.c ****     }
 486:Middlewares/Third_Party/LwIP/src/api/sockets.c ****     set_errno(EBADF);
 394              		.loc 1 486 5 discriminator 1
 395 0016 054B     		ldr	r3, .L21
 396 0018 0922     		movs	r2, #9
 397 001a 1A60     		str	r2, [r3]
 487:Middlewares/Third_Party/LwIP/src/api/sockets.c ****     return NULL;
 398              		.loc 1 487 12 discriminator 1
 399 001c 0023     		movs	r3, #0
 400 001e 00E0     		b	.L20
 401              	.L19:
 488:Middlewares/Third_Party/LwIP/src/api/sockets.c ****   }
 489:Middlewares/Third_Party/LwIP/src/api/sockets.c ****   return sock;
 402              		.loc 1 489 10
 403 0020 FB68     		ldr	r3, [r7, #12]
 404              	.L20:
 490:Middlewares/Third_Party/LwIP/src/api/sockets.c **** }
 405              		.loc 1 490 1
 406 0022 1846     		mov	r0, r3
 407 0024 1037     		adds	r7, r7, #16
 408              	.LCFI37:
 409              		.cfi_def_cfa_offset 8
 410 0026 BD46     		mov	sp, r7
 411              	.LCFI38:
 412              		.cfi_def_cfa_register 13
 413              		@ sp needed
 414 0028 80BD     		pop	{r7, pc}
 415              	.L22:
 416 002a 00BF     		.align	2
 417              	.L21:
 418 002c 00000000 		.word	errno
 419              		.cfi_endproc
 420              	.LFE144:
 422              		.section	.rodata
 423              		.align	2
 424              	.LC0:
 425 0000 4D696464 		.ascii	"Middlewares/Third_Party/LwIP/src/api/sockets.c\000"
 425      6C657761 
 425      7265732F 
 425      54686972 
 425      645F5061 
 426 002f 00       		.align	2
 427              	.LC1:
 428 0030 736F636B 		.ascii	"sockets[i].select_waiting == 0\000"
 428      6574735B 
 428      695D2E73 
 428      656C6563 
 428      745F7761 
 429 004f 00       		.align	2
 430              	.LC2:
ARM GAS  /tmp/ccsCUhT2.s 			page 17


 431 0050 41737365 		.ascii	"Assertion \"%s\" failed at line %d in %s\012\000"
 431      7274696F 
 431      6E202225 
 431      73222066 
 431      61696C65 
 432              		.section	.text.alloc_socket,"ax",%progbits
 433              		.align	1
 434              		.syntax unified
 435              		.thumb
 436              		.thumb_func
 437              		.fpu fpv4-sp-d16
 439              	alloc_socket:
 440              	.LFB145:
 491:Middlewares/Third_Party/LwIP/src/api/sockets.c **** 
 492:Middlewares/Third_Party/LwIP/src/api/sockets.c **** /**
 493:Middlewares/Third_Party/LwIP/src/api/sockets.c ****  * Allocate a new socket for a given netconn.
 494:Middlewares/Third_Party/LwIP/src/api/sockets.c ****  *
 495:Middlewares/Third_Party/LwIP/src/api/sockets.c ****  * @param newconn the netconn for which to allocate a socket
 496:Middlewares/Third_Party/LwIP/src/api/sockets.c ****  * @param accepted 1 if socket has been created by accept(),
 497:Middlewares/Third_Party/LwIP/src/api/sockets.c ****  *                 0 if socket has been created by socket()
 498:Middlewares/Third_Party/LwIP/src/api/sockets.c ****  * @return the index of the new socket; -1 on error
 499:Middlewares/Third_Party/LwIP/src/api/sockets.c ****  */
 500:Middlewares/Third_Party/LwIP/src/api/sockets.c **** static int
 501:Middlewares/Third_Party/LwIP/src/api/sockets.c **** alloc_socket(struct netconn *newconn, int accepted)
 502:Middlewares/Third_Party/LwIP/src/api/sockets.c **** {
 441              		.loc 1 502 1
 442              		.cfi_startproc
 443              		@ args = 0, pretend = 0, frame = 16
 444              		@ frame_needed = 1, uses_anonymous_args = 0
 445 0000 80B5     		push	{r7, lr}
 446              	.LCFI39:
 447              		.cfi_def_cfa_offset 8
 448              		.cfi_offset 7, -8
 449              		.cfi_offset 14, -4
 450 0002 84B0     		sub	sp, sp, #16
 451              	.LCFI40:
 452              		.cfi_def_cfa_offset 24
 453 0004 00AF     		add	r7, sp, #0
 454              	.LCFI41:
 455              		.cfi_def_cfa_register 7
 456 0006 7860     		str	r0, [r7, #4]
 457 0008 3960     		str	r1, [r7]
 503:Middlewares/Third_Party/LwIP/src/api/sockets.c ****   int i;
 504:Middlewares/Third_Party/LwIP/src/api/sockets.c ****   SYS_ARCH_DECL_PROTECT(lev);
 505:Middlewares/Third_Party/LwIP/src/api/sockets.c ****   LWIP_UNUSED_ARG(accepted);
 506:Middlewares/Third_Party/LwIP/src/api/sockets.c **** 
 507:Middlewares/Third_Party/LwIP/src/api/sockets.c ****   /* allocate a new socket identifier */
 508:Middlewares/Third_Party/LwIP/src/api/sockets.c ****   for (i = 0; i < NUM_SOCKETS; ++i) {
 458              		.loc 1 508 10
 459 000a 0023     		movs	r3, #0
 460 000c FB60     		str	r3, [r7, #12]
 461              		.loc 1 508 3
 462 000e 52E0     		b	.L24
 463              	.L31:
 509:Middlewares/Third_Party/LwIP/src/api/sockets.c ****     /* Protect socket array */
 510:Middlewares/Third_Party/LwIP/src/api/sockets.c ****     SYS_ARCH_PROTECT(lev);
 464              		.loc 1 510 5
ARM GAS  /tmp/ccsCUhT2.s 			page 18


 465 0010 FFF7FEFF 		bl	sys_arch_protect
 466 0014 B860     		str	r0, [r7, #8]
 511:Middlewares/Third_Party/LwIP/src/api/sockets.c ****     if (!sockets[i].conn) {
 467              		.loc 1 511 20
 468 0016 2C4A     		ldr	r2, .L32
 469 0018 FB68     		ldr	r3, [r7, #12]
 470 001a 1B01     		lsls	r3, r3, #4
 471 001c 1344     		add	r3, r3, r2
 472 001e 1B68     		ldr	r3, [r3]
 473              		.loc 1 511 8
 474 0020 002B     		cmp	r3, #0
 475 0022 42D1     		bne	.L25
 512:Middlewares/Third_Party/LwIP/src/api/sockets.c **** #if LWIP_NETCONN_FULLDUPLEX
 513:Middlewares/Third_Party/LwIP/src/api/sockets.c ****       if (sockets[i].fd_used) {
 514:Middlewares/Third_Party/LwIP/src/api/sockets.c ****         SYS_ARCH_UNPROTECT(lev);
 515:Middlewares/Third_Party/LwIP/src/api/sockets.c ****         continue;
 516:Middlewares/Third_Party/LwIP/src/api/sockets.c ****       }
 517:Middlewares/Third_Party/LwIP/src/api/sockets.c ****       sockets[i].fd_used    = 1;
 518:Middlewares/Third_Party/LwIP/src/api/sockets.c ****       sockets[i].fd_free_pending = 0;
 519:Middlewares/Third_Party/LwIP/src/api/sockets.c **** #endif
 520:Middlewares/Third_Party/LwIP/src/api/sockets.c ****       sockets[i].conn       = newconn;
 476              		.loc 1 520 29
 477 0024 284A     		ldr	r2, .L32
 478 0026 FB68     		ldr	r3, [r7, #12]
 479 0028 1B01     		lsls	r3, r3, #4
 480 002a 1344     		add	r3, r3, r2
 481 002c 7A68     		ldr	r2, [r7, #4]
 482 002e 1A60     		str	r2, [r3]
 521:Middlewares/Third_Party/LwIP/src/api/sockets.c ****       /* The socket is not yet known to anyone, so no need to protect
 522:Middlewares/Third_Party/LwIP/src/api/sockets.c ****          after having marked it as used. */
 523:Middlewares/Third_Party/LwIP/src/api/sockets.c ****       SYS_ARCH_UNPROTECT(lev);
 483              		.loc 1 523 7
 484 0030 B868     		ldr	r0, [r7, #8]
 485 0032 FFF7FEFF 		bl	sys_arch_unprotect
 524:Middlewares/Third_Party/LwIP/src/api/sockets.c ****       sockets[i].lastdata.pbuf = NULL;
 486              		.loc 1 524 32
 487 0036 244A     		ldr	r2, .L32
 488 0038 FB68     		ldr	r3, [r7, #12]
 489 003a 1B01     		lsls	r3, r3, #4
 490 003c 1344     		add	r3, r3, r2
 491 003e 0433     		adds	r3, r3, #4
 492 0040 0022     		movs	r2, #0
 493 0042 1A60     		str	r2, [r3]
 525:Middlewares/Third_Party/LwIP/src/api/sockets.c **** #if LWIP_SOCKET_SELECT || LWIP_SOCKET_POLL
 526:Middlewares/Third_Party/LwIP/src/api/sockets.c ****       LWIP_ASSERT("sockets[i].select_waiting == 0", sockets[i].select_waiting == 0);
 494              		.loc 1 526 7
 495 0044 204A     		ldr	r2, .L32
 496 0046 FB68     		ldr	r3, [r7, #12]
 497 0048 1B01     		lsls	r3, r3, #4
 498 004a 1344     		add	r3, r3, r2
 499 004c 0E33     		adds	r3, r3, #14
 500 004e 1B78     		ldrb	r3, [r3]	@ zero_extendqisi2
 501 0050 002B     		cmp	r3, #0
 502 0052 06D0     		beq	.L26
 503              		.loc 1 526 7 is_stmt 0 discriminator 1
 504 0054 1D4B     		ldr	r3, .L32+4
 505 0056 40F20E22 		movw	r2, #526
ARM GAS  /tmp/ccsCUhT2.s 			page 19


 506 005a 1D49     		ldr	r1, .L32+8
 507 005c 1D48     		ldr	r0, .L32+12
 508 005e FFF7FEFF 		bl	printf
 509              	.L26:
 527:Middlewares/Third_Party/LwIP/src/api/sockets.c ****       sockets[i].rcvevent   = 0;
 510              		.loc 1 527 29 is_stmt 1
 511 0062 194A     		ldr	r2, .L32
 512 0064 FB68     		ldr	r3, [r7, #12]
 513 0066 1B01     		lsls	r3, r3, #4
 514 0068 1344     		add	r3, r3, r2
 515 006a 0833     		adds	r3, r3, #8
 516 006c 0022     		movs	r2, #0
 517 006e 1A80     		strh	r2, [r3]	@ movhi
 528:Middlewares/Third_Party/LwIP/src/api/sockets.c ****       /* TCP sendbuf is empty, but the socket is not yet writable until connected
 529:Middlewares/Third_Party/LwIP/src/api/sockets.c ****        * (unless it has been created by accept()). */
 530:Middlewares/Third_Party/LwIP/src/api/sockets.c ****       sockets[i].sendevent  = (NETCONNTYPE_GROUP(newconn->type) == NETCONN_TCP ? (accepted != 0) : 
 518              		.loc 1 530 32
 519 0070 7B68     		ldr	r3, [r7, #4]
 520 0072 1B78     		ldrb	r3, [r3]	@ zero_extendqisi2
 521 0074 03F0F003 		and	r3, r3, #240
 522              		.loc 1 530 98
 523 0078 102B     		cmp	r3, #16
 524 007a 02D1     		bne	.L27
 525              		.loc 1 530 98 is_stmt 0 discriminator 2
 526 007c 3B68     		ldr	r3, [r7]
 527 007e 002B     		cmp	r3, #0
 528 0080 01D0     		beq	.L28
 529              	.L27:
 530              		.loc 1 530 98 discriminator 3
 531 0082 0123     		movs	r3, #1
 532 0084 00E0     		b	.L29
 533              	.L28:
 534              		.loc 1 530 98 discriminator 4
 535 0086 0023     		movs	r3, #0
 536              	.L29:
 537              		.loc 1 530 29 is_stmt 1 discriminator 6
 538 0088 99B2     		uxth	r1, r3
 539 008a 0F4A     		ldr	r2, .L32
 540 008c FB68     		ldr	r3, [r7, #12]
 541 008e 1B01     		lsls	r3, r3, #4
 542 0090 1344     		add	r3, r3, r2
 543 0092 0A33     		adds	r3, r3, #10
 544 0094 0A46     		mov	r2, r1	@ movhi
 545 0096 1A80     		strh	r2, [r3]	@ movhi
 531:Middlewares/Third_Party/LwIP/src/api/sockets.c ****       sockets[i].errevent   = 0;
 546              		.loc 1 531 29 discriminator 6
 547 0098 0B4A     		ldr	r2, .L32
 548 009a FB68     		ldr	r3, [r7, #12]
 549 009c 1B01     		lsls	r3, r3, #4
 550 009e 1344     		add	r3, r3, r2
 551 00a0 0C33     		adds	r3, r3, #12
 552 00a2 0022     		movs	r2, #0
 553 00a4 1A80     		strh	r2, [r3]	@ movhi
 532:Middlewares/Third_Party/LwIP/src/api/sockets.c **** #endif /* LWIP_SOCKET_SELECT || LWIP_SOCKET_POLL */
 533:Middlewares/Third_Party/LwIP/src/api/sockets.c ****       return i + LWIP_SOCKET_OFFSET;
 554              		.loc 1 533 16 discriminator 6
 555 00a6 FB68     		ldr	r3, [r7, #12]
ARM GAS  /tmp/ccsCUhT2.s 			page 20


 556 00a8 0AE0     		b	.L30
 557              	.L25:
 534:Middlewares/Third_Party/LwIP/src/api/sockets.c ****     }
 535:Middlewares/Third_Party/LwIP/src/api/sockets.c ****     SYS_ARCH_UNPROTECT(lev);
 558              		.loc 1 535 5 discriminator 2
 559 00aa B868     		ldr	r0, [r7, #8]
 560 00ac FFF7FEFF 		bl	sys_arch_unprotect
 508:Middlewares/Third_Party/LwIP/src/api/sockets.c ****     /* Protect socket array */
 561              		.loc 1 508 32 discriminator 2
 562 00b0 FB68     		ldr	r3, [r7, #12]
 563 00b2 0133     		adds	r3, r3, #1
 564 00b4 FB60     		str	r3, [r7, #12]
 565              	.L24:
 508:Middlewares/Third_Party/LwIP/src/api/sockets.c ****     /* Protect socket array */
 566              		.loc 1 508 3 discriminator 1
 567 00b6 FB68     		ldr	r3, [r7, #12]
 568 00b8 032B     		cmp	r3, #3
 569 00ba A9DD     		ble	.L31
 536:Middlewares/Third_Party/LwIP/src/api/sockets.c ****   }
 537:Middlewares/Third_Party/LwIP/src/api/sockets.c ****   return -1;
 570              		.loc 1 537 10
 571 00bc 4FF0FF33 		mov	r3, #-1
 572              	.L30:
 538:Middlewares/Third_Party/LwIP/src/api/sockets.c **** }
 573              		.loc 1 538 1
 574 00c0 1846     		mov	r0, r3
 575 00c2 1037     		adds	r7, r7, #16
 576              	.LCFI42:
 577              		.cfi_def_cfa_offset 8
 578 00c4 BD46     		mov	sp, r7
 579              	.LCFI43:
 580              		.cfi_def_cfa_register 13
 581              		@ sp needed
 582 00c6 80BD     		pop	{r7, pc}
 583              	.L33:
 584              		.align	2
 585              	.L32:
 586 00c8 00000000 		.word	sockets
 587 00cc 00000000 		.word	.LC0
 588 00d0 30000000 		.word	.LC1
 589 00d4 50000000 		.word	.LC2
 590              		.cfi_endproc
 591              	.LFE145:
 593              		.section	.text.free_socket_locked,"ax",%progbits
 594              		.align	1
 595              		.syntax unified
 596              		.thumb
 597              		.thumb_func
 598              		.fpu fpv4-sp-d16
 600              	free_socket_locked:
 601              	.LFB146:
 539:Middlewares/Third_Party/LwIP/src/api/sockets.c **** 
 540:Middlewares/Third_Party/LwIP/src/api/sockets.c **** /** Free a socket (under lock)
 541:Middlewares/Third_Party/LwIP/src/api/sockets.c ****  *
 542:Middlewares/Third_Party/LwIP/src/api/sockets.c ****  * @param sock the socket to free
 543:Middlewares/Third_Party/LwIP/src/api/sockets.c ****  * @param is_tcp != 0 for TCP sockets, used to free lastdata
 544:Middlewares/Third_Party/LwIP/src/api/sockets.c ****  * @param conn the socekt's netconn is stored here, must be freed externally
ARM GAS  /tmp/ccsCUhT2.s 			page 21


 545:Middlewares/Third_Party/LwIP/src/api/sockets.c ****  * @param lastdata lastdata is stored here, must be freed externally
 546:Middlewares/Third_Party/LwIP/src/api/sockets.c ****  */
 547:Middlewares/Third_Party/LwIP/src/api/sockets.c **** static int
 548:Middlewares/Third_Party/LwIP/src/api/sockets.c **** free_socket_locked(struct lwip_sock *sock, int is_tcp, struct netconn **conn,
 549:Middlewares/Third_Party/LwIP/src/api/sockets.c ****                    union lwip_sock_lastdata *lastdata)
 550:Middlewares/Third_Party/LwIP/src/api/sockets.c **** {
 602              		.loc 1 550 1
 603              		.cfi_startproc
 604              		@ args = 0, pretend = 0, frame = 16
 605              		@ frame_needed = 1, uses_anonymous_args = 0
 606              		@ link register save eliminated.
 607 0000 80B4     		push	{r7}
 608              	.LCFI44:
 609              		.cfi_def_cfa_offset 4
 610              		.cfi_offset 7, -4
 611 0002 85B0     		sub	sp, sp, #20
 612              	.LCFI45:
 613              		.cfi_def_cfa_offset 24
 614 0004 00AF     		add	r7, sp, #0
 615              	.LCFI46:
 616              		.cfi_def_cfa_register 7
 617 0006 F860     		str	r0, [r7, #12]
 618 0008 B960     		str	r1, [r7, #8]
 619 000a 7A60     		str	r2, [r7, #4]
 620 000c 3B60     		str	r3, [r7]
 551:Middlewares/Third_Party/LwIP/src/api/sockets.c **** #if LWIP_NETCONN_FULLDUPLEX
 552:Middlewares/Third_Party/LwIP/src/api/sockets.c ****   LWIP_ASSERT("sock->fd_used > 0", sock->fd_used > 0);
 553:Middlewares/Third_Party/LwIP/src/api/sockets.c ****   sock->fd_used--;
 554:Middlewares/Third_Party/LwIP/src/api/sockets.c ****   if (sock->fd_used > 0) {
 555:Middlewares/Third_Party/LwIP/src/api/sockets.c ****     sock->fd_free_pending = LWIP_SOCK_FD_FREE_FREE | (is_tcp ? LWIP_SOCK_FD_FREE_TCP : 0);
 556:Middlewares/Third_Party/LwIP/src/api/sockets.c ****     return 0;
 557:Middlewares/Third_Party/LwIP/src/api/sockets.c ****   }
 558:Middlewares/Third_Party/LwIP/src/api/sockets.c **** #else /* LWIP_NETCONN_FULLDUPLEX */
 559:Middlewares/Third_Party/LwIP/src/api/sockets.c ****   LWIP_UNUSED_ARG(is_tcp);
 560:Middlewares/Third_Party/LwIP/src/api/sockets.c **** #endif /* LWIP_NETCONN_FULLDUPLEX */
 561:Middlewares/Third_Party/LwIP/src/api/sockets.c **** 
 562:Middlewares/Third_Party/LwIP/src/api/sockets.c ****   *lastdata = sock->lastdata;
 621              		.loc 1 562 13
 622 000e 3B68     		ldr	r3, [r7]
 623 0010 FA68     		ldr	r2, [r7, #12]
 624 0012 5268     		ldr	r2, [r2, #4]
 625 0014 1A60     		str	r2, [r3]
 563:Middlewares/Third_Party/LwIP/src/api/sockets.c ****   sock->lastdata.pbuf = NULL;
 626              		.loc 1 563 23
 627 0016 FB68     		ldr	r3, [r7, #12]
 628 0018 0022     		movs	r2, #0
 629 001a 5A60     		str	r2, [r3, #4]
 564:Middlewares/Third_Party/LwIP/src/api/sockets.c ****   *conn = sock->conn;
 630              		.loc 1 564 15
 631 001c FB68     		ldr	r3, [r7, #12]
 632 001e 1A68     		ldr	r2, [r3]
 633              		.loc 1 564 9
 634 0020 7B68     		ldr	r3, [r7, #4]
 635 0022 1A60     		str	r2, [r3]
 565:Middlewares/Third_Party/LwIP/src/api/sockets.c ****   sock->conn = NULL;
 636              		.loc 1 565 14
 637 0024 FB68     		ldr	r3, [r7, #12]
ARM GAS  /tmp/ccsCUhT2.s 			page 22


 638 0026 0022     		movs	r2, #0
 639 0028 1A60     		str	r2, [r3]
 566:Middlewares/Third_Party/LwIP/src/api/sockets.c ****   return 1;
 640              		.loc 1 566 10
 641 002a 0123     		movs	r3, #1
 567:Middlewares/Third_Party/LwIP/src/api/sockets.c **** }
 642              		.loc 1 567 1
 643 002c 1846     		mov	r0, r3
 644 002e 1437     		adds	r7, r7, #20
 645              	.LCFI47:
 646              		.cfi_def_cfa_offset 4
 647 0030 BD46     		mov	sp, r7
 648              	.LCFI48:
 649              		.cfi_def_cfa_register 13
 650              		@ sp needed
 651 0032 5DF8047B 		ldr	r7, [sp], #4
 652              	.LCFI49:
 653              		.cfi_restore 7
 654              		.cfi_def_cfa_offset 0
 655 0036 7047     		bx	lr
 656              		.cfi_endproc
 657              	.LFE146:
 659              		.section	.text.free_socket_free_elements,"ax",%progbits
 660              		.align	1
 661              		.syntax unified
 662              		.thumb
 663              		.thumb_func
 664              		.fpu fpv4-sp-d16
 666              	free_socket_free_elements:
 667              	.LFB147:
 568:Middlewares/Third_Party/LwIP/src/api/sockets.c **** 
 569:Middlewares/Third_Party/LwIP/src/api/sockets.c **** /** Free a socket's leftover members.
 570:Middlewares/Third_Party/LwIP/src/api/sockets.c ****  */
 571:Middlewares/Third_Party/LwIP/src/api/sockets.c **** static void
 572:Middlewares/Third_Party/LwIP/src/api/sockets.c **** free_socket_free_elements(int is_tcp, struct netconn *conn, union lwip_sock_lastdata *lastdata)
 573:Middlewares/Third_Party/LwIP/src/api/sockets.c **** {
 668              		.loc 1 573 1
 669              		.cfi_startproc
 670              		@ args = 0, pretend = 0, frame = 16
 671              		@ frame_needed = 1, uses_anonymous_args = 0
 672 0000 80B5     		push	{r7, lr}
 673              	.LCFI50:
 674              		.cfi_def_cfa_offset 8
 675              		.cfi_offset 7, -8
 676              		.cfi_offset 14, -4
 677 0002 84B0     		sub	sp, sp, #16
 678              	.LCFI51:
 679              		.cfi_def_cfa_offset 24
 680 0004 00AF     		add	r7, sp, #0
 681              	.LCFI52:
 682              		.cfi_def_cfa_register 7
 683 0006 F860     		str	r0, [r7, #12]
 684 0008 B960     		str	r1, [r7, #8]
 685 000a 7A60     		str	r2, [r7, #4]
 574:Middlewares/Third_Party/LwIP/src/api/sockets.c ****   if (lastdata->pbuf != NULL) {
 686              		.loc 1 574 15
 687 000c 7B68     		ldr	r3, [r7, #4]
ARM GAS  /tmp/ccsCUhT2.s 			page 23


 688 000e 1B68     		ldr	r3, [r3]
 689              		.loc 1 574 6
 690 0010 002B     		cmp	r3, #0
 691 0012 0DD0     		beq	.L37
 575:Middlewares/Third_Party/LwIP/src/api/sockets.c ****     if (is_tcp) {
 692              		.loc 1 575 8
 693 0014 FB68     		ldr	r3, [r7, #12]
 694 0016 002B     		cmp	r3, #0
 695 0018 05D0     		beq	.L38
 576:Middlewares/Third_Party/LwIP/src/api/sockets.c ****       pbuf_free(lastdata->pbuf);
 696              		.loc 1 576 7
 697 001a 7B68     		ldr	r3, [r7, #4]
 698 001c 1B68     		ldr	r3, [r3]
 699 001e 1846     		mov	r0, r3
 700 0020 FFF7FEFF 		bl	pbuf_free
 701 0024 04E0     		b	.L37
 702              	.L38:
 577:Middlewares/Third_Party/LwIP/src/api/sockets.c ****     } else {
 578:Middlewares/Third_Party/LwIP/src/api/sockets.c ****       netbuf_delete(lastdata->netbuf);
 703              		.loc 1 578 7
 704 0026 7B68     		ldr	r3, [r7, #4]
 705 0028 1B68     		ldr	r3, [r3]
 706 002a 1846     		mov	r0, r3
 707 002c FFF7FEFF 		bl	netbuf_delete
 708              	.L37:
 579:Middlewares/Third_Party/LwIP/src/api/sockets.c ****     }
 580:Middlewares/Third_Party/LwIP/src/api/sockets.c ****   }
 581:Middlewares/Third_Party/LwIP/src/api/sockets.c ****   if (conn != NULL) {
 709              		.loc 1 581 6
 710 0030 BB68     		ldr	r3, [r7, #8]
 711 0032 002B     		cmp	r3, #0
 712 0034 02D0     		beq	.L40
 582:Middlewares/Third_Party/LwIP/src/api/sockets.c ****     /* netconn_prepare_delete() has already been called, here we only free the conn */
 583:Middlewares/Third_Party/LwIP/src/api/sockets.c ****     netconn_delete(conn);
 713              		.loc 1 583 5
 714 0036 B868     		ldr	r0, [r7, #8]
 715 0038 FFF7FEFF 		bl	netconn_delete
 716              	.L40:
 584:Middlewares/Third_Party/LwIP/src/api/sockets.c ****   }
 585:Middlewares/Third_Party/LwIP/src/api/sockets.c **** }
 717              		.loc 1 585 1
 718 003c 00BF     		nop
 719 003e 1037     		adds	r7, r7, #16
 720              	.LCFI53:
 721              		.cfi_def_cfa_offset 8
 722 0040 BD46     		mov	sp, r7
 723              	.LCFI54:
 724              		.cfi_def_cfa_register 13
 725              		@ sp needed
 726 0042 80BD     		pop	{r7, pc}
 727              		.cfi_endproc
 728              	.LFE147:
 730              		.section	.text.free_socket,"ax",%progbits
 731              		.align	1
 732              		.syntax unified
 733              		.thumb
 734              		.thumb_func
ARM GAS  /tmp/ccsCUhT2.s 			page 24


 735              		.fpu fpv4-sp-d16
 737              	free_socket:
 738              	.LFB148:
 586:Middlewares/Third_Party/LwIP/src/api/sockets.c **** 
 587:Middlewares/Third_Party/LwIP/src/api/sockets.c **** /** Free a socket. The socket's netconn must have been
 588:Middlewares/Third_Party/LwIP/src/api/sockets.c ****  * delete before!
 589:Middlewares/Third_Party/LwIP/src/api/sockets.c ****  *
 590:Middlewares/Third_Party/LwIP/src/api/sockets.c ****  * @param sock the socket to free
 591:Middlewares/Third_Party/LwIP/src/api/sockets.c ****  * @param is_tcp != 0 for TCP sockets, used to free lastdata
 592:Middlewares/Third_Party/LwIP/src/api/sockets.c ****  */
 593:Middlewares/Third_Party/LwIP/src/api/sockets.c **** static void
 594:Middlewares/Third_Party/LwIP/src/api/sockets.c **** free_socket(struct lwip_sock *sock, int is_tcp)
 595:Middlewares/Third_Party/LwIP/src/api/sockets.c **** {
 739              		.loc 1 595 1
 740              		.cfi_startproc
 741              		@ args = 0, pretend = 0, frame = 24
 742              		@ frame_needed = 1, uses_anonymous_args = 0
 743 0000 80B5     		push	{r7, lr}
 744              	.LCFI55:
 745              		.cfi_def_cfa_offset 8
 746              		.cfi_offset 7, -8
 747              		.cfi_offset 14, -4
 748 0002 86B0     		sub	sp, sp, #24
 749              	.LCFI56:
 750              		.cfi_def_cfa_offset 32
 751 0004 00AF     		add	r7, sp, #0
 752              	.LCFI57:
 753              		.cfi_def_cfa_register 7
 754 0006 7860     		str	r0, [r7, #4]
 755 0008 3960     		str	r1, [r7]
 596:Middlewares/Third_Party/LwIP/src/api/sockets.c ****   int freed;
 597:Middlewares/Third_Party/LwIP/src/api/sockets.c ****   struct netconn *conn;
 598:Middlewares/Third_Party/LwIP/src/api/sockets.c ****   union lwip_sock_lastdata lastdata;
 599:Middlewares/Third_Party/LwIP/src/api/sockets.c ****   SYS_ARCH_DECL_PROTECT(lev);
 600:Middlewares/Third_Party/LwIP/src/api/sockets.c **** 
 601:Middlewares/Third_Party/LwIP/src/api/sockets.c ****   /* Protect socket array */
 602:Middlewares/Third_Party/LwIP/src/api/sockets.c ****   SYS_ARCH_PROTECT(lev);
 756              		.loc 1 602 3
 757 000a FFF7FEFF 		bl	sys_arch_protect
 758 000e 7861     		str	r0, [r7, #20]
 603:Middlewares/Third_Party/LwIP/src/api/sockets.c **** 
 604:Middlewares/Third_Party/LwIP/src/api/sockets.c ****   freed = free_socket_locked(sock, is_tcp, &conn, &lastdata);
 759              		.loc 1 604 11
 760 0010 07F10803 		add	r3, r7, #8
 761 0014 07F10C02 		add	r2, r7, #12
 762 0018 3968     		ldr	r1, [r7]
 763 001a 7868     		ldr	r0, [r7, #4]
 764 001c FFF7FEFF 		bl	free_socket_locked
 765 0020 3861     		str	r0, [r7, #16]
 605:Middlewares/Third_Party/LwIP/src/api/sockets.c ****   SYS_ARCH_UNPROTECT(lev);
 766              		.loc 1 605 3
 767 0022 7869     		ldr	r0, [r7, #20]
 768 0024 FFF7FEFF 		bl	sys_arch_unprotect
 606:Middlewares/Third_Party/LwIP/src/api/sockets.c ****   /* don't use 'sock' after this line, as another task might have allocated it */
 607:Middlewares/Third_Party/LwIP/src/api/sockets.c **** 
 608:Middlewares/Third_Party/LwIP/src/api/sockets.c ****   if (freed) {
 769              		.loc 1 608 6
ARM GAS  /tmp/ccsCUhT2.s 			page 25


 770 0028 3B69     		ldr	r3, [r7, #16]
 771 002a 002B     		cmp	r3, #0
 772 002c 06D0     		beq	.L43
 609:Middlewares/Third_Party/LwIP/src/api/sockets.c ****     free_socket_free_elements(is_tcp, conn, &lastdata);
 773              		.loc 1 609 5
 774 002e FB68     		ldr	r3, [r7, #12]
 775 0030 07F10802 		add	r2, r7, #8
 776 0034 1946     		mov	r1, r3
 777 0036 3868     		ldr	r0, [r7]
 778 0038 FFF7FEFF 		bl	free_socket_free_elements
 779              	.L43:
 610:Middlewares/Third_Party/LwIP/src/api/sockets.c ****   }
 611:Middlewares/Third_Party/LwIP/src/api/sockets.c **** }
 780              		.loc 1 611 1
 781 003c 00BF     		nop
 782 003e 1837     		adds	r7, r7, #24
 783              	.LCFI58:
 784              		.cfi_def_cfa_offset 8
 785 0040 BD46     		mov	sp, r7
 786              	.LCFI59:
 787              		.cfi_def_cfa_register 13
 788              		@ sp needed
 789 0042 80BD     		pop	{r7, pc}
 790              		.cfi_endproc
 791              	.LFE148:
 793              		.section	.rodata
 794              		.align	2
 795              	.LC3:
 796 0078 6E657763 		.ascii	"newconn != NULL\000"
 796      6F6E6E20 
 796      213D204E 
 796      554C4C00 
 797              		.align	2
 798              	.LC4:
 799 0088 696E7661 		.ascii	"invalid socket index\000"
 799      6C696420 
 799      736F636B 
 799      65742069 
 799      6E646578 
 800              		.section	.text.lwip_accept,"ax",%progbits
 801              		.align	1
 802              		.global	lwip_accept
 803              		.syntax unified
 804              		.thumb
 805              		.thumb_func
 806              		.fpu fpv4-sp-d16
 808              	lwip_accept:
 809              	.LFB149:
 612:Middlewares/Third_Party/LwIP/src/api/sockets.c **** 
 613:Middlewares/Third_Party/LwIP/src/api/sockets.c **** /* Below this, the well-known socket functions are implemented.
 614:Middlewares/Third_Party/LwIP/src/api/sockets.c ****  * Use google.com or opengroup.org to get a good description :-)
 615:Middlewares/Third_Party/LwIP/src/api/sockets.c ****  *
 616:Middlewares/Third_Party/LwIP/src/api/sockets.c ****  * Exceptions are documented!
 617:Middlewares/Third_Party/LwIP/src/api/sockets.c ****  */
 618:Middlewares/Third_Party/LwIP/src/api/sockets.c **** 
 619:Middlewares/Third_Party/LwIP/src/api/sockets.c **** int
 620:Middlewares/Third_Party/LwIP/src/api/sockets.c **** lwip_accept(int s, struct sockaddr *addr, socklen_t *addrlen)
ARM GAS  /tmp/ccsCUhT2.s 			page 26


 621:Middlewares/Third_Party/LwIP/src/api/sockets.c **** {
 810              		.loc 1 621 1
 811              		.cfi_startproc
 812              		@ args = 0, pretend = 0, frame = 96
 813              		@ frame_needed = 1, uses_anonymous_args = 0
 814 0000 90B5     		push	{r4, r7, lr}
 815              	.LCFI60:
 816              		.cfi_def_cfa_offset 12
 817              		.cfi_offset 4, -12
 818              		.cfi_offset 7, -8
 819              		.cfi_offset 14, -4
 820 0002 99B0     		sub	sp, sp, #100
 821              	.LCFI61:
 822              		.cfi_def_cfa_offset 112
 823 0004 00AF     		add	r7, sp, #0
 824              	.LCFI62:
 825              		.cfi_def_cfa_register 7
 826 0006 F860     		str	r0, [r7, #12]
 827 0008 B960     		str	r1, [r7, #8]
 828 000a 7A60     		str	r2, [r7, #4]
 622:Middlewares/Third_Party/LwIP/src/api/sockets.c ****   struct lwip_sock *sock, *nsock;
 623:Middlewares/Third_Party/LwIP/src/api/sockets.c ****   struct netconn *newconn;
 624:Middlewares/Third_Party/LwIP/src/api/sockets.c ****   ip_addr_t naddr;
 625:Middlewares/Third_Party/LwIP/src/api/sockets.c ****   u16_t port = 0;
 829              		.loc 1 625 9
 830 000c 0023     		movs	r3, #0
 831 000e FB84     		strh	r3, [r7, #38]	@ movhi
 626:Middlewares/Third_Party/LwIP/src/api/sockets.c ****   int newsock;
 627:Middlewares/Third_Party/LwIP/src/api/sockets.c ****   err_t err;
 628:Middlewares/Third_Party/LwIP/src/api/sockets.c ****   int recvevent;
 629:Middlewares/Third_Party/LwIP/src/api/sockets.c ****   SYS_ARCH_DECL_PROTECT(lev);
 630:Middlewares/Third_Party/LwIP/src/api/sockets.c **** 
 631:Middlewares/Third_Party/LwIP/src/api/sockets.c ****   LWIP_DEBUGF(SOCKETS_DEBUG, ("lwip_accept(%d)...\n", s));
 632:Middlewares/Third_Party/LwIP/src/api/sockets.c ****   sock = get_socket(s);
 832              		.loc 1 632 10
 833 0010 F868     		ldr	r0, [r7, #12]
 834 0012 FFF7FEFF 		bl	get_socket
 835 0016 B865     		str	r0, [r7, #88]
 633:Middlewares/Third_Party/LwIP/src/api/sockets.c ****   if (!sock) {
 836              		.loc 1 633 6
 837 0018 BB6D     		ldr	r3, [r7, #88]
 838 001a 002B     		cmp	r3, #0
 839 001c 02D1     		bne	.L45
 634:Middlewares/Third_Party/LwIP/src/api/sockets.c ****     return -1;
 840              		.loc 1 634 12
 841 001e 4FF0FF33 		mov	r3, #-1
 842 0022 F8E0     		b	.L66
 843              	.L45:
 635:Middlewares/Third_Party/LwIP/src/api/sockets.c ****   }
 636:Middlewares/Third_Party/LwIP/src/api/sockets.c **** 
 637:Middlewares/Third_Party/LwIP/src/api/sockets.c ****   /* wait for a new connection */
 638:Middlewares/Third_Party/LwIP/src/api/sockets.c ****   err = netconn_accept(sock->conn, &newconn);
 844              		.loc 1 638 9
 845 0024 BB6D     		ldr	r3, [r7, #88]
 846 0026 1B68     		ldr	r3, [r3]
 847 0028 07F12C02 		add	r2, r7, #44
 848 002c 1146     		mov	r1, r2
ARM GAS  /tmp/ccsCUhT2.s 			page 27


 849 002e 1846     		mov	r0, r3
 850 0030 FFF7FEFF 		bl	netconn_accept
 851 0034 0346     		mov	r3, r0
 852 0036 87F85730 		strb	r3, [r7, #87]
 639:Middlewares/Third_Party/LwIP/src/api/sockets.c ****   if (err != ERR_OK) {
 853              		.loc 1 639 6
 854 003a 97F95730 		ldrsb	r3, [r7, #87]
 855 003e 002B     		cmp	r3, #0
 856 0040 2CD0     		beq	.L47
 640:Middlewares/Third_Party/LwIP/src/api/sockets.c ****     LWIP_DEBUGF(SOCKETS_DEBUG, ("lwip_accept(%d): netconn_acept failed, err=%d\n", s, err));
 641:Middlewares/Third_Party/LwIP/src/api/sockets.c ****     if (NETCONNTYPE_GROUP(netconn_type(sock->conn)) != NETCONN_TCP) {
 857              		.loc 1 641 9
 858 0042 BB6D     		ldr	r3, [r7, #88]
 859 0044 1B68     		ldr	r3, [r3]
 860 0046 1B78     		ldrb	r3, [r3]	@ zero_extendqisi2
 861 0048 03F0F003 		and	r3, r3, #240
 862              		.loc 1 641 8
 863 004c 102B     		cmp	r3, #16
 864 004e 08D0     		beq	.L48
 865              	.LBB2:
 642:Middlewares/Third_Party/LwIP/src/api/sockets.c ****       sock_set_errno(sock, EOPNOTSUPP);
 866              		.loc 1 642 7
 867 0050 5F23     		movs	r3, #95
 868 0052 3B65     		str	r3, [r7, #80]
 869 0054 3B6D     		ldr	r3, [r7, #80]
 870 0056 002B     		cmp	r3, #0
 871 0058 1DD0     		beq	.L50
 872              		.loc 1 642 7 is_stmt 0 discriminator 1
 873 005a 714A     		ldr	r2, .L67
 874 005c 3B6D     		ldr	r3, [r7, #80]
 875 005e 1360     		str	r3, [r2]
 876 0060 19E0     		b	.L50
 877              	.L48:
 878              	.LBE2:
 643:Middlewares/Third_Party/LwIP/src/api/sockets.c ****     } else if (err == ERR_CLSD) {
 879              		.loc 1 643 15 is_stmt 1
 880 0062 97F95730 		ldrsb	r3, [r7, #87]
 881 0066 13F10F0F 		cmn	r3, #15
 882 006a 08D1     		bne	.L51
 883              	.LBB3:
 644:Middlewares/Third_Party/LwIP/src/api/sockets.c ****       sock_set_errno(sock, EINVAL);
 884              		.loc 1 644 7
 885 006c 1623     		movs	r3, #22
 886 006e FB64     		str	r3, [r7, #76]
 887 0070 FB6C     		ldr	r3, [r7, #76]
 888 0072 002B     		cmp	r3, #0
 889 0074 0FD0     		beq	.L50
 890              		.loc 1 644 7 is_stmt 0 discriminator 1
 891 0076 6A4A     		ldr	r2, .L67
 892 0078 FB6C     		ldr	r3, [r7, #76]
 893 007a 1360     		str	r3, [r2]
 894 007c 0BE0     		b	.L50
 895              	.L51:
 896              	.LBE3:
 897              	.LBB4:
 645:Middlewares/Third_Party/LwIP/src/api/sockets.c ****     } else {
 646:Middlewares/Third_Party/LwIP/src/api/sockets.c ****       sock_set_errno(sock, err_to_errno(err));
ARM GAS  /tmp/ccsCUhT2.s 			page 28


 898              		.loc 1 646 7 is_stmt 1
 899 007e 97F95730 		ldrsb	r3, [r7, #87]
 900 0082 1846     		mov	r0, r3
 901 0084 FFF7FEFF 		bl	err_to_errno
 902 0088 B864     		str	r0, [r7, #72]
 903 008a BB6C     		ldr	r3, [r7, #72]
 904 008c 002B     		cmp	r3, #0
 905 008e 02D0     		beq	.L50
 906              		.loc 1 646 7 is_stmt 0 discriminator 1
 907 0090 634A     		ldr	r2, .L67
 908 0092 BB6C     		ldr	r3, [r7, #72]
 909 0094 1360     		str	r3, [r2]
 910              	.L50:
 911              	.LBE4:
 647:Middlewares/Third_Party/LwIP/src/api/sockets.c ****     }
 648:Middlewares/Third_Party/LwIP/src/api/sockets.c ****     done_socket(sock);
 649:Middlewares/Third_Party/LwIP/src/api/sockets.c ****     return -1;
 912              		.loc 1 649 12 is_stmt 1
 913 0096 4FF0FF33 		mov	r3, #-1
 914 009a BCE0     		b	.L66
 915              	.L47:
 650:Middlewares/Third_Party/LwIP/src/api/sockets.c ****   }
 651:Middlewares/Third_Party/LwIP/src/api/sockets.c ****   LWIP_ASSERT("newconn != NULL", newconn != NULL);
 916              		.loc 1 651 3
 917 009c FB6A     		ldr	r3, [r7, #44]
 918 009e 002B     		cmp	r3, #0
 919 00a0 06D1     		bne	.L53
 920              		.loc 1 651 3 is_stmt 0 discriminator 1
 921 00a2 604B     		ldr	r3, .L67+4
 922 00a4 40F28B22 		movw	r2, #651
 923 00a8 5F49     		ldr	r1, .L67+8
 924 00aa 6048     		ldr	r0, .L67+12
 925 00ac FFF7FEFF 		bl	printf
 926              	.L53:
 652:Middlewares/Third_Party/LwIP/src/api/sockets.c **** 
 653:Middlewares/Third_Party/LwIP/src/api/sockets.c ****   newsock = alloc_socket(newconn, 1);
 927              		.loc 1 653 13 is_stmt 1
 928 00b0 FB6A     		ldr	r3, [r7, #44]
 929 00b2 0121     		movs	r1, #1
 930 00b4 1846     		mov	r0, r3
 931 00b6 FFF7FEFF 		bl	alloc_socket
 932 00ba 7864     		str	r0, [r7, #68]
 654:Middlewares/Third_Party/LwIP/src/api/sockets.c ****   if (newsock == -1) {
 933              		.loc 1 654 6
 934 00bc 7B6C     		ldr	r3, [r7, #68]
 935 00be B3F1FF3F 		cmp	r3, #-1
 936 00c2 0ED1     		bne	.L54
 655:Middlewares/Third_Party/LwIP/src/api/sockets.c ****     netconn_delete(newconn);
 937              		.loc 1 655 5
 938 00c4 FB6A     		ldr	r3, [r7, #44]
 939 00c6 1846     		mov	r0, r3
 940 00c8 FFF7FEFF 		bl	netconn_delete
 941              	.LBB5:
 656:Middlewares/Third_Party/LwIP/src/api/sockets.c ****     sock_set_errno(sock, ENFILE);
 942              		.loc 1 656 5
 943 00cc 1723     		movs	r3, #23
 944 00ce 3B64     		str	r3, [r7, #64]
ARM GAS  /tmp/ccsCUhT2.s 			page 29


 945 00d0 3B6C     		ldr	r3, [r7, #64]
 946 00d2 002B     		cmp	r3, #0
 947 00d4 02D0     		beq	.L55
 948              		.loc 1 656 5 is_stmt 0 discriminator 1
 949 00d6 524A     		ldr	r2, .L67
 950 00d8 3B6C     		ldr	r3, [r7, #64]
 951 00da 1360     		str	r3, [r2]
 952              	.L55:
 953              	.LBE5:
 657:Middlewares/Third_Party/LwIP/src/api/sockets.c ****     done_socket(sock);
 658:Middlewares/Third_Party/LwIP/src/api/sockets.c ****     return -1;
 954              		.loc 1 658 12 is_stmt 1
 955 00dc 4FF0FF33 		mov	r3, #-1
 956 00e0 99E0     		b	.L66
 957              	.L54:
 659:Middlewares/Third_Party/LwIP/src/api/sockets.c ****   }
 660:Middlewares/Third_Party/LwIP/src/api/sockets.c ****   LWIP_ASSERT("invalid socket index", (newsock >= LWIP_SOCKET_OFFSET) && (newsock < NUM_SOCKETS + L
 958              		.loc 1 660 3
 959 00e2 7B6C     		ldr	r3, [r7, #68]
 960 00e4 002B     		cmp	r3, #0
 961 00e6 02DB     		blt	.L56
 962              		.loc 1 660 3 is_stmt 0 discriminator 2
 963 00e8 7B6C     		ldr	r3, [r7, #68]
 964 00ea 032B     		cmp	r3, #3
 965 00ec 06DD     		ble	.L57
 966              	.L56:
 967              		.loc 1 660 3 discriminator 3
 968 00ee 4D4B     		ldr	r3, .L67+4
 969 00f0 4FF42572 		mov	r2, #660
 970 00f4 4E49     		ldr	r1, .L67+16
 971 00f6 4D48     		ldr	r0, .L67+12
 972 00f8 FFF7FEFF 		bl	printf
 973              	.L57:
 661:Middlewares/Third_Party/LwIP/src/api/sockets.c ****   nsock = &sockets[newsock - LWIP_SOCKET_OFFSET];
 974              		.loc 1 661 9 is_stmt 1
 975 00fc 7B6C     		ldr	r3, [r7, #68]
 976 00fe 1B01     		lsls	r3, r3, #4
 977 0100 4C4A     		ldr	r2, .L67+20
 978 0102 1344     		add	r3, r3, r2
 979 0104 FB63     		str	r3, [r7, #60]
 662:Middlewares/Third_Party/LwIP/src/api/sockets.c **** 
 663:Middlewares/Third_Party/LwIP/src/api/sockets.c ****   /* See event_callback: If data comes in right away after an accept, even
 664:Middlewares/Third_Party/LwIP/src/api/sockets.c ****    * though the server task might not have created a new socket yet.
 665:Middlewares/Third_Party/LwIP/src/api/sockets.c ****    * In that case, newconn->socket is counted down (newconn->socket--),
 666:Middlewares/Third_Party/LwIP/src/api/sockets.c ****    * so nsock->rcvevent is >= 1 here!
 667:Middlewares/Third_Party/LwIP/src/api/sockets.c ****    */
 668:Middlewares/Third_Party/LwIP/src/api/sockets.c ****   SYS_ARCH_PROTECT(lev);
 980              		.loc 1 668 3
 981 0106 FFF7FEFF 		bl	sys_arch_protect
 982 010a B863     		str	r0, [r7, #56]
 669:Middlewares/Third_Party/LwIP/src/api/sockets.c ****   recvevent = (s16_t)(-1 - newconn->socket);
 983              		.loc 1 669 35
 984 010c FB6A     		ldr	r3, [r7, #44]
 985 010e 9B69     		ldr	r3, [r3, #24]
 986              		.loc 1 669 26
 987 0110 1BB2     		sxth	r3, r3
 988              		.loc 1 669 15
ARM GAS  /tmp/ccsCUhT2.s 			page 30


 989 0112 DB43     		mvns	r3, r3
 990 0114 1BB2     		sxth	r3, r3
 991              		.loc 1 669 13
 992 0116 FB65     		str	r3, [r7, #92]
 670:Middlewares/Third_Party/LwIP/src/api/sockets.c ****   newconn->socket = newsock;
 993              		.loc 1 670 10
 994 0118 FB6A     		ldr	r3, [r7, #44]
 995              		.loc 1 670 19
 996 011a 7A6C     		ldr	r2, [r7, #68]
 997 011c 9A61     		str	r2, [r3, #24]
 671:Middlewares/Third_Party/LwIP/src/api/sockets.c ****   SYS_ARCH_UNPROTECT(lev);
 998              		.loc 1 671 3
 999 011e B86B     		ldr	r0, [r7, #56]
 1000 0120 FFF7FEFF 		bl	sys_arch_unprotect
 672:Middlewares/Third_Party/LwIP/src/api/sockets.c **** 
 673:Middlewares/Third_Party/LwIP/src/api/sockets.c ****   if (newconn->callback) {
 1001              		.loc 1 673 14
 1002 0124 FB6A     		ldr	r3, [r7, #44]
 1003 0126 5B6A     		ldr	r3, [r3, #36]
 1004              		.loc 1 673 6
 1005 0128 002B     		cmp	r3, #0
 1006 012a 12D0     		beq	.L58
 674:Middlewares/Third_Party/LwIP/src/api/sockets.c ****     LOCK_TCPIP_CORE();
 1007              		.loc 1 674 5
 1008 012c 4248     		ldr	r0, .L67+24
 1009 012e FFF7FEFF 		bl	sys_mutex_lock
 675:Middlewares/Third_Party/LwIP/src/api/sockets.c ****     while (recvevent > 0) {
 1010              		.loc 1 675 11
 1011 0132 08E0     		b	.L59
 1012              	.L60:
 676:Middlewares/Third_Party/LwIP/src/api/sockets.c ****       recvevent--;
 1013              		.loc 1 676 16
 1014 0134 FB6D     		ldr	r3, [r7, #92]
 1015 0136 013B     		subs	r3, r3, #1
 1016 0138 FB65     		str	r3, [r7, #92]
 677:Middlewares/Third_Party/LwIP/src/api/sockets.c ****       newconn->callback(newconn, NETCONN_EVT_RCVPLUS, 0);
 1017              		.loc 1 677 14
 1018 013a FB6A     		ldr	r3, [r7, #44]
 1019 013c 5B6A     		ldr	r3, [r3, #36]
 1020              		.loc 1 677 7
 1021 013e F86A     		ldr	r0, [r7, #44]
 1022 0140 0022     		movs	r2, #0
 1023 0142 0021     		movs	r1, #0
 1024 0144 9847     		blx	r3
 1025              	.LVL0:
 1026              	.L59:
 675:Middlewares/Third_Party/LwIP/src/api/sockets.c ****     while (recvevent > 0) {
 1027              		.loc 1 675 11
 1028 0146 FB6D     		ldr	r3, [r7, #92]
 1029 0148 002B     		cmp	r3, #0
 1030 014a F3DC     		bgt	.L60
 678:Middlewares/Third_Party/LwIP/src/api/sockets.c ****     }
 679:Middlewares/Third_Party/LwIP/src/api/sockets.c ****     UNLOCK_TCPIP_CORE();
 1031              		.loc 1 679 5
 1032 014c 3A48     		ldr	r0, .L67+24
 1033 014e FFF7FEFF 		bl	sys_mutex_unlock
 1034              	.L58:
ARM GAS  /tmp/ccsCUhT2.s 			page 31


 680:Middlewares/Third_Party/LwIP/src/api/sockets.c ****   }
 681:Middlewares/Third_Party/LwIP/src/api/sockets.c **** 
 682:Middlewares/Third_Party/LwIP/src/api/sockets.c ****   /* Note that POSIX only requires us to check addr is non-NULL. addrlen must
 683:Middlewares/Third_Party/LwIP/src/api/sockets.c ****    * not be NULL if addr is valid.
 684:Middlewares/Third_Party/LwIP/src/api/sockets.c ****    */
 685:Middlewares/Third_Party/LwIP/src/api/sockets.c ****   if ((addr != NULL) && (addrlen != NULL)) {
 1035              		.loc 1 685 6
 1036 0152 BB68     		ldr	r3, [r7, #8]
 1037 0154 002B     		cmp	r3, #0
 1038 0156 55D0     		beq	.L61
 1039              		.loc 1 685 22 discriminator 1
 1040 0158 7B68     		ldr	r3, [r7, #4]
 1041 015a 002B     		cmp	r3, #0
 1042 015c 52D0     		beq	.L61
 1043              	.LBB6:
 686:Middlewares/Third_Party/LwIP/src/api/sockets.c ****     union sockaddr_aligned tempaddr;
 687:Middlewares/Third_Party/LwIP/src/api/sockets.c ****     /* get the IP address and port of the remote host */
 688:Middlewares/Third_Party/LwIP/src/api/sockets.c ****     err = netconn_peer(newconn, &naddr, &port);
 1044              		.loc 1 688 11
 1045 015e F86A     		ldr	r0, [r7, #44]
 1046 0160 07F12602 		add	r2, r7, #38
 1047 0164 07F12801 		add	r1, r7, #40
 1048 0168 0023     		movs	r3, #0
 1049 016a FFF7FEFF 		bl	netconn_getaddr
 1050 016e 0346     		mov	r3, r0
 1051 0170 87F85730 		strb	r3, [r7, #87]
 689:Middlewares/Third_Party/LwIP/src/api/sockets.c ****     if (err != ERR_OK) {
 1052              		.loc 1 689 8
 1053 0174 97F95730 		ldrsb	r3, [r7, #87]
 1054 0178 002B     		cmp	r3, #0
 1055 017a 16D0     		beq	.L62
 690:Middlewares/Third_Party/LwIP/src/api/sockets.c ****       LWIP_DEBUGF(SOCKETS_DEBUG, ("lwip_accept(%d): netconn_peer failed, err=%d\n", s, err));
 691:Middlewares/Third_Party/LwIP/src/api/sockets.c ****       netconn_delete(newconn);
 1056              		.loc 1 691 7
 1057 017c FB6A     		ldr	r3, [r7, #44]
 1058 017e 1846     		mov	r0, r3
 1059 0180 FFF7FEFF 		bl	netconn_delete
 692:Middlewares/Third_Party/LwIP/src/api/sockets.c ****       free_socket(nsock, 1);
 1060              		.loc 1 692 7
 1061 0184 0121     		movs	r1, #1
 1062 0186 F86B     		ldr	r0, [r7, #60]
 1063 0188 FFF7FEFF 		bl	free_socket
 1064              	.LBB7:
 693:Middlewares/Third_Party/LwIP/src/api/sockets.c ****       sock_set_errno(sock, err_to_errno(err));
 1065              		.loc 1 693 7
 1066 018c 97F95730 		ldrsb	r3, [r7, #87]
 1067 0190 1846     		mov	r0, r3
 1068 0192 FFF7FEFF 		bl	err_to_errno
 1069 0196 7863     		str	r0, [r7, #52]
 1070 0198 7B6B     		ldr	r3, [r7, #52]
 1071 019a 002B     		cmp	r3, #0
 1072 019c 02D0     		beq	.L63
 1073              		.loc 1 693 7 is_stmt 0 discriminator 1
 1074 019e 204A     		ldr	r2, .L67
 1075 01a0 7B6B     		ldr	r3, [r7, #52]
 1076 01a2 1360     		str	r3, [r2]
 1077              	.L63:
ARM GAS  /tmp/ccsCUhT2.s 			page 32


 1078              	.LBE7:
 694:Middlewares/Third_Party/LwIP/src/api/sockets.c ****       done_socket(sock);
 695:Middlewares/Third_Party/LwIP/src/api/sockets.c ****       return -1;
 1079              		.loc 1 695 14 is_stmt 1
 1080 01a4 4FF0FF33 		mov	r3, #-1
 1081 01a8 35E0     		b	.L66
 1082              	.L62:
 696:Middlewares/Third_Party/LwIP/src/api/sockets.c ****     }
 697:Middlewares/Third_Party/LwIP/src/api/sockets.c **** 
 698:Middlewares/Third_Party/LwIP/src/api/sockets.c ****     IPADDR_PORT_TO_SOCKADDR(&tempaddr, &naddr, port);
 1083              		.loc 1 698 5
 1084 01aa 07F11403 		add	r3, r7, #20
 1085 01ae 1022     		movs	r2, #16
 1086 01b0 1A70     		strb	r2, [r3]
 1087 01b2 07F11403 		add	r3, r7, #20
 1088 01b6 0222     		movs	r2, #2
 1089 01b8 5A70     		strb	r2, [r3, #1]
 1090 01ba FB8C     		ldrh	r3, [r7, #38]
 1091 01bc 07F11404 		add	r4, r7, #20
 1092 01c0 1846     		mov	r0, r3
 1093 01c2 FFF7FEFF 		bl	lwip_htons
 1094 01c6 0346     		mov	r3, r0
 1095 01c8 6380     		strh	r3, [r4, #2]	@ movhi
 1096 01ca 07F11403 		add	r3, r7, #20
 1097 01ce BA6A     		ldr	r2, [r7, #40]
 1098 01d0 5A60     		str	r2, [r3, #4]
 1099 01d2 07F11403 		add	r3, r7, #20
 1100 01d6 0833     		adds	r3, r3, #8
 1101 01d8 0822     		movs	r2, #8
 1102 01da 0021     		movs	r1, #0
 1103 01dc 1846     		mov	r0, r3
 1104 01de FFF7FEFF 		bl	memset
 699:Middlewares/Third_Party/LwIP/src/api/sockets.c ****     if (*addrlen > tempaddr.sa.sa_len) {
 1105              		.loc 1 699 9
 1106 01e2 7B68     		ldr	r3, [r7, #4]
 1107 01e4 1B68     		ldr	r3, [r3]
 1108              		.loc 1 699 31
 1109 01e6 3A7D     		ldrb	r2, [r7, #20]	@ zero_extendqisi2
 1110              		.loc 1 699 8
 1111 01e8 9342     		cmp	r3, r2
 1112 01ea 03D9     		bls	.L64
 700:Middlewares/Third_Party/LwIP/src/api/sockets.c ****       *addrlen = tempaddr.sa.sa_len;
 1113              		.loc 1 700 29
 1114 01ec 3B7D     		ldrb	r3, [r7, #20]	@ zero_extendqisi2
 1115 01ee 1A46     		mov	r2, r3
 1116              		.loc 1 700 16
 1117 01f0 7B68     		ldr	r3, [r7, #4]
 1118 01f2 1A60     		str	r2, [r3]
 1119              	.L64:
 701:Middlewares/Third_Party/LwIP/src/api/sockets.c ****     }
 702:Middlewares/Third_Party/LwIP/src/api/sockets.c ****     MEMCPY(addr, &tempaddr, *addrlen);
 1120              		.loc 1 702 5
 1121 01f4 7B68     		ldr	r3, [r7, #4]
 1122 01f6 1A68     		ldr	r2, [r3]
 1123 01f8 07F11403 		add	r3, r7, #20
 1124 01fc 1946     		mov	r1, r3
 1125 01fe B868     		ldr	r0, [r7, #8]
ARM GAS  /tmp/ccsCUhT2.s 			page 33


 1126 0200 FFF7FEFF 		bl	memcpy
 1127              	.L61:
 1128              	.LBE6:
 1129              	.LBB8:
 703:Middlewares/Third_Party/LwIP/src/api/sockets.c **** 
 704:Middlewares/Third_Party/LwIP/src/api/sockets.c ****     LWIP_DEBUGF(SOCKETS_DEBUG, ("lwip_accept(%d) returning new sock=%d addr=", s, newsock));
 705:Middlewares/Third_Party/LwIP/src/api/sockets.c ****     ip_addr_debug_print_val(SOCKETS_DEBUG, naddr);
 706:Middlewares/Third_Party/LwIP/src/api/sockets.c ****     LWIP_DEBUGF(SOCKETS_DEBUG, (" port=%"U16_F"\n", port));
 707:Middlewares/Third_Party/LwIP/src/api/sockets.c ****   } else {
 708:Middlewares/Third_Party/LwIP/src/api/sockets.c ****     LWIP_DEBUGF(SOCKETS_DEBUG, ("lwip_accept(%d) returning new sock=%d", s, newsock));
 709:Middlewares/Third_Party/LwIP/src/api/sockets.c ****   }
 710:Middlewares/Third_Party/LwIP/src/api/sockets.c **** 
 711:Middlewares/Third_Party/LwIP/src/api/sockets.c ****   sock_set_errno(sock, 0);
 1130              		.loc 1 711 3
 1131 0204 0023     		movs	r3, #0
 1132 0206 3B63     		str	r3, [r7, #48]
 1133 0208 3B6B     		ldr	r3, [r7, #48]
 1134 020a 002B     		cmp	r3, #0
 1135 020c 02D0     		beq	.L65
 1136              		.loc 1 711 3 is_stmt 0 discriminator 1
 1137 020e 044A     		ldr	r2, .L67
 1138 0210 3B6B     		ldr	r3, [r7, #48]
 1139 0212 1360     		str	r3, [r2]
 1140              	.L65:
 1141              	.LBE8:
 712:Middlewares/Third_Party/LwIP/src/api/sockets.c ****   done_socket(sock);
 713:Middlewares/Third_Party/LwIP/src/api/sockets.c ****   done_socket(nsock);
 714:Middlewares/Third_Party/LwIP/src/api/sockets.c ****   return newsock;
 1142              		.loc 1 714 10 is_stmt 1
 1143 0214 7B6C     		ldr	r3, [r7, #68]
 1144              	.L66:
 715:Middlewares/Third_Party/LwIP/src/api/sockets.c **** }
 1145              		.loc 1 715 1 discriminator 2
 1146 0216 1846     		mov	r0, r3
 1147 0218 6437     		adds	r7, r7, #100
 1148              	.LCFI63:
 1149              		.cfi_def_cfa_offset 12
 1150 021a BD46     		mov	sp, r7
 1151              	.LCFI64:
 1152              		.cfi_def_cfa_register 13
 1153              		@ sp needed
 1154 021c 90BD     		pop	{r4, r7, pc}
 1155              	.L68:
 1156 021e 00BF     		.align	2
 1157              	.L67:
 1158 0220 00000000 		.word	errno
 1159 0224 00000000 		.word	.LC0
 1160 0228 78000000 		.word	.LC3
 1161 022c 50000000 		.word	.LC2
 1162 0230 88000000 		.word	.LC4
 1163 0234 00000000 		.word	sockets
 1164 0238 00000000 		.word	lock_tcpip_core
 1165              		.cfi_endproc
 1166              	.LFE149:
 1168              		.section	.rodata
 1169 009d 000000   		.align	2
 1170              	.LC5:
ARM GAS  /tmp/ccsCUhT2.s 			page 34


 1171 00a0 6C776970 		.ascii	"lwip_bind: invalid address\000"
 1171      5F62696E 
 1171      643A2069 
 1171      6E76616C 
 1171      69642061 
 1172              		.section	.text.lwip_bind,"ax",%progbits
 1173              		.align	1
 1174              		.global	lwip_bind
 1175              		.syntax unified
 1176              		.thumb
 1177              		.thumb_func
 1178              		.fpu fpv4-sp-d16
 1180              	lwip_bind:
 1181              	.LFB150:
 716:Middlewares/Third_Party/LwIP/src/api/sockets.c **** 
 717:Middlewares/Third_Party/LwIP/src/api/sockets.c **** int
 718:Middlewares/Third_Party/LwIP/src/api/sockets.c **** lwip_bind(int s, const struct sockaddr *name, socklen_t namelen)
 719:Middlewares/Third_Party/LwIP/src/api/sockets.c **** {
 1182              		.loc 1 719 1
 1183              		.cfi_startproc
 1184              		@ args = 0, pretend = 0, frame = 40
 1185              		@ frame_needed = 1, uses_anonymous_args = 0
 1186 0000 80B5     		push	{r7, lr}
 1187              	.LCFI65:
 1188              		.cfi_def_cfa_offset 8
 1189              		.cfi_offset 7, -8
 1190              		.cfi_offset 14, -4
 1191 0002 8AB0     		sub	sp, sp, #40
 1192              	.LCFI66:
 1193              		.cfi_def_cfa_offset 48
 1194 0004 00AF     		add	r7, sp, #0
 1195              	.LCFI67:
 1196              		.cfi_def_cfa_register 7
 1197 0006 F860     		str	r0, [r7, #12]
 1198 0008 B960     		str	r1, [r7, #8]
 1199 000a 7A60     		str	r2, [r7, #4]
 720:Middlewares/Third_Party/LwIP/src/api/sockets.c ****   struct lwip_sock *sock;
 721:Middlewares/Third_Party/LwIP/src/api/sockets.c ****   ip_addr_t local_addr;
 722:Middlewares/Third_Party/LwIP/src/api/sockets.c ****   u16_t local_port;
 723:Middlewares/Third_Party/LwIP/src/api/sockets.c ****   err_t err;
 724:Middlewares/Third_Party/LwIP/src/api/sockets.c **** 
 725:Middlewares/Third_Party/LwIP/src/api/sockets.c ****   sock = get_socket(s);
 1200              		.loc 1 725 10
 1201 000c F868     		ldr	r0, [r7, #12]
 1202 000e FFF7FEFF 		bl	get_socket
 1203 0012 7862     		str	r0, [r7, #36]
 726:Middlewares/Third_Party/LwIP/src/api/sockets.c ****   if (!sock) {
 1204              		.loc 1 726 6
 1205 0014 7B6A     		ldr	r3, [r7, #36]
 1206 0016 002B     		cmp	r3, #0
 1207 0018 02D1     		bne	.L70
 727:Middlewares/Third_Party/LwIP/src/api/sockets.c ****     return -1;
 1208              		.loc 1 727 12
 1209 001a 4FF0FF33 		mov	r3, #-1
 1210 001e 51E0     		b	.L78
 1211              	.L70:
 728:Middlewares/Third_Party/LwIP/src/api/sockets.c ****   }
ARM GAS  /tmp/ccsCUhT2.s 			page 35


 729:Middlewares/Third_Party/LwIP/src/api/sockets.c **** 
 730:Middlewares/Third_Party/LwIP/src/api/sockets.c ****   if (!SOCK_ADDR_TYPE_MATCH(name, sock)) {
 731:Middlewares/Third_Party/LwIP/src/api/sockets.c ****     /* sockaddr does not match socket type (IPv4/IPv6) */
 732:Middlewares/Third_Party/LwIP/src/api/sockets.c ****     sock_set_errno(sock, err_to_errno(ERR_VAL));
 733:Middlewares/Third_Party/LwIP/src/api/sockets.c ****     done_socket(sock);
 734:Middlewares/Third_Party/LwIP/src/api/sockets.c ****     return -1;
 735:Middlewares/Third_Party/LwIP/src/api/sockets.c ****   }
 736:Middlewares/Third_Party/LwIP/src/api/sockets.c **** 
 737:Middlewares/Third_Party/LwIP/src/api/sockets.c ****   /* check size, family and alignment of 'name' */
 738:Middlewares/Third_Party/LwIP/src/api/sockets.c ****   LWIP_ERROR("lwip_bind: invalid address", (IS_SOCK_ADDR_LEN_VALID(namelen) &&
 1212              		.loc 1 738 3
 1213 0020 7B68     		ldr	r3, [r7, #4]
 1214 0022 102B     		cmp	r3, #16
 1215 0024 08D1     		bne	.L72
 1216              		.loc 1 738 3 is_stmt 0 discriminator 2
 1217 0026 BB68     		ldr	r3, [r7, #8]
 1218 0028 5B78     		ldrb	r3, [r3, #1]	@ zero_extendqisi2
 1219 002a 022B     		cmp	r3, #2
 1220 002c 04D1     		bne	.L72
 1221              		.loc 1 738 3 discriminator 4
 1222 002e BB68     		ldr	r3, [r7, #8]
 1223 0030 03F00303 		and	r3, r3, #3
 1224 0034 002B     		cmp	r3, #0
 1225 0036 14D0     		beq	.L73
 1226              	.L72:
 1227              		.loc 1 738 3 discriminator 5
 1228 0038 244B     		ldr	r3, .L79
 1229 003a 4FF43972 		mov	r2, #740
 1230 003e 2449     		ldr	r1, .L79+4
 1231 0040 2448     		ldr	r0, .L79+8
 1232 0042 FFF7FEFF 		bl	printf
 1233              	.LBB9:
 1234 0046 6FF00F00 		mvn	r0, #15
 1235 004a FFF7FEFF 		bl	err_to_errno
 1236 004e 7861     		str	r0, [r7, #20]
 1237 0050 7B69     		ldr	r3, [r7, #20]
 1238 0052 002B     		cmp	r3, #0
 1239 0054 02D0     		beq	.L74
 1240              		.loc 1 738 3 discriminator 6
 1241 0056 204A     		ldr	r2, .L79+12
 1242 0058 7B69     		ldr	r3, [r7, #20]
 1243 005a 1360     		str	r3, [r2]
 1244              	.L74:
 1245              	.LBE9:
 1246              		.loc 1 738 3 discriminator 8
 1247 005c 4FF0FF33 		mov	r3, #-1
 1248 0060 30E0     		b	.L78
 1249              	.L73:
 739:Middlewares/Third_Party/LwIP/src/api/sockets.c ****              IS_SOCK_ADDR_TYPE_VALID(name) && IS_SOCK_ADDR_ALIGNED(name)),
 740:Middlewares/Third_Party/LwIP/src/api/sockets.c ****              sock_set_errno(sock, err_to_errno(ERR_ARG)); done_socket(sock); return -1;);
 741:Middlewares/Third_Party/LwIP/src/api/sockets.c ****   LWIP_UNUSED_ARG(namelen);
 742:Middlewares/Third_Party/LwIP/src/api/sockets.c **** 
 743:Middlewares/Third_Party/LwIP/src/api/sockets.c ****   SOCKADDR_TO_IPADDR_PORT(name, &local_addr, local_port);
 1250              		.loc 1 743 3 is_stmt 1
 1251 0062 BB68     		ldr	r3, [r7, #8]
 1252 0064 5B68     		ldr	r3, [r3, #4]
 1253 0066 3B61     		str	r3, [r7, #16]
ARM GAS  /tmp/ccsCUhT2.s 			page 36


 1254 0068 BB68     		ldr	r3, [r7, #8]
 1255 006a 5B88     		ldrh	r3, [r3, #2]
 1256 006c 1846     		mov	r0, r3
 1257 006e FFF7FEFF 		bl	lwip_htons
 1258 0072 0346     		mov	r3, r0
 1259 0074 7B84     		strh	r3, [r7, #34]	@ movhi
 744:Middlewares/Third_Party/LwIP/src/api/sockets.c ****   LWIP_DEBUGF(SOCKETS_DEBUG, ("lwip_bind(%d, addr=", s));
 745:Middlewares/Third_Party/LwIP/src/api/sockets.c ****   ip_addr_debug_print_val(SOCKETS_DEBUG, local_addr);
 746:Middlewares/Third_Party/LwIP/src/api/sockets.c ****   LWIP_DEBUGF(SOCKETS_DEBUG, (" port=%"U16_F")\n", local_port));
 747:Middlewares/Third_Party/LwIP/src/api/sockets.c **** 
 748:Middlewares/Third_Party/LwIP/src/api/sockets.c **** #if LWIP_IPV4 && LWIP_IPV6
 749:Middlewares/Third_Party/LwIP/src/api/sockets.c ****   /* Dual-stack: Unmap IPv4 mapped IPv6 addresses */
 750:Middlewares/Third_Party/LwIP/src/api/sockets.c ****   if (IP_IS_V6_VAL(local_addr) && ip6_addr_isipv4mappedipv6(ip_2_ip6(&local_addr))) {
 751:Middlewares/Third_Party/LwIP/src/api/sockets.c ****     unmap_ipv4_mapped_ipv6(ip_2_ip4(&local_addr), ip_2_ip6(&local_addr));
 752:Middlewares/Third_Party/LwIP/src/api/sockets.c ****     IP_SET_TYPE_VAL(local_addr, IPADDR_TYPE_V4);
 753:Middlewares/Third_Party/LwIP/src/api/sockets.c ****   }
 754:Middlewares/Third_Party/LwIP/src/api/sockets.c **** #endif /* LWIP_IPV4 && LWIP_IPV6 */
 755:Middlewares/Third_Party/LwIP/src/api/sockets.c **** 
 756:Middlewares/Third_Party/LwIP/src/api/sockets.c ****   err = netconn_bind(sock->conn, &local_addr, local_port);
 1260              		.loc 1 756 9
 1261 0076 7B6A     		ldr	r3, [r7, #36]
 1262 0078 1B68     		ldr	r3, [r3]
 1263 007a 7A8C     		ldrh	r2, [r7, #34]
 1264 007c 07F11001 		add	r1, r7, #16
 1265 0080 1846     		mov	r0, r3
 1266 0082 FFF7FEFF 		bl	netconn_bind
 1267 0086 0346     		mov	r3, r0
 1268 0088 87F82130 		strb	r3, [r7, #33]
 757:Middlewares/Third_Party/LwIP/src/api/sockets.c **** 
 758:Middlewares/Third_Party/LwIP/src/api/sockets.c ****   if (err != ERR_OK) {
 1269              		.loc 1 758 6
 1270 008c 97F92130 		ldrsb	r3, [r7, #33]
 1271 0090 002B     		cmp	r3, #0
 1272 0092 0ED0     		beq	.L75
 1273              	.LBB10:
 759:Middlewares/Third_Party/LwIP/src/api/sockets.c ****     LWIP_DEBUGF(SOCKETS_DEBUG, ("lwip_bind(%d) failed, err=%d\n", s, err));
 760:Middlewares/Third_Party/LwIP/src/api/sockets.c ****     sock_set_errno(sock, err_to_errno(err));
 1274              		.loc 1 760 5
 1275 0094 97F92130 		ldrsb	r3, [r7, #33]
 1276 0098 1846     		mov	r0, r3
 1277 009a FFF7FEFF 		bl	err_to_errno
 1278 009e F861     		str	r0, [r7, #28]
 1279 00a0 FB69     		ldr	r3, [r7, #28]
 1280 00a2 002B     		cmp	r3, #0
 1281 00a4 02D0     		beq	.L76
 1282              		.loc 1 760 5 is_stmt 0 discriminator 1
 1283 00a6 0C4A     		ldr	r2, .L79+12
 1284 00a8 FB69     		ldr	r3, [r7, #28]
 1285 00aa 1360     		str	r3, [r2]
 1286              	.L76:
 1287              	.LBE10:
 761:Middlewares/Third_Party/LwIP/src/api/sockets.c ****     done_socket(sock);
 762:Middlewares/Third_Party/LwIP/src/api/sockets.c ****     return -1;
 1288              		.loc 1 762 12 is_stmt 1
 1289 00ac 4FF0FF33 		mov	r3, #-1
 1290 00b0 08E0     		b	.L78
 1291              	.L75:
ARM GAS  /tmp/ccsCUhT2.s 			page 37


 1292              	.LBB11:
 763:Middlewares/Third_Party/LwIP/src/api/sockets.c ****   }
 764:Middlewares/Third_Party/LwIP/src/api/sockets.c **** 
 765:Middlewares/Third_Party/LwIP/src/api/sockets.c ****   LWIP_DEBUGF(SOCKETS_DEBUG, ("lwip_bind(%d) succeeded\n", s));
 766:Middlewares/Third_Party/LwIP/src/api/sockets.c ****   sock_set_errno(sock, 0);
 1293              		.loc 1 766 3
 1294 00b2 0023     		movs	r3, #0
 1295 00b4 BB61     		str	r3, [r7, #24]
 1296 00b6 BB69     		ldr	r3, [r7, #24]
 1297 00b8 002B     		cmp	r3, #0
 1298 00ba 02D0     		beq	.L77
 1299              		.loc 1 766 3 is_stmt 0 discriminator 1
 1300 00bc 064A     		ldr	r2, .L79+12
 1301 00be BB69     		ldr	r3, [r7, #24]
 1302 00c0 1360     		str	r3, [r2]
 1303              	.L77:
 1304              	.LBE11:
 767:Middlewares/Third_Party/LwIP/src/api/sockets.c ****   done_socket(sock);
 768:Middlewares/Third_Party/LwIP/src/api/sockets.c ****   return 0;
 1305              		.loc 1 768 10 is_stmt 1
 1306 00c2 0023     		movs	r3, #0
 1307              	.L78:
 769:Middlewares/Third_Party/LwIP/src/api/sockets.c **** }
 1308              		.loc 1 769 1 discriminator 1
 1309 00c4 1846     		mov	r0, r3
 1310 00c6 2837     		adds	r7, r7, #40
 1311              	.LCFI68:
 1312              		.cfi_def_cfa_offset 8
 1313 00c8 BD46     		mov	sp, r7
 1314              	.LCFI69:
 1315              		.cfi_def_cfa_register 13
 1316              		@ sp needed
 1317 00ca 80BD     		pop	{r7, pc}
 1318              	.L80:
 1319              		.align	2
 1320              	.L79:
 1321 00cc 00000000 		.word	.LC0
 1322 00d0 A0000000 		.word	.LC5
 1323 00d4 50000000 		.word	.LC2
 1324 00d8 00000000 		.word	errno
 1325              		.cfi_endproc
 1326              	.LFE150:
 1328              		.section	.rodata
 1329 00bb 00       		.align	2
 1330              	.LC6:
 1331 00bc 736F636B 		.ascii	"sock->lastdata == NULL\000"
 1331      2D3E6C61 
 1331      73746461 
 1331      7461203D 
 1331      3D204E55 
 1332              		.section	.text.lwip_close,"ax",%progbits
 1333              		.align	1
 1334              		.global	lwip_close
 1335              		.syntax unified
 1336              		.thumb
 1337              		.thumb_func
 1338              		.fpu fpv4-sp-d16
ARM GAS  /tmp/ccsCUhT2.s 			page 38


 1340              	lwip_close:
 1341              	.LFB151:
 770:Middlewares/Third_Party/LwIP/src/api/sockets.c **** 
 771:Middlewares/Third_Party/LwIP/src/api/sockets.c **** int
 772:Middlewares/Third_Party/LwIP/src/api/sockets.c **** lwip_close(int s)
 773:Middlewares/Third_Party/LwIP/src/api/sockets.c **** {
 1342              		.loc 1 773 1
 1343              		.cfi_startproc
 1344              		@ args = 0, pretend = 0, frame = 24
 1345              		@ frame_needed = 1, uses_anonymous_args = 0
 1346 0000 80B5     		push	{r7, lr}
 1347              	.LCFI70:
 1348              		.cfi_def_cfa_offset 8
 1349              		.cfi_offset 7, -8
 1350              		.cfi_offset 14, -4
 1351 0002 86B0     		sub	sp, sp, #24
 1352              	.LCFI71:
 1353              		.cfi_def_cfa_offset 32
 1354 0004 00AF     		add	r7, sp, #0
 1355              	.LCFI72:
 1356              		.cfi_def_cfa_register 7
 1357 0006 7860     		str	r0, [r7, #4]
 774:Middlewares/Third_Party/LwIP/src/api/sockets.c ****   struct lwip_sock *sock;
 775:Middlewares/Third_Party/LwIP/src/api/sockets.c ****   int is_tcp = 0;
 1358              		.loc 1 775 7
 1359 0008 0023     		movs	r3, #0
 1360 000a 7B61     		str	r3, [r7, #20]
 776:Middlewares/Third_Party/LwIP/src/api/sockets.c ****   err_t err;
 777:Middlewares/Third_Party/LwIP/src/api/sockets.c **** 
 778:Middlewares/Third_Party/LwIP/src/api/sockets.c ****   LWIP_DEBUGF(SOCKETS_DEBUG, ("lwip_close(%d)\n", s));
 779:Middlewares/Third_Party/LwIP/src/api/sockets.c **** 
 780:Middlewares/Third_Party/LwIP/src/api/sockets.c ****   sock = get_socket(s);
 1361              		.loc 1 780 10
 1362 000c 7868     		ldr	r0, [r7, #4]
 1363 000e FFF7FEFF 		bl	get_socket
 1364 0012 3861     		str	r0, [r7, #16]
 781:Middlewares/Third_Party/LwIP/src/api/sockets.c ****   if (!sock) {
 1365              		.loc 1 781 6
 1366 0014 3B69     		ldr	r3, [r7, #16]
 1367 0016 002B     		cmp	r3, #0
 1368 0018 02D1     		bne	.L82
 782:Middlewares/Third_Party/LwIP/src/api/sockets.c ****     return -1;
 1369              		.loc 1 782 12
 1370 001a 4FF0FF33 		mov	r3, #-1
 1371 001e 39E0     		b	.L83
 1372              	.L82:
 783:Middlewares/Third_Party/LwIP/src/api/sockets.c ****   }
 784:Middlewares/Third_Party/LwIP/src/api/sockets.c **** 
 785:Middlewares/Third_Party/LwIP/src/api/sockets.c ****   if (sock->conn != NULL) {
 1373              		.loc 1 785 11
 1374 0020 3B69     		ldr	r3, [r7, #16]
 1375 0022 1B68     		ldr	r3, [r3]
 1376              		.loc 1 785 6
 1377 0024 002B     		cmp	r3, #0
 1378 0026 0BD0     		beq	.L84
 786:Middlewares/Third_Party/LwIP/src/api/sockets.c ****     is_tcp = NETCONNTYPE_GROUP(netconn_type(sock->conn)) == NETCONN_TCP;
 1379              		.loc 1 786 14
ARM GAS  /tmp/ccsCUhT2.s 			page 39


 1380 0028 3B69     		ldr	r3, [r7, #16]
 1381 002a 1B68     		ldr	r3, [r3]
 1382 002c 1B78     		ldrb	r3, [r3]	@ zero_extendqisi2
 1383 002e 03F0F003 		and	r3, r3, #240
 1384              		.loc 1 786 58
 1385 0032 102B     		cmp	r3, #16
 1386 0034 0CBF     		ite	eq
 1387 0036 0123     		moveq	r3, #1
 1388 0038 0023     		movne	r3, #0
 1389 003a DBB2     		uxtb	r3, r3
 1390              		.loc 1 786 12
 1391 003c 7B61     		str	r3, [r7, #20]
 1392 003e 0AE0     		b	.L85
 1393              	.L84:
 787:Middlewares/Third_Party/LwIP/src/api/sockets.c ****   } else {
 788:Middlewares/Third_Party/LwIP/src/api/sockets.c ****     LWIP_ASSERT("sock->lastdata == NULL", sock->lastdata.pbuf == NULL);
 1394              		.loc 1 788 5
 1395 0040 3B69     		ldr	r3, [r7, #16]
 1396 0042 5B68     		ldr	r3, [r3, #4]
 1397 0044 002B     		cmp	r3, #0
 1398 0046 06D0     		beq	.L85
 1399              		.loc 1 788 5 is_stmt 0 discriminator 1
 1400 0048 144B     		ldr	r3, .L88
 1401 004a 4FF44572 		mov	r2, #788
 1402 004e 1449     		ldr	r1, .L88+4
 1403 0050 1448     		ldr	r0, .L88+8
 1404 0052 FFF7FEFF 		bl	printf
 1405              	.L85:
 789:Middlewares/Third_Party/LwIP/src/api/sockets.c ****   }
 790:Middlewares/Third_Party/LwIP/src/api/sockets.c **** 
 791:Middlewares/Third_Party/LwIP/src/api/sockets.c **** #if LWIP_IGMP
 792:Middlewares/Third_Party/LwIP/src/api/sockets.c ****   /* drop all possibly joined IGMP memberships */
 793:Middlewares/Third_Party/LwIP/src/api/sockets.c ****   lwip_socket_drop_registered_memberships(s);
 794:Middlewares/Third_Party/LwIP/src/api/sockets.c **** #endif /* LWIP_IGMP */
 795:Middlewares/Third_Party/LwIP/src/api/sockets.c **** #if LWIP_IPV6_MLD
 796:Middlewares/Third_Party/LwIP/src/api/sockets.c ****   /* drop all possibly joined MLD6 memberships */
 797:Middlewares/Third_Party/LwIP/src/api/sockets.c ****   lwip_socket_drop_registered_mld6_memberships(s);
 798:Middlewares/Third_Party/LwIP/src/api/sockets.c **** #endif /* LWIP_IPV6_MLD */
 799:Middlewares/Third_Party/LwIP/src/api/sockets.c **** 
 800:Middlewares/Third_Party/LwIP/src/api/sockets.c ****   err = netconn_prepare_delete(sock->conn);
 1406              		.loc 1 800 9 is_stmt 1
 1407 0056 3B69     		ldr	r3, [r7, #16]
 1408 0058 1B68     		ldr	r3, [r3]
 1409 005a 1846     		mov	r0, r3
 1410 005c FFF7FEFF 		bl	netconn_prepare_delete
 1411 0060 0346     		mov	r3, r0
 1412 0062 FB73     		strb	r3, [r7, #15]
 801:Middlewares/Third_Party/LwIP/src/api/sockets.c ****   if (err != ERR_OK) {
 1413              		.loc 1 801 6
 1414 0064 97F90F30 		ldrsb	r3, [r7, #15]
 1415 0068 002B     		cmp	r3, #0
 1416 006a 0ED0     		beq	.L86
 1417              	.LBB12:
 802:Middlewares/Third_Party/LwIP/src/api/sockets.c ****     sock_set_errno(sock, err_to_errno(err));
 1418              		.loc 1 802 5
 1419 006c 97F90F30 		ldrsb	r3, [r7, #15]
 1420 0070 1846     		mov	r0, r3
ARM GAS  /tmp/ccsCUhT2.s 			page 40


 1421 0072 FFF7FEFF 		bl	err_to_errno
 1422 0076 B860     		str	r0, [r7, #8]
 1423 0078 BB68     		ldr	r3, [r7, #8]
 1424 007a 002B     		cmp	r3, #0
 1425 007c 02D0     		beq	.L87
 1426              		.loc 1 802 5 is_stmt 0 discriminator 1
 1427 007e 0A4A     		ldr	r2, .L88+12
 1428 0080 BB68     		ldr	r3, [r7, #8]
 1429 0082 1360     		str	r3, [r2]
 1430              	.L87:
 1431              	.LBE12:
 803:Middlewares/Third_Party/LwIP/src/api/sockets.c ****     done_socket(sock);
 804:Middlewares/Third_Party/LwIP/src/api/sockets.c ****     return -1;
 1432              		.loc 1 804 12 is_stmt 1
 1433 0084 4FF0FF33 		mov	r3, #-1
 1434 0088 04E0     		b	.L83
 1435              	.L86:
 805:Middlewares/Third_Party/LwIP/src/api/sockets.c ****   }
 806:Middlewares/Third_Party/LwIP/src/api/sockets.c **** 
 807:Middlewares/Third_Party/LwIP/src/api/sockets.c ****   free_socket(sock, is_tcp);
 1436              		.loc 1 807 3
 1437 008a 7969     		ldr	r1, [r7, #20]
 1438 008c 3869     		ldr	r0, [r7, #16]
 1439 008e FFF7FEFF 		bl	free_socket
 808:Middlewares/Third_Party/LwIP/src/api/sockets.c ****   set_errno(0);
 809:Middlewares/Third_Party/LwIP/src/api/sockets.c ****   return 0;
 1440              		.loc 1 809 10
 1441 0092 0023     		movs	r3, #0
 1442              	.L83:
 810:Middlewares/Third_Party/LwIP/src/api/sockets.c **** }
 1443              		.loc 1 810 1
 1444 0094 1846     		mov	r0, r3
 1445 0096 1837     		adds	r7, r7, #24
 1446              	.LCFI73:
 1447              		.cfi_def_cfa_offset 8
 1448 0098 BD46     		mov	sp, r7
 1449              	.LCFI74:
 1450              		.cfi_def_cfa_register 13
 1451              		@ sp needed
 1452 009a 80BD     		pop	{r7, pc}
 1453              	.L89:
 1454              		.align	2
 1455              	.L88:
 1456 009c 00000000 		.word	.LC0
 1457 00a0 BC000000 		.word	.LC6
 1458 00a4 50000000 		.word	.LC2
 1459 00a8 00000000 		.word	errno
 1460              		.cfi_endproc
 1461              	.LFE151:
 1463              		.section	.rodata
 1464 00d3 00       		.align	2
 1465              	.LC7:
 1466 00d4 6C776970 		.ascii	"lwip_connect: invalid address\000"
 1466      5F636F6E 
 1466      6E656374 
 1466      3A20696E 
 1466      76616C69 
ARM GAS  /tmp/ccsCUhT2.s 			page 41


 1467              		.section	.text.lwip_connect,"ax",%progbits
 1468              		.align	1
 1469              		.global	lwip_connect
 1470              		.syntax unified
 1471              		.thumb
 1472              		.thumb_func
 1473              		.fpu fpv4-sp-d16
 1475              	lwip_connect:
 1476              	.LFB152:
 811:Middlewares/Third_Party/LwIP/src/api/sockets.c **** 
 812:Middlewares/Third_Party/LwIP/src/api/sockets.c **** int
 813:Middlewares/Third_Party/LwIP/src/api/sockets.c **** lwip_connect(int s, const struct sockaddr *name, socklen_t namelen)
 814:Middlewares/Third_Party/LwIP/src/api/sockets.c **** {
 1477              		.loc 1 814 1
 1478              		.cfi_startproc
 1479              		@ args = 0, pretend = 0, frame = 48
 1480              		@ frame_needed = 1, uses_anonymous_args = 0
 1481 0000 80B5     		push	{r7, lr}
 1482              	.LCFI75:
 1483              		.cfi_def_cfa_offset 8
 1484              		.cfi_offset 7, -8
 1485              		.cfi_offset 14, -4
 1486 0002 8CB0     		sub	sp, sp, #48
 1487              	.LCFI76:
 1488              		.cfi_def_cfa_offset 56
 1489 0004 00AF     		add	r7, sp, #0
 1490              	.LCFI77:
 1491              		.cfi_def_cfa_register 7
 1492 0006 F860     		str	r0, [r7, #12]
 1493 0008 B960     		str	r1, [r7, #8]
 1494 000a 7A60     		str	r2, [r7, #4]
 815:Middlewares/Third_Party/LwIP/src/api/sockets.c ****   struct lwip_sock *sock;
 816:Middlewares/Third_Party/LwIP/src/api/sockets.c ****   err_t err;
 817:Middlewares/Third_Party/LwIP/src/api/sockets.c **** 
 818:Middlewares/Third_Party/LwIP/src/api/sockets.c ****   sock = get_socket(s);
 1495              		.loc 1 818 10
 1496 000c F868     		ldr	r0, [r7, #12]
 1497 000e FFF7FEFF 		bl	get_socket
 1498 0012 B862     		str	r0, [r7, #40]
 819:Middlewares/Third_Party/LwIP/src/api/sockets.c ****   if (!sock) {
 1499              		.loc 1 819 6
 1500 0014 BB6A     		ldr	r3, [r7, #40]
 1501 0016 002B     		cmp	r3, #0
 1502 0018 02D1     		bne	.L91
 820:Middlewares/Third_Party/LwIP/src/api/sockets.c ****     return -1;
 1503              		.loc 1 820 12
 1504 001a 4FF0FF33 		mov	r3, #-1
 1505 001e 62E0     		b	.L92
 1506              	.L91:
 821:Middlewares/Third_Party/LwIP/src/api/sockets.c ****   }
 822:Middlewares/Third_Party/LwIP/src/api/sockets.c **** 
 823:Middlewares/Third_Party/LwIP/src/api/sockets.c ****   if (!SOCK_ADDR_TYPE_MATCH_OR_UNSPEC(name, sock)) {
 824:Middlewares/Third_Party/LwIP/src/api/sockets.c ****     /* sockaddr does not match socket type (IPv4/IPv6) */
 825:Middlewares/Third_Party/LwIP/src/api/sockets.c ****     sock_set_errno(sock, err_to_errno(ERR_VAL));
 826:Middlewares/Third_Party/LwIP/src/api/sockets.c ****     done_socket(sock);
 827:Middlewares/Third_Party/LwIP/src/api/sockets.c ****     return -1;
 828:Middlewares/Third_Party/LwIP/src/api/sockets.c ****   }
ARM GAS  /tmp/ccsCUhT2.s 			page 42


 829:Middlewares/Third_Party/LwIP/src/api/sockets.c **** 
 830:Middlewares/Third_Party/LwIP/src/api/sockets.c ****   LWIP_UNUSED_ARG(namelen);
 831:Middlewares/Third_Party/LwIP/src/api/sockets.c ****   if (name->sa_family == AF_UNSPEC) {
 1507              		.loc 1 831 11
 1508 0020 BB68     		ldr	r3, [r7, #8]
 1509 0022 5B78     		ldrb	r3, [r3, #1]	@ zero_extendqisi2
 1510              		.loc 1 831 6
 1511 0024 002B     		cmp	r3, #0
 1512 0026 08D1     		bne	.L93
 832:Middlewares/Third_Party/LwIP/src/api/sockets.c ****     LWIP_DEBUGF(SOCKETS_DEBUG, ("lwip_connect(%d, AF_UNSPEC)\n", s));
 833:Middlewares/Third_Party/LwIP/src/api/sockets.c ****     err = netconn_disconnect(sock->conn);
 1513              		.loc 1 833 11
 1514 0028 BB6A     		ldr	r3, [r7, #40]
 1515 002a 1B68     		ldr	r3, [r3]
 1516 002c 1846     		mov	r0, r3
 1517 002e FFF7FEFF 		bl	netconn_disconnect
 1518 0032 0346     		mov	r3, r0
 1519 0034 87F82F30 		strb	r3, [r7, #47]
 1520 0038 39E0     		b	.L94
 1521              	.L93:
 1522              	.LBB13:
 834:Middlewares/Third_Party/LwIP/src/api/sockets.c ****   } else {
 835:Middlewares/Third_Party/LwIP/src/api/sockets.c ****     ip_addr_t remote_addr;
 836:Middlewares/Third_Party/LwIP/src/api/sockets.c ****     u16_t remote_port;
 837:Middlewares/Third_Party/LwIP/src/api/sockets.c **** 
 838:Middlewares/Third_Party/LwIP/src/api/sockets.c ****     /* check size, family and alignment of 'name' */
 839:Middlewares/Third_Party/LwIP/src/api/sockets.c ****     LWIP_ERROR("lwip_connect: invalid address", IS_SOCK_ADDR_LEN_VALID(namelen) &&
 1523              		.loc 1 839 5
 1524 003a 7B68     		ldr	r3, [r7, #4]
 1525 003c 102B     		cmp	r3, #16
 1526 003e 0CD1     		bne	.L95
 1527              		.loc 1 839 5 is_stmt 0 discriminator 2
 1528 0040 BB68     		ldr	r3, [r7, #8]
 1529 0042 5B78     		ldrb	r3, [r3, #1]	@ zero_extendqisi2
 1530 0044 002B     		cmp	r3, #0
 1531 0046 03D0     		beq	.L96
 1532              		.loc 1 839 5 discriminator 3
 1533 0048 BB68     		ldr	r3, [r7, #8]
 1534 004a 5B78     		ldrb	r3, [r3, #1]	@ zero_extendqisi2
 1535 004c 022B     		cmp	r3, #2
 1536 004e 04D1     		bne	.L95
 1537              	.L96:
 1538              		.loc 1 839 5 discriminator 6
 1539 0050 BB68     		ldr	r3, [r7, #8]
 1540 0052 03F00303 		and	r3, r3, #3
 1541 0056 002B     		cmp	r3, #0
 1542 0058 14D0     		beq	.L97
 1543              	.L95:
 1544              		.loc 1 839 5 discriminator 7
 1545 005a 254B     		ldr	r3, .L102
 1546 005c 40F24932 		movw	r2, #841
 1547 0060 2449     		ldr	r1, .L102+4
 1548 0062 2548     		ldr	r0, .L102+8
 1549 0064 FFF7FEFF 		bl	printf
 1550              	.LBB14:
 1551 0068 6FF00F00 		mvn	r0, #15
 1552 006c FFF7FEFF 		bl	err_to_errno
ARM GAS  /tmp/ccsCUhT2.s 			page 43


 1553 0070 3862     		str	r0, [r7, #32]
 1554 0072 3B6A     		ldr	r3, [r7, #32]
 1555 0074 002B     		cmp	r3, #0
 1556 0076 02D0     		beq	.L98
 1557              		.loc 1 839 5 discriminator 8
 1558 0078 204A     		ldr	r2, .L102+12
 1559 007a 3B6A     		ldr	r3, [r7, #32]
 1560 007c 1360     		str	r3, [r2]
 1561              	.L98:
 1562              	.LBE14:
 1563              		.loc 1 839 5 discriminator 10
 1564 007e 4FF0FF33 		mov	r3, #-1
 1565 0082 30E0     		b	.L92
 1566              	.L97:
 840:Middlewares/Third_Party/LwIP/src/api/sockets.c ****                IS_SOCK_ADDR_TYPE_VALID_OR_UNSPEC(name) && IS_SOCK_ADDR_ALIGNED(name),
 841:Middlewares/Third_Party/LwIP/src/api/sockets.c ****                sock_set_errno(sock, err_to_errno(ERR_ARG)); done_socket(sock); return -1;);
 842:Middlewares/Third_Party/LwIP/src/api/sockets.c **** 
 843:Middlewares/Third_Party/LwIP/src/api/sockets.c ****     SOCKADDR_TO_IPADDR_PORT(name, &remote_addr, remote_port);
 1567              		.loc 1 843 5 is_stmt 1
 1568 0084 BB68     		ldr	r3, [r7, #8]
 1569 0086 5B68     		ldr	r3, [r3, #4]
 1570 0088 7B61     		str	r3, [r7, #20]
 1571 008a BB68     		ldr	r3, [r7, #8]
 1572 008c 5B88     		ldrh	r3, [r3, #2]
 1573 008e 1846     		mov	r0, r3
 1574 0090 FFF7FEFF 		bl	lwip_htons
 1575 0094 0346     		mov	r3, r0
 1576 0096 FB84     		strh	r3, [r7, #38]	@ movhi
 844:Middlewares/Third_Party/LwIP/src/api/sockets.c ****     LWIP_DEBUGF(SOCKETS_DEBUG, ("lwip_connect(%d, addr=", s));
 845:Middlewares/Third_Party/LwIP/src/api/sockets.c ****     ip_addr_debug_print_val(SOCKETS_DEBUG, remote_addr);
 846:Middlewares/Third_Party/LwIP/src/api/sockets.c ****     LWIP_DEBUGF(SOCKETS_DEBUG, (" port=%"U16_F")\n", remote_port));
 847:Middlewares/Third_Party/LwIP/src/api/sockets.c **** 
 848:Middlewares/Third_Party/LwIP/src/api/sockets.c **** #if LWIP_IPV4 && LWIP_IPV6
 849:Middlewares/Third_Party/LwIP/src/api/sockets.c ****     /* Dual-stack: Unmap IPv4 mapped IPv6 addresses */
 850:Middlewares/Third_Party/LwIP/src/api/sockets.c ****     if (IP_IS_V6_VAL(remote_addr) && ip6_addr_isipv4mappedipv6(ip_2_ip6(&remote_addr))) {
 851:Middlewares/Third_Party/LwIP/src/api/sockets.c ****       unmap_ipv4_mapped_ipv6(ip_2_ip4(&remote_addr), ip_2_ip6(&remote_addr));
 852:Middlewares/Third_Party/LwIP/src/api/sockets.c ****       IP_SET_TYPE_VAL(remote_addr, IPADDR_TYPE_V4);
 853:Middlewares/Third_Party/LwIP/src/api/sockets.c ****     }
 854:Middlewares/Third_Party/LwIP/src/api/sockets.c **** #endif /* LWIP_IPV4 && LWIP_IPV6 */
 855:Middlewares/Third_Party/LwIP/src/api/sockets.c **** 
 856:Middlewares/Third_Party/LwIP/src/api/sockets.c ****     err = netconn_connect(sock->conn, &remote_addr, remote_port);
 1577              		.loc 1 856 11
 1578 0098 BB6A     		ldr	r3, [r7, #40]
 1579 009a 1B68     		ldr	r3, [r3]
 1580 009c FA8C     		ldrh	r2, [r7, #38]
 1581 009e 07F11401 		add	r1, r7, #20
 1582 00a2 1846     		mov	r0, r3
 1583 00a4 FFF7FEFF 		bl	netconn_connect
 1584 00a8 0346     		mov	r3, r0
 1585 00aa 87F82F30 		strb	r3, [r7, #47]
 1586              	.L94:
 1587              	.LBE13:
 857:Middlewares/Third_Party/LwIP/src/api/sockets.c ****   }
 858:Middlewares/Third_Party/LwIP/src/api/sockets.c **** 
 859:Middlewares/Third_Party/LwIP/src/api/sockets.c ****   if (err != ERR_OK) {
 1588              		.loc 1 859 6
 1589 00ae 97F92F30 		ldrsb	r3, [r7, #47]
ARM GAS  /tmp/ccsCUhT2.s 			page 44


 1590 00b2 002B     		cmp	r3, #0
 1591 00b4 0ED0     		beq	.L99
 1592              	.LBB15:
 860:Middlewares/Third_Party/LwIP/src/api/sockets.c ****     LWIP_DEBUGF(SOCKETS_DEBUG, ("lwip_connect(%d) failed, err=%d\n", s, err));
 861:Middlewares/Third_Party/LwIP/src/api/sockets.c ****     sock_set_errno(sock, err_to_errno(err));
 1593              		.loc 1 861 5
 1594 00b6 97F92F30 		ldrsb	r3, [r7, #47]
 1595 00ba 1846     		mov	r0, r3
 1596 00bc FFF7FEFF 		bl	err_to_errno
 1597 00c0 F861     		str	r0, [r7, #28]
 1598 00c2 FB69     		ldr	r3, [r7, #28]
 1599 00c4 002B     		cmp	r3, #0
 1600 00c6 02D0     		beq	.L100
 1601              		.loc 1 861 5 is_stmt 0 discriminator 1
 1602 00c8 0C4A     		ldr	r2, .L102+12
 1603 00ca FB69     		ldr	r3, [r7, #28]
 1604 00cc 1360     		str	r3, [r2]
 1605              	.L100:
 1606              	.LBE15:
 862:Middlewares/Third_Party/LwIP/src/api/sockets.c ****     done_socket(sock);
 863:Middlewares/Third_Party/LwIP/src/api/sockets.c ****     return -1;
 1607              		.loc 1 863 12 is_stmt 1
 1608 00ce 4FF0FF33 		mov	r3, #-1
 1609 00d2 08E0     		b	.L92
 1610              	.L99:
 1611              	.LBB16:
 864:Middlewares/Third_Party/LwIP/src/api/sockets.c ****   }
 865:Middlewares/Third_Party/LwIP/src/api/sockets.c **** 
 866:Middlewares/Third_Party/LwIP/src/api/sockets.c ****   LWIP_DEBUGF(SOCKETS_DEBUG, ("lwip_connect(%d) succeeded\n", s));
 867:Middlewares/Third_Party/LwIP/src/api/sockets.c ****   sock_set_errno(sock, 0);
 1612              		.loc 1 867 3
 1613 00d4 0023     		movs	r3, #0
 1614 00d6 BB61     		str	r3, [r7, #24]
 1615 00d8 BB69     		ldr	r3, [r7, #24]
 1616 00da 002B     		cmp	r3, #0
 1617 00dc 02D0     		beq	.L101
 1618              		.loc 1 867 3 is_stmt 0 discriminator 1
 1619 00de 074A     		ldr	r2, .L102+12
 1620 00e0 BB69     		ldr	r3, [r7, #24]
 1621 00e2 1360     		str	r3, [r2]
 1622              	.L101:
 1623              	.LBE16:
 868:Middlewares/Third_Party/LwIP/src/api/sockets.c ****   done_socket(sock);
 869:Middlewares/Third_Party/LwIP/src/api/sockets.c ****   return 0;
 1624              		.loc 1 869 10 is_stmt 1
 1625 00e4 0023     		movs	r3, #0
 1626              	.L92:
 870:Middlewares/Third_Party/LwIP/src/api/sockets.c **** }
 1627              		.loc 1 870 1
 1628 00e6 1846     		mov	r0, r3
 1629 00e8 3037     		adds	r7, r7, #48
 1630              	.LCFI78:
 1631              		.cfi_def_cfa_offset 8
 1632 00ea BD46     		mov	sp, r7
 1633              	.LCFI79:
 1634              		.cfi_def_cfa_register 13
 1635              		@ sp needed
ARM GAS  /tmp/ccsCUhT2.s 			page 45


 1636 00ec 80BD     		pop	{r7, pc}
 1637              	.L103:
 1638 00ee 00BF     		.align	2
 1639              	.L102:
 1640 00f0 00000000 		.word	.LC0
 1641 00f4 D4000000 		.word	.LC7
 1642 00f8 50000000 		.word	.LC2
 1643 00fc 00000000 		.word	errno
 1644              		.cfi_endproc
 1645              	.LFE152:
 1647              		.section	.text.lwip_listen,"ax",%progbits
 1648              		.align	1
 1649              		.global	lwip_listen
 1650              		.syntax unified
 1651              		.thumb
 1652              		.thumb_func
 1653              		.fpu fpv4-sp-d16
 1655              	lwip_listen:
 1656              	.LFB153:
 871:Middlewares/Third_Party/LwIP/src/api/sockets.c **** 
 872:Middlewares/Third_Party/LwIP/src/api/sockets.c **** /**
 873:Middlewares/Third_Party/LwIP/src/api/sockets.c ****  * Set a socket into listen mode.
 874:Middlewares/Third_Party/LwIP/src/api/sockets.c ****  * The socket may not have been used for another connection previously.
 875:Middlewares/Third_Party/LwIP/src/api/sockets.c ****  *
 876:Middlewares/Third_Party/LwIP/src/api/sockets.c ****  * @param s the socket to set to listening mode
 877:Middlewares/Third_Party/LwIP/src/api/sockets.c ****  * @param backlog (ATTENTION: needs TCP_LISTEN_BACKLOG=1)
 878:Middlewares/Third_Party/LwIP/src/api/sockets.c ****  * @return 0 on success, non-zero on failure
 879:Middlewares/Third_Party/LwIP/src/api/sockets.c ****  */
 880:Middlewares/Third_Party/LwIP/src/api/sockets.c **** int
 881:Middlewares/Third_Party/LwIP/src/api/sockets.c **** lwip_listen(int s, int backlog)
 882:Middlewares/Third_Party/LwIP/src/api/sockets.c **** {
 1657              		.loc 1 882 1
 1658              		.cfi_startproc
 1659              		@ args = 0, pretend = 0, frame = 32
 1660              		@ frame_needed = 1, uses_anonymous_args = 0
 1661 0000 80B5     		push	{r7, lr}
 1662              	.LCFI80:
 1663              		.cfi_def_cfa_offset 8
 1664              		.cfi_offset 7, -8
 1665              		.cfi_offset 14, -4
 1666 0002 88B0     		sub	sp, sp, #32
 1667              	.LCFI81:
 1668              		.cfi_def_cfa_offset 40
 1669 0004 00AF     		add	r7, sp, #0
 1670              	.LCFI82:
 1671              		.cfi_def_cfa_register 7
 1672 0006 7860     		str	r0, [r7, #4]
 1673 0008 3960     		str	r1, [r7]
 883:Middlewares/Third_Party/LwIP/src/api/sockets.c ****   struct lwip_sock *sock;
 884:Middlewares/Third_Party/LwIP/src/api/sockets.c ****   err_t err;
 885:Middlewares/Third_Party/LwIP/src/api/sockets.c **** 
 886:Middlewares/Third_Party/LwIP/src/api/sockets.c ****   LWIP_DEBUGF(SOCKETS_DEBUG, ("lwip_listen(%d, backlog=%d)\n", s, backlog));
 887:Middlewares/Third_Party/LwIP/src/api/sockets.c **** 
 888:Middlewares/Third_Party/LwIP/src/api/sockets.c ****   sock = get_socket(s);
 1674              		.loc 1 888 10
 1675 000a 7868     		ldr	r0, [r7, #4]
 1676 000c FFF7FEFF 		bl	get_socket
ARM GAS  /tmp/ccsCUhT2.s 			page 46


 1677 0010 F861     		str	r0, [r7, #28]
 889:Middlewares/Third_Party/LwIP/src/api/sockets.c ****   if (!sock) {
 1678              		.loc 1 889 6
 1679 0012 FB69     		ldr	r3, [r7, #28]
 1680 0014 002B     		cmp	r3, #0
 1681 0016 02D1     		bne	.L105
 890:Middlewares/Third_Party/LwIP/src/api/sockets.c ****     return -1;
 1682              		.loc 1 890 12
 1683 0018 4FF0FF33 		mov	r3, #-1
 1684 001c 3EE0     		b	.L106
 1685              	.L105:
 891:Middlewares/Third_Party/LwIP/src/api/sockets.c ****   }
 892:Middlewares/Third_Party/LwIP/src/api/sockets.c **** 
 893:Middlewares/Third_Party/LwIP/src/api/sockets.c ****   /* limit the "backlog" parameter to fit in an u8_t */
 894:Middlewares/Third_Party/LwIP/src/api/sockets.c ****   backlog = LWIP_MIN(LWIP_MAX(backlog, 0), 0xff);
 1686              		.loc 1 894 13
 1687 001e 3B68     		ldr	r3, [r7]
 1688 0020 FE2B     		cmp	r3, #254
 1689 0022 03DC     		bgt	.L107
 1690              		.loc 1 894 13 is_stmt 0 discriminator 1
 1691 0024 3B68     		ldr	r3, [r7]
 1692 0026 23EAE373 		bic	r3, r3, r3, asr #31
 1693 002a 00E0     		b	.L108
 1694              	.L107:
 1695              		.loc 1 894 13 discriminator 2
 1696 002c FF23     		movs	r3, #255
 1697              	.L108:
 1698              		.loc 1 894 11 is_stmt 1 discriminator 4
 1699 002e 3B60     		str	r3, [r7]
 895:Middlewares/Third_Party/LwIP/src/api/sockets.c **** 
 896:Middlewares/Third_Party/LwIP/src/api/sockets.c ****   err = netconn_listen_with_backlog(sock->conn, (u8_t)backlog);
 1700              		.loc 1 896 9 discriminator 4
 1701 0030 FB69     		ldr	r3, [r7, #28]
 1702 0032 1B68     		ldr	r3, [r3]
 1703 0034 3A68     		ldr	r2, [r7]
 1704 0036 D2B2     		uxtb	r2, r2
 1705 0038 1146     		mov	r1, r2
 1706 003a 1846     		mov	r0, r3
 1707 003c FFF7FEFF 		bl	netconn_listen_with_backlog
 1708 0040 0346     		mov	r3, r0
 1709 0042 FB76     		strb	r3, [r7, #27]
 897:Middlewares/Third_Party/LwIP/src/api/sockets.c **** 
 898:Middlewares/Third_Party/LwIP/src/api/sockets.c ****   if (err != ERR_OK) {
 1710              		.loc 1 898 6 discriminator 4
 1711 0044 97F91B30 		ldrsb	r3, [r7, #27]
 1712 0048 002B     		cmp	r3, #0
 1713 004a 1ED0     		beq	.L109
 899:Middlewares/Third_Party/LwIP/src/api/sockets.c ****     LWIP_DEBUGF(SOCKETS_DEBUG, ("lwip_listen(%d) failed, err=%d\n", s, err));
 900:Middlewares/Third_Party/LwIP/src/api/sockets.c ****     if (NETCONNTYPE_GROUP(netconn_type(sock->conn)) != NETCONN_TCP) {
 1714              		.loc 1 900 9
 1715 004c FB69     		ldr	r3, [r7, #28]
 1716 004e 1B68     		ldr	r3, [r3]
 1717 0050 1B78     		ldrb	r3, [r3]	@ zero_extendqisi2
 1718 0052 03F0F003 		and	r3, r3, #240
 1719              		.loc 1 900 8
 1720 0056 102B     		cmp	r3, #16
 1721 0058 08D0     		beq	.L110
ARM GAS  /tmp/ccsCUhT2.s 			page 47


 1722              	.LBB17:
 901:Middlewares/Third_Party/LwIP/src/api/sockets.c ****       sock_set_errno(sock, EOPNOTSUPP);
 1723              		.loc 1 901 7
 1724 005a 5F23     		movs	r3, #95
 1725 005c 7B61     		str	r3, [r7, #20]
 1726 005e 7B69     		ldr	r3, [r7, #20]
 1727 0060 002B     		cmp	r3, #0
 1728 0062 0FD0     		beq	.L112
 1729              		.loc 1 901 7 is_stmt 0 discriminator 1
 1730 0064 0F4A     		ldr	r2, .L114
 1731 0066 7B69     		ldr	r3, [r7, #20]
 1732 0068 1360     		str	r3, [r2]
 1733 006a 0BE0     		b	.L112
 1734              	.L110:
 1735              	.LBE17:
 1736              	.LBB18:
 902:Middlewares/Third_Party/LwIP/src/api/sockets.c ****     } else {
 903:Middlewares/Third_Party/LwIP/src/api/sockets.c ****       sock_set_errno(sock, err_to_errno(err));
 1737              		.loc 1 903 7 is_stmt 1
 1738 006c 97F91B30 		ldrsb	r3, [r7, #27]
 1739 0070 1846     		mov	r0, r3
 1740 0072 FFF7FEFF 		bl	err_to_errno
 1741 0076 3861     		str	r0, [r7, #16]
 1742 0078 3B69     		ldr	r3, [r7, #16]
 1743 007a 002B     		cmp	r3, #0
 1744 007c 02D0     		beq	.L112
 1745              		.loc 1 903 7 is_stmt 0 discriminator 1
 1746 007e 094A     		ldr	r2, .L114
 1747 0080 3B69     		ldr	r3, [r7, #16]
 1748 0082 1360     		str	r3, [r2]
 1749              	.L112:
 1750              	.LBE18:
 904:Middlewares/Third_Party/LwIP/src/api/sockets.c ****     }
 905:Middlewares/Third_Party/LwIP/src/api/sockets.c ****     done_socket(sock);
 906:Middlewares/Third_Party/LwIP/src/api/sockets.c ****     return -1;
 1751              		.loc 1 906 12 is_stmt 1
 1752 0084 4FF0FF33 		mov	r3, #-1
 1753 0088 08E0     		b	.L106
 1754              	.L109:
 1755              	.LBB19:
 907:Middlewares/Third_Party/LwIP/src/api/sockets.c ****   }
 908:Middlewares/Third_Party/LwIP/src/api/sockets.c **** 
 909:Middlewares/Third_Party/LwIP/src/api/sockets.c ****   sock_set_errno(sock, 0);
 1756              		.loc 1 909 3
 1757 008a 0023     		movs	r3, #0
 1758 008c FB60     		str	r3, [r7, #12]
 1759 008e FB68     		ldr	r3, [r7, #12]
 1760 0090 002B     		cmp	r3, #0
 1761 0092 02D0     		beq	.L113
 1762              		.loc 1 909 3 is_stmt 0 discriminator 1
 1763 0094 034A     		ldr	r2, .L114
 1764 0096 FB68     		ldr	r3, [r7, #12]
 1765 0098 1360     		str	r3, [r2]
 1766              	.L113:
 1767              	.LBE19:
 910:Middlewares/Third_Party/LwIP/src/api/sockets.c ****   done_socket(sock);
 911:Middlewares/Third_Party/LwIP/src/api/sockets.c ****   return 0;
ARM GAS  /tmp/ccsCUhT2.s 			page 48


 1768              		.loc 1 911 10 is_stmt 1
 1769 009a 0023     		movs	r3, #0
 1770              	.L106:
 912:Middlewares/Third_Party/LwIP/src/api/sockets.c **** }
 1771              		.loc 1 912 1
 1772 009c 1846     		mov	r0, r3
 1773 009e 2037     		adds	r7, r7, #32
 1774              	.LCFI83:
 1775              		.cfi_def_cfa_offset 8
 1776 00a0 BD46     		mov	sp, r7
 1777              	.LCFI84:
 1778              		.cfi_def_cfa_register 13
 1779              		@ sp needed
 1780 00a2 80BD     		pop	{r7, pc}
 1781              	.L115:
 1782              		.align	2
 1783              	.L114:
 1784 00a4 00000000 		.word	errno
 1785              		.cfi_endproc
 1786              	.LFE153:
 1788              		.section	.rodata
 1789 00f2 0000     		.align	2
 1790              	.LC8:
 1791 00f4 6E6F2073 		.ascii	"no socket given\000"
 1791      6F636B65 
 1791      74206769 
 1791      76656E00 
 1792              		.align	2
 1793              	.LC9:
 1794 0104 74686973 		.ascii	"this should be checked internally\000"
 1794      2073686F 
 1794      756C6420 
 1794      62652063 
 1794      6865636B 
 1795 0126 0000     		.align	2
 1796              	.LC10:
 1797 0128 7020213D 		.ascii	"p != NULL\000"
 1797      204E554C 
 1797      4C00
 1798 0132 0000     		.align	2
 1799              	.LC11:
 1800 0134 696E7661 		.ascii	"invalid copylen, len would underflow\000"
 1800      6C696420 
 1800      636F7079 
 1800      6C656E2C 
 1800      206C656E 
 1801 0159 000000   		.align	2
 1802              	.LC12:
 1803 015c 696E7661 		.ascii	"invalid copylen\000"
 1803      6C696420 
 1803      636F7079 
 1803      6C656E00 
 1804              		.section	.text.lwip_recv_tcp,"ax",%progbits
 1805              		.align	1
 1806              		.syntax unified
 1807              		.thumb
 1808              		.thumb_func
ARM GAS  /tmp/ccsCUhT2.s 			page 49


 1809              		.fpu fpv4-sp-d16
 1811              	lwip_recv_tcp:
 1812              	.LFB154:
 913:Middlewares/Third_Party/LwIP/src/api/sockets.c **** 
 914:Middlewares/Third_Party/LwIP/src/api/sockets.c **** #if LWIP_TCP
 915:Middlewares/Third_Party/LwIP/src/api/sockets.c **** /* Helper function to loop over receiving pbufs from netconn
 916:Middlewares/Third_Party/LwIP/src/api/sockets.c ****  * until "len" bytes are received or we're otherwise done.
 917:Middlewares/Third_Party/LwIP/src/api/sockets.c ****  * Keeps sock->lastdata for peeking or partly copying.
 918:Middlewares/Third_Party/LwIP/src/api/sockets.c ****  */
 919:Middlewares/Third_Party/LwIP/src/api/sockets.c **** static ssize_t
 920:Middlewares/Third_Party/LwIP/src/api/sockets.c **** lwip_recv_tcp(struct lwip_sock *sock, void *mem, size_t len, int flags)
 921:Middlewares/Third_Party/LwIP/src/api/sockets.c **** {
 1813              		.loc 1 921 1
 1814              		.cfi_startproc
 1815              		@ args = 0, pretend = 0, frame = 48
 1816              		@ frame_needed = 1, uses_anonymous_args = 0
 1817 0000 80B5     		push	{r7, lr}
 1818              	.LCFI85:
 1819              		.cfi_def_cfa_offset 8
 1820              		.cfi_offset 7, -8
 1821              		.cfi_offset 14, -4
 1822 0002 8CB0     		sub	sp, sp, #48
 1823              	.LCFI86:
 1824              		.cfi_def_cfa_offset 56
 1825 0004 00AF     		add	r7, sp, #0
 1826              	.LCFI87:
 1827              		.cfi_def_cfa_register 7
 1828 0006 F860     		str	r0, [r7, #12]
 1829 0008 B960     		str	r1, [r7, #8]
 1830 000a 7A60     		str	r2, [r7, #4]
 1831 000c 3B60     		str	r3, [r7]
 922:Middlewares/Third_Party/LwIP/src/api/sockets.c ****   u8_t apiflags = NETCONN_NOAUTORCVD;
 1832              		.loc 1 922 8
 1833 000e 0823     		movs	r3, #8
 1834 0010 87F82F30 		strb	r3, [r7, #47]
 923:Middlewares/Third_Party/LwIP/src/api/sockets.c ****   ssize_t recvd = 0;
 1835              		.loc 1 923 11
 1836 0014 0023     		movs	r3, #0
 1837 0016 BB62     		str	r3, [r7, #40]
 924:Middlewares/Third_Party/LwIP/src/api/sockets.c ****   ssize_t recv_left = (len <= SSIZE_MAX) ? (ssize_t)len : SSIZE_MAX;
 1838              		.loc 1 924 28
 1839 0018 7B68     		ldr	r3, [r7, #4]
 1840              		.loc 1 924 57
 1841 001a 002B     		cmp	r3, #0
 1842 001c 01DB     		blt	.L117
 1843              		.loc 1 924 57 is_stmt 0 discriminator 1
 1844 001e 7B68     		ldr	r3, [r7, #4]
 1845 0020 01E0     		b	.L118
 1846              	.L117:
 1847              		.loc 1 924 57 discriminator 2
 1848 0022 6FF00043 		mvn	r3, #-2147483648
 1849              	.L118:
 1850              		.loc 1 924 11 is_stmt 1 discriminator 4
 1851 0026 7B62     		str	r3, [r7, #36]
 925:Middlewares/Third_Party/LwIP/src/api/sockets.c **** 
 926:Middlewares/Third_Party/LwIP/src/api/sockets.c ****   LWIP_ASSERT("no socket given", sock != NULL);
 1852              		.loc 1 926 3 discriminator 4
ARM GAS  /tmp/ccsCUhT2.s 			page 50


 1853 0028 FB68     		ldr	r3, [r7, #12]
 1854 002a 002B     		cmp	r3, #0
 1855 002c 06D1     		bne	.L119
 1856              		.loc 1 926 3 is_stmt 0 discriminator 1
 1857 002e 744B     		ldr	r3, .L145
 1858 0030 40F29E32 		movw	r2, #926
 1859 0034 7349     		ldr	r1, .L145+4
 1860 0036 7448     		ldr	r0, .L145+8
 1861 0038 FFF7FEFF 		bl	printf
 1862              	.L119:
 927:Middlewares/Third_Party/LwIP/src/api/sockets.c ****   LWIP_ASSERT("this should be checked internally", NETCONNTYPE_GROUP(netconn_type(sock->conn)) == N
 1863              		.loc 1 927 3 is_stmt 1
 1864 003c FB68     		ldr	r3, [r7, #12]
 1865 003e 1B68     		ldr	r3, [r3]
 1866 0040 1B78     		ldrb	r3, [r3]	@ zero_extendqisi2
 1867 0042 03F0F003 		and	r3, r3, #240
 1868 0046 102B     		cmp	r3, #16
 1869 0048 06D0     		beq	.L120
 1870              		.loc 1 927 3 is_stmt 0 discriminator 1
 1871 004a 6D4B     		ldr	r3, .L145
 1872 004c 40F29F32 		movw	r2, #927
 1873 0050 6E49     		ldr	r1, .L145+12
 1874 0052 6D48     		ldr	r0, .L145+8
 1875 0054 FFF7FEFF 		bl	printf
 1876              	.L120:
 928:Middlewares/Third_Party/LwIP/src/api/sockets.c **** 
 929:Middlewares/Third_Party/LwIP/src/api/sockets.c ****   if (flags & MSG_DONTWAIT) {
 1877              		.loc 1 929 13 is_stmt 1
 1878 0058 3B68     		ldr	r3, [r7]
 1879 005a 03F00803 		and	r3, r3, #8
 1880              		.loc 1 929 6
 1881 005e 002B     		cmp	r3, #0
 1882 0060 05D0     		beq	.L140
 930:Middlewares/Third_Party/LwIP/src/api/sockets.c ****     apiflags |= NETCONN_DONTBLOCK;
 1883              		.loc 1 930 14
 1884 0062 97F82F30 		ldrb	r3, [r7, #47]
 1885 0066 43F00403 		orr	r3, r3, #4
 1886 006a 87F82F30 		strb	r3, [r7, #47]
 1887              	.L140:
 1888              	.LBB20:
 931:Middlewares/Third_Party/LwIP/src/api/sockets.c ****   }
 932:Middlewares/Third_Party/LwIP/src/api/sockets.c **** 
 933:Middlewares/Third_Party/LwIP/src/api/sockets.c ****   do {
 934:Middlewares/Third_Party/LwIP/src/api/sockets.c ****     struct pbuf *p;
 935:Middlewares/Third_Party/LwIP/src/api/sockets.c ****     err_t err;
 936:Middlewares/Third_Party/LwIP/src/api/sockets.c ****     u16_t copylen;
 937:Middlewares/Third_Party/LwIP/src/api/sockets.c **** 
 938:Middlewares/Third_Party/LwIP/src/api/sockets.c ****     LWIP_DEBUGF(SOCKETS_DEBUG, ("lwip_recv_tcp: top while sock->lastdata=%p\n", (void *)sock->lastd
 939:Middlewares/Third_Party/LwIP/src/api/sockets.c ****     /* Check if there is data left from the last recv operation. */
 940:Middlewares/Third_Party/LwIP/src/api/sockets.c ****     if (sock->lastdata.pbuf) {
 1889              		.loc 1 940 23
 1890 006e FB68     		ldr	r3, [r7, #12]
 1891 0070 5B68     		ldr	r3, [r3, #4]
 1892              		.loc 1 940 8
 1893 0072 002B     		cmp	r3, #0
 1894 0074 03D0     		beq	.L122
 941:Middlewares/Third_Party/LwIP/src/api/sockets.c ****       p = sock->lastdata.pbuf;
ARM GAS  /tmp/ccsCUhT2.s 			page 51


 1895              		.loc 1 941 25
 1896 0076 FB68     		ldr	r3, [r7, #12]
 1897 0078 5B68     		ldr	r3, [r3, #4]
 1898              		.loc 1 941 9
 1899 007a 7B61     		str	r3, [r7, #20]
 1900 007c 36E0     		b	.L123
 1901              	.L122:
 942:Middlewares/Third_Party/LwIP/src/api/sockets.c ****     } else {
 943:Middlewares/Third_Party/LwIP/src/api/sockets.c ****       /* No data was left from the previous operation, so we try to get
 944:Middlewares/Third_Party/LwIP/src/api/sockets.c ****          some from the network. */
 945:Middlewares/Third_Party/LwIP/src/api/sockets.c ****       err = netconn_recv_tcp_pbuf_flags(sock->conn, &p, apiflags);
 1902              		.loc 1 945 13
 1903 007e FB68     		ldr	r3, [r7, #12]
 1904 0080 1B68     		ldr	r3, [r3]
 1905 0082 97F82F20 		ldrb	r2, [r7, #47]	@ zero_extendqisi2
 1906 0086 07F11401 		add	r1, r7, #20
 1907 008a 1846     		mov	r0, r3
 1908 008c FFF7FEFF 		bl	netconn_recv_tcp_pbuf_flags
 1909 0090 0346     		mov	r3, r0
 1910 0092 87F82130 		strb	r3, [r7, #33]
 946:Middlewares/Third_Party/LwIP/src/api/sockets.c ****       LWIP_DEBUGF(SOCKETS_DEBUG, ("lwip_recv_tcp: netconn_recv err=%d, pbuf=%p\n",
 947:Middlewares/Third_Party/LwIP/src/api/sockets.c ****                                   err, (void *)p));
 948:Middlewares/Third_Party/LwIP/src/api/sockets.c **** 
 949:Middlewares/Third_Party/LwIP/src/api/sockets.c ****       if (err != ERR_OK) {
 1911              		.loc 1 949 10
 1912 0096 97F92130 		ldrsb	r3, [r7, #33]
 1913 009a 002B     		cmp	r3, #0
 1914 009c 19D0     		beq	.L124
 950:Middlewares/Third_Party/LwIP/src/api/sockets.c ****         if (recvd > 0) {
 1915              		.loc 1 950 12
 1916 009e BB6A     		ldr	r3, [r7, #40]
 1917 00a0 002B     		cmp	r3, #0
 1918 00a2 00F38D80 		bgt	.L143
 1919              	.LBB21:
 951:Middlewares/Third_Party/LwIP/src/api/sockets.c ****           /* already received data, return that (this trusts in getting the same error from
 952:Middlewares/Third_Party/LwIP/src/api/sockets.c ****              netconn layer again next time netconn_recv is called) */
 953:Middlewares/Third_Party/LwIP/src/api/sockets.c ****           goto lwip_recv_tcp_done;
 954:Middlewares/Third_Party/LwIP/src/api/sockets.c ****         }
 955:Middlewares/Third_Party/LwIP/src/api/sockets.c ****         /* We should really do some error checking here. */
 956:Middlewares/Third_Party/LwIP/src/api/sockets.c ****         LWIP_DEBUGF(SOCKETS_DEBUG, ("lwip_recv_tcp: p == NULL, error is \"%s\"!\n",
 957:Middlewares/Third_Party/LwIP/src/api/sockets.c ****                                     lwip_strerr(err)));
 958:Middlewares/Third_Party/LwIP/src/api/sockets.c ****         sock_set_errno(sock, err_to_errno(err));
 1920              		.loc 1 958 9
 1921 00a6 97F92130 		ldrsb	r3, [r7, #33]
 1922 00aa 1846     		mov	r0, r3
 1923 00ac FFF7FEFF 		bl	err_to_errno
 1924 00b0 F861     		str	r0, [r7, #28]
 1925 00b2 FB69     		ldr	r3, [r7, #28]
 1926 00b4 002B     		cmp	r3, #0
 1927 00b6 02D0     		beq	.L127
 1928              		.loc 1 958 9 is_stmt 0 discriminator 1
 1929 00b8 554A     		ldr	r2, .L145+16
 1930 00ba FB69     		ldr	r3, [r7, #28]
 1931 00bc 1360     		str	r3, [r2]
 1932              	.L127:
 1933              	.LBE21:
 959:Middlewares/Third_Party/LwIP/src/api/sockets.c ****         if (err == ERR_CLSD) {
ARM GAS  /tmp/ccsCUhT2.s 			page 52


 1934              		.loc 1 959 12 is_stmt 1
 1935 00be 97F92130 		ldrsb	r3, [r7, #33]
 1936 00c2 13F10F0F 		cmn	r3, #15
 1937 00c6 01D1     		bne	.L128
 960:Middlewares/Third_Party/LwIP/src/api/sockets.c ****           return 0;
 1938              		.loc 1 960 18
 1939 00c8 0023     		movs	r3, #0
 1940 00ca 94E0     		b	.L139
 1941              	.L128:
 961:Middlewares/Third_Party/LwIP/src/api/sockets.c ****         } else {
 962:Middlewares/Third_Party/LwIP/src/api/sockets.c ****           return -1;
 1942              		.loc 1 962 18
 1943 00cc 4FF0FF33 		mov	r3, #-1
 1944 00d0 91E0     		b	.L139
 1945              	.L124:
 963:Middlewares/Third_Party/LwIP/src/api/sockets.c ****         }
 964:Middlewares/Third_Party/LwIP/src/api/sockets.c ****       }
 965:Middlewares/Third_Party/LwIP/src/api/sockets.c ****       LWIP_ASSERT("p != NULL", p != NULL);
 1946              		.loc 1 965 7
 1947 00d2 7B69     		ldr	r3, [r7, #20]
 1948 00d4 002B     		cmp	r3, #0
 1949 00d6 06D1     		bne	.L130
 1950              		.loc 1 965 7 is_stmt 0 discriminator 1
 1951 00d8 494B     		ldr	r3, .L145
 1952 00da 40F2C532 		movw	r2, #965
 1953 00de 4D49     		ldr	r1, .L145+20
 1954 00e0 4948     		ldr	r0, .L145+8
 1955 00e2 FFF7FEFF 		bl	printf
 1956              	.L130:
 966:Middlewares/Third_Party/LwIP/src/api/sockets.c ****       sock->lastdata.pbuf = p;
 1957              		.loc 1 966 27 is_stmt 1
 1958 00e6 7A69     		ldr	r2, [r7, #20]
 1959 00e8 FB68     		ldr	r3, [r7, #12]
 1960 00ea 5A60     		str	r2, [r3, #4]
 1961              	.L123:
 967:Middlewares/Third_Party/LwIP/src/api/sockets.c ****     }
 968:Middlewares/Third_Party/LwIP/src/api/sockets.c **** 
 969:Middlewares/Third_Party/LwIP/src/api/sockets.c ****     LWIP_DEBUGF(SOCKETS_DEBUG, ("lwip_recv_tcp: buflen=%"U16_F" recv_left=%d off=%d\n",
 970:Middlewares/Third_Party/LwIP/src/api/sockets.c ****                                 p->tot_len, (int)recv_left, (int)recvd));
 971:Middlewares/Third_Party/LwIP/src/api/sockets.c **** 
 972:Middlewares/Third_Party/LwIP/src/api/sockets.c ****     if (recv_left > p->tot_len) {
 1962              		.loc 1 972 22
 1963 00ec 7B69     		ldr	r3, [r7, #20]
 1964 00ee 1B89     		ldrh	r3, [r3, #8]
 1965 00f0 1A46     		mov	r2, r3
 1966              		.loc 1 972 8
 1967 00f2 7B6A     		ldr	r3, [r7, #36]
 1968 00f4 9342     		cmp	r3, r2
 1969 00f6 03DD     		ble	.L131
 973:Middlewares/Third_Party/LwIP/src/api/sockets.c ****       copylen = p->tot_len;
 1970              		.loc 1 973 18
 1971 00f8 7B69     		ldr	r3, [r7, #20]
 1972              		.loc 1 973 15
 1973 00fa 1B89     		ldrh	r3, [r3, #8]	@ movhi
 1974 00fc 7B84     		strh	r3, [r7, #34]	@ movhi
 1975 00fe 01E0     		b	.L132
 1976              	.L131:
ARM GAS  /tmp/ccsCUhT2.s 			page 53


 974:Middlewares/Third_Party/LwIP/src/api/sockets.c ****     } else {
 975:Middlewares/Third_Party/LwIP/src/api/sockets.c ****       copylen = (u16_t)recv_left;
 1977              		.loc 1 975 15
 1978 0100 7B6A     		ldr	r3, [r7, #36]
 1979 0102 7B84     		strh	r3, [r7, #34]	@ movhi
 1980              	.L132:
 976:Middlewares/Third_Party/LwIP/src/api/sockets.c ****     }
 977:Middlewares/Third_Party/LwIP/src/api/sockets.c ****     if (recvd + copylen < recvd) {
 1981              		.loc 1 977 15
 1982 0104 7A8C     		ldrh	r2, [r7, #34]
 1983 0106 BB6A     		ldr	r3, [r7, #40]
 1984 0108 1344     		add	r3, r3, r2
 1985              		.loc 1 977 8
 1986 010a BA6A     		ldr	r2, [r7, #40]
 1987 010c 9A42     		cmp	r2, r3
 1988 010e 03DD     		ble	.L133
 978:Middlewares/Third_Party/LwIP/src/api/sockets.c ****       /* overflow */
 979:Middlewares/Third_Party/LwIP/src/api/sockets.c ****       copylen = (u16_t)(SSIZE_MAX - recvd);
 1989              		.loc 1 979 17
 1990 0110 BB6A     		ldr	r3, [r7, #40]
 1991 0112 9BB2     		uxth	r3, r3
 1992              		.loc 1 979 15
 1993 0114 DB43     		mvns	r3, r3
 1994 0116 7B84     		strh	r3, [r7, #34]	@ movhi
 1995              	.L133:
 980:Middlewares/Third_Party/LwIP/src/api/sockets.c ****     }
 981:Middlewares/Third_Party/LwIP/src/api/sockets.c **** 
 982:Middlewares/Third_Party/LwIP/src/api/sockets.c ****     /* copy the contents of the received buffer into
 983:Middlewares/Third_Party/LwIP/src/api/sockets.c ****     the supplied memory pointer mem */
 984:Middlewares/Third_Party/LwIP/src/api/sockets.c ****     pbuf_copy_partial(p, (u8_t *)mem + recvd, copylen, 0);
 1996              		.loc 1 984 5
 1997 0118 7869     		ldr	r0, [r7, #20]
 1998 011a BB6A     		ldr	r3, [r7, #40]
 1999 011c BA68     		ldr	r2, [r7, #8]
 2000 011e D118     		adds	r1, r2, r3
 2001 0120 7A8C     		ldrh	r2, [r7, #34]
 2002 0122 0023     		movs	r3, #0
 2003 0124 FFF7FEFF 		bl	pbuf_copy_partial
 985:Middlewares/Third_Party/LwIP/src/api/sockets.c **** 
 986:Middlewares/Third_Party/LwIP/src/api/sockets.c ****     recvd += copylen;
 2004              		.loc 1 986 11
 2005 0128 7B8C     		ldrh	r3, [r7, #34]
 2006 012a BA6A     		ldr	r2, [r7, #40]
 2007 012c 1344     		add	r3, r3, r2
 2008 012e BB62     		str	r3, [r7, #40]
 987:Middlewares/Third_Party/LwIP/src/api/sockets.c **** 
 988:Middlewares/Third_Party/LwIP/src/api/sockets.c ****     /* TCP combines multiple pbufs for one recv */
 989:Middlewares/Third_Party/LwIP/src/api/sockets.c ****     LWIP_ASSERT("invalid copylen, len would underflow", recv_left >= copylen);
 2009              		.loc 1 989 5
 2010 0130 7B8C     		ldrh	r3, [r7, #34]
 2011 0132 7A6A     		ldr	r2, [r7, #36]
 2012 0134 9A42     		cmp	r2, r3
 2013 0136 06DA     		bge	.L134
 2014              		.loc 1 989 5 is_stmt 0 discriminator 1
 2015 0138 314B     		ldr	r3, .L145
 2016 013a 40F2DD32 		movw	r2, #989
 2017 013e 3649     		ldr	r1, .L145+24
ARM GAS  /tmp/ccsCUhT2.s 			page 54


 2018 0140 3148     		ldr	r0, .L145+8
 2019 0142 FFF7FEFF 		bl	printf
 2020              	.L134:
 990:Middlewares/Third_Party/LwIP/src/api/sockets.c ****     recv_left -= copylen;
 2021              		.loc 1 990 15 is_stmt 1
 2022 0146 7B8C     		ldrh	r3, [r7, #34]
 2023 0148 7A6A     		ldr	r2, [r7, #36]
 2024 014a D31A     		subs	r3, r2, r3
 2025 014c 7B62     		str	r3, [r7, #36]
 991:Middlewares/Third_Party/LwIP/src/api/sockets.c **** 
 992:Middlewares/Third_Party/LwIP/src/api/sockets.c ****     /* Unless we peek the incoming message... */
 993:Middlewares/Third_Party/LwIP/src/api/sockets.c ****     if ((flags & MSG_PEEK) == 0) {
 2026              		.loc 1 993 16
 2027 014e 3B68     		ldr	r3, [r7]
 2028 0150 03F00103 		and	r3, r3, #1
 2029              		.loc 1 993 8
 2030 0154 002B     		cmp	r3, #0
 2031 0156 23D1     		bne	.L135
 994:Middlewares/Third_Party/LwIP/src/api/sockets.c ****       /* ... check if there is data left in the pbuf */
 995:Middlewares/Third_Party/LwIP/src/api/sockets.c ****       LWIP_ASSERT("invalid copylen", p->tot_len >= copylen);
 2032              		.loc 1 995 7
 2033 0158 7B69     		ldr	r3, [r7, #20]
 2034 015a 1B89     		ldrh	r3, [r3, #8]
 2035 015c 7A8C     		ldrh	r2, [r7, #34]
 2036 015e 9A42     		cmp	r2, r3
 2037 0160 06D9     		bls	.L136
 2038              		.loc 1 995 7 is_stmt 0 discriminator 1
 2039 0162 274B     		ldr	r3, .L145
 2040 0164 40F2E332 		movw	r2, #995
 2041 0168 2C49     		ldr	r1, .L145+28
 2042 016a 2748     		ldr	r0, .L145+8
 2043 016c FFF7FEFF 		bl	printf
 2044              	.L136:
 996:Middlewares/Third_Party/LwIP/src/api/sockets.c ****       if (p->tot_len - copylen > 0) {
 2045              		.loc 1 996 12 is_stmt 1
 2046 0170 7B69     		ldr	r3, [r7, #20]
 2047 0172 1B89     		ldrh	r3, [r3, #8]
 2048 0174 1A46     		mov	r2, r3
 2049              		.loc 1 996 22
 2050 0176 7B8C     		ldrh	r3, [r7, #34]
 2051 0178 D31A     		subs	r3, r2, r3
 2052              		.loc 1 996 10
 2053 017a 002B     		cmp	r3, #0
 2054 017c 09DD     		ble	.L137
 997:Middlewares/Third_Party/LwIP/src/api/sockets.c ****         /* If so, it should be saved in the sock structure for the next recv call.
 998:Middlewares/Third_Party/LwIP/src/api/sockets.c ****            We store the pbuf but hide/free the consumed data: */
 999:Middlewares/Third_Party/LwIP/src/api/sockets.c ****         sock->lastdata.pbuf = pbuf_free_header(p, copylen);
 2055              		.loc 1 999 31
 2056 017e 7B69     		ldr	r3, [r7, #20]
 2057 0180 7A8C     		ldrh	r2, [r7, #34]
 2058 0182 1146     		mov	r1, r2
 2059 0184 1846     		mov	r0, r3
 2060 0186 FFF7FEFF 		bl	pbuf_free_header
 2061 018a 0246     		mov	r2, r0
 2062              		.loc 1 999 29
 2063 018c FB68     		ldr	r3, [r7, #12]
 2064 018e 5A60     		str	r2, [r3, #4]
ARM GAS  /tmp/ccsCUhT2.s 			page 55


 2065 0190 06E0     		b	.L135
 2066              	.L137:
1000:Middlewares/Third_Party/LwIP/src/api/sockets.c ****         LWIP_DEBUGF(SOCKETS_DEBUG, ("lwip_recv_tcp: lastdata now pbuf=%p\n", (void *)sock->lastdata
1001:Middlewares/Third_Party/LwIP/src/api/sockets.c ****       } else {
1002:Middlewares/Third_Party/LwIP/src/api/sockets.c ****         sock->lastdata.pbuf = NULL;
 2067              		.loc 1 1002 29
 2068 0192 FB68     		ldr	r3, [r7, #12]
 2069 0194 0022     		movs	r2, #0
 2070 0196 5A60     		str	r2, [r3, #4]
1003:Middlewares/Third_Party/LwIP/src/api/sockets.c ****         LWIP_DEBUGF(SOCKETS_DEBUG, ("lwip_recv_tcp: deleting pbuf=%p\n", (void *)p));
1004:Middlewares/Third_Party/LwIP/src/api/sockets.c ****         pbuf_free(p);
 2071              		.loc 1 1004 9
 2072 0198 7B69     		ldr	r3, [r7, #20]
 2073 019a 1846     		mov	r0, r3
 2074 019c FFF7FEFF 		bl	pbuf_free
 2075              	.L135:
1005:Middlewares/Third_Party/LwIP/src/api/sockets.c ****       }
1006:Middlewares/Third_Party/LwIP/src/api/sockets.c ****     }
1007:Middlewares/Third_Party/LwIP/src/api/sockets.c ****     /* once we have some data to return, only add more if we don't need to wait */
1008:Middlewares/Third_Party/LwIP/src/api/sockets.c ****     apiflags |= NETCONN_DONTBLOCK | NETCONN_NOFIN;
 2076              		.loc 1 1008 14
 2077 01a0 97F82F30 		ldrb	r3, [r7, #47]
 2078 01a4 43F01403 		orr	r3, r3, #20
 2079 01a8 87F82F30 		strb	r3, [r7, #47]
 2080              	.LBE20:
1009:Middlewares/Third_Party/LwIP/src/api/sockets.c ****     /* @todo: do we need to support peeking more than one pbuf? */
1010:Middlewares/Third_Party/LwIP/src/api/sockets.c ****   } while ((recv_left > 0) && !(flags & MSG_PEEK));
 2081              		.loc 1 1010 3
 2082 01ac 7B6A     		ldr	r3, [r7, #36]
 2083 01ae 002B     		cmp	r3, #0
 2084 01b0 08DD     		ble	.L144
 2085              		.loc 1 1010 39 discriminator 1
 2086 01b2 3B68     		ldr	r3, [r7]
 2087 01b4 03F00103 		and	r3, r3, #1
 2088              		.loc 1 1010 28 discriminator 1
 2089 01b8 002B     		cmp	r3, #0
 2090 01ba 3FF458AF 		beq	.L140
1011:Middlewares/Third_Party/LwIP/src/api/sockets.c **** lwip_recv_tcp_done:
 2091              		.loc 1 1011 1
 2092 01be 01E0     		b	.L144
 2093              	.L143:
 2094              	.LBB22:
 953:Middlewares/Third_Party/LwIP/src/api/sockets.c ****         }
 2095              		.loc 1 953 11
 2096 01c0 00BF     		nop
 2097 01c2 00E0     		b	.L126
 2098              	.L144:
 2099              	.LBE22:
 2100              		.loc 1 1011 1
 2101 01c4 00BF     		nop
 2102              	.L126:
1012:Middlewares/Third_Party/LwIP/src/api/sockets.c ****   if ((recvd > 0) && !(flags & MSG_PEEK)) {
 2103              		.loc 1 1012 6
 2104 01c6 BB6A     		ldr	r3, [r7, #40]
 2105 01c8 002B     		cmp	r3, #0
 2106 01ca 0BDD     		ble	.L141
 2107              		.loc 1 1012 30 discriminator 1
ARM GAS  /tmp/ccsCUhT2.s 			page 56


 2108 01cc 3B68     		ldr	r3, [r7]
 2109 01ce 03F00103 		and	r3, r3, #1
 2110              		.loc 1 1012 19 discriminator 1
 2111 01d2 002B     		cmp	r3, #0
 2112 01d4 06D1     		bne	.L141
1013:Middlewares/Third_Party/LwIP/src/api/sockets.c ****     /* ensure window update after copying all data */
1014:Middlewares/Third_Party/LwIP/src/api/sockets.c ****     netconn_tcp_recvd(sock->conn, (size_t)recvd);
 2113              		.loc 1 1014 5
 2114 01d6 FB68     		ldr	r3, [r7, #12]
 2115 01d8 1B68     		ldr	r3, [r3]
 2116 01da BA6A     		ldr	r2, [r7, #40]
 2117 01dc 1146     		mov	r1, r2
 2118 01de 1846     		mov	r0, r3
 2119 01e0 FFF7FEFF 		bl	netconn_tcp_recvd
 2120              	.L141:
 2121              	.LBB23:
1015:Middlewares/Third_Party/LwIP/src/api/sockets.c ****   }
1016:Middlewares/Third_Party/LwIP/src/api/sockets.c ****   sock_set_errno(sock, 0);
 2122              		.loc 1 1016 3
 2123 01e4 0023     		movs	r3, #0
 2124 01e6 BB61     		str	r3, [r7, #24]
 2125 01e8 BB69     		ldr	r3, [r7, #24]
 2126 01ea 002B     		cmp	r3, #0
 2127 01ec 02D0     		beq	.L142
 2128              		.loc 1 1016 3 is_stmt 0 discriminator 1
 2129 01ee 084A     		ldr	r2, .L145+16
 2130 01f0 BB69     		ldr	r3, [r7, #24]
 2131 01f2 1360     		str	r3, [r2]
 2132              	.L142:
 2133              	.LBE23:
1017:Middlewares/Third_Party/LwIP/src/api/sockets.c ****   return recvd;
 2134              		.loc 1 1017 10 is_stmt 1
 2135 01f4 BB6A     		ldr	r3, [r7, #40]
 2136              	.L139:
1018:Middlewares/Third_Party/LwIP/src/api/sockets.c **** }
 2137              		.loc 1 1018 1
 2138 01f6 1846     		mov	r0, r3
 2139 01f8 3037     		adds	r7, r7, #48
 2140              	.LCFI88:
 2141              		.cfi_def_cfa_offset 8
 2142 01fa BD46     		mov	sp, r7
 2143              	.LCFI89:
 2144              		.cfi_def_cfa_register 13
 2145              		@ sp needed
 2146 01fc 80BD     		pop	{r7, pc}
 2147              	.L146:
 2148 01fe 00BF     		.align	2
 2149              	.L145:
 2150 0200 00000000 		.word	.LC0
 2151 0204 F4000000 		.word	.LC8
 2152 0208 50000000 		.word	.LC2
 2153 020c 04010000 		.word	.LC9
 2154 0210 00000000 		.word	errno
 2155 0214 28010000 		.word	.LC10
 2156 0218 34010000 		.word	.LC11
 2157 021c 5C010000 		.word	.LC12
 2158              		.cfi_endproc
ARM GAS  /tmp/ccsCUhT2.s 			page 57


 2159              	.LFE154:
 2161              		.section	.rodata
 2162              		.align	2
 2163              	.LC13:
 2164 016c 66726F6D 		.ascii	"fromaddr != NULL\000"
 2164      61646472 
 2164      20213D20 
 2164      4E554C4C 
 2164      00
 2165 017d 000000   		.align	2
 2166              	.LC14:
 2167 0180 66726F6D 		.ascii	"from != NULL\000"
 2167      20213D20 
 2167      4E554C4C 
 2167      00
 2168 018d 000000   		.align	2
 2169              	.LC15:
 2170 0190 66726F6D 		.ascii	"fromlen != NULL\000"
 2170      6C656E20 
 2170      213D204E 
 2170      554C4C00 
 2171              		.section	.text.lwip_sock_make_addr,"ax",%progbits
 2172              		.align	1
 2173              		.syntax unified
 2174              		.thumb
 2175              		.thumb_func
 2176              		.fpu fpv4-sp-d16
 2178              	lwip_sock_make_addr:
 2179              	.LFB155:
1019:Middlewares/Third_Party/LwIP/src/api/sockets.c **** #endif
1020:Middlewares/Third_Party/LwIP/src/api/sockets.c **** 
1021:Middlewares/Third_Party/LwIP/src/api/sockets.c **** /* Convert a netbuf's address data to struct sockaddr */
1022:Middlewares/Third_Party/LwIP/src/api/sockets.c **** static int
1023:Middlewares/Third_Party/LwIP/src/api/sockets.c **** lwip_sock_make_addr(struct netconn *conn, ip_addr_t *fromaddr, u16_t port,
1024:Middlewares/Third_Party/LwIP/src/api/sockets.c ****                     struct sockaddr *from, socklen_t *fromlen)
1025:Middlewares/Third_Party/LwIP/src/api/sockets.c **** {
 2180              		.loc 1 1025 1
 2181              		.cfi_startproc
 2182              		@ args = 4, pretend = 0, frame = 40
 2183              		@ frame_needed = 1, uses_anonymous_args = 0
 2184 0000 90B5     		push	{r4, r7, lr}
 2185              	.LCFI90:
 2186              		.cfi_def_cfa_offset 12
 2187              		.cfi_offset 4, -12
 2188              		.cfi_offset 7, -8
 2189              		.cfi_offset 14, -4
 2190 0002 8BB0     		sub	sp, sp, #44
 2191              	.LCFI91:
 2192              		.cfi_def_cfa_offset 56
 2193 0004 00AF     		add	r7, sp, #0
 2194              	.LCFI92:
 2195              		.cfi_def_cfa_register 7
 2196 0006 F860     		str	r0, [r7, #12]
 2197 0008 B960     		str	r1, [r7, #8]
 2198 000a 3B60     		str	r3, [r7]
 2199 000c 1346     		mov	r3, r2	@ movhi
 2200 000e FB80     		strh	r3, [r7, #6]	@ movhi
ARM GAS  /tmp/ccsCUhT2.s 			page 58


1026:Middlewares/Third_Party/LwIP/src/api/sockets.c ****   int truncated = 0;
 2201              		.loc 1 1026 7
 2202 0010 0023     		movs	r3, #0
 2203 0012 7B62     		str	r3, [r7, #36]
1027:Middlewares/Third_Party/LwIP/src/api/sockets.c ****   union sockaddr_aligned saddr;
1028:Middlewares/Third_Party/LwIP/src/api/sockets.c **** 
1029:Middlewares/Third_Party/LwIP/src/api/sockets.c ****   LWIP_UNUSED_ARG(conn);
1030:Middlewares/Third_Party/LwIP/src/api/sockets.c **** 
1031:Middlewares/Third_Party/LwIP/src/api/sockets.c ****   LWIP_ASSERT("fromaddr != NULL", fromaddr != NULL);
 2204              		.loc 1 1031 3
 2205 0014 BB68     		ldr	r3, [r7, #8]
 2206 0016 002B     		cmp	r3, #0
 2207 0018 06D1     		bne	.L148
 2208              		.loc 1 1031 3 is_stmt 0 discriminator 1
 2209 001a 2B4B     		ldr	r3, .L154
 2210 001c 40F20742 		movw	r2, #1031
 2211 0020 2A49     		ldr	r1, .L154+4
 2212 0022 2B48     		ldr	r0, .L154+8
 2213 0024 FFF7FEFF 		bl	printf
 2214              	.L148:
1032:Middlewares/Third_Party/LwIP/src/api/sockets.c ****   LWIP_ASSERT("from != NULL", from != NULL);
 2215              		.loc 1 1032 3 is_stmt 1
 2216 0028 3B68     		ldr	r3, [r7]
 2217 002a 002B     		cmp	r3, #0
 2218 002c 06D1     		bne	.L149
 2219              		.loc 1 1032 3 is_stmt 0 discriminator 1
 2220 002e 264B     		ldr	r3, .L154
 2221 0030 4FF48162 		mov	r2, #1032
 2222 0034 2749     		ldr	r1, .L154+12
 2223 0036 2648     		ldr	r0, .L154+8
 2224 0038 FFF7FEFF 		bl	printf
 2225              	.L149:
1033:Middlewares/Third_Party/LwIP/src/api/sockets.c ****   LWIP_ASSERT("fromlen != NULL", fromlen != NULL);
 2226              		.loc 1 1033 3 is_stmt 1
 2227 003c BB6B     		ldr	r3, [r7, #56]
 2228 003e 002B     		cmp	r3, #0
 2229 0040 06D1     		bne	.L150
 2230              		.loc 1 1033 3 is_stmt 0 discriminator 1
 2231 0042 214B     		ldr	r3, .L154
 2232 0044 40F20942 		movw	r2, #1033
 2233 0048 2349     		ldr	r1, .L154+16
 2234 004a 2148     		ldr	r0, .L154+8
 2235 004c FFF7FEFF 		bl	printf
 2236              	.L150:
1034:Middlewares/Third_Party/LwIP/src/api/sockets.c **** 
1035:Middlewares/Third_Party/LwIP/src/api/sockets.c **** #if LWIP_IPV4 && LWIP_IPV6
1036:Middlewares/Third_Party/LwIP/src/api/sockets.c ****   /* Dual-stack: Map IPv4 addresses to IPv4 mapped IPv6 */
1037:Middlewares/Third_Party/LwIP/src/api/sockets.c ****   if (NETCONNTYPE_ISIPV6(netconn_type(conn)) && IP_IS_V4(fromaddr)) {
1038:Middlewares/Third_Party/LwIP/src/api/sockets.c ****     ip4_2_ipv4_mapped_ipv6(ip_2_ip6(fromaddr), ip_2_ip4(fromaddr));
1039:Middlewares/Third_Party/LwIP/src/api/sockets.c ****     IP_SET_TYPE(fromaddr, IPADDR_TYPE_V6);
1040:Middlewares/Third_Party/LwIP/src/api/sockets.c ****   }
1041:Middlewares/Third_Party/LwIP/src/api/sockets.c **** #endif /* LWIP_IPV4 && LWIP_IPV6 */
1042:Middlewares/Third_Party/LwIP/src/api/sockets.c **** 
1043:Middlewares/Third_Party/LwIP/src/api/sockets.c ****   IPADDR_PORT_TO_SOCKADDR(&saddr, fromaddr, port);
 2237              		.loc 1 1043 3 is_stmt 1
 2238 0050 07F11403 		add	r3, r7, #20
 2239 0054 1022     		movs	r2, #16
ARM GAS  /tmp/ccsCUhT2.s 			page 59


 2240 0056 1A70     		strb	r2, [r3]
 2241 0058 07F11403 		add	r3, r7, #20
 2242 005c 0222     		movs	r2, #2
 2243 005e 5A70     		strb	r2, [r3, #1]
 2244 0060 07F11404 		add	r4, r7, #20
 2245 0064 FB88     		ldrh	r3, [r7, #6]
 2246 0066 1846     		mov	r0, r3
 2247 0068 FFF7FEFF 		bl	lwip_htons
 2248 006c 0346     		mov	r3, r0
 2249 006e 6380     		strh	r3, [r4, #2]	@ movhi
 2250 0070 07F11403 		add	r3, r7, #20
 2251 0074 BA68     		ldr	r2, [r7, #8]
 2252 0076 1268     		ldr	r2, [r2]
 2253 0078 5A60     		str	r2, [r3, #4]
 2254 007a 07F11403 		add	r3, r7, #20
 2255 007e 0833     		adds	r3, r3, #8
 2256 0080 0822     		movs	r2, #8
 2257 0082 0021     		movs	r1, #0
 2258 0084 1846     		mov	r0, r3
 2259 0086 FFF7FEFF 		bl	memset
1044:Middlewares/Third_Party/LwIP/src/api/sockets.c ****   if (*fromlen < saddr.sa.sa_len) {
 2260              		.loc 1 1044 7
 2261 008a BB6B     		ldr	r3, [r7, #56]
 2262 008c 1B68     		ldr	r3, [r3]
 2263              		.loc 1 1044 26
 2264 008e 3A7D     		ldrb	r2, [r7, #20]	@ zero_extendqisi2
 2265              		.loc 1 1044 6
 2266 0090 9342     		cmp	r3, r2
 2267 0092 02D2     		bcs	.L151
1045:Middlewares/Third_Party/LwIP/src/api/sockets.c ****     truncated = 1;
 2268              		.loc 1 1045 15
 2269 0094 0123     		movs	r3, #1
 2270 0096 7B62     		str	r3, [r7, #36]
 2271 0098 08E0     		b	.L152
 2272              	.L151:
1046:Middlewares/Third_Party/LwIP/src/api/sockets.c ****   } else if (*fromlen > saddr.sa.sa_len) {
 2273              		.loc 1 1046 14
 2274 009a BB6B     		ldr	r3, [r7, #56]
 2275 009c 1B68     		ldr	r3, [r3]
 2276              		.loc 1 1046 33
 2277 009e 3A7D     		ldrb	r2, [r7, #20]	@ zero_extendqisi2
 2278              		.loc 1 1046 13
 2279 00a0 9342     		cmp	r3, r2
 2280 00a2 03D9     		bls	.L152
1047:Middlewares/Third_Party/LwIP/src/api/sockets.c ****     *fromlen = saddr.sa.sa_len;
 2281              		.loc 1 1047 24
 2282 00a4 3B7D     		ldrb	r3, [r7, #20]	@ zero_extendqisi2
 2283 00a6 1A46     		mov	r2, r3
 2284              		.loc 1 1047 14
 2285 00a8 BB6B     		ldr	r3, [r7, #56]
 2286 00aa 1A60     		str	r2, [r3]
 2287              	.L152:
1048:Middlewares/Third_Party/LwIP/src/api/sockets.c ****   }
1049:Middlewares/Third_Party/LwIP/src/api/sockets.c ****   MEMCPY(from, &saddr, *fromlen);
 2288              		.loc 1 1049 3
 2289 00ac BB6B     		ldr	r3, [r7, #56]
 2290 00ae 1A68     		ldr	r2, [r3]
ARM GAS  /tmp/ccsCUhT2.s 			page 60


 2291 00b0 07F11403 		add	r3, r7, #20
 2292 00b4 1946     		mov	r1, r3
 2293 00b6 3868     		ldr	r0, [r7]
 2294 00b8 FFF7FEFF 		bl	memcpy
1050:Middlewares/Third_Party/LwIP/src/api/sockets.c ****   return truncated;
 2295              		.loc 1 1050 10
 2296 00bc 7B6A     		ldr	r3, [r7, #36]
1051:Middlewares/Third_Party/LwIP/src/api/sockets.c **** }
 2297              		.loc 1 1051 1
 2298 00be 1846     		mov	r0, r3
 2299 00c0 2C37     		adds	r7, r7, #44
 2300              	.LCFI93:
 2301              		.cfi_def_cfa_offset 12
 2302 00c2 BD46     		mov	sp, r7
 2303              	.LCFI94:
 2304              		.cfi_def_cfa_register 13
 2305              		@ sp needed
 2306 00c4 90BD     		pop	{r4, r7, pc}
 2307              	.L155:
 2308 00c6 00BF     		.align	2
 2309              	.L154:
 2310 00c8 00000000 		.word	.LC0
 2311 00cc 6C010000 		.word	.LC13
 2312 00d0 50000000 		.word	.LC2
 2313 00d4 80010000 		.word	.LC14
 2314 00d8 90010000 		.word	.LC15
 2315              		.cfi_endproc
 2316              	.LFE155:
 2318              		.section	.text.lwip_recv_tcp_from,"ax",%progbits
 2319              		.align	1
 2320              		.syntax unified
 2321              		.thumb
 2322              		.thumb_func
 2323              		.fpu fpv4-sp-d16
 2325              	lwip_recv_tcp_from:
 2326              	.LFB156:
1052:Middlewares/Third_Party/LwIP/src/api/sockets.c **** 
1053:Middlewares/Third_Party/LwIP/src/api/sockets.c **** #if LWIP_TCP
1054:Middlewares/Third_Party/LwIP/src/api/sockets.c **** /* Helper function to get a tcp socket's remote address info */
1055:Middlewares/Third_Party/LwIP/src/api/sockets.c **** static int
1056:Middlewares/Third_Party/LwIP/src/api/sockets.c **** lwip_recv_tcp_from(struct lwip_sock *sock, struct sockaddr *from, socklen_t *fromlen, const char *d
1057:Middlewares/Third_Party/LwIP/src/api/sockets.c **** {
 2327              		.loc 1 1057 1
 2328              		.cfi_startproc
 2329              		@ args = 8, pretend = 0, frame = 24
 2330              		@ frame_needed = 1, uses_anonymous_args = 0
 2331 0000 80B5     		push	{r7, lr}
 2332              	.LCFI95:
 2333              		.cfi_def_cfa_offset 8
 2334              		.cfi_offset 7, -8
 2335              		.cfi_offset 14, -4
 2336 0002 88B0     		sub	sp, sp, #32
 2337              	.LCFI96:
 2338              		.cfi_def_cfa_offset 40
 2339 0004 02AF     		add	r7, sp, #8
 2340              	.LCFI97:
 2341              		.cfi_def_cfa 7, 32
ARM GAS  /tmp/ccsCUhT2.s 			page 61


 2342 0006 F860     		str	r0, [r7, #12]
 2343 0008 B960     		str	r1, [r7, #8]
 2344 000a 7A60     		str	r2, [r7, #4]
 2345 000c 3B60     		str	r3, [r7]
1058:Middlewares/Third_Party/LwIP/src/api/sockets.c ****   if (sock == NULL) {
 2346              		.loc 1 1058 6
 2347 000e FB68     		ldr	r3, [r7, #12]
 2348 0010 002B     		cmp	r3, #0
 2349 0012 01D1     		bne	.L157
1059:Middlewares/Third_Party/LwIP/src/api/sockets.c ****     return 0;
 2350              		.loc 1 1059 12
 2351 0014 0023     		movs	r3, #0
 2352 0016 21E0     		b	.L158
 2353              	.L157:
1060:Middlewares/Third_Party/LwIP/src/api/sockets.c ****   }
1061:Middlewares/Third_Party/LwIP/src/api/sockets.c ****   LWIP_UNUSED_ARG(dbg_fn);
1062:Middlewares/Third_Party/LwIP/src/api/sockets.c ****   LWIP_UNUSED_ARG(dbg_s);
1063:Middlewares/Third_Party/LwIP/src/api/sockets.c ****   LWIP_UNUSED_ARG(dbg_ret);
1064:Middlewares/Third_Party/LwIP/src/api/sockets.c **** 
1065:Middlewares/Third_Party/LwIP/src/api/sockets.c **** #if !SOCKETS_DEBUG
1066:Middlewares/Third_Party/LwIP/src/api/sockets.c ****   if (from && fromlen)
 2354              		.loc 1 1066 6
 2355 0018 BB68     		ldr	r3, [r7, #8]
 2356 001a 002B     		cmp	r3, #0
 2357 001c 1DD0     		beq	.L159
 2358              		.loc 1 1066 12 discriminator 1
 2359 001e 7B68     		ldr	r3, [r7, #4]
 2360 0020 002B     		cmp	r3, #0
 2361 0022 1AD0     		beq	.L159
 2362              	.LBB24:
1067:Middlewares/Third_Party/LwIP/src/api/sockets.c **** #endif /* !SOCKETS_DEBUG */
1068:Middlewares/Third_Party/LwIP/src/api/sockets.c ****   {
1069:Middlewares/Third_Party/LwIP/src/api/sockets.c ****     /* get remote addr/port from tcp_pcb */
1070:Middlewares/Third_Party/LwIP/src/api/sockets.c ****     u16_t port;
1071:Middlewares/Third_Party/LwIP/src/api/sockets.c ****     ip_addr_t tmpaddr;
1072:Middlewares/Third_Party/LwIP/src/api/sockets.c ****     netconn_getaddr(sock->conn, &tmpaddr, &port, 0);
 2363              		.loc 1 1072 5
 2364 0024 FB68     		ldr	r3, [r7, #12]
 2365 0026 1868     		ldr	r0, [r3]
 2366 0028 07F11602 		add	r2, r7, #22
 2367 002c 07F11001 		add	r1, r7, #16
 2368 0030 0023     		movs	r3, #0
 2369 0032 FFF7FEFF 		bl	netconn_getaddr
1073:Middlewares/Third_Party/LwIP/src/api/sockets.c ****     LWIP_DEBUGF(SOCKETS_DEBUG, ("%s(%d):  addr=", dbg_fn, dbg_s));
1074:Middlewares/Third_Party/LwIP/src/api/sockets.c ****     ip_addr_debug_print_val(SOCKETS_DEBUG, tmpaddr);
1075:Middlewares/Third_Party/LwIP/src/api/sockets.c ****     LWIP_DEBUGF(SOCKETS_DEBUG, (" port=%"U16_F" len=%d\n", port, (int)dbg_ret));
1076:Middlewares/Third_Party/LwIP/src/api/sockets.c ****     if (from && fromlen) {
 2370              		.loc 1 1076 8
 2371 0036 BB68     		ldr	r3, [r7, #8]
 2372 0038 002B     		cmp	r3, #0
 2373 003a 0ED0     		beq	.L159
 2374              		.loc 1 1076 14 discriminator 1
 2375 003c 7B68     		ldr	r3, [r7, #4]
 2376 003e 002B     		cmp	r3, #0
 2377 0040 0BD0     		beq	.L159
1077:Middlewares/Third_Party/LwIP/src/api/sockets.c ****       return lwip_sock_make_addr(sock->conn, &tmpaddr, port, from, fromlen);
 2378              		.loc 1 1077 14
ARM GAS  /tmp/ccsCUhT2.s 			page 62


 2379 0042 FB68     		ldr	r3, [r7, #12]
 2380 0044 1868     		ldr	r0, [r3]
 2381 0046 FA8A     		ldrh	r2, [r7, #22]
 2382 0048 07F11001 		add	r1, r7, #16
 2383 004c 7B68     		ldr	r3, [r7, #4]
 2384 004e 0093     		str	r3, [sp]
 2385 0050 BB68     		ldr	r3, [r7, #8]
 2386 0052 FFF7FEFF 		bl	lwip_sock_make_addr
 2387 0056 0346     		mov	r3, r0
 2388 0058 00E0     		b	.L158
 2389              	.L159:
 2390              	.LBE24:
1078:Middlewares/Third_Party/LwIP/src/api/sockets.c ****     }
1079:Middlewares/Third_Party/LwIP/src/api/sockets.c ****   }
1080:Middlewares/Third_Party/LwIP/src/api/sockets.c ****   return 0;
 2391              		.loc 1 1080 10
 2392 005a 0023     		movs	r3, #0
 2393              	.L158:
1081:Middlewares/Third_Party/LwIP/src/api/sockets.c **** }
 2394              		.loc 1 1081 1
 2395 005c 1846     		mov	r0, r3
 2396 005e 1837     		adds	r7, r7, #24
 2397              	.LCFI98:
 2398              		.cfi_def_cfa_offset 8
 2399 0060 BD46     		mov	sp, r7
 2400              	.LCFI99:
 2401              		.cfi_def_cfa_register 13
 2402              		@ sp needed
 2403 0062 80BD     		pop	{r7, pc}
 2404              		.cfi_endproc
 2405              	.LFE156:
 2407              		.section	.rodata
 2408              		.align	2
 2409              	.LC16:
 2410 01a0 6C776970 		.ascii	"lwip_recvfrom_udp_raw: invalid arguments\000"
 2410      5F726563 
 2410      7666726F 
 2410      6D5F7564 
 2410      705F7261 
 2411 01c9 000000   		.align	2
 2412              	.LC17:
 2413 01cc 62756620 		.ascii	"buf != NULL\000"
 2413      213D204E 
 2413      554C4C00 
 2414              		.section	.text.lwip_recvfrom_udp_raw,"ax",%progbits
 2415              		.align	1
 2416              		.syntax unified
 2417              		.thumb
 2418              		.thumb_func
 2419              		.fpu fpv4-sp-d16
 2421              	lwip_recvfrom_udp_raw:
 2422              	.LFB157:
1082:Middlewares/Third_Party/LwIP/src/api/sockets.c **** #endif
1083:Middlewares/Third_Party/LwIP/src/api/sockets.c **** 
1084:Middlewares/Third_Party/LwIP/src/api/sockets.c **** /* Helper function to receive a netbuf from a udp or raw netconn.
1085:Middlewares/Third_Party/LwIP/src/api/sockets.c ****  * Keeps sock->lastdata for peeking.
1086:Middlewares/Third_Party/LwIP/src/api/sockets.c ****  */
ARM GAS  /tmp/ccsCUhT2.s 			page 63


1087:Middlewares/Third_Party/LwIP/src/api/sockets.c **** static err_t
1088:Middlewares/Third_Party/LwIP/src/api/sockets.c **** lwip_recvfrom_udp_raw(struct lwip_sock *sock, int flags, struct msghdr *msg, u16_t *datagram_len, i
1089:Middlewares/Third_Party/LwIP/src/api/sockets.c **** {
 2423              		.loc 1 1089 1
 2424              		.cfi_startproc
 2425              		@ args = 4, pretend = 0, frame = 40
 2426              		@ frame_needed = 1, uses_anonymous_args = 0
 2427 0000 90B5     		push	{r4, r7, lr}
 2428              	.LCFI100:
 2429              		.cfi_def_cfa_offset 12
 2430              		.cfi_offset 4, -12
 2431              		.cfi_offset 7, -8
 2432              		.cfi_offset 14, -4
 2433 0002 8DB0     		sub	sp, sp, #52
 2434              	.LCFI101:
 2435              		.cfi_def_cfa_offset 64
 2436 0004 02AF     		add	r7, sp, #8
 2437              	.LCFI102:
 2438              		.cfi_def_cfa 7, 56
 2439 0006 F860     		str	r0, [r7, #12]
 2440 0008 B960     		str	r1, [r7, #8]
 2441 000a 7A60     		str	r2, [r7, #4]
 2442 000c 3B60     		str	r3, [r7]
1090:Middlewares/Third_Party/LwIP/src/api/sockets.c ****   struct netbuf *buf;
1091:Middlewares/Third_Party/LwIP/src/api/sockets.c ****   u8_t apiflags;
1092:Middlewares/Third_Party/LwIP/src/api/sockets.c ****   err_t err;
1093:Middlewares/Third_Party/LwIP/src/api/sockets.c ****   u16_t buflen, copylen, copied;
1094:Middlewares/Third_Party/LwIP/src/api/sockets.c ****   int i;
1095:Middlewares/Third_Party/LwIP/src/api/sockets.c **** 
1096:Middlewares/Third_Party/LwIP/src/api/sockets.c ****   LWIP_UNUSED_ARG(dbg_s);
1097:Middlewares/Third_Party/LwIP/src/api/sockets.c ****   LWIP_ERROR("lwip_recvfrom_udp_raw: invalid arguments", (msg->msg_iov != NULL) || (msg->msg_iovlen
 2443              		.loc 1 1097 3
 2444 000e 7B68     		ldr	r3, [r7, #4]
 2445 0010 9B68     		ldr	r3, [r3, #8]
 2446 0012 002B     		cmp	r3, #0
 2447 0014 0DD1     		bne	.L162
 2448              		.loc 1 1097 3 is_stmt 0 discriminator 1
 2449 0016 7B68     		ldr	r3, [r7, #4]
 2450 0018 DB68     		ldr	r3, [r3, #12]
 2451 001a 002B     		cmp	r3, #0
 2452 001c 09DD     		ble	.L162
 2453              		.loc 1 1097 3 discriminator 2
 2454 001e 5E4B     		ldr	r3, .L179
 2455 0020 40F24942 		movw	r2, #1097
 2456 0024 5D49     		ldr	r1, .L179+4
 2457 0026 5E48     		ldr	r0, .L179+8
 2458 0028 FFF7FEFF 		bl	printf
 2459 002c 6FF00F03 		mvn	r3, #15
 2460 0030 ADE0     		b	.L178
 2461              	.L162:
1098:Middlewares/Third_Party/LwIP/src/api/sockets.c **** 
1099:Middlewares/Third_Party/LwIP/src/api/sockets.c ****   if (flags & MSG_DONTWAIT) {
 2462              		.loc 1 1099 13 is_stmt 1
 2463 0032 BB68     		ldr	r3, [r7, #8]
 2464 0034 03F00803 		and	r3, r3, #8
 2465              		.loc 1 1099 6
 2466 0038 002B     		cmp	r3, #0
ARM GAS  /tmp/ccsCUhT2.s 			page 64


 2467 003a 03D0     		beq	.L164
1100:Middlewares/Third_Party/LwIP/src/api/sockets.c ****     apiflags = NETCONN_DONTBLOCK;
 2468              		.loc 1 1100 14
 2469 003c 0423     		movs	r3, #4
 2470 003e 87F82730 		strb	r3, [r7, #39]
 2471 0042 02E0     		b	.L165
 2472              	.L164:
1101:Middlewares/Third_Party/LwIP/src/api/sockets.c ****   } else {
1102:Middlewares/Third_Party/LwIP/src/api/sockets.c ****     apiflags = 0;
 2473              		.loc 1 1102 14
 2474 0044 0023     		movs	r3, #0
 2475 0046 87F82730 		strb	r3, [r7, #39]
 2476              	.L165:
1103:Middlewares/Third_Party/LwIP/src/api/sockets.c ****   }
1104:Middlewares/Third_Party/LwIP/src/api/sockets.c **** 
1105:Middlewares/Third_Party/LwIP/src/api/sockets.c ****   LWIP_DEBUGF(SOCKETS_DEBUG, ("lwip_recvfrom_udp_raw[UDP/RAW]: top sock->lastdata=%p\n", (void *)so
1106:Middlewares/Third_Party/LwIP/src/api/sockets.c ****   /* Check if there is data left from the last recv operation. */
1107:Middlewares/Third_Party/LwIP/src/api/sockets.c ****   buf = sock->lastdata.netbuf;
 2477              		.loc 1 1107 23
 2478 004a FB68     		ldr	r3, [r7, #12]
 2479 004c 5B68     		ldr	r3, [r3, #4]
 2480              		.loc 1 1107 7
 2481 004e 3B61     		str	r3, [r7, #16]
1108:Middlewares/Third_Party/LwIP/src/api/sockets.c ****   if (buf == NULL) {
 2482              		.loc 1 1108 11
 2483 0050 3B69     		ldr	r3, [r7, #16]
 2484              		.loc 1 1108 6
 2485 0052 002B     		cmp	r3, #0
 2486 0054 1ED1     		bne	.L166
1109:Middlewares/Third_Party/LwIP/src/api/sockets.c ****     /* No data was left from the previous operation, so we try to get
1110:Middlewares/Third_Party/LwIP/src/api/sockets.c ****         some from the network. */
1111:Middlewares/Third_Party/LwIP/src/api/sockets.c ****     err = netconn_recv_udp_raw_netbuf_flags(sock->conn, &buf, apiflags);
 2487              		.loc 1 1111 11
 2488 0056 FB68     		ldr	r3, [r7, #12]
 2489 0058 1B68     		ldr	r3, [r3]
 2490 005a 97F82720 		ldrb	r2, [r7, #39]	@ zero_extendqisi2
 2491 005e 07F11001 		add	r1, r7, #16
 2492 0062 1846     		mov	r0, r3
 2493 0064 FFF7FEFF 		bl	netconn_recv_udp_raw_netbuf_flags
 2494 0068 0346     		mov	r3, r0
 2495 006a FB76     		strb	r3, [r7, #27]
1112:Middlewares/Third_Party/LwIP/src/api/sockets.c ****     LWIP_DEBUGF(SOCKETS_DEBUG, ("lwip_recvfrom_udp_raw[UDP/RAW]: netconn_recv err=%d, netbuf=%p\n",
1113:Middlewares/Third_Party/LwIP/src/api/sockets.c ****                                 err, (void *)buf));
1114:Middlewares/Third_Party/LwIP/src/api/sockets.c **** 
1115:Middlewares/Third_Party/LwIP/src/api/sockets.c ****     if (err != ERR_OK) {
 2496              		.loc 1 1115 8
 2497 006c 97F91B30 		ldrsb	r3, [r7, #27]
 2498 0070 002B     		cmp	r3, #0
 2499 0072 02D0     		beq	.L167
1116:Middlewares/Third_Party/LwIP/src/api/sockets.c ****       return err;
 2500              		.loc 1 1116 14
 2501 0074 97F91B30 		ldrsb	r3, [r7, #27]
 2502 0078 89E0     		b	.L178
 2503              	.L167:
1117:Middlewares/Third_Party/LwIP/src/api/sockets.c ****     }
1118:Middlewares/Third_Party/LwIP/src/api/sockets.c ****     LWIP_ASSERT("buf != NULL", buf != NULL);
 2504              		.loc 1 1118 5
ARM GAS  /tmp/ccsCUhT2.s 			page 65


 2505 007a 3B69     		ldr	r3, [r7, #16]
 2506 007c 002B     		cmp	r3, #0
 2507 007e 06D1     		bne	.L168
 2508              		.loc 1 1118 5 is_stmt 0 discriminator 1
 2509 0080 454B     		ldr	r3, .L179
 2510 0082 40F25E42 		movw	r2, #1118
 2511 0086 4749     		ldr	r1, .L179+12
 2512 0088 4548     		ldr	r0, .L179+8
 2513 008a FFF7FEFF 		bl	printf
 2514              	.L168:
1119:Middlewares/Third_Party/LwIP/src/api/sockets.c ****     sock->lastdata.netbuf = buf;
 2515              		.loc 1 1119 27 is_stmt 1
 2516 008e 3A69     		ldr	r2, [r7, #16]
 2517 0090 FB68     		ldr	r3, [r7, #12]
 2518 0092 5A60     		str	r2, [r3, #4]
 2519              	.L166:
1120:Middlewares/Third_Party/LwIP/src/api/sockets.c ****   }
1121:Middlewares/Third_Party/LwIP/src/api/sockets.c ****   buflen = buf->p->tot_len;
 2520              		.loc 1 1121 15
 2521 0094 3B69     		ldr	r3, [r7, #16]
 2522 0096 1B68     		ldr	r3, [r3]
 2523              		.loc 1 1121 10
 2524 0098 1B89     		ldrh	r3, [r3, #8]	@ movhi
 2525 009a 3B83     		strh	r3, [r7, #24]	@ movhi
1122:Middlewares/Third_Party/LwIP/src/api/sockets.c ****   LWIP_DEBUGF(SOCKETS_DEBUG, ("lwip_recvfrom_udp_raw: buflen=%"U16_F"\n", buflen));
1123:Middlewares/Third_Party/LwIP/src/api/sockets.c **** 
1124:Middlewares/Third_Party/LwIP/src/api/sockets.c ****   copied = 0;
 2526              		.loc 1 1124 10
 2527 009c 0023     		movs	r3, #0
 2528 009e 7B84     		strh	r3, [r7, #34]	@ movhi
1125:Middlewares/Third_Party/LwIP/src/api/sockets.c ****   /* copy the pbuf payload into the iovs */
1126:Middlewares/Third_Party/LwIP/src/api/sockets.c ****   for (i = 0; (i < msg->msg_iovlen) && (copied < buflen); i++) {
 2529              		.loc 1 1126 10
 2530 00a0 0023     		movs	r3, #0
 2531 00a2 FB61     		str	r3, [r7, #28]
 2532              		.loc 1 1126 3
 2533 00a4 29E0     		b	.L169
 2534              	.L173:
 2535              	.LBB25:
1127:Middlewares/Third_Party/LwIP/src/api/sockets.c ****     u16_t len_left = (u16_t)(buflen - copied);
 2536              		.loc 1 1127 11
 2537 00a6 3A8B     		ldrh	r2, [r7, #24]	@ movhi
 2538 00a8 7B8C     		ldrh	r3, [r7, #34]	@ movhi
 2539 00aa D31A     		subs	r3, r2, r3
 2540 00ac FB82     		strh	r3, [r7, #22]	@ movhi
1128:Middlewares/Third_Party/LwIP/src/api/sockets.c ****     if (msg->msg_iov[i].iov_len > len_left) {
 2541              		.loc 1 1128 12
 2542 00ae 7B68     		ldr	r3, [r7, #4]
 2543 00b0 9A68     		ldr	r2, [r3, #8]
 2544              		.loc 1 1128 21
 2545 00b2 FB69     		ldr	r3, [r7, #28]
 2546 00b4 DB00     		lsls	r3, r3, #3
 2547 00b6 1344     		add	r3, r3, r2
 2548              		.loc 1 1128 24
 2549 00b8 5A68     		ldr	r2, [r3, #4]
 2550              		.loc 1 1128 33
 2551 00ba FB8A     		ldrh	r3, [r7, #22]
ARM GAS  /tmp/ccsCUhT2.s 			page 66


 2552              		.loc 1 1128 8
 2553 00bc 9A42     		cmp	r2, r3
 2554 00be 02D9     		bls	.L170
1129:Middlewares/Third_Party/LwIP/src/api/sockets.c ****       copylen = len_left;
 2555              		.loc 1 1129 15
 2556 00c0 FB8A     		ldrh	r3, [r7, #22]	@ movhi
 2557 00c2 BB84     		strh	r3, [r7, #36]	@ movhi
 2558 00c4 06E0     		b	.L171
 2559              	.L170:
1130:Middlewares/Third_Party/LwIP/src/api/sockets.c ****     } else {
1131:Middlewares/Third_Party/LwIP/src/api/sockets.c ****       copylen = (u16_t)msg->msg_iov[i].iov_len;
 2560              		.loc 1 1131 27
 2561 00c6 7B68     		ldr	r3, [r7, #4]
 2562 00c8 9A68     		ldr	r2, [r3, #8]
 2563              		.loc 1 1131 36
 2564 00ca FB69     		ldr	r3, [r7, #28]
 2565 00cc DB00     		lsls	r3, r3, #3
 2566 00ce 1344     		add	r3, r3, r2
 2567              		.loc 1 1131 39
 2568 00d0 5B68     		ldr	r3, [r3, #4]
 2569              		.loc 1 1131 15
 2570 00d2 BB84     		strh	r3, [r7, #36]	@ movhi
 2571              	.L171:
1132:Middlewares/Third_Party/LwIP/src/api/sockets.c ****     }
1133:Middlewares/Third_Party/LwIP/src/api/sockets.c **** 
1134:Middlewares/Third_Party/LwIP/src/api/sockets.c ****     /* copy the contents of the received buffer into
1135:Middlewares/Third_Party/LwIP/src/api/sockets.c ****         the supplied memory buffer */
1136:Middlewares/Third_Party/LwIP/src/api/sockets.c ****     pbuf_copy_partial(buf->p, (u8_t *)msg->msg_iov[i].iov_base, copylen, copied);
 2572              		.loc 1 1136 26 discriminator 2
 2573 00d4 3B69     		ldr	r3, [r7, #16]
 2574 00d6 1868     		ldr	r0, [r3]
 2575              		.loc 1 1136 42 discriminator 2
 2576 00d8 7B68     		ldr	r3, [r7, #4]
 2577 00da 9A68     		ldr	r2, [r3, #8]
 2578              		.loc 1 1136 51 discriminator 2
 2579 00dc FB69     		ldr	r3, [r7, #28]
 2580 00de DB00     		lsls	r3, r3, #3
 2581 00e0 1344     		add	r3, r3, r2
 2582              		.loc 1 1136 5 discriminator 2
 2583 00e2 1968     		ldr	r1, [r3]
 2584 00e4 7B8C     		ldrh	r3, [r7, #34]
 2585 00e6 BA8C     		ldrh	r2, [r7, #36]
 2586 00e8 FFF7FEFF 		bl	pbuf_copy_partial
1137:Middlewares/Third_Party/LwIP/src/api/sockets.c ****     copied = (u16_t)(copied + copylen);
 2587              		.loc 1 1137 12 discriminator 2
 2588 00ec 7A8C     		ldrh	r2, [r7, #34]	@ movhi
 2589 00ee BB8C     		ldrh	r3, [r7, #36]	@ movhi
 2590 00f0 1344     		add	r3, r3, r2
 2591 00f2 7B84     		strh	r3, [r7, #34]	@ movhi
 2592              	.LBE25:
1126:Middlewares/Third_Party/LwIP/src/api/sockets.c ****     u16_t len_left = (u16_t)(buflen - copied);
 2593              		.loc 1 1126 60 discriminator 2
 2594 00f4 FB69     		ldr	r3, [r7, #28]
 2595 00f6 0133     		adds	r3, r3, #1
 2596 00f8 FB61     		str	r3, [r7, #28]
 2597              	.L169:
1126:Middlewares/Third_Party/LwIP/src/api/sockets.c ****     u16_t len_left = (u16_t)(buflen - copied);
ARM GAS  /tmp/ccsCUhT2.s 			page 67


 2598              		.loc 1 1126 23 discriminator 1
 2599 00fa 7B68     		ldr	r3, [r7, #4]
 2600 00fc DB68     		ldr	r3, [r3, #12]
1126:Middlewares/Third_Party/LwIP/src/api/sockets.c ****     u16_t len_left = (u16_t)(buflen - copied);
 2601              		.loc 1 1126 3 discriminator 1
 2602 00fe FA69     		ldr	r2, [r7, #28]
 2603 0100 9A42     		cmp	r2, r3
 2604 0102 03DA     		bge	.L172
1126:Middlewares/Third_Party/LwIP/src/api/sockets.c ****     u16_t len_left = (u16_t)(buflen - copied);
 2605              		.loc 1 1126 37 discriminator 3
 2606 0104 7A8C     		ldrh	r2, [r7, #34]
 2607 0106 3B8B     		ldrh	r3, [r7, #24]
 2608 0108 9A42     		cmp	r2, r3
 2609 010a CCD3     		bcc	.L173
 2610              	.L172:
1138:Middlewares/Third_Party/LwIP/src/api/sockets.c ****   }
1139:Middlewares/Third_Party/LwIP/src/api/sockets.c **** 
1140:Middlewares/Third_Party/LwIP/src/api/sockets.c ****   /* Check to see from where the data was.*/
1141:Middlewares/Third_Party/LwIP/src/api/sockets.c **** #if !SOCKETS_DEBUG
1142:Middlewares/Third_Party/LwIP/src/api/sockets.c ****   if (msg->msg_name && msg->msg_namelen)
 2611              		.loc 1 1142 10
 2612 010c 7B68     		ldr	r3, [r7, #4]
 2613 010e 1B68     		ldr	r3, [r3]
 2614              		.loc 1 1142 6
 2615 0110 002B     		cmp	r3, #0
 2616 0112 1AD0     		beq	.L174
 2617              		.loc 1 1142 27 discriminator 1
 2618 0114 7B68     		ldr	r3, [r7, #4]
 2619 0116 5B68     		ldr	r3, [r3, #4]
 2620              		.loc 1 1142 21 discriminator 1
 2621 0118 002B     		cmp	r3, #0
 2622 011a 16D0     		beq	.L174
1143:Middlewares/Third_Party/LwIP/src/api/sockets.c **** #endif /* !SOCKETS_DEBUG */
1144:Middlewares/Third_Party/LwIP/src/api/sockets.c ****   {
1145:Middlewares/Third_Party/LwIP/src/api/sockets.c ****     LWIP_DEBUGF(SOCKETS_DEBUG, ("lwip_recvfrom_udp_raw(%d):  addr=", dbg_s));
1146:Middlewares/Third_Party/LwIP/src/api/sockets.c ****     ip_addr_debug_print_val(SOCKETS_DEBUG, *netbuf_fromaddr(buf));
1147:Middlewares/Third_Party/LwIP/src/api/sockets.c ****     LWIP_DEBUGF(SOCKETS_DEBUG, (" port=%"U16_F" len=%d\n", netbuf_fromport(buf), copied));
1148:Middlewares/Third_Party/LwIP/src/api/sockets.c ****     if (msg->msg_name && msg->msg_namelen) {
 2623              		.loc 1 1148 12
 2624 011c 7B68     		ldr	r3, [r7, #4]
 2625 011e 1B68     		ldr	r3, [r3]
 2626              		.loc 1 1148 8
 2627 0120 002B     		cmp	r3, #0
 2628 0122 12D0     		beq	.L174
 2629              		.loc 1 1148 29 discriminator 1
 2630 0124 7B68     		ldr	r3, [r7, #4]
 2631 0126 5B68     		ldr	r3, [r3, #4]
 2632              		.loc 1 1148 23 discriminator 1
 2633 0128 002B     		cmp	r3, #0
 2634 012a 0ED0     		beq	.L174
1149:Middlewares/Third_Party/LwIP/src/api/sockets.c ****       lwip_sock_make_addr(sock->conn, netbuf_fromaddr(buf), netbuf_fromport(buf),
 2635              		.loc 1 1149 7
 2636 012c FB68     		ldr	r3, [r7, #12]
 2637 012e 1868     		ldr	r0, [r3]
 2638              		.loc 1 1149 39
 2639 0130 3B69     		ldr	r3, [r7, #16]
 2640              		.loc 1 1149 7
ARM GAS  /tmp/ccsCUhT2.s 			page 68


 2641 0132 03F10801 		add	r1, r3, #8
 2642              		.loc 1 1149 61
 2643 0136 3B69     		ldr	r3, [r7, #16]
 2644              		.loc 1 1149 7
 2645 0138 9A89     		ldrh	r2, [r3, #12]
1150:Middlewares/Third_Party/LwIP/src/api/sockets.c ****                           (struct sockaddr *)msg->msg_name, &msg->msg_namelen);
 2646              		.loc 1 1150 49
 2647 013a 7B68     		ldr	r3, [r7, #4]
 2648 013c 1C68     		ldr	r4, [r3]
1149:Middlewares/Third_Party/LwIP/src/api/sockets.c ****       lwip_sock_make_addr(sock->conn, netbuf_fromaddr(buf), netbuf_fromport(buf),
 2649              		.loc 1 1149 7
 2650 013e 7B68     		ldr	r3, [r7, #4]
 2651 0140 0433     		adds	r3, r3, #4
 2652 0142 0093     		str	r3, [sp]
 2653 0144 2346     		mov	r3, r4
 2654 0146 FFF7FEFF 		bl	lwip_sock_make_addr
 2655              	.L174:
1151:Middlewares/Third_Party/LwIP/src/api/sockets.c ****     }
1152:Middlewares/Third_Party/LwIP/src/api/sockets.c ****   }
1153:Middlewares/Third_Party/LwIP/src/api/sockets.c **** 
1154:Middlewares/Third_Party/LwIP/src/api/sockets.c ****   /* Initialize flag output */
1155:Middlewares/Third_Party/LwIP/src/api/sockets.c ****   msg->msg_flags = 0;
 2656              		.loc 1 1155 18
 2657 014a 7B68     		ldr	r3, [r7, #4]
 2658 014c 0022     		movs	r2, #0
 2659 014e 9A61     		str	r2, [r3, #24]
1156:Middlewares/Third_Party/LwIP/src/api/sockets.c **** 
1157:Middlewares/Third_Party/LwIP/src/api/sockets.c ****   if (msg->msg_control) {
 2660              		.loc 1 1157 10
 2661 0150 7B68     		ldr	r3, [r7, #4]
 2662 0152 1B69     		ldr	r3, [r3, #16]
 2663              		.loc 1 1157 6
 2664 0154 002B     		cmp	r3, #0
 2665 0156 07D0     		beq	.L175
 2666              	.LBB26:
1158:Middlewares/Third_Party/LwIP/src/api/sockets.c ****     u8_t wrote_msg = 0;
 2667              		.loc 1 1158 10
 2668 0158 0023     		movs	r3, #0
 2669 015a 7B75     		strb	r3, [r7, #21]
1159:Middlewares/Third_Party/LwIP/src/api/sockets.c **** #if LWIP_NETBUF_RECVINFO
1160:Middlewares/Third_Party/LwIP/src/api/sockets.c ****     /* Check if packet info was recorded */
1161:Middlewares/Third_Party/LwIP/src/api/sockets.c ****     if (buf->flags & NETBUF_FLAG_DESTADDR) {
1162:Middlewares/Third_Party/LwIP/src/api/sockets.c ****       if (IP_IS_V4(&buf->toaddr)) {
1163:Middlewares/Third_Party/LwIP/src/api/sockets.c **** #if LWIP_IPV4
1164:Middlewares/Third_Party/LwIP/src/api/sockets.c ****         if (msg->msg_controllen >= CMSG_SPACE(sizeof(struct in_pktinfo))) {
1165:Middlewares/Third_Party/LwIP/src/api/sockets.c ****           struct cmsghdr *chdr = CMSG_FIRSTHDR(msg); /* This will always return a header!! */
1166:Middlewares/Third_Party/LwIP/src/api/sockets.c ****           struct in_pktinfo *pkti = (struct in_pktinfo *)CMSG_DATA(chdr);
1167:Middlewares/Third_Party/LwIP/src/api/sockets.c ****           chdr->cmsg_level = IPPROTO_IP;
1168:Middlewares/Third_Party/LwIP/src/api/sockets.c ****           chdr->cmsg_type = IP_PKTINFO;
1169:Middlewares/Third_Party/LwIP/src/api/sockets.c ****           chdr->cmsg_len = CMSG_LEN(sizeof(struct in_pktinfo));
1170:Middlewares/Third_Party/LwIP/src/api/sockets.c ****           pkti->ipi_ifindex = buf->p->if_idx;
1171:Middlewares/Third_Party/LwIP/src/api/sockets.c ****           inet_addr_from_ip4addr(&pkti->ipi_addr, ip_2_ip4(netbuf_destaddr(buf)));
1172:Middlewares/Third_Party/LwIP/src/api/sockets.c ****           msg->msg_controllen = CMSG_SPACE(sizeof(struct in_pktinfo));
1173:Middlewares/Third_Party/LwIP/src/api/sockets.c ****           wrote_msg = 1;
1174:Middlewares/Third_Party/LwIP/src/api/sockets.c ****         } else {
1175:Middlewares/Third_Party/LwIP/src/api/sockets.c ****           msg->msg_flags |= MSG_CTRUNC;
1176:Middlewares/Third_Party/LwIP/src/api/sockets.c ****         }
ARM GAS  /tmp/ccsCUhT2.s 			page 69


1177:Middlewares/Third_Party/LwIP/src/api/sockets.c **** #endif /* LWIP_IPV4 */
1178:Middlewares/Third_Party/LwIP/src/api/sockets.c ****       }
1179:Middlewares/Third_Party/LwIP/src/api/sockets.c ****     }
1180:Middlewares/Third_Party/LwIP/src/api/sockets.c **** #endif /* LWIP_NETBUF_RECVINFO */
1181:Middlewares/Third_Party/LwIP/src/api/sockets.c **** 
1182:Middlewares/Third_Party/LwIP/src/api/sockets.c ****     if (!wrote_msg) {
 2670              		.loc 1 1182 8
 2671 015c 7B7D     		ldrb	r3, [r7, #21]	@ zero_extendqisi2
 2672 015e 002B     		cmp	r3, #0
 2673 0160 02D1     		bne	.L175
1183:Middlewares/Third_Party/LwIP/src/api/sockets.c ****       msg->msg_controllen = 0;
 2674              		.loc 1 1183 27
 2675 0162 7B68     		ldr	r3, [r7, #4]
 2676 0164 0022     		movs	r2, #0
 2677 0166 5A61     		str	r2, [r3, #20]
 2678              	.L175:
 2679              	.LBE26:
1184:Middlewares/Third_Party/LwIP/src/api/sockets.c ****     }
1185:Middlewares/Third_Party/LwIP/src/api/sockets.c ****   }
1186:Middlewares/Third_Party/LwIP/src/api/sockets.c **** 
1187:Middlewares/Third_Party/LwIP/src/api/sockets.c ****   /* If we don't peek the incoming message: zero lastdata pointer and free the netbuf */
1188:Middlewares/Third_Party/LwIP/src/api/sockets.c ****   if ((flags & MSG_PEEK) == 0) {
 2680              		.loc 1 1188 14
 2681 0168 BB68     		ldr	r3, [r7, #8]
 2682 016a 03F00103 		and	r3, r3, #1
 2683              		.loc 1 1188 6
 2684 016e 002B     		cmp	r3, #0
 2685 0170 06D1     		bne	.L176
1189:Middlewares/Third_Party/LwIP/src/api/sockets.c ****     sock->lastdata.netbuf = NULL;
 2686              		.loc 1 1189 27
 2687 0172 FB68     		ldr	r3, [r7, #12]
 2688 0174 0022     		movs	r2, #0
 2689 0176 5A60     		str	r2, [r3, #4]
1190:Middlewares/Third_Party/LwIP/src/api/sockets.c ****     netbuf_delete(buf);
 2690              		.loc 1 1190 5
 2691 0178 3B69     		ldr	r3, [r7, #16]
 2692 017a 1846     		mov	r0, r3
 2693 017c FFF7FEFF 		bl	netbuf_delete
 2694              	.L176:
1191:Middlewares/Third_Party/LwIP/src/api/sockets.c ****   }
1192:Middlewares/Third_Party/LwIP/src/api/sockets.c ****   if (datagram_len) {
 2695              		.loc 1 1192 6
 2696 0180 3B68     		ldr	r3, [r7]
 2697 0182 002B     		cmp	r3, #0
 2698 0184 02D0     		beq	.L177
1193:Middlewares/Third_Party/LwIP/src/api/sockets.c ****     *datagram_len = buflen;
 2699              		.loc 1 1193 19
 2700 0186 3B68     		ldr	r3, [r7]
 2701 0188 3A8B     		ldrh	r2, [r7, #24]	@ movhi
 2702 018a 1A80     		strh	r2, [r3]	@ movhi
 2703              	.L177:
1194:Middlewares/Third_Party/LwIP/src/api/sockets.c ****   }
1195:Middlewares/Third_Party/LwIP/src/api/sockets.c ****   return ERR_OK;
 2704              		.loc 1 1195 10
 2705 018c 0023     		movs	r3, #0
 2706              	.L178:
1196:Middlewares/Third_Party/LwIP/src/api/sockets.c **** }
ARM GAS  /tmp/ccsCUhT2.s 			page 70


 2707              		.loc 1 1196 1 discriminator 1
 2708 018e 1846     		mov	r0, r3
 2709 0190 2C37     		adds	r7, r7, #44
 2710              	.LCFI103:
 2711              		.cfi_def_cfa_offset 12
 2712 0192 BD46     		mov	sp, r7
 2713              	.LCFI104:
 2714              		.cfi_def_cfa_register 13
 2715              		@ sp needed
 2716 0194 90BD     		pop	{r4, r7, pc}
 2717              	.L180:
 2718 0196 00BF     		.align	2
 2719              	.L179:
 2720 0198 00000000 		.word	.LC0
 2721 019c A0010000 		.word	.LC16
 2722 01a0 50000000 		.word	.LC2
 2723 01a4 CC010000 		.word	.LC17
 2724              		.cfi_endproc
 2725              	.LFE157:
 2727              		.section	.rodata
 2728              		.align	2
 2729              	.LC18:
 2730 01d8 6C776970 		.ascii	"lwip_recvfrom\000"
 2730      5F726563 
 2730      7666726F 
 2730      6D00
 2731              		.section	.text.lwip_recvfrom,"ax",%progbits
 2732              		.align	1
 2733              		.global	lwip_recvfrom
 2734              		.syntax unified
 2735              		.thumb
 2736              		.thumb_func
 2737              		.fpu fpv4-sp-d16
 2739              	lwip_recvfrom:
 2740              	.LFB158:
1197:Middlewares/Third_Party/LwIP/src/api/sockets.c **** 
1198:Middlewares/Third_Party/LwIP/src/api/sockets.c **** ssize_t
1199:Middlewares/Third_Party/LwIP/src/api/sockets.c **** lwip_recvfrom(int s, void *mem, size_t len, int flags,
1200:Middlewares/Third_Party/LwIP/src/api/sockets.c ****               struct sockaddr *from, socklen_t *fromlen)
1201:Middlewares/Third_Party/LwIP/src/api/sockets.c **** {
 2741              		.loc 1 1201 1
 2742              		.cfi_startproc
 2743              		@ args = 8, pretend = 0, frame = 80
 2744              		@ frame_needed = 1, uses_anonymous_args = 0
 2745 0000 80B5     		push	{r7, lr}
 2746              	.LCFI105:
 2747              		.cfi_def_cfa_offset 8
 2748              		.cfi_offset 7, -8
 2749              		.cfi_offset 14, -4
 2750 0002 96B0     		sub	sp, sp, #88
 2751              	.LCFI106:
 2752              		.cfi_def_cfa_offset 96
 2753 0004 02AF     		add	r7, sp, #8
 2754              	.LCFI107:
 2755              		.cfi_def_cfa 7, 88
 2756 0006 F860     		str	r0, [r7, #12]
 2757 0008 B960     		str	r1, [r7, #8]
ARM GAS  /tmp/ccsCUhT2.s 			page 71


 2758 000a 7A60     		str	r2, [r7, #4]
 2759 000c 3B60     		str	r3, [r7]
1202:Middlewares/Third_Party/LwIP/src/api/sockets.c ****   struct lwip_sock *sock;
1203:Middlewares/Third_Party/LwIP/src/api/sockets.c ****   ssize_t ret;
1204:Middlewares/Third_Party/LwIP/src/api/sockets.c **** 
1205:Middlewares/Third_Party/LwIP/src/api/sockets.c ****   LWIP_DEBUGF(SOCKETS_DEBUG, ("lwip_recvfrom(%d, %p, %"SZT_F", 0x%x, ..)\n", s, mem, len, flags));
1206:Middlewares/Third_Party/LwIP/src/api/sockets.c ****   sock = get_socket(s);
 2760              		.loc 1 1206 10
 2761 000e F868     		ldr	r0, [r7, #12]
 2762 0010 FFF7FEFF 		bl	get_socket
 2763 0014 F864     		str	r0, [r7, #76]
1207:Middlewares/Third_Party/LwIP/src/api/sockets.c ****   if (!sock) {
 2764              		.loc 1 1207 6
 2765 0016 FB6C     		ldr	r3, [r7, #76]
 2766 0018 002B     		cmp	r3, #0
 2767 001a 02D1     		bne	.L182
1208:Middlewares/Third_Party/LwIP/src/api/sockets.c ****     return -1;
 2768              		.loc 1 1208 12
 2769 001c 4FF0FF33 		mov	r3, #-1
 2770 0020 77E0     		b	.L183
 2771              	.L182:
1209:Middlewares/Third_Party/LwIP/src/api/sockets.c ****   }
1210:Middlewares/Third_Party/LwIP/src/api/sockets.c **** #if LWIP_TCP
1211:Middlewares/Third_Party/LwIP/src/api/sockets.c ****   if (NETCONNTYPE_GROUP(netconn_type(sock->conn)) == NETCONN_TCP) {
 2772              		.loc 1 1211 7
 2773 0022 FB6C     		ldr	r3, [r7, #76]
 2774 0024 1B68     		ldr	r3, [r3]
 2775 0026 1B78     		ldrb	r3, [r3]	@ zero_extendqisi2
 2776 0028 03F0F003 		and	r3, r3, #240
 2777              		.loc 1 1211 6
 2778 002c 102B     		cmp	r3, #16
 2779 002e 12D1     		bne	.L184
1212:Middlewares/Third_Party/LwIP/src/api/sockets.c ****     ret = lwip_recv_tcp(sock, mem, len, flags);
 2780              		.loc 1 1212 11
 2781 0030 3B68     		ldr	r3, [r7]
 2782 0032 7A68     		ldr	r2, [r7, #4]
 2783 0034 B968     		ldr	r1, [r7, #8]
 2784 0036 F86C     		ldr	r0, [r7, #76]
 2785 0038 FFF7FEFF 		bl	lwip_recv_tcp
 2786 003c B864     		str	r0, [r7, #72]
1213:Middlewares/Third_Party/LwIP/src/api/sockets.c ****     lwip_recv_tcp_from(sock, from, fromlen, "lwip_recvfrom", s, ret);
 2787              		.loc 1 1213 5
 2788 003e BB6C     		ldr	r3, [r7, #72]
 2789 0040 0193     		str	r3, [sp, #4]
 2790 0042 FB68     		ldr	r3, [r7, #12]
 2791 0044 0093     		str	r3, [sp]
 2792 0046 354B     		ldr	r3, .L193
 2793 0048 FA6D     		ldr	r2, [r7, #92]
 2794 004a B96D     		ldr	r1, [r7, #88]
 2795 004c F86C     		ldr	r0, [r7, #76]
 2796 004e FFF7FEFF 		bl	lwip_recv_tcp_from
1214:Middlewares/Third_Party/LwIP/src/api/sockets.c ****     done_socket(sock);
1215:Middlewares/Third_Party/LwIP/src/api/sockets.c ****     return ret;
 2797              		.loc 1 1215 12
 2798 0052 BB6C     		ldr	r3, [r7, #72]
 2799 0054 5DE0     		b	.L183
 2800              	.L184:
ARM GAS  /tmp/ccsCUhT2.s 			page 72


 2801              	.LBB27:
1216:Middlewares/Third_Party/LwIP/src/api/sockets.c ****   } else
1217:Middlewares/Third_Party/LwIP/src/api/sockets.c **** #endif
1218:Middlewares/Third_Party/LwIP/src/api/sockets.c ****   {
1219:Middlewares/Third_Party/LwIP/src/api/sockets.c ****     u16_t datagram_len = 0;
 2802              		.loc 1 1219 11
 2803 0056 0023     		movs	r3, #0
 2804 0058 7B87     		strh	r3, [r7, #58]	@ movhi
1220:Middlewares/Third_Party/LwIP/src/api/sockets.c ****     struct iovec vec;
1221:Middlewares/Third_Party/LwIP/src/api/sockets.c ****     struct msghdr msg;
1222:Middlewares/Third_Party/LwIP/src/api/sockets.c ****     err_t err;
1223:Middlewares/Third_Party/LwIP/src/api/sockets.c ****     vec.iov_base = mem;
 2805              		.loc 1 1223 18
 2806 005a BB68     		ldr	r3, [r7, #8]
 2807 005c 3B63     		str	r3, [r7, #48]
1224:Middlewares/Third_Party/LwIP/src/api/sockets.c ****     vec.iov_len = len;
 2808              		.loc 1 1224 17
 2809 005e 7B68     		ldr	r3, [r7, #4]
 2810 0060 7B63     		str	r3, [r7, #52]
1225:Middlewares/Third_Party/LwIP/src/api/sockets.c ****     msg.msg_control = NULL;
 2811              		.loc 1 1225 21
 2812 0062 0023     		movs	r3, #0
 2813 0064 7B62     		str	r3, [r7, #36]
1226:Middlewares/Third_Party/LwIP/src/api/sockets.c ****     msg.msg_controllen = 0;
 2814              		.loc 1 1226 24
 2815 0066 0023     		movs	r3, #0
 2816 0068 BB62     		str	r3, [r7, #40]
1227:Middlewares/Third_Party/LwIP/src/api/sockets.c ****     msg.msg_flags = 0;
 2817              		.loc 1 1227 19
 2818 006a 0023     		movs	r3, #0
 2819 006c FB62     		str	r3, [r7, #44]
1228:Middlewares/Third_Party/LwIP/src/api/sockets.c ****     msg.msg_iov = &vec;
 2820              		.loc 1 1228 17
 2821 006e 07F13003 		add	r3, r7, #48
 2822 0072 FB61     		str	r3, [r7, #28]
1229:Middlewares/Third_Party/LwIP/src/api/sockets.c ****     msg.msg_iovlen = 1;
 2823              		.loc 1 1229 20
 2824 0074 0123     		movs	r3, #1
 2825 0076 3B62     		str	r3, [r7, #32]
1230:Middlewares/Third_Party/LwIP/src/api/sockets.c ****     msg.msg_name = from;
 2826              		.loc 1 1230 18
 2827 0078 BB6D     		ldr	r3, [r7, #88]
 2828 007a 7B61     		str	r3, [r7, #20]
1231:Middlewares/Third_Party/LwIP/src/api/sockets.c ****     msg.msg_namelen = (fromlen ? *fromlen : 0);
 2829              		.loc 1 1231 43
 2830 007c FB6D     		ldr	r3, [r7, #92]
 2831 007e 002B     		cmp	r3, #0
 2832 0080 02D0     		beq	.L185
 2833              		.loc 1 1231 43 is_stmt 0 discriminator 1
 2834 0082 FB6D     		ldr	r3, [r7, #92]
 2835 0084 1B68     		ldr	r3, [r3]
 2836 0086 00E0     		b	.L186
 2837              	.L185:
 2838              		.loc 1 1231 43 discriminator 2
 2839 0088 0023     		movs	r3, #0
 2840              	.L186:
 2841              		.loc 1 1231 21 is_stmt 1 discriminator 4
ARM GAS  /tmp/ccsCUhT2.s 			page 73


 2842 008a BB61     		str	r3, [r7, #24]
1232:Middlewares/Third_Party/LwIP/src/api/sockets.c ****     err = lwip_recvfrom_udp_raw(sock, flags, &msg, &datagram_len, s);
 2843              		.loc 1 1232 11 discriminator 4
 2844 008c 07F13A01 		add	r1, r7, #58
 2845 0090 07F11402 		add	r2, r7, #20
 2846 0094 FB68     		ldr	r3, [r7, #12]
 2847 0096 0093     		str	r3, [sp]
 2848 0098 0B46     		mov	r3, r1
 2849 009a 3968     		ldr	r1, [r7]
 2850 009c F86C     		ldr	r0, [r7, #76]
 2851 009e FFF7FEFF 		bl	lwip_recvfrom_udp_raw
 2852 00a2 0346     		mov	r3, r0
 2853 00a4 87F84730 		strb	r3, [r7, #71]
1233:Middlewares/Third_Party/LwIP/src/api/sockets.c ****     if (err != ERR_OK) {
 2854              		.loc 1 1233 8 discriminator 4
 2855 00a8 97F94730 		ldrsb	r3, [r7, #71]
 2856 00ac 002B     		cmp	r3, #0
 2857 00ae 0ED0     		beq	.L187
 2858              	.LBB28:
1234:Middlewares/Third_Party/LwIP/src/api/sockets.c ****       LWIP_DEBUGF(SOCKETS_DEBUG, ("lwip_recvfrom[UDP/RAW](%d): buf == NULL, error is \"%s\"!\n",
1235:Middlewares/Third_Party/LwIP/src/api/sockets.c ****                                   s, lwip_strerr(err)));
1236:Middlewares/Third_Party/LwIP/src/api/sockets.c ****       sock_set_errno(sock, err_to_errno(err));
 2859              		.loc 1 1236 7
 2860 00b0 97F94730 		ldrsb	r3, [r7, #71]
 2861 00b4 1846     		mov	r0, r3
 2862 00b6 FFF7FEFF 		bl	err_to_errno
 2863 00ba 3864     		str	r0, [r7, #64]
 2864 00bc 3B6C     		ldr	r3, [r7, #64]
 2865 00be 002B     		cmp	r3, #0
 2866 00c0 02D0     		beq	.L188
 2867              		.loc 1 1236 7 is_stmt 0 discriminator 1
 2868 00c2 174A     		ldr	r2, .L193+4
 2869 00c4 3B6C     		ldr	r3, [r7, #64]
 2870 00c6 1360     		str	r3, [r2]
 2871              	.L188:
 2872              	.LBE28:
1237:Middlewares/Third_Party/LwIP/src/api/sockets.c ****       done_socket(sock);
1238:Middlewares/Third_Party/LwIP/src/api/sockets.c ****       return -1;
 2873              		.loc 1 1238 14 is_stmt 1
 2874 00c8 4FF0FF33 		mov	r3, #-1
 2875 00cc 21E0     		b	.L183
 2876              	.L187:
1239:Middlewares/Third_Party/LwIP/src/api/sockets.c ****     }
1240:Middlewares/Third_Party/LwIP/src/api/sockets.c ****     ret = (ssize_t)LWIP_MIN(LWIP_MIN(len, datagram_len), SSIZE_MAX);
 2877              		.loc 1 1240 20
 2878 00ce 7B8F     		ldrh	r3, [r7, #58]
 2879 00d0 1A46     		mov	r2, r3
 2880 00d2 7B68     		ldr	r3, [r7, #4]
 2881 00d4 9342     		cmp	r3, r2
 2882 00d6 28BF     		it	cs
 2883 00d8 1346     		movcs	r3, r2
 2884              		.loc 1 1240 11
 2885 00da 124A     		ldr	r2, .L193+8
 2886 00dc 9342     		cmp	r3, r2
 2887 00de 06D8     		bhi	.L189
 2888              		.loc 1 1240 20 discriminator 1
 2889 00e0 7B8F     		ldrh	r3, [r7, #58]
ARM GAS  /tmp/ccsCUhT2.s 			page 74


 2890 00e2 1A46     		mov	r2, r3
 2891 00e4 7B68     		ldr	r3, [r7, #4]
 2892 00e6 9342     		cmp	r3, r2
 2893 00e8 28BF     		it	cs
 2894 00ea 1346     		movcs	r3, r2
 2895 00ec 01E0     		b	.L190
 2896              	.L189:
 2897              		.loc 1 1240 11 discriminator 2
 2898 00ee 6FF00043 		mvn	r3, #-2147483648
 2899              	.L190:
 2900              		.loc 1 1240 9 discriminator 4
 2901 00f2 BB64     		str	r3, [r7, #72]
1241:Middlewares/Third_Party/LwIP/src/api/sockets.c ****     if (fromlen) {
 2902              		.loc 1 1241 8 discriminator 4
 2903 00f4 FB6D     		ldr	r3, [r7, #92]
 2904 00f6 002B     		cmp	r3, #0
 2905 00f8 02D0     		beq	.L191
1242:Middlewares/Third_Party/LwIP/src/api/sockets.c ****       *fromlen = msg.msg_namelen;
 2906              		.loc 1 1242 21
 2907 00fa BA69     		ldr	r2, [r7, #24]
 2908              		.loc 1 1242 16
 2909 00fc FB6D     		ldr	r3, [r7, #92]
 2910 00fe 1A60     		str	r2, [r3]
 2911              	.L191:
 2912              	.LBE27:
 2913              	.LBB29:
1243:Middlewares/Third_Party/LwIP/src/api/sockets.c ****     }
1244:Middlewares/Third_Party/LwIP/src/api/sockets.c ****   }
1245:Middlewares/Third_Party/LwIP/src/api/sockets.c **** 
1246:Middlewares/Third_Party/LwIP/src/api/sockets.c ****   sock_set_errno(sock, 0);
 2914              		.loc 1 1246 3
 2915 0100 0023     		movs	r3, #0
 2916 0102 FB63     		str	r3, [r7, #60]
 2917 0104 FB6B     		ldr	r3, [r7, #60]
 2918 0106 002B     		cmp	r3, #0
 2919 0108 02D0     		beq	.L192
 2920              		.loc 1 1246 3 is_stmt 0 discriminator 1
 2921 010a 054A     		ldr	r2, .L193+4
 2922 010c FB6B     		ldr	r3, [r7, #60]
 2923 010e 1360     		str	r3, [r2]
 2924              	.L192:
 2925              	.LBE29:
1247:Middlewares/Third_Party/LwIP/src/api/sockets.c ****   done_socket(sock);
1248:Middlewares/Third_Party/LwIP/src/api/sockets.c ****   return ret;
 2926              		.loc 1 1248 10 is_stmt 1
 2927 0110 BB6C     		ldr	r3, [r7, #72]
 2928              	.L183:
1249:Middlewares/Third_Party/LwIP/src/api/sockets.c **** }
 2929              		.loc 1 1249 1
 2930 0112 1846     		mov	r0, r3
 2931 0114 5037     		adds	r7, r7, #80
 2932              	.LCFI108:
 2933              		.cfi_def_cfa_offset 8
 2934 0116 BD46     		mov	sp, r7
 2935              	.LCFI109:
 2936              		.cfi_def_cfa_register 13
 2937              		@ sp needed
ARM GAS  /tmp/ccsCUhT2.s 			page 75


 2938 0118 80BD     		pop	{r7, pc}
 2939              	.L194:
 2940 011a 00BF     		.align	2
 2941              	.L193:
 2942 011c D8010000 		.word	.LC18
 2943 0120 00000000 		.word	errno
 2944 0124 FEFFFF7F 		.word	2147483646
 2945              		.cfi_endproc
 2946              	.LFE158:
 2948              		.section	.text.lwip_read,"ax",%progbits
 2949              		.align	1
 2950              		.global	lwip_read
 2951              		.syntax unified
 2952              		.thumb
 2953              		.thumb_func
 2954              		.fpu fpv4-sp-d16
 2956              	lwip_read:
 2957              	.LFB159:
1250:Middlewares/Third_Party/LwIP/src/api/sockets.c **** 
1251:Middlewares/Third_Party/LwIP/src/api/sockets.c **** ssize_t
1252:Middlewares/Third_Party/LwIP/src/api/sockets.c **** lwip_read(int s, void *mem, size_t len)
1253:Middlewares/Third_Party/LwIP/src/api/sockets.c **** {
 2958              		.loc 1 1253 1
 2959              		.cfi_startproc
 2960              		@ args = 0, pretend = 0, frame = 16
 2961              		@ frame_needed = 1, uses_anonymous_args = 0
 2962 0000 80B5     		push	{r7, lr}
 2963              	.LCFI110:
 2964              		.cfi_def_cfa_offset 8
 2965              		.cfi_offset 7, -8
 2966              		.cfi_offset 14, -4
 2967 0002 86B0     		sub	sp, sp, #24
 2968              	.LCFI111:
 2969              		.cfi_def_cfa_offset 32
 2970 0004 02AF     		add	r7, sp, #8
 2971              	.LCFI112:
 2972              		.cfi_def_cfa 7, 24
 2973 0006 F860     		str	r0, [r7, #12]
 2974 0008 B960     		str	r1, [r7, #8]
 2975 000a 7A60     		str	r2, [r7, #4]
1254:Middlewares/Third_Party/LwIP/src/api/sockets.c ****   return lwip_recvfrom(s, mem, len, 0, NULL, NULL);
 2976              		.loc 1 1254 10
 2977 000c 0023     		movs	r3, #0
 2978 000e 0193     		str	r3, [sp, #4]
 2979 0010 0023     		movs	r3, #0
 2980 0012 0093     		str	r3, [sp]
 2981 0014 0023     		movs	r3, #0
 2982 0016 7A68     		ldr	r2, [r7, #4]
 2983 0018 B968     		ldr	r1, [r7, #8]
 2984 001a F868     		ldr	r0, [r7, #12]
 2985 001c FFF7FEFF 		bl	lwip_recvfrom
 2986 0020 0346     		mov	r3, r0
1255:Middlewares/Third_Party/LwIP/src/api/sockets.c **** }
 2987              		.loc 1 1255 1
 2988 0022 1846     		mov	r0, r3
 2989 0024 1037     		adds	r7, r7, #16
 2990              	.LCFI113:
ARM GAS  /tmp/ccsCUhT2.s 			page 76


 2991              		.cfi_def_cfa_offset 8
 2992 0026 BD46     		mov	sp, r7
 2993              	.LCFI114:
 2994              		.cfi_def_cfa_register 13
 2995              		@ sp needed
 2996 0028 80BD     		pop	{r7, pc}
 2997              		.cfi_endproc
 2998              	.LFE159:
 3000              		.section	.text.lwip_readv,"ax",%progbits
 3001              		.align	1
 3002              		.global	lwip_readv
 3003              		.syntax unified
 3004              		.thumb
 3005              		.thumb_func
 3006              		.fpu fpv4-sp-d16
 3008              	lwip_readv:
 3009              	.LFB160:
1256:Middlewares/Third_Party/LwIP/src/api/sockets.c **** 
1257:Middlewares/Third_Party/LwIP/src/api/sockets.c **** ssize_t
1258:Middlewares/Third_Party/LwIP/src/api/sockets.c **** lwip_readv(int s, const struct iovec *iov, int iovcnt)
1259:Middlewares/Third_Party/LwIP/src/api/sockets.c **** {
 3010              		.loc 1 1259 1
 3011              		.cfi_startproc
 3012              		@ args = 0, pretend = 0, frame = 48
 3013              		@ frame_needed = 1, uses_anonymous_args = 0
 3014 0000 80B5     		push	{r7, lr}
 3015              	.LCFI115:
 3016              		.cfi_def_cfa_offset 8
 3017              		.cfi_offset 7, -8
 3018              		.cfi_offset 14, -4
 3019 0002 8CB0     		sub	sp, sp, #48
 3020              	.LCFI116:
 3021              		.cfi_def_cfa_offset 56
 3022 0004 00AF     		add	r7, sp, #0
 3023              	.LCFI117:
 3024              		.cfi_def_cfa_register 7
 3025 0006 F860     		str	r0, [r7, #12]
 3026 0008 B960     		str	r1, [r7, #8]
 3027 000a 7A60     		str	r2, [r7, #4]
1260:Middlewares/Third_Party/LwIP/src/api/sockets.c ****   struct msghdr msg;
1261:Middlewares/Third_Party/LwIP/src/api/sockets.c **** 
1262:Middlewares/Third_Party/LwIP/src/api/sockets.c ****   msg.msg_name = NULL;
 3028              		.loc 1 1262 16
 3029 000c 0023     		movs	r3, #0
 3030 000e 7B61     		str	r3, [r7, #20]
1263:Middlewares/Third_Party/LwIP/src/api/sockets.c ****   msg.msg_namelen = 0;
 3031              		.loc 1 1263 19
 3032 0010 0023     		movs	r3, #0
 3033 0012 BB61     		str	r3, [r7, #24]
1264:Middlewares/Third_Party/LwIP/src/api/sockets.c ****   /* Hack: we have to cast via number to cast from 'const' pointer to non-const.
1265:Middlewares/Third_Party/LwIP/src/api/sockets.c ****      Blame the opengroup standard for this inconsistency. */
1266:Middlewares/Third_Party/LwIP/src/api/sockets.c ****   msg.msg_iov = LWIP_CONST_CAST(struct iovec *, iov);
 3034              		.loc 1 1266 15
 3035 0014 BB68     		ldr	r3, [r7, #8]
 3036 0016 FB61     		str	r3, [r7, #28]
1267:Middlewares/Third_Party/LwIP/src/api/sockets.c ****   msg.msg_iovlen = iovcnt;
 3037              		.loc 1 1267 18
ARM GAS  /tmp/ccsCUhT2.s 			page 77


 3038 0018 7B68     		ldr	r3, [r7, #4]
 3039 001a 3B62     		str	r3, [r7, #32]
1268:Middlewares/Third_Party/LwIP/src/api/sockets.c ****   msg.msg_control = NULL;
 3040              		.loc 1 1268 19
 3041 001c 0023     		movs	r3, #0
 3042 001e 7B62     		str	r3, [r7, #36]
1269:Middlewares/Third_Party/LwIP/src/api/sockets.c ****   msg.msg_controllen = 0;
 3043              		.loc 1 1269 22
 3044 0020 0023     		movs	r3, #0
 3045 0022 BB62     		str	r3, [r7, #40]
1270:Middlewares/Third_Party/LwIP/src/api/sockets.c ****   msg.msg_flags = 0;
 3046              		.loc 1 1270 17
 3047 0024 0023     		movs	r3, #0
 3048 0026 FB62     		str	r3, [r7, #44]
1271:Middlewares/Third_Party/LwIP/src/api/sockets.c ****   return lwip_recvmsg(s, &msg, 0);
 3049              		.loc 1 1271 10
 3050 0028 07F11403 		add	r3, r7, #20
 3051 002c 0022     		movs	r2, #0
 3052 002e 1946     		mov	r1, r3
 3053 0030 F868     		ldr	r0, [r7, #12]
 3054 0032 FFF7FEFF 		bl	lwip_recvmsg
 3055 0036 0346     		mov	r3, r0
1272:Middlewares/Third_Party/LwIP/src/api/sockets.c **** }
 3056              		.loc 1 1272 1
 3057 0038 1846     		mov	r0, r3
 3058 003a 3037     		adds	r7, r7, #48
 3059              	.LCFI118:
 3060              		.cfi_def_cfa_offset 8
 3061 003c BD46     		mov	sp, r7
 3062              	.LCFI119:
 3063              		.cfi_def_cfa_register 13
 3064              		@ sp needed
 3065 003e 80BD     		pop	{r7, pc}
 3066              		.cfi_endproc
 3067              	.LFE160:
 3069              		.section	.text.lwip_recv,"ax",%progbits
 3070              		.align	1
 3071              		.global	lwip_recv
 3072              		.syntax unified
 3073              		.thumb
 3074              		.thumb_func
 3075              		.fpu fpv4-sp-d16
 3077              	lwip_recv:
 3078              	.LFB161:
1273:Middlewares/Third_Party/LwIP/src/api/sockets.c **** 
1274:Middlewares/Third_Party/LwIP/src/api/sockets.c **** ssize_t
1275:Middlewares/Third_Party/LwIP/src/api/sockets.c **** lwip_recv(int s, void *mem, size_t len, int flags)
1276:Middlewares/Third_Party/LwIP/src/api/sockets.c **** {
 3079              		.loc 1 1276 1
 3080              		.cfi_startproc
 3081              		@ args = 0, pretend = 0, frame = 16
 3082              		@ frame_needed = 1, uses_anonymous_args = 0
 3083 0000 80B5     		push	{r7, lr}
 3084              	.LCFI120:
 3085              		.cfi_def_cfa_offset 8
 3086              		.cfi_offset 7, -8
 3087              		.cfi_offset 14, -4
ARM GAS  /tmp/ccsCUhT2.s 			page 78


 3088 0002 86B0     		sub	sp, sp, #24
 3089              	.LCFI121:
 3090              		.cfi_def_cfa_offset 32
 3091 0004 02AF     		add	r7, sp, #8
 3092              	.LCFI122:
 3093              		.cfi_def_cfa 7, 24
 3094 0006 F860     		str	r0, [r7, #12]
 3095 0008 B960     		str	r1, [r7, #8]
 3096 000a 7A60     		str	r2, [r7, #4]
 3097 000c 3B60     		str	r3, [r7]
1277:Middlewares/Third_Party/LwIP/src/api/sockets.c ****   return lwip_recvfrom(s, mem, len, flags, NULL, NULL);
 3098              		.loc 1 1277 10
 3099 000e 0023     		movs	r3, #0
 3100 0010 0193     		str	r3, [sp, #4]
 3101 0012 0023     		movs	r3, #0
 3102 0014 0093     		str	r3, [sp]
 3103 0016 3B68     		ldr	r3, [r7]
 3104 0018 7A68     		ldr	r2, [r7, #4]
 3105 001a B968     		ldr	r1, [r7, #8]
 3106 001c F868     		ldr	r0, [r7, #12]
 3107 001e FFF7FEFF 		bl	lwip_recvfrom
 3108 0022 0346     		mov	r3, r0
1278:Middlewares/Third_Party/LwIP/src/api/sockets.c **** }
 3109              		.loc 1 1278 1
 3110 0024 1846     		mov	r0, r3
 3111 0026 1037     		adds	r7, r7, #16
 3112              	.LCFI123:
 3113              		.cfi_def_cfa_offset 8
 3114 0028 BD46     		mov	sp, r7
 3115              	.LCFI124:
 3116              		.cfi_def_cfa_register 13
 3117              		@ sp needed
 3118 002a 80BD     		pop	{r7, pc}
 3119              		.cfi_endproc
 3120              	.LFE161:
 3122              		.section	.rodata
 3123 01e6 0000     		.align	2
 3124              	.LC19:
 3125 01e8 6C776970 		.ascii	"lwip_recvmsg: invalid message pointer\000"
 3125      5F726563 
 3125      766D7367 
 3125      3A20696E 
 3125      76616C69 
 3126 020e 0000     		.align	2
 3127              	.LC20:
 3128 0210 6C776970 		.ascii	"lwip_recvmsg: unsupported flags\000"
 3128      5F726563 
 3128      766D7367 
 3128      3A20756E 
 3128      73757070 
 3129              		.section	.text.lwip_recvmsg,"ax",%progbits
 3130              		.align	1
 3131              		.global	lwip_recvmsg
 3132              		.syntax unified
 3133              		.thumb
 3134              		.thumb_func
 3135              		.fpu fpv4-sp-d16
ARM GAS  /tmp/ccsCUhT2.s 			page 79


 3137              	lwip_recvmsg:
 3138              	.LFB162:
1279:Middlewares/Third_Party/LwIP/src/api/sockets.c **** 
1280:Middlewares/Third_Party/LwIP/src/api/sockets.c **** ssize_t
1281:Middlewares/Third_Party/LwIP/src/api/sockets.c **** lwip_recvmsg(int s, struct msghdr *message, int flags)
1282:Middlewares/Third_Party/LwIP/src/api/sockets.c **** {
 3139              		.loc 1 1282 1
 3140              		.cfi_startproc
 3141              		@ args = 0, pretend = 0, frame = 64
 3142              		@ frame_needed = 1, uses_anonymous_args = 0
 3143 0000 80B5     		push	{r7, lr}
 3144              	.LCFI125:
 3145              		.cfi_def_cfa_offset 8
 3146              		.cfi_offset 7, -8
 3147              		.cfi_offset 14, -4
 3148 0002 92B0     		sub	sp, sp, #72
 3149              	.LCFI126:
 3150              		.cfi_def_cfa_offset 80
 3151 0004 02AF     		add	r7, sp, #8
 3152              	.LCFI127:
 3153              		.cfi_def_cfa 7, 72
 3154 0006 F860     		str	r0, [r7, #12]
 3155 0008 B960     		str	r1, [r7, #8]
 3156 000a 7A60     		str	r2, [r7, #4]
1283:Middlewares/Third_Party/LwIP/src/api/sockets.c ****   struct lwip_sock *sock;
1284:Middlewares/Third_Party/LwIP/src/api/sockets.c ****   int i;
1285:Middlewares/Third_Party/LwIP/src/api/sockets.c ****   ssize_t buflen;
1286:Middlewares/Third_Party/LwIP/src/api/sockets.c **** 
1287:Middlewares/Third_Party/LwIP/src/api/sockets.c ****   LWIP_DEBUGF(SOCKETS_DEBUG, ("lwip_recvmsg(%d, message=%p, flags=0x%x)\n", s, (void *)message, fla
1288:Middlewares/Third_Party/LwIP/src/api/sockets.c ****   LWIP_ERROR("lwip_recvmsg: invalid message pointer", message != NULL, return ERR_ARG;);
 3157              		.loc 1 1288 3
 3158 000c BB68     		ldr	r3, [r7, #8]
 3159 000e 002B     		cmp	r3, #0
 3160 0010 09D1     		bne	.L202
 3161              		.loc 1 1288 3 is_stmt 0 discriminator 1
 3162 0012 854B     		ldr	r3, .L228
 3163 0014 4FF4A162 		mov	r2, #1288
 3164 0018 8449     		ldr	r1, .L228+4
 3165 001a 8548     		ldr	r0, .L228+8
 3166 001c FFF7FEFF 		bl	printf
 3167 0020 6FF00F03 		mvn	r3, #15
 3168 0024 FCE0     		b	.L203
 3169              	.L202:
1289:Middlewares/Third_Party/LwIP/src/api/sockets.c ****   LWIP_ERROR("lwip_recvmsg: unsupported flags", (flags & ~(MSG_PEEK|MSG_DONTWAIT)) == 0,
 3170              		.loc 1 1289 3 is_stmt 1
 3171 0026 7B68     		ldr	r3, [r7, #4]
 3172 0028 23F00903 		bic	r3, r3, #9
 3173 002c 002B     		cmp	r3, #0
 3174 002e 0CD0     		beq	.L204
 3175              		.loc 1 1289 3 is_stmt 0 discriminator 1
 3176 0030 7D4B     		ldr	r3, .L228
 3177 0032 40F20A52 		movw	r2, #1290
 3178 0036 7F49     		ldr	r1, .L228+12
 3179 0038 7D48     		ldr	r0, .L228+8
 3180 003a FFF7FEFF 		bl	printf
 3181 003e 7E4B     		ldr	r3, .L228+16
 3182 0040 5F22     		movs	r2, #95
ARM GAS  /tmp/ccsCUhT2.s 			page 80


 3183 0042 1A60     		str	r2, [r3]
 3184 0044 4FF0FF33 		mov	r3, #-1
 3185 0048 EAE0     		b	.L203
 3186              	.L204:
1290:Middlewares/Third_Party/LwIP/src/api/sockets.c ****              set_errno(EOPNOTSUPP); return -1;);
1291:Middlewares/Third_Party/LwIP/src/api/sockets.c **** 
1292:Middlewares/Third_Party/LwIP/src/api/sockets.c ****   if ((message->msg_iovlen <= 0) || (message->msg_iovlen > IOV_MAX)) {
 3187              		.loc 1 1292 15 is_stmt 1
 3188 004a BB68     		ldr	r3, [r7, #8]
 3189 004c DB68     		ldr	r3, [r3, #12]
 3190              		.loc 1 1292 6
 3191 004e 002B     		cmp	r3, #0
 3192 0050 04DD     		ble	.L205
 3193              		.loc 1 1292 45 discriminator 1
 3194 0052 BB68     		ldr	r3, [r7, #8]
 3195 0054 DB68     		ldr	r3, [r3, #12]
 3196              		.loc 1 1292 34 discriminator 1
 3197 0056 B3F5806F 		cmp	r3, #1024
 3198 005a 05DD     		ble	.L206
 3199              	.L205:
1293:Middlewares/Third_Party/LwIP/src/api/sockets.c ****     set_errno(EMSGSIZE);
 3200              		.loc 1 1293 5 discriminator 1
 3201 005c 764B     		ldr	r3, .L228+16
 3202 005e 5A22     		movs	r2, #90
 3203 0060 1A60     		str	r2, [r3]
1294:Middlewares/Third_Party/LwIP/src/api/sockets.c ****     return -1;
 3204              		.loc 1 1294 12 discriminator 1
 3205 0062 4FF0FF33 		mov	r3, #-1
 3206 0066 DBE0     		b	.L203
 3207              	.L206:
1295:Middlewares/Third_Party/LwIP/src/api/sockets.c ****   }
1296:Middlewares/Third_Party/LwIP/src/api/sockets.c **** 
1297:Middlewares/Third_Party/LwIP/src/api/sockets.c ****   sock = get_socket(s);
 3208              		.loc 1 1297 10
 3209 0068 F868     		ldr	r0, [r7, #12]
 3210 006a FFF7FEFF 		bl	get_socket
 3211 006e 3863     		str	r0, [r7, #48]
1298:Middlewares/Third_Party/LwIP/src/api/sockets.c ****   if (!sock) {
 3212              		.loc 1 1298 6
 3213 0070 3B6B     		ldr	r3, [r7, #48]
 3214 0072 002B     		cmp	r3, #0
 3215 0074 02D1     		bne	.L207
1299:Middlewares/Third_Party/LwIP/src/api/sockets.c ****     return -1;
 3216              		.loc 1 1299 12
 3217 0076 4FF0FF33 		mov	r3, #-1
 3218 007a D1E0     		b	.L203
 3219              	.L207:
1300:Middlewares/Third_Party/LwIP/src/api/sockets.c ****   }
1301:Middlewares/Third_Party/LwIP/src/api/sockets.c **** 
1302:Middlewares/Third_Party/LwIP/src/api/sockets.c ****   /* check for valid vectors */
1303:Middlewares/Third_Party/LwIP/src/api/sockets.c ****   buflen = 0;
 3220              		.loc 1 1303 10
 3221 007c 0023     		movs	r3, #0
 3222 007e BB63     		str	r3, [r7, #56]
1304:Middlewares/Third_Party/LwIP/src/api/sockets.c ****   for (i = 0; i < message->msg_iovlen; i++) {
 3223              		.loc 1 1304 10
 3224 0080 0023     		movs	r3, #0
ARM GAS  /tmp/ccsCUhT2.s 			page 81


 3225 0082 FB63     		str	r3, [r7, #60]
 3226              		.loc 1 1304 3
 3227 0084 35E0     		b	.L208
 3228              	.L212:
1305:Middlewares/Third_Party/LwIP/src/api/sockets.c ****     if ((message->msg_iov[i].iov_base == NULL) || ((ssize_t)message->msg_iov[i].iov_len <= 0) ||
 3229              		.loc 1 1305 17
 3230 0086 BB68     		ldr	r3, [r7, #8]
 3231 0088 9A68     		ldr	r2, [r3, #8]
 3232              		.loc 1 1305 26
 3233 008a FB6B     		ldr	r3, [r7, #60]
 3234 008c DB00     		lsls	r3, r3, #3
 3235 008e 1344     		add	r3, r3, r2
 3236              		.loc 1 1305 29
 3237 0090 1B68     		ldr	r3, [r3]
 3238              		.loc 1 1305 8
 3239 0092 002B     		cmp	r3, #0
 3240 0094 12D0     		beq	.L209
 3241              		.loc 1 1305 68 discriminator 1
 3242 0096 BB68     		ldr	r3, [r7, #8]
 3243 0098 9A68     		ldr	r2, [r3, #8]
 3244              		.loc 1 1305 77 discriminator 1
 3245 009a FB6B     		ldr	r3, [r7, #60]
 3246 009c DB00     		lsls	r3, r3, #3
 3247 009e 1344     		add	r3, r3, r2
 3248              		.loc 1 1305 80 discriminator 1
 3249 00a0 5B68     		ldr	r3, [r3, #4]
 3250              		.loc 1 1305 95 discriminator 1
 3251 00a2 002B     		cmp	r3, #0
 3252 00a4 0ADD     		ble	.L209
1306:Middlewares/Third_Party/LwIP/src/api/sockets.c ****         ((size_t)(ssize_t)message->msg_iov[i].iov_len != message->msg_iov[i].iov_len) ||
1307:Middlewares/Third_Party/LwIP/src/api/sockets.c ****         ((ssize_t)(buflen + (ssize_t)message->msg_iov[i].iov_len) <= 0)) {
 3253              		.loc 1 1307 45
 3254 00a6 BB68     		ldr	r3, [r7, #8]
 3255 00a8 9A68     		ldr	r2, [r3, #8]
 3256              		.loc 1 1307 54
 3257 00aa FB6B     		ldr	r3, [r7, #60]
 3258 00ac DB00     		lsls	r3, r3, #3
 3259 00ae 1344     		add	r3, r3, r2
 3260              		.loc 1 1307 57
 3261 00b0 5B68     		ldr	r3, [r3, #4]
 3262              		.loc 1 1307 29
 3263 00b2 1A46     		mov	r2, r3
 3264              		.loc 1 1307 10
 3265 00b4 BB6B     		ldr	r3, [r7, #56]
 3266 00b6 1344     		add	r3, r3, r2
1306:Middlewares/Third_Party/LwIP/src/api/sockets.c ****         ((size_t)(ssize_t)message->msg_iov[i].iov_len != message->msg_iov[i].iov_len) ||
 3267              		.loc 1 1306 87
 3268 00b8 002B     		cmp	r3, #0
 3269 00ba 0DDC     		bgt	.L210
 3270              	.L209:
 3271              	.LBB30:
1308:Middlewares/Third_Party/LwIP/src/api/sockets.c ****       sock_set_errno(sock, err_to_errno(ERR_VAL));
 3272              		.loc 1 1308 7
 3273 00bc 6FF00500 		mvn	r0, #5
 3274 00c0 FFF7FEFF 		bl	err_to_errno
 3275 00c4 F862     		str	r0, [r7, #44]
 3276 00c6 FB6A     		ldr	r3, [r7, #44]
ARM GAS  /tmp/ccsCUhT2.s 			page 82


 3277 00c8 002B     		cmp	r3, #0
 3278 00ca 02D0     		beq	.L211
 3279              		.loc 1 1308 7 is_stmt 0 discriminator 1
 3280 00cc 5A4A     		ldr	r2, .L228+16
 3281 00ce FB6A     		ldr	r3, [r7, #44]
 3282 00d0 1360     		str	r3, [r2]
 3283              	.L211:
 3284              	.LBE30:
1309:Middlewares/Third_Party/LwIP/src/api/sockets.c ****       done_socket(sock);
1310:Middlewares/Third_Party/LwIP/src/api/sockets.c ****       return -1;
 3285              		.loc 1 1310 14 is_stmt 1
 3286 00d2 4FF0FF33 		mov	r3, #-1
 3287 00d6 A3E0     		b	.L203
 3288              	.L210:
1311:Middlewares/Third_Party/LwIP/src/api/sockets.c ****     }
1312:Middlewares/Third_Party/LwIP/src/api/sockets.c ****     buflen = (ssize_t)(buflen + (ssize_t)message->msg_iov[i].iov_len);
 3289              		.loc 1 1312 49 discriminator 2
 3290 00d8 BB68     		ldr	r3, [r7, #8]
 3291 00da 9A68     		ldr	r2, [r3, #8]
 3292              		.loc 1 1312 58 discriminator 2
 3293 00dc FB6B     		ldr	r3, [r7, #60]
 3294 00de DB00     		lsls	r3, r3, #3
 3295 00e0 1344     		add	r3, r3, r2
 3296              		.loc 1 1312 61 discriminator 2
 3297 00e2 5B68     		ldr	r3, [r3, #4]
 3298              		.loc 1 1312 33 discriminator 2
 3299 00e4 1A46     		mov	r2, r3
 3300              		.loc 1 1312 12 discriminator 2
 3301 00e6 BB6B     		ldr	r3, [r7, #56]
 3302 00e8 1344     		add	r3, r3, r2
 3303 00ea BB63     		str	r3, [r7, #56]
1304:Middlewares/Third_Party/LwIP/src/api/sockets.c ****     if ((message->msg_iov[i].iov_base == NULL) || ((ssize_t)message->msg_iov[i].iov_len <= 0) ||
 3304              		.loc 1 1304 41 discriminator 2
 3305 00ec FB6B     		ldr	r3, [r7, #60]
 3306 00ee 0133     		adds	r3, r3, #1
 3307 00f0 FB63     		str	r3, [r7, #60]
 3308              	.L208:
1304:Middlewares/Third_Party/LwIP/src/api/sockets.c ****     if ((message->msg_iov[i].iov_base == NULL) || ((ssize_t)message->msg_iov[i].iov_len <= 0) ||
 3309              		.loc 1 1304 26 discriminator 1
 3310 00f2 BB68     		ldr	r3, [r7, #8]
 3311 00f4 DB68     		ldr	r3, [r3, #12]
1304:Middlewares/Third_Party/LwIP/src/api/sockets.c ****     if ((message->msg_iov[i].iov_base == NULL) || ((ssize_t)message->msg_iov[i].iov_len <= 0) ||
 3312              		.loc 1 1304 3 discriminator 1
 3313 00f6 FA6B     		ldr	r2, [r7, #60]
 3314 00f8 9A42     		cmp	r2, r3
 3315 00fa C4DB     		blt	.L212
1313:Middlewares/Third_Party/LwIP/src/api/sockets.c ****   }
1314:Middlewares/Third_Party/LwIP/src/api/sockets.c **** 
1315:Middlewares/Third_Party/LwIP/src/api/sockets.c ****   if (NETCONNTYPE_GROUP(netconn_type(sock->conn)) == NETCONN_TCP) {
 3316              		.loc 1 1315 7
 3317 00fc 3B6B     		ldr	r3, [r7, #48]
 3318 00fe 1B68     		ldr	r3, [r3]
 3319 0100 1B78     		ldrb	r3, [r3]	@ zero_extendqisi2
 3320 0102 03F0F003 		and	r3, r3, #240
 3321              		.loc 1 1315 6
 3322 0106 102B     		cmp	r3, #16
 3323 0108 54D1     		bne	.L213
ARM GAS  /tmp/ccsCUhT2.s 			page 83


 3324              	.LBB31:
1316:Middlewares/Third_Party/LwIP/src/api/sockets.c **** #if LWIP_TCP
1317:Middlewares/Third_Party/LwIP/src/api/sockets.c ****     int recv_flags = flags;
 3325              		.loc 1 1317 9
 3326 010a 7B68     		ldr	r3, [r7, #4]
 3327 010c 7B63     		str	r3, [r7, #52]
1318:Middlewares/Third_Party/LwIP/src/api/sockets.c ****     message->msg_flags = 0;
 3328              		.loc 1 1318 24
 3329 010e BB68     		ldr	r3, [r7, #8]
 3330 0110 0022     		movs	r2, #0
 3331 0112 9A61     		str	r2, [r3, #24]
1319:Middlewares/Third_Party/LwIP/src/api/sockets.c ****     /* recv the data */
1320:Middlewares/Third_Party/LwIP/src/api/sockets.c ****     buflen = 0;
 3332              		.loc 1 1320 12
 3333 0114 0023     		movs	r3, #0
 3334 0116 BB63     		str	r3, [r7, #56]
1321:Middlewares/Third_Party/LwIP/src/api/sockets.c ****     for (i = 0; i < message->msg_iovlen; i++) {
 3335              		.loc 1 1321 12
 3336 0118 0023     		movs	r3, #0
 3337 011a FB63     		str	r3, [r7, #60]
 3338              		.loc 1 1321 5
 3339 011c 36E0     		b	.L214
 3340              	.L220:
 3341              	.LBB32:
1322:Middlewares/Third_Party/LwIP/src/api/sockets.c ****       /* try to receive into this vector's buffer */
1323:Middlewares/Third_Party/LwIP/src/api/sockets.c ****       ssize_t recvd_local = lwip_recv_tcp(sock, message->msg_iov[i].iov_base, message->msg_iov[i].i
 3342              		.loc 1 1323 56
 3343 011e BB68     		ldr	r3, [r7, #8]
 3344 0120 9A68     		ldr	r2, [r3, #8]
 3345              		.loc 1 1323 65
 3346 0122 FB6B     		ldr	r3, [r7, #60]
 3347 0124 DB00     		lsls	r3, r3, #3
 3348 0126 1344     		add	r3, r3, r2
 3349              		.loc 1 1323 29
 3350 0128 1968     		ldr	r1, [r3]
 3351              		.loc 1 1323 86
 3352 012a BB68     		ldr	r3, [r7, #8]
 3353 012c 9A68     		ldr	r2, [r3, #8]
 3354              		.loc 1 1323 95
 3355 012e FB6B     		ldr	r3, [r7, #60]
 3356 0130 DB00     		lsls	r3, r3, #3
 3357 0132 1344     		add	r3, r3, r2
 3358              		.loc 1 1323 29
 3359 0134 5A68     		ldr	r2, [r3, #4]
 3360 0136 7B6B     		ldr	r3, [r7, #52]
 3361 0138 386B     		ldr	r0, [r7, #48]
 3362 013a FFF7FEFF 		bl	lwip_recv_tcp
 3363 013e B862     		str	r0, [r7, #40]
1324:Middlewares/Third_Party/LwIP/src/api/sockets.c ****       if (recvd_local > 0) {
 3364              		.loc 1 1324 10
 3365 0140 BB6A     		ldr	r3, [r7, #40]
 3366 0142 002B     		cmp	r3, #0
 3367 0144 03DD     		ble	.L215
1325:Middlewares/Third_Party/LwIP/src/api/sockets.c ****         /* sum up received bytes */
1326:Middlewares/Third_Party/LwIP/src/api/sockets.c ****         buflen += recvd_local;
 3368              		.loc 1 1326 16
 3369 0146 BA6B     		ldr	r2, [r7, #56]
ARM GAS  /tmp/ccsCUhT2.s 			page 84


 3370 0148 BB6A     		ldr	r3, [r7, #40]
 3371 014a 1344     		add	r3, r3, r2
 3372 014c BB63     		str	r3, [r7, #56]
 3373              	.L215:
1327:Middlewares/Third_Party/LwIP/src/api/sockets.c ****       }
1328:Middlewares/Third_Party/LwIP/src/api/sockets.c ****       if ((recvd_local < 0) || (recvd_local < (int)message->msg_iov[i].iov_len) ||
 3374              		.loc 1 1328 10
 3375 014e BB6A     		ldr	r3, [r7, #40]
 3376 0150 002B     		cmp	r3, #0
 3377 0152 0EDB     		blt	.L216
 3378              		.loc 1 1328 59 discriminator 1
 3379 0154 BB68     		ldr	r3, [r7, #8]
 3380 0156 9A68     		ldr	r2, [r3, #8]
 3381              		.loc 1 1328 68 discriminator 1
 3382 0158 FB6B     		ldr	r3, [r7, #60]
 3383 015a DB00     		lsls	r3, r3, #3
 3384 015c 1344     		add	r3, r3, r2
 3385              		.loc 1 1328 71 discriminator 1
 3386 015e 5B68     		ldr	r3, [r3, #4]
 3387              		.loc 1 1328 47 discriminator 1
 3388 0160 1A46     		mov	r2, r3
 3389              		.loc 1 1328 29 discriminator 1
 3390 0162 BB6A     		ldr	r3, [r7, #40]
 3391 0164 9342     		cmp	r3, r2
 3392 0166 04DB     		blt	.L216
1329:Middlewares/Third_Party/LwIP/src/api/sockets.c ****           (flags & MSG_PEEK)) {
 3393              		.loc 1 1329 18 discriminator 2
 3394 0168 7B68     		ldr	r3, [r7, #4]
 3395 016a 03F00103 		and	r3, r3, #1
1328:Middlewares/Third_Party/LwIP/src/api/sockets.c ****           (flags & MSG_PEEK)) {
 3396              		.loc 1 1328 81 discriminator 2
 3397 016e 002B     		cmp	r3, #0
 3398 0170 05D0     		beq	.L217
 3399              	.L216:
1330:Middlewares/Third_Party/LwIP/src/api/sockets.c ****         /* returned prematurely (or peeking, which might actually be limitated to the first iov) */
1331:Middlewares/Third_Party/LwIP/src/api/sockets.c ****         if (buflen <= 0) {
 3400              		.loc 1 1331 12
 3401 0172 BB6B     		ldr	r3, [r7, #56]
 3402 0174 002B     		cmp	r3, #0
 3403 0176 0FDC     		bgt	.L227
1332:Middlewares/Third_Party/LwIP/src/api/sockets.c ****           /* nothing received at all, propagate the error */
1333:Middlewares/Third_Party/LwIP/src/api/sockets.c ****           buflen = recvd_local;
 3404              		.loc 1 1333 18
 3405 0178 BB6A     		ldr	r3, [r7, #40]
 3406 017a BB63     		str	r3, [r7, #56]
1334:Middlewares/Third_Party/LwIP/src/api/sockets.c ****         }
1335:Middlewares/Third_Party/LwIP/src/api/sockets.c ****         break;
 3407              		.loc 1 1335 9
 3408 017c 0CE0     		b	.L227
 3409              	.L217:
1336:Middlewares/Third_Party/LwIP/src/api/sockets.c ****       }
