ARM GAS  /tmp/cc39NdF4.s 			page 1


   1              		.cpu cortex-m4
   2              		.eabi_attribute 27, 1
   3              		.eabi_attribute 28, 1
   4              		.eabi_attribute 20, 1
   5              		.eabi_attribute 21, 1
   6              		.eabi_attribute 23, 3
   7              		.eabi_attribute 24, 1
   8              		.eabi_attribute 25, 1
   9              		.eabi_attribute 26, 1
  10              		.eabi_attribute 30, 6
  11              		.eabi_attribute 34, 1
  12              		.eabi_attribute 18, 4
  13              		.file	"stm32f4xx_hal_eth.c"
  14              		.text
  15              	.Ltext0:
  16              		.cfi_sections	.debug_frame
  17              		.section	.text.HAL_ETH_Init,"ax",%progbits
  18              		.align	1
  19              		.global	HAL_ETH_Init
  20              		.arch armv7e-m
  21              		.syntax unified
  22              		.thumb
  23              		.thumb_func
  24              		.fpu fpv4-sp-d16
  26              	HAL_ETH_Init:
  27              	.LFB130:
  28              		.file 1 "Drivers/STM32F4xx_HAL_Driver/Src/stm32f4xx_hal_eth.c"
   1:Drivers/STM32F4xx_HAL_Driver/Src/stm32f4xx_hal_eth.c **** /**
   2:Drivers/STM32F4xx_HAL_Driver/Src/stm32f4xx_hal_eth.c ****   ******************************************************************************
   3:Drivers/STM32F4xx_HAL_Driver/Src/stm32f4xx_hal_eth.c ****   * @file    stm32f4xx_hal_eth.c
   4:Drivers/STM32F4xx_HAL_Driver/Src/stm32f4xx_hal_eth.c ****   * @author  MCD Application Team
   5:Drivers/STM32F4xx_HAL_Driver/Src/stm32f4xx_hal_eth.c ****   * @brief   ETH HAL module driver.
   6:Drivers/STM32F4xx_HAL_Driver/Src/stm32f4xx_hal_eth.c ****   *          This file provides firmware functions to manage the following 
   7:Drivers/STM32F4xx_HAL_Driver/Src/stm32f4xx_hal_eth.c ****   *          functionalities of the Ethernet (ETH) peripheral:
   8:Drivers/STM32F4xx_HAL_Driver/Src/stm32f4xx_hal_eth.c ****   *           + Initialization and de-initialization functions
   9:Drivers/STM32F4xx_HAL_Driver/Src/stm32f4xx_hal_eth.c ****   *           + IO operation functions
  10:Drivers/STM32F4xx_HAL_Driver/Src/stm32f4xx_hal_eth.c ****   *           + Peripheral Control functions 
  11:Drivers/STM32F4xx_HAL_Driver/Src/stm32f4xx_hal_eth.c ****   *           + Peripheral State and Errors functions
  12:Drivers/STM32F4xx_HAL_Driver/Src/stm32f4xx_hal_eth.c ****   *
  13:Drivers/STM32F4xx_HAL_Driver/Src/stm32f4xx_hal_eth.c ****   @verbatim
  14:Drivers/STM32F4xx_HAL_Driver/Src/stm32f4xx_hal_eth.c ****   ==============================================================================
  15:Drivers/STM32F4xx_HAL_Driver/Src/stm32f4xx_hal_eth.c ****                     ##### How to use this driver #####
  16:Drivers/STM32F4xx_HAL_Driver/Src/stm32f4xx_hal_eth.c ****   ==============================================================================
  17:Drivers/STM32F4xx_HAL_Driver/Src/stm32f4xx_hal_eth.c ****     [..]
  18:Drivers/STM32F4xx_HAL_Driver/Src/stm32f4xx_hal_eth.c ****       (#)Declare a ETH_HandleTypeDef handle structure, for example:
  19:Drivers/STM32F4xx_HAL_Driver/Src/stm32f4xx_hal_eth.c ****          ETH_HandleTypeDef  heth;
  20:Drivers/STM32F4xx_HAL_Driver/Src/stm32f4xx_hal_eth.c ****         
  21:Drivers/STM32F4xx_HAL_Driver/Src/stm32f4xx_hal_eth.c ****       (#)Fill parameters of Init structure in heth handle
  22:Drivers/STM32F4xx_HAL_Driver/Src/stm32f4xx_hal_eth.c ****   
  23:Drivers/STM32F4xx_HAL_Driver/Src/stm32f4xx_hal_eth.c ****       (#)Call HAL_ETH_Init() API to initialize the Ethernet peripheral (MAC, DMA, ...) 
  24:Drivers/STM32F4xx_HAL_Driver/Src/stm32f4xx_hal_eth.c **** 
  25:Drivers/STM32F4xx_HAL_Driver/Src/stm32f4xx_hal_eth.c ****       (#)Initialize the ETH low level resources through the HAL_ETH_MspInit() API:
  26:Drivers/STM32F4xx_HAL_Driver/Src/stm32f4xx_hal_eth.c ****           (##) Enable the Ethernet interface clock using 
  27:Drivers/STM32F4xx_HAL_Driver/Src/stm32f4xx_hal_eth.c ****                (+++) __HAL_RCC_ETHMAC_CLK_ENABLE();
  28:Drivers/STM32F4xx_HAL_Driver/Src/stm32f4xx_hal_eth.c ****                (+++) __HAL_RCC_ETHMACTX_CLK_ENABLE();
  29:Drivers/STM32F4xx_HAL_Driver/Src/stm32f4xx_hal_eth.c ****                (+++) __HAL_RCC_ETHMACRX_CLK_ENABLE();
  30:Drivers/STM32F4xx_HAL_Driver/Src/stm32f4xx_hal_eth.c ****            
ARM GAS  /tmp/cc39NdF4.s 			page 2


  31:Drivers/STM32F4xx_HAL_Driver/Src/stm32f4xx_hal_eth.c ****           (##) Initialize the related GPIO clocks
  32:Drivers/STM32F4xx_HAL_Driver/Src/stm32f4xx_hal_eth.c ****           (##) Configure Ethernet pin-out
  33:Drivers/STM32F4xx_HAL_Driver/Src/stm32f4xx_hal_eth.c ****           (##) Configure Ethernet NVIC interrupt (IT mode)   
  34:Drivers/STM32F4xx_HAL_Driver/Src/stm32f4xx_hal_eth.c ****     
  35:Drivers/STM32F4xx_HAL_Driver/Src/stm32f4xx_hal_eth.c ****       (#)Initialize Ethernet DMA Descriptors in chain mode and point to allocated buffers:
  36:Drivers/STM32F4xx_HAL_Driver/Src/stm32f4xx_hal_eth.c ****           (##) HAL_ETH_DMATxDescListInit(); for Transmission process
  37:Drivers/STM32F4xx_HAL_Driver/Src/stm32f4xx_hal_eth.c ****           (##) HAL_ETH_DMARxDescListInit(); for Reception process
  38:Drivers/STM32F4xx_HAL_Driver/Src/stm32f4xx_hal_eth.c **** 
  39:Drivers/STM32F4xx_HAL_Driver/Src/stm32f4xx_hal_eth.c ****       (#)Enable MAC and DMA transmission and reception:
  40:Drivers/STM32F4xx_HAL_Driver/Src/stm32f4xx_hal_eth.c ****           (##) HAL_ETH_Start();
  41:Drivers/STM32F4xx_HAL_Driver/Src/stm32f4xx_hal_eth.c **** 
  42:Drivers/STM32F4xx_HAL_Driver/Src/stm32f4xx_hal_eth.c ****       (#)Prepare ETH DMA TX Descriptors and give the hand to ETH DMA to transfer 
  43:Drivers/STM32F4xx_HAL_Driver/Src/stm32f4xx_hal_eth.c ****          the frame to MAC TX FIFO:
  44:Drivers/STM32F4xx_HAL_Driver/Src/stm32f4xx_hal_eth.c ****          (##) HAL_ETH_TransmitFrame();
  45:Drivers/STM32F4xx_HAL_Driver/Src/stm32f4xx_hal_eth.c **** 
  46:Drivers/STM32F4xx_HAL_Driver/Src/stm32f4xx_hal_eth.c ****       (#)Poll for a received frame in ETH RX DMA Descriptors and get received 
  47:Drivers/STM32F4xx_HAL_Driver/Src/stm32f4xx_hal_eth.c ****          frame parameters
  48:Drivers/STM32F4xx_HAL_Driver/Src/stm32f4xx_hal_eth.c ****          (##) HAL_ETH_GetReceivedFrame(); (should be called into an infinite loop)
  49:Drivers/STM32F4xx_HAL_Driver/Src/stm32f4xx_hal_eth.c **** 
  50:Drivers/STM32F4xx_HAL_Driver/Src/stm32f4xx_hal_eth.c ****       (#) Get a received frame when an ETH RX interrupt occurs:
  51:Drivers/STM32F4xx_HAL_Driver/Src/stm32f4xx_hal_eth.c ****          (##) HAL_ETH_GetReceivedFrame_IT(); (called in IT mode only)
  52:Drivers/STM32F4xx_HAL_Driver/Src/stm32f4xx_hal_eth.c **** 
  53:Drivers/STM32F4xx_HAL_Driver/Src/stm32f4xx_hal_eth.c ****       (#) Communicate with external PHY device:
  54:Drivers/STM32F4xx_HAL_Driver/Src/stm32f4xx_hal_eth.c ****          (##) Read a specific register from the PHY  
  55:Drivers/STM32F4xx_HAL_Driver/Src/stm32f4xx_hal_eth.c ****               HAL_ETH_ReadPHYRegister();
  56:Drivers/STM32F4xx_HAL_Driver/Src/stm32f4xx_hal_eth.c ****          (##) Write data to a specific RHY register:
  57:Drivers/STM32F4xx_HAL_Driver/Src/stm32f4xx_hal_eth.c ****               HAL_ETH_WritePHYRegister();
  58:Drivers/STM32F4xx_HAL_Driver/Src/stm32f4xx_hal_eth.c **** 
  59:Drivers/STM32F4xx_HAL_Driver/Src/stm32f4xx_hal_eth.c ****       (#) Configure the Ethernet MAC after ETH peripheral initialization
  60:Drivers/STM32F4xx_HAL_Driver/Src/stm32f4xx_hal_eth.c ****           HAL_ETH_ConfigMAC(); all MAC parameters should be filled.
  61:Drivers/STM32F4xx_HAL_Driver/Src/stm32f4xx_hal_eth.c ****       
  62:Drivers/STM32F4xx_HAL_Driver/Src/stm32f4xx_hal_eth.c ****       (#) Configure the Ethernet DMA after ETH peripheral initialization
  63:Drivers/STM32F4xx_HAL_Driver/Src/stm32f4xx_hal_eth.c ****           HAL_ETH_ConfigDMA(); all DMA parameters should be filled.
  64:Drivers/STM32F4xx_HAL_Driver/Src/stm32f4xx_hal_eth.c ****       
  65:Drivers/STM32F4xx_HAL_Driver/Src/stm32f4xx_hal_eth.c ****       -@- The PTP protocol and the DMA descriptors ring mode are not supported 
  66:Drivers/STM32F4xx_HAL_Driver/Src/stm32f4xx_hal_eth.c ****           in this driver
  67:Drivers/STM32F4xx_HAL_Driver/Src/stm32f4xx_hal_eth.c **** *** Callback registration ***
  68:Drivers/STM32F4xx_HAL_Driver/Src/stm32f4xx_hal_eth.c ****   =============================================
  69:Drivers/STM32F4xx_HAL_Driver/Src/stm32f4xx_hal_eth.c **** 
  70:Drivers/STM32F4xx_HAL_Driver/Src/stm32f4xx_hal_eth.c ****   The compilation define  USE_HAL_ETH_REGISTER_CALLBACKS when set to 1
  71:Drivers/STM32F4xx_HAL_Driver/Src/stm32f4xx_hal_eth.c ****   allows the user to configure dynamically the driver callbacks.
  72:Drivers/STM32F4xx_HAL_Driver/Src/stm32f4xx_hal_eth.c ****   Use Function @ref HAL_ETH_RegisterCallback() to register an interrupt callback.
  73:Drivers/STM32F4xx_HAL_Driver/Src/stm32f4xx_hal_eth.c **** 
  74:Drivers/STM32F4xx_HAL_Driver/Src/stm32f4xx_hal_eth.c ****   Function @ref HAL_ETH_RegisterCallback() allows to register following callbacks:
  75:Drivers/STM32F4xx_HAL_Driver/Src/stm32f4xx_hal_eth.c ****     (+) TxCpltCallback   : Tx Complete Callback.
  76:Drivers/STM32F4xx_HAL_Driver/Src/stm32f4xx_hal_eth.c ****     (+) RxCpltCallback   : Rx Complete Callback.
  77:Drivers/STM32F4xx_HAL_Driver/Src/stm32f4xx_hal_eth.c ****     (+) DMAErrorCallback : DMA Error Callback.
  78:Drivers/STM32F4xx_HAL_Driver/Src/stm32f4xx_hal_eth.c ****     (+) MspInitCallback  : MspInit Callback.
  79:Drivers/STM32F4xx_HAL_Driver/Src/stm32f4xx_hal_eth.c ****     (+) MspDeInitCallback: MspDeInit Callback.
  80:Drivers/STM32F4xx_HAL_Driver/Src/stm32f4xx_hal_eth.c **** 
  81:Drivers/STM32F4xx_HAL_Driver/Src/stm32f4xx_hal_eth.c ****   This function takes as parameters the HAL peripheral handle, the Callback ID
  82:Drivers/STM32F4xx_HAL_Driver/Src/stm32f4xx_hal_eth.c ****   and a pointer to the user callback function.
  83:Drivers/STM32F4xx_HAL_Driver/Src/stm32f4xx_hal_eth.c **** 
  84:Drivers/STM32F4xx_HAL_Driver/Src/stm32f4xx_hal_eth.c ****   Use function @ref HAL_ETH_UnRegisterCallback() to reset a callback to the default
  85:Drivers/STM32F4xx_HAL_Driver/Src/stm32f4xx_hal_eth.c ****   weak function.
  86:Drivers/STM32F4xx_HAL_Driver/Src/stm32f4xx_hal_eth.c ****   @ref HAL_ETH_UnRegisterCallback takes as parameters the HAL peripheral handle,
  87:Drivers/STM32F4xx_HAL_Driver/Src/stm32f4xx_hal_eth.c ****   and the Callback ID.
ARM GAS  /tmp/cc39NdF4.s 			page 3


  88:Drivers/STM32F4xx_HAL_Driver/Src/stm32f4xx_hal_eth.c ****   This function allows to reset following callbacks:
  89:Drivers/STM32F4xx_HAL_Driver/Src/stm32f4xx_hal_eth.c ****     (+) TxCpltCallback   : Tx Complete Callback.
  90:Drivers/STM32F4xx_HAL_Driver/Src/stm32f4xx_hal_eth.c ****     (+) RxCpltCallback   : Rx Complete Callback.
  91:Drivers/STM32F4xx_HAL_Driver/Src/stm32f4xx_hal_eth.c ****     (+) DMAErrorCallback : DMA Error Callback.
  92:Drivers/STM32F4xx_HAL_Driver/Src/stm32f4xx_hal_eth.c ****     (+) MspInitCallback  : MspInit Callback.
  93:Drivers/STM32F4xx_HAL_Driver/Src/stm32f4xx_hal_eth.c ****     (+) MspDeInitCallback: MspDeInit Callback.
  94:Drivers/STM32F4xx_HAL_Driver/Src/stm32f4xx_hal_eth.c **** 
  95:Drivers/STM32F4xx_HAL_Driver/Src/stm32f4xx_hal_eth.c ****   By default, after the HAL_ETH_Init and when the state is HAL_ETH_STATE_RESET
  96:Drivers/STM32F4xx_HAL_Driver/Src/stm32f4xx_hal_eth.c ****   all callbacks are set to the corresponding weak functions:
  97:Drivers/STM32F4xx_HAL_Driver/Src/stm32f4xx_hal_eth.c ****   examples @ref HAL_ETH_TxCpltCallback(), @ref HAL_ETH_RxCpltCallback().
  98:Drivers/STM32F4xx_HAL_Driver/Src/stm32f4xx_hal_eth.c ****   Exception done for MspInit and MspDeInit functions that are
  99:Drivers/STM32F4xx_HAL_Driver/Src/stm32f4xx_hal_eth.c ****   reset to the legacy weak function in the HAL_ETH_Init/ @ref HAL_ETH_DeInit only when
 100:Drivers/STM32F4xx_HAL_Driver/Src/stm32f4xx_hal_eth.c ****   these callbacks are null (not registered beforehand).
 101:Drivers/STM32F4xx_HAL_Driver/Src/stm32f4xx_hal_eth.c ****   if not, MspInit or MspDeInit are not null, the HAL_ETH_Init/ @ref HAL_ETH_DeInit
 102:Drivers/STM32F4xx_HAL_Driver/Src/stm32f4xx_hal_eth.c ****   keep and use the user MspInit/MspDeInit callbacks (registered beforehand)
 103:Drivers/STM32F4xx_HAL_Driver/Src/stm32f4xx_hal_eth.c **** 
 104:Drivers/STM32F4xx_HAL_Driver/Src/stm32f4xx_hal_eth.c ****   Callbacks can be registered/unregistered in HAL_ETH_STATE_READY state only.
 105:Drivers/STM32F4xx_HAL_Driver/Src/stm32f4xx_hal_eth.c ****   Exception done MspInit/MspDeInit that can be registered/unregistered
 106:Drivers/STM32F4xx_HAL_Driver/Src/stm32f4xx_hal_eth.c ****   in HAL_ETH_STATE_READY or HAL_ETH_STATE_RESET state,
 107:Drivers/STM32F4xx_HAL_Driver/Src/stm32f4xx_hal_eth.c ****   thus registered (user) MspInit/DeInit callbacks can be used during the Init/DeInit.
 108:Drivers/STM32F4xx_HAL_Driver/Src/stm32f4xx_hal_eth.c ****   In that case first register the MspInit/MspDeInit user callbacks
 109:Drivers/STM32F4xx_HAL_Driver/Src/stm32f4xx_hal_eth.c ****   using @ref HAL_ETH_RegisterCallback() before calling @ref HAL_ETH_DeInit
 110:Drivers/STM32F4xx_HAL_Driver/Src/stm32f4xx_hal_eth.c ****   or HAL_ETH_Init function.
 111:Drivers/STM32F4xx_HAL_Driver/Src/stm32f4xx_hal_eth.c **** 
 112:Drivers/STM32F4xx_HAL_Driver/Src/stm32f4xx_hal_eth.c ****   When The compilation define USE_HAL_ETH_REGISTER_CALLBACKS is set to 0 or
 113:Drivers/STM32F4xx_HAL_Driver/Src/stm32f4xx_hal_eth.c ****   not defined, the callback registration feature is not available and all callbacks
 114:Drivers/STM32F4xx_HAL_Driver/Src/stm32f4xx_hal_eth.c ****   are set to the corresponding weak functions.
 115:Drivers/STM32F4xx_HAL_Driver/Src/stm32f4xx_hal_eth.c **** 
 116:Drivers/STM32F4xx_HAL_Driver/Src/stm32f4xx_hal_eth.c ****   @endverbatim
 117:Drivers/STM32F4xx_HAL_Driver/Src/stm32f4xx_hal_eth.c ****   ******************************************************************************
 118:Drivers/STM32F4xx_HAL_Driver/Src/stm32f4xx_hal_eth.c ****   * @attention
 119:Drivers/STM32F4xx_HAL_Driver/Src/stm32f4xx_hal_eth.c ****   *
 120:Drivers/STM32F4xx_HAL_Driver/Src/stm32f4xx_hal_eth.c ****   * <h2><center>&copy; Copyright (c) 2017 STMicroelectronics.
 121:Drivers/STM32F4xx_HAL_Driver/Src/stm32f4xx_hal_eth.c ****   * All rights reserved.</center></h2>
 122:Drivers/STM32F4xx_HAL_Driver/Src/stm32f4xx_hal_eth.c ****   *
 123:Drivers/STM32F4xx_HAL_Driver/Src/stm32f4xx_hal_eth.c ****   * This software component is licensed by ST under BSD 3-Clause license,
 124:Drivers/STM32F4xx_HAL_Driver/Src/stm32f4xx_hal_eth.c ****   * the "License"; You may not use this file except in compliance with the
 125:Drivers/STM32F4xx_HAL_Driver/Src/stm32f4xx_hal_eth.c ****   * License. You may obtain a copy of the License at:
 126:Drivers/STM32F4xx_HAL_Driver/Src/stm32f4xx_hal_eth.c ****   *                        opensource.org/licenses/BSD-3-Clause
 127:Drivers/STM32F4xx_HAL_Driver/Src/stm32f4xx_hal_eth.c ****   *
 128:Drivers/STM32F4xx_HAL_Driver/Src/stm32f4xx_hal_eth.c ****   ******************************************************************************
 129:Drivers/STM32F4xx_HAL_Driver/Src/stm32f4xx_hal_eth.c ****   */
 130:Drivers/STM32F4xx_HAL_Driver/Src/stm32f4xx_hal_eth.c **** 
 131:Drivers/STM32F4xx_HAL_Driver/Src/stm32f4xx_hal_eth.c **** /* Includes ------------------------------------------------------------------*/
 132:Drivers/STM32F4xx_HAL_Driver/Src/stm32f4xx_hal_eth.c **** #include "stm32f4xx_hal.h"
 133:Drivers/STM32F4xx_HAL_Driver/Src/stm32f4xx_hal_eth.c **** 
 134:Drivers/STM32F4xx_HAL_Driver/Src/stm32f4xx_hal_eth.c **** /** @addtogroup STM32F4xx_HAL_Driver
 135:Drivers/STM32F4xx_HAL_Driver/Src/stm32f4xx_hal_eth.c ****   * @{
 136:Drivers/STM32F4xx_HAL_Driver/Src/stm32f4xx_hal_eth.c ****   */
 137:Drivers/STM32F4xx_HAL_Driver/Src/stm32f4xx_hal_eth.c **** 
 138:Drivers/STM32F4xx_HAL_Driver/Src/stm32f4xx_hal_eth.c **** /** @defgroup ETH ETH 
 139:Drivers/STM32F4xx_HAL_Driver/Src/stm32f4xx_hal_eth.c ****   * @brief ETH HAL module driver
 140:Drivers/STM32F4xx_HAL_Driver/Src/stm32f4xx_hal_eth.c ****   * @{
 141:Drivers/STM32F4xx_HAL_Driver/Src/stm32f4xx_hal_eth.c ****   */
 142:Drivers/STM32F4xx_HAL_Driver/Src/stm32f4xx_hal_eth.c **** 
 143:Drivers/STM32F4xx_HAL_Driver/Src/stm32f4xx_hal_eth.c **** #ifdef HAL_ETH_MODULE_ENABLED
 144:Drivers/STM32F4xx_HAL_Driver/Src/stm32f4xx_hal_eth.c **** 
ARM GAS  /tmp/cc39NdF4.s 			page 4


 145:Drivers/STM32F4xx_HAL_Driver/Src/stm32f4xx_hal_eth.c **** #if defined(STM32F407xx) || defined(STM32F417xx) || defined(STM32F427xx) || defined(STM32F437xx) ||
 146:Drivers/STM32F4xx_HAL_Driver/Src/stm32f4xx_hal_eth.c ****     defined(STM32F429xx) || defined(STM32F439xx) || defined(STM32F469xx) || defined(STM32F479xx)
 147:Drivers/STM32F4xx_HAL_Driver/Src/stm32f4xx_hal_eth.c **** 
 148:Drivers/STM32F4xx_HAL_Driver/Src/stm32f4xx_hal_eth.c **** /* Private typedef -----------------------------------------------------------*/
 149:Drivers/STM32F4xx_HAL_Driver/Src/stm32f4xx_hal_eth.c **** /* Private define ------------------------------------------------------------*/
 150:Drivers/STM32F4xx_HAL_Driver/Src/stm32f4xx_hal_eth.c **** /** @defgroup ETH_Private_Constants ETH Private Constants
 151:Drivers/STM32F4xx_HAL_Driver/Src/stm32f4xx_hal_eth.c ****   * @{
 152:Drivers/STM32F4xx_HAL_Driver/Src/stm32f4xx_hal_eth.c ****   */
 153:Drivers/STM32F4xx_HAL_Driver/Src/stm32f4xx_hal_eth.c **** #define ETH_TIMEOUT_SWRESET               500U  
 154:Drivers/STM32F4xx_HAL_Driver/Src/stm32f4xx_hal_eth.c **** #define ETH_TIMEOUT_LINKED_STATE          5000U
 155:Drivers/STM32F4xx_HAL_Driver/Src/stm32f4xx_hal_eth.c **** #define ETH_TIMEOUT_AUTONEGO_COMPLETED    5000U
 156:Drivers/STM32F4xx_HAL_Driver/Src/stm32f4xx_hal_eth.c **** 
 157:Drivers/STM32F4xx_HAL_Driver/Src/stm32f4xx_hal_eth.c **** /**
 158:Drivers/STM32F4xx_HAL_Driver/Src/stm32f4xx_hal_eth.c ****   * @}
 159:Drivers/STM32F4xx_HAL_Driver/Src/stm32f4xx_hal_eth.c ****   */
 160:Drivers/STM32F4xx_HAL_Driver/Src/stm32f4xx_hal_eth.c **** /* Private macro -------------------------------------------------------------*/
 161:Drivers/STM32F4xx_HAL_Driver/Src/stm32f4xx_hal_eth.c **** /* Private variables ---------------------------------------------------------*/
 162:Drivers/STM32F4xx_HAL_Driver/Src/stm32f4xx_hal_eth.c **** /* Private function prototypes -----------------------------------------------*/
 163:Drivers/STM32F4xx_HAL_Driver/Src/stm32f4xx_hal_eth.c **** /** @defgroup ETH_Private_Functions ETH Private Functions
 164:Drivers/STM32F4xx_HAL_Driver/Src/stm32f4xx_hal_eth.c ****   * @{
 165:Drivers/STM32F4xx_HAL_Driver/Src/stm32f4xx_hal_eth.c ****   */
 166:Drivers/STM32F4xx_HAL_Driver/Src/stm32f4xx_hal_eth.c **** static void ETH_MACDMAConfig(ETH_HandleTypeDef *heth, uint32_t err);
 167:Drivers/STM32F4xx_HAL_Driver/Src/stm32f4xx_hal_eth.c **** static void ETH_MACAddressConfig(ETH_HandleTypeDef *heth, uint32_t MacAddr, uint8_t *Addr);
 168:Drivers/STM32F4xx_HAL_Driver/Src/stm32f4xx_hal_eth.c **** static void ETH_MACReceptionEnable(ETH_HandleTypeDef *heth);
 169:Drivers/STM32F4xx_HAL_Driver/Src/stm32f4xx_hal_eth.c **** static void ETH_MACReceptionDisable(ETH_HandleTypeDef *heth);
 170:Drivers/STM32F4xx_HAL_Driver/Src/stm32f4xx_hal_eth.c **** static void ETH_MACTransmissionEnable(ETH_HandleTypeDef *heth);
 171:Drivers/STM32F4xx_HAL_Driver/Src/stm32f4xx_hal_eth.c **** static void ETH_MACTransmissionDisable(ETH_HandleTypeDef *heth);
 172:Drivers/STM32F4xx_HAL_Driver/Src/stm32f4xx_hal_eth.c **** static void ETH_DMATransmissionEnable(ETH_HandleTypeDef *heth);
 173:Drivers/STM32F4xx_HAL_Driver/Src/stm32f4xx_hal_eth.c **** static void ETH_DMATransmissionDisable(ETH_HandleTypeDef *heth);
 174:Drivers/STM32F4xx_HAL_Driver/Src/stm32f4xx_hal_eth.c **** static void ETH_DMAReceptionEnable(ETH_HandleTypeDef *heth);
 175:Drivers/STM32F4xx_HAL_Driver/Src/stm32f4xx_hal_eth.c **** static void ETH_DMAReceptionDisable(ETH_HandleTypeDef *heth);
 176:Drivers/STM32F4xx_HAL_Driver/Src/stm32f4xx_hal_eth.c **** static void ETH_FlushTransmitFIFO(ETH_HandleTypeDef *heth);
 177:Drivers/STM32F4xx_HAL_Driver/Src/stm32f4xx_hal_eth.c **** static void ETH_Delay(uint32_t mdelay);
 178:Drivers/STM32F4xx_HAL_Driver/Src/stm32f4xx_hal_eth.c **** #if (USE_HAL_ETH_REGISTER_CALLBACKS == 1)
 179:Drivers/STM32F4xx_HAL_Driver/Src/stm32f4xx_hal_eth.c **** static void ETH_InitCallbacksToDefault(ETH_HandleTypeDef *heth);
 180:Drivers/STM32F4xx_HAL_Driver/Src/stm32f4xx_hal_eth.c **** #endif /* USE_HAL_ETH_REGISTER_CALLBACKS */
 181:Drivers/STM32F4xx_HAL_Driver/Src/stm32f4xx_hal_eth.c **** 
 182:Drivers/STM32F4xx_HAL_Driver/Src/stm32f4xx_hal_eth.c **** /**
 183:Drivers/STM32F4xx_HAL_Driver/Src/stm32f4xx_hal_eth.c ****   * @}
 184:Drivers/STM32F4xx_HAL_Driver/Src/stm32f4xx_hal_eth.c ****   */
 185:Drivers/STM32F4xx_HAL_Driver/Src/stm32f4xx_hal_eth.c **** /* Private functions ---------------------------------------------------------*/
 186:Drivers/STM32F4xx_HAL_Driver/Src/stm32f4xx_hal_eth.c **** 
 187:Drivers/STM32F4xx_HAL_Driver/Src/stm32f4xx_hal_eth.c **** /** @defgroup ETH_Exported_Functions ETH Exported Functions
 188:Drivers/STM32F4xx_HAL_Driver/Src/stm32f4xx_hal_eth.c ****   * @{
 189:Drivers/STM32F4xx_HAL_Driver/Src/stm32f4xx_hal_eth.c ****   */
 190:Drivers/STM32F4xx_HAL_Driver/Src/stm32f4xx_hal_eth.c **** 
 191:Drivers/STM32F4xx_HAL_Driver/Src/stm32f4xx_hal_eth.c **** /** @defgroup ETH_Exported_Functions_Group1 Initialization and de-initialization functions 
 192:Drivers/STM32F4xx_HAL_Driver/Src/stm32f4xx_hal_eth.c ****   *  @brief   Initialization and Configuration functions 
 193:Drivers/STM32F4xx_HAL_Driver/Src/stm32f4xx_hal_eth.c ****   *
 194:Drivers/STM32F4xx_HAL_Driver/Src/stm32f4xx_hal_eth.c ****   @verbatim    
 195:Drivers/STM32F4xx_HAL_Driver/Src/stm32f4xx_hal_eth.c ****   ===============================================================================
 196:Drivers/STM32F4xx_HAL_Driver/Src/stm32f4xx_hal_eth.c ****             ##### Initialization and de-initialization functions #####
 197:Drivers/STM32F4xx_HAL_Driver/Src/stm32f4xx_hal_eth.c ****   ===============================================================================
 198:Drivers/STM32F4xx_HAL_Driver/Src/stm32f4xx_hal_eth.c ****   [..]  This section provides functions allowing to:
 199:Drivers/STM32F4xx_HAL_Driver/Src/stm32f4xx_hal_eth.c ****       (+) Initialize and configure the Ethernet peripheral
 200:Drivers/STM32F4xx_HAL_Driver/Src/stm32f4xx_hal_eth.c ****       (+) De-initialize the Ethernet peripheral
 201:Drivers/STM32F4xx_HAL_Driver/Src/stm32f4xx_hal_eth.c **** 
ARM GAS  /tmp/cc39NdF4.s 			page 5


 202:Drivers/STM32F4xx_HAL_Driver/Src/stm32f4xx_hal_eth.c ****   @endverbatim
 203:Drivers/STM32F4xx_HAL_Driver/Src/stm32f4xx_hal_eth.c ****   * @{
 204:Drivers/STM32F4xx_HAL_Driver/Src/stm32f4xx_hal_eth.c ****   */
 205:Drivers/STM32F4xx_HAL_Driver/Src/stm32f4xx_hal_eth.c **** 
 206:Drivers/STM32F4xx_HAL_Driver/Src/stm32f4xx_hal_eth.c **** /**
 207:Drivers/STM32F4xx_HAL_Driver/Src/stm32f4xx_hal_eth.c ****   * @brief  Initializes the Ethernet MAC and DMA according to default
 208:Drivers/STM32F4xx_HAL_Driver/Src/stm32f4xx_hal_eth.c ****   *         parameters.
 209:Drivers/STM32F4xx_HAL_Driver/Src/stm32f4xx_hal_eth.c ****   * @param  heth pointer to a ETH_HandleTypeDef structure that contains
 210:Drivers/STM32F4xx_HAL_Driver/Src/stm32f4xx_hal_eth.c ****   *         the configuration information for ETHERNET module
 211:Drivers/STM32F4xx_HAL_Driver/Src/stm32f4xx_hal_eth.c ****   * @retval HAL status
 212:Drivers/STM32F4xx_HAL_Driver/Src/stm32f4xx_hal_eth.c ****   */
 213:Drivers/STM32F4xx_HAL_Driver/Src/stm32f4xx_hal_eth.c **** HAL_StatusTypeDef HAL_ETH_Init(ETH_HandleTypeDef *heth)
 214:Drivers/STM32F4xx_HAL_Driver/Src/stm32f4xx_hal_eth.c **** {
  29              		.loc 1 214 1
  30              		.cfi_startproc
  31              		@ args = 0, pretend = 0, frame = 32
  32              		@ frame_needed = 1, uses_anonymous_args = 0
  33 0000 80B5     		push	{r7, lr}
  34              	.LCFI0:
  35              		.cfi_def_cfa_offset 8
  36              		.cfi_offset 7, -8
  37              		.cfi_offset 14, -4
  38 0002 88B0     		sub	sp, sp, #32
  39              	.LCFI1:
  40              		.cfi_def_cfa_offset 40
  41 0004 00AF     		add	r7, sp, #0
  42              	.LCFI2:
  43              		.cfi_def_cfa_register 7
  44 0006 7860     		str	r0, [r7, #4]
 215:Drivers/STM32F4xx_HAL_Driver/Src/stm32f4xx_hal_eth.c ****   uint32_t tmpreg1 = 0U, phyreg = 0U;
  45              		.loc 1 215 12
  46 0008 0023     		movs	r3, #0
  47 000a FB61     		str	r3, [r7, #28]
  48              		.loc 1 215 26
  49 000c 0023     		movs	r3, #0
  50 000e FB60     		str	r3, [r7, #12]
 216:Drivers/STM32F4xx_HAL_Driver/Src/stm32f4xx_hal_eth.c ****   uint32_t hclk = 60000000U;
  51              		.loc 1 216 12
  52 0010 AA4B     		ldr	r3, .L28
  53 0012 BB61     		str	r3, [r7, #24]
 217:Drivers/STM32F4xx_HAL_Driver/Src/stm32f4xx_hal_eth.c ****   uint32_t tickstart = 0U;
  54              		.loc 1 217 12
  55 0014 0023     		movs	r3, #0
  56 0016 7B61     		str	r3, [r7, #20]
 218:Drivers/STM32F4xx_HAL_Driver/Src/stm32f4xx_hal_eth.c ****   uint32_t err = ETH_SUCCESS;
  57              		.loc 1 218 12
  58 0018 0023     		movs	r3, #0
  59 001a 3B61     		str	r3, [r7, #16]
 219:Drivers/STM32F4xx_HAL_Driver/Src/stm32f4xx_hal_eth.c ****   
 220:Drivers/STM32F4xx_HAL_Driver/Src/stm32f4xx_hal_eth.c ****   /* Check the ETH peripheral state */
 221:Drivers/STM32F4xx_HAL_Driver/Src/stm32f4xx_hal_eth.c ****   if(heth == NULL)
  60              		.loc 1 221 5
  61 001c 7B68     		ldr	r3, [r7, #4]
  62 001e 002B     		cmp	r3, #0
  63 0020 01D1     		bne	.L2
 222:Drivers/STM32F4xx_HAL_Driver/Src/stm32f4xx_hal_eth.c ****   {
 223:Drivers/STM32F4xx_HAL_Driver/Src/stm32f4xx_hal_eth.c ****     return HAL_ERROR;
ARM GAS  /tmp/cc39NdF4.s 			page 6


  64              		.loc 1 223 12
  65 0022 0123     		movs	r3, #1
  66 0024 85E1     		b	.L26
  67              	.L2:
 224:Drivers/STM32F4xx_HAL_Driver/Src/stm32f4xx_hal_eth.c ****   }
 225:Drivers/STM32F4xx_HAL_Driver/Src/stm32f4xx_hal_eth.c ****   
 226:Drivers/STM32F4xx_HAL_Driver/Src/stm32f4xx_hal_eth.c ****   /* Check parameters */
 227:Drivers/STM32F4xx_HAL_Driver/Src/stm32f4xx_hal_eth.c ****   assert_param(IS_ETH_AUTONEGOTIATION(heth->Init.AutoNegotiation));
 228:Drivers/STM32F4xx_HAL_Driver/Src/stm32f4xx_hal_eth.c ****   assert_param(IS_ETH_RX_MODE(heth->Init.RxMode));
 229:Drivers/STM32F4xx_HAL_Driver/Src/stm32f4xx_hal_eth.c ****   assert_param(IS_ETH_CHECKSUM_MODE(heth->Init.ChecksumMode));
 230:Drivers/STM32F4xx_HAL_Driver/Src/stm32f4xx_hal_eth.c ****   assert_param(IS_ETH_MEDIA_INTERFACE(heth->Init.MediaInterface));  
 231:Drivers/STM32F4xx_HAL_Driver/Src/stm32f4xx_hal_eth.c ****   
 232:Drivers/STM32F4xx_HAL_Driver/Src/stm32f4xx_hal_eth.c ****   if(heth->State == HAL_ETH_STATE_RESET)
  68              		.loc 1 232 10
  69 0026 7B68     		ldr	r3, [r7, #4]
  70 0028 93F84430 		ldrb	r3, [r3, #68]
  71 002c DBB2     		uxtb	r3, r3
  72              		.loc 1 232 5
  73 002e 002B     		cmp	r3, #0
  74 0030 06D1     		bne	.L4
 233:Drivers/STM32F4xx_HAL_Driver/Src/stm32f4xx_hal_eth.c ****   {
 234:Drivers/STM32F4xx_HAL_Driver/Src/stm32f4xx_hal_eth.c ****     /* Allocate lock resource and initialize it */
 235:Drivers/STM32F4xx_HAL_Driver/Src/stm32f4xx_hal_eth.c ****     heth->Lock = HAL_UNLOCKED;
  75              		.loc 1 235 16
  76 0032 7B68     		ldr	r3, [r7, #4]
  77 0034 0022     		movs	r2, #0
  78 0036 83F84520 		strb	r2, [r3, #69]
 236:Drivers/STM32F4xx_HAL_Driver/Src/stm32f4xx_hal_eth.c **** #if (USE_HAL_ETH_REGISTER_CALLBACKS == 1)
 237:Drivers/STM32F4xx_HAL_Driver/Src/stm32f4xx_hal_eth.c ****     ETH_InitCallbacksToDefault(heth);
 238:Drivers/STM32F4xx_HAL_Driver/Src/stm32f4xx_hal_eth.c **** 
 239:Drivers/STM32F4xx_HAL_Driver/Src/stm32f4xx_hal_eth.c ****     if(heth->MspInitCallback == NULL)
 240:Drivers/STM32F4xx_HAL_Driver/Src/stm32f4xx_hal_eth.c ****     {
 241:Drivers/STM32F4xx_HAL_Driver/Src/stm32f4xx_hal_eth.c ****       /* Init the low level hardware : GPIO, CLOCK, NVIC. */
 242:Drivers/STM32F4xx_HAL_Driver/Src/stm32f4xx_hal_eth.c ****       heth->MspInitCallback = HAL_ETH_MspInit;
 243:Drivers/STM32F4xx_HAL_Driver/Src/stm32f4xx_hal_eth.c ****     }
 244:Drivers/STM32F4xx_HAL_Driver/Src/stm32f4xx_hal_eth.c ****     heth->MspInitCallback(heth);
 245:Drivers/STM32F4xx_HAL_Driver/Src/stm32f4xx_hal_eth.c **** 
 246:Drivers/STM32F4xx_HAL_Driver/Src/stm32f4xx_hal_eth.c **** #else
 247:Drivers/STM32F4xx_HAL_Driver/Src/stm32f4xx_hal_eth.c ****     /* Init the low level hardware : GPIO, CLOCK, NVIC. */
 248:Drivers/STM32F4xx_HAL_Driver/Src/stm32f4xx_hal_eth.c ****     HAL_ETH_MspInit(heth);
  79              		.loc 1 248 5
  80 003a 7868     		ldr	r0, [r7, #4]
  81 003c FFF7FEFF 		bl	HAL_ETH_MspInit
  82              	.L4:
  83              	.LBB2:
 249:Drivers/STM32F4xx_HAL_Driver/Src/stm32f4xx_hal_eth.c **** #endif /* USE_HAL_ETH_REGISTER_CALLBACKS */
 250:Drivers/STM32F4xx_HAL_Driver/Src/stm32f4xx_hal_eth.c ****   }
 251:Drivers/STM32F4xx_HAL_Driver/Src/stm32f4xx_hal_eth.c ****   
 252:Drivers/STM32F4xx_HAL_Driver/Src/stm32f4xx_hal_eth.c ****   /* Enable SYSCFG Clock */
 253:Drivers/STM32F4xx_HAL_Driver/Src/stm32f4xx_hal_eth.c ****   __HAL_RCC_SYSCFG_CLK_ENABLE();
  84              		.loc 1 253 3
  85 0040 0023     		movs	r3, #0
  86 0042 BB60     		str	r3, [r7, #8]
  87 0044 9E4B     		ldr	r3, .L28+4
  88 0046 5B6C     		ldr	r3, [r3, #68]
  89 0048 9D4A     		ldr	r2, .L28+4
  90 004a 43F48043 		orr	r3, r3, #16384
ARM GAS  /tmp/cc39NdF4.s 			page 7


  91 004e 5364     		str	r3, [r2, #68]
  92 0050 9B4B     		ldr	r3, .L28+4
  93 0052 5B6C     		ldr	r3, [r3, #68]
  94 0054 03F48043 		and	r3, r3, #16384
  95 0058 BB60     		str	r3, [r7, #8]
  96 005a BB68     		ldr	r3, [r7, #8]
  97              	.LBE2:
 254:Drivers/STM32F4xx_HAL_Driver/Src/stm32f4xx_hal_eth.c ****   
 255:Drivers/STM32F4xx_HAL_Driver/Src/stm32f4xx_hal_eth.c ****   /* Select MII or RMII Mode*/
 256:Drivers/STM32F4xx_HAL_Driver/Src/stm32f4xx_hal_eth.c ****   SYSCFG->PMC &= ~(SYSCFG_PMC_MII_RMII_SEL);
  98              		.loc 1 256 15
  99 005c 994B     		ldr	r3, .L28+8
 100 005e 5B68     		ldr	r3, [r3, #4]
 101 0060 984A     		ldr	r2, .L28+8
 102 0062 23F40003 		bic	r3, r3, #8388608
 103 0066 5360     		str	r3, [r2, #4]
 257:Drivers/STM32F4xx_HAL_Driver/Src/stm32f4xx_hal_eth.c ****   SYSCFG->PMC |= (uint32_t)heth->Init.MediaInterface;
 104              		.loc 1 257 15
 105 0068 964B     		ldr	r3, .L28+8
 106 006a 5A68     		ldr	r2, [r3, #4]
 107              		.loc 1 257 38
 108 006c 7B68     		ldr	r3, [r7, #4]
 109 006e 1B6A     		ldr	r3, [r3, #32]
 110              		.loc 1 257 15
 111 0070 9449     		ldr	r1, .L28+8
 112 0072 1343     		orrs	r3, r3, r2
 113 0074 4B60     		str	r3, [r1, #4]
 258:Drivers/STM32F4xx_HAL_Driver/Src/stm32f4xx_hal_eth.c ****   
 259:Drivers/STM32F4xx_HAL_Driver/Src/stm32f4xx_hal_eth.c ****   /* Ethernet Software reset */
 260:Drivers/STM32F4xx_HAL_Driver/Src/stm32f4xx_hal_eth.c ****   /* Set the SWR bit: resets all MAC subsystem internal registers and logic */
 261:Drivers/STM32F4xx_HAL_Driver/Src/stm32f4xx_hal_eth.c ****   /* After reset all the registers holds their respective reset values */
 262:Drivers/STM32F4xx_HAL_Driver/Src/stm32f4xx_hal_eth.c ****   (heth->Instance)->DMABMR |= ETH_DMABMR_SR;
 114              		.loc 1 262 8
 115 0076 7B68     		ldr	r3, [r7, #4]
 116 0078 1B68     		ldr	r3, [r3]
 117              		.loc 1 262 28
 118 007a 03F58053 		add	r3, r3, #4096
 119 007e 1A68     		ldr	r2, [r3]
 120              		.loc 1 262 8
 121 0080 7B68     		ldr	r3, [r7, #4]
 122 0082 1B68     		ldr	r3, [r3]
 123              		.loc 1 262 28
 124 0084 42F00102 		orr	r2, r2, #1
 125 0088 03F58053 		add	r3, r3, #4096
 126 008c 1A60     		str	r2, [r3]
 263:Drivers/STM32F4xx_HAL_Driver/Src/stm32f4xx_hal_eth.c ****   
 264:Drivers/STM32F4xx_HAL_Driver/Src/stm32f4xx_hal_eth.c ****   /* Get tick */
 265:Drivers/STM32F4xx_HAL_Driver/Src/stm32f4xx_hal_eth.c ****   tickstart = HAL_GetTick();
 127              		.loc 1 265 15
 128 008e FFF7FEFF 		bl	HAL_GetTick
 129 0092 7861     		str	r0, [r7, #20]
 266:Drivers/STM32F4xx_HAL_Driver/Src/stm32f4xx_hal_eth.c ****   
 267:Drivers/STM32F4xx_HAL_Driver/Src/stm32f4xx_hal_eth.c ****   /* Wait for software reset */
 268:Drivers/STM32F4xx_HAL_Driver/Src/stm32f4xx_hal_eth.c ****   while (((heth->Instance)->DMABMR & ETH_DMABMR_SR) != (uint32_t)RESET)
 130              		.loc 1 268 9
 131 0094 11E0     		b	.L5
 132              	.L6:
ARM GAS  /tmp/cc39NdF4.s 			page 8


 269:Drivers/STM32F4xx_HAL_Driver/Src/stm32f4xx_hal_eth.c ****   {
 270:Drivers/STM32F4xx_HAL_Driver/Src/stm32f4xx_hal_eth.c ****     /* Check for the Timeout */
 271:Drivers/STM32F4xx_HAL_Driver/Src/stm32f4xx_hal_eth.c ****     if((HAL_GetTick() - tickstart ) > ETH_TIMEOUT_SWRESET)
 133              		.loc 1 271 9
 134 0096 FFF7FEFF 		bl	HAL_GetTick
 135 009a 0246     		mov	r2, r0
 136              		.loc 1 271 23
 137 009c 7B69     		ldr	r3, [r7, #20]
 138 009e D31A     		subs	r3, r2, r3
 139              		.loc 1 271 7
 140 00a0 B3F5FA7F 		cmp	r3, #500
 141 00a4 09D9     		bls	.L5
 272:Drivers/STM32F4xx_HAL_Driver/Src/stm32f4xx_hal_eth.c ****     {     
 273:Drivers/STM32F4xx_HAL_Driver/Src/stm32f4xx_hal_eth.c ****       heth->State= HAL_ETH_STATE_TIMEOUT;
 142              		.loc 1 273 18
 143 00a6 7B68     		ldr	r3, [r7, #4]
 144 00a8 0322     		movs	r2, #3
 145 00aa 83F84420 		strb	r2, [r3, #68]
 274:Drivers/STM32F4xx_HAL_Driver/Src/stm32f4xx_hal_eth.c ****   
 275:Drivers/STM32F4xx_HAL_Driver/Src/stm32f4xx_hal_eth.c ****       /* Process Unlocked */
 276:Drivers/STM32F4xx_HAL_Driver/Src/stm32f4xx_hal_eth.c ****       __HAL_UNLOCK(heth);
 146              		.loc 1 276 7
 147 00ae 7B68     		ldr	r3, [r7, #4]
 148 00b0 0022     		movs	r2, #0
 149 00b2 83F84520 		strb	r2, [r3, #69]
 277:Drivers/STM32F4xx_HAL_Driver/Src/stm32f4xx_hal_eth.c ****     
 278:Drivers/STM32F4xx_HAL_Driver/Src/stm32f4xx_hal_eth.c ****       /* Note: The SWR is not performed if the ETH_RX_CLK or the ETH_TX_CLK are  
 279:Drivers/STM32F4xx_HAL_Driver/Src/stm32f4xx_hal_eth.c ****          not available, please check your external PHY or the IO configuration */
 280:Drivers/STM32F4xx_HAL_Driver/Src/stm32f4xx_hal_eth.c ****       return HAL_TIMEOUT;
 150              		.loc 1 280 14
 151 00b6 0323     		movs	r3, #3
 152 00b8 3BE1     		b	.L26
 153              	.L5:
 268:Drivers/STM32F4xx_HAL_Driver/Src/stm32f4xx_hal_eth.c ****   {
 154              		.loc 1 268 16
 155 00ba 7B68     		ldr	r3, [r7, #4]
 156 00bc 1B68     		ldr	r3, [r3]
 268:Drivers/STM32F4xx_HAL_Driver/Src/stm32f4xx_hal_eth.c ****   {
 157              		.loc 1 268 27
 158 00be 03F58053 		add	r3, r3, #4096
 159 00c2 1B68     		ldr	r3, [r3]
 268:Drivers/STM32F4xx_HAL_Driver/Src/stm32f4xx_hal_eth.c ****   {
 160              		.loc 1 268 36
 161 00c4 03F00103 		and	r3, r3, #1
 268:Drivers/STM32F4xx_HAL_Driver/Src/stm32f4xx_hal_eth.c ****   {
 162              		.loc 1 268 9
 163 00c8 002B     		cmp	r3, #0
 164 00ca E4D1     		bne	.L6
 281:Drivers/STM32F4xx_HAL_Driver/Src/stm32f4xx_hal_eth.c ****     }
 282:Drivers/STM32F4xx_HAL_Driver/Src/stm32f4xx_hal_eth.c ****   }
 283:Drivers/STM32F4xx_HAL_Driver/Src/stm32f4xx_hal_eth.c ****   
 284:Drivers/STM32F4xx_HAL_Driver/Src/stm32f4xx_hal_eth.c ****   /*-------------------------------- MAC Initialization ----------------------*/
 285:Drivers/STM32F4xx_HAL_Driver/Src/stm32f4xx_hal_eth.c ****   /* Get the ETHERNET MACMIIAR value */
 286:Drivers/STM32F4xx_HAL_Driver/Src/stm32f4xx_hal_eth.c ****   tmpreg1 = (heth->Instance)->MACMIIAR;
 165              		.loc 1 286 18
 166 00cc 7B68     		ldr	r3, [r7, #4]
 167 00ce 1B68     		ldr	r3, [r3]
ARM GAS  /tmp/cc39NdF4.s 			page 9


 168              		.loc 1 286 11
 169 00d0 1B69     		ldr	r3, [r3, #16]
 170 00d2 FB61     		str	r3, [r7, #28]
 287:Drivers/STM32F4xx_HAL_Driver/Src/stm32f4xx_hal_eth.c ****   /* Clear CSR Clock Range CR[2:0] bits */
 288:Drivers/STM32F4xx_HAL_Driver/Src/stm32f4xx_hal_eth.c ****   tmpreg1 &= ETH_MACMIIAR_CR_MASK;
 171              		.loc 1 288 11
 172 00d4 FB69     		ldr	r3, [r7, #28]
 173 00d6 23F01C03 		bic	r3, r3, #28
 174 00da FB61     		str	r3, [r7, #28]
 289:Drivers/STM32F4xx_HAL_Driver/Src/stm32f4xx_hal_eth.c ****   
 290:Drivers/STM32F4xx_HAL_Driver/Src/stm32f4xx_hal_eth.c ****   /* Get hclk frequency value */
 291:Drivers/STM32F4xx_HAL_Driver/Src/stm32f4xx_hal_eth.c ****   hclk = HAL_RCC_GetHCLKFreq();
 175              		.loc 1 291 10
 176 00dc FFF7FEFF 		bl	HAL_RCC_GetHCLKFreq
 177 00e0 B861     		str	r0, [r7, #24]
 292:Drivers/STM32F4xx_HAL_Driver/Src/stm32f4xx_hal_eth.c ****   
 293:Drivers/STM32F4xx_HAL_Driver/Src/stm32f4xx_hal_eth.c ****   /* Set CR bits depending on hclk value */
 294:Drivers/STM32F4xx_HAL_Driver/Src/stm32f4xx_hal_eth.c ****   if((hclk >= 20000000U)&&(hclk < 35000000U))
 178              		.loc 1 294 5
 179 00e2 BB69     		ldr	r3, [r7, #24]
 180 00e4 784A     		ldr	r2, .L28+12
 181 00e6 9342     		cmp	r3, r2
 182 00e8 08D9     		bls	.L7
 183              		.loc 1 294 25 discriminator 1
 184 00ea BB69     		ldr	r3, [r7, #24]
 185 00ec 774A     		ldr	r2, .L28+16
 186 00ee 9342     		cmp	r3, r2
 187 00f0 04D8     		bhi	.L7
 295:Drivers/STM32F4xx_HAL_Driver/Src/stm32f4xx_hal_eth.c ****   {
 296:Drivers/STM32F4xx_HAL_Driver/Src/stm32f4xx_hal_eth.c ****     /* CSR Clock Range between 20-35 MHz */
 297:Drivers/STM32F4xx_HAL_Driver/Src/stm32f4xx_hal_eth.c ****     tmpreg1 |= (uint32_t)ETH_MACMIIAR_CR_Div16;
 188              		.loc 1 297 13
 189 00f2 FB69     		ldr	r3, [r7, #28]
 190 00f4 43F00803 		orr	r3, r3, #8
 191 00f8 FB61     		str	r3, [r7, #28]
 192 00fa 27E0     		b	.L8
 193              	.L7:
 298:Drivers/STM32F4xx_HAL_Driver/Src/stm32f4xx_hal_eth.c ****   }
 299:Drivers/STM32F4xx_HAL_Driver/Src/stm32f4xx_hal_eth.c ****   else if((hclk >= 35000000U)&&(hclk < 60000000U))
 194              		.loc 1 299 10
 195 00fc BB69     		ldr	r3, [r7, #24]
 196 00fe 734A     		ldr	r2, .L28+16
 197 0100 9342     		cmp	r3, r2
 198 0102 08D9     		bls	.L9
 199              		.loc 1 299 30 discriminator 1
 200 0104 BB69     		ldr	r3, [r7, #24]
 201 0106 724A     		ldr	r2, .L28+20
 202 0108 9342     		cmp	r3, r2
 203 010a 04D8     		bhi	.L9
 300:Drivers/STM32F4xx_HAL_Driver/Src/stm32f4xx_hal_eth.c ****   {
 301:Drivers/STM32F4xx_HAL_Driver/Src/stm32f4xx_hal_eth.c ****     /* CSR Clock Range between 35-60 MHz */ 
 302:Drivers/STM32F4xx_HAL_Driver/Src/stm32f4xx_hal_eth.c ****     tmpreg1 |= (uint32_t)ETH_MACMIIAR_CR_Div26;
 204              		.loc 1 302 13
 205 010c FB69     		ldr	r3, [r7, #28]
 206 010e 43F00C03 		orr	r3, r3, #12
 207 0112 FB61     		str	r3, [r7, #28]
 208 0114 1AE0     		b	.L8
ARM GAS  /tmp/cc39NdF4.s 			page 10


 209              	.L9:
 303:Drivers/STM32F4xx_HAL_Driver/Src/stm32f4xx_hal_eth.c ****   }  
 304:Drivers/STM32F4xx_HAL_Driver/Src/stm32f4xx_hal_eth.c ****   else if((hclk >= 60000000U)&&(hclk < 100000000U))
 210              		.loc 1 304 10
 211 0116 BB69     		ldr	r3, [r7, #24]
 212 0118 6D4A     		ldr	r2, .L28+20
 213 011a 9342     		cmp	r3, r2
 214 011c 03D9     		bls	.L10
 215              		.loc 1 304 30 discriminator 1
 216 011e BB69     		ldr	r3, [r7, #24]
 217 0120 6C4A     		ldr	r2, .L28+24
 218 0122 9342     		cmp	r3, r2
 219 0124 11D9     		bls	.L27
 220              	.L10:
 305:Drivers/STM32F4xx_HAL_Driver/Src/stm32f4xx_hal_eth.c ****   {
 306:Drivers/STM32F4xx_HAL_Driver/Src/stm32f4xx_hal_eth.c ****     /* CSR Clock Range between 60-100 MHz */ 
 307:Drivers/STM32F4xx_HAL_Driver/Src/stm32f4xx_hal_eth.c ****     tmpreg1 |= (uint32_t)ETH_MACMIIAR_CR_Div42;
 308:Drivers/STM32F4xx_HAL_Driver/Src/stm32f4xx_hal_eth.c ****   }  
 309:Drivers/STM32F4xx_HAL_Driver/Src/stm32f4xx_hal_eth.c ****   else if((hclk >= 100000000U)&&(hclk < 150000000U))
 221              		.loc 1 309 10
 222 0126 BB69     		ldr	r3, [r7, #24]
 223 0128 6A4A     		ldr	r2, .L28+24
 224 012a 9342     		cmp	r3, r2
 225 012c 08D9     		bls	.L11
 226              		.loc 1 309 31 discriminator 1
 227 012e BB69     		ldr	r3, [r7, #24]
 228 0130 694A     		ldr	r2, .L28+28
 229 0132 9342     		cmp	r3, r2
 230 0134 04D8     		bhi	.L11
 310:Drivers/STM32F4xx_HAL_Driver/Src/stm32f4xx_hal_eth.c ****   {
 311:Drivers/STM32F4xx_HAL_Driver/Src/stm32f4xx_hal_eth.c ****     /* CSR Clock Range between 100-150 MHz */ 
 312:Drivers/STM32F4xx_HAL_Driver/Src/stm32f4xx_hal_eth.c ****     tmpreg1 |= (uint32_t)ETH_MACMIIAR_CR_Div62;
 231              		.loc 1 312 13
 232 0136 FB69     		ldr	r3, [r7, #28]
 233 0138 43F00403 		orr	r3, r3, #4
 234 013c FB61     		str	r3, [r7, #28]
 235 013e 05E0     		b	.L8
 236              	.L11:
 313:Drivers/STM32F4xx_HAL_Driver/Src/stm32f4xx_hal_eth.c ****   }
 314:Drivers/STM32F4xx_HAL_Driver/Src/stm32f4xx_hal_eth.c ****   else /* ((hclk >= 150000000)&&(hclk <= 183000000)) */
 315:Drivers/STM32F4xx_HAL_Driver/Src/stm32f4xx_hal_eth.c ****   {
 316:Drivers/STM32F4xx_HAL_Driver/Src/stm32f4xx_hal_eth.c ****     /* CSR Clock Range between 150-183 MHz */ 
 317:Drivers/STM32F4xx_HAL_Driver/Src/stm32f4xx_hal_eth.c ****     tmpreg1 |= (uint32_t)ETH_MACMIIAR_CR_Div102;    
 237              		.loc 1 317 13
 238 0140 FB69     		ldr	r3, [r7, #28]
 239 0142 43F01003 		orr	r3, r3, #16
 240 0146 FB61     		str	r3, [r7, #28]
 241 0148 00E0     		b	.L8
 242              	.L27:
 307:Drivers/STM32F4xx_HAL_Driver/Src/stm32f4xx_hal_eth.c ****   }  
 243              		.loc 1 307 13
 244 014a 00BF     		nop
 245              	.L8:
 318:Drivers/STM32F4xx_HAL_Driver/Src/stm32f4xx_hal_eth.c ****   }
 319:Drivers/STM32F4xx_HAL_Driver/Src/stm32f4xx_hal_eth.c ****   
 320:Drivers/STM32F4xx_HAL_Driver/Src/stm32f4xx_hal_eth.c ****   /* Write to ETHERNET MAC MIIAR: Configure the ETHERNET CSR Clock Range */
 321:Drivers/STM32F4xx_HAL_Driver/Src/stm32f4xx_hal_eth.c ****   (heth->Instance)->MACMIIAR = (uint32_t)tmpreg1;
ARM GAS  /tmp/cc39NdF4.s 			page 11


 246              		.loc 1 321 8
 247 014c 7B68     		ldr	r3, [r7, #4]
 248 014e 1B68     		ldr	r3, [r3]
 249              		.loc 1 321 30
 250 0150 FA69     		ldr	r2, [r7, #28]
 251 0152 1A61     		str	r2, [r3, #16]
 322:Drivers/STM32F4xx_HAL_Driver/Src/stm32f4xx_hal_eth.c ****   
 323:Drivers/STM32F4xx_HAL_Driver/Src/stm32f4xx_hal_eth.c ****   /*-------------------- PHY initialization and configuration ----------------*/
 324:Drivers/STM32F4xx_HAL_Driver/Src/stm32f4xx_hal_eth.c ****   /* Put the PHY in reset mode */
 325:Drivers/STM32F4xx_HAL_Driver/Src/stm32f4xx_hal_eth.c ****   if((HAL_ETH_WritePHYRegister(heth, PHY_BCR, PHY_RESET)) != HAL_OK)
 252              		.loc 1 325 7
 253 0154 4FF40042 		mov	r2, #32768
 254 0158 0021     		movs	r1, #0
 255 015a 7868     		ldr	r0, [r7, #4]
 256 015c FFF7FEFF 		bl	HAL_ETH_WritePHYRegister
 257 0160 0346     		mov	r3, r0
 258              		.loc 1 325 5
 259 0162 002B     		cmp	r3, #0
 260 0164 0BD0     		beq	.L12
 326:Drivers/STM32F4xx_HAL_Driver/Src/stm32f4xx_hal_eth.c ****   {
 327:Drivers/STM32F4xx_HAL_Driver/Src/stm32f4xx_hal_eth.c ****     /* In case of write timeout */
 328:Drivers/STM32F4xx_HAL_Driver/Src/stm32f4xx_hal_eth.c ****     err = ETH_ERROR;
 261              		.loc 1 328 9
 262 0166 0123     		movs	r3, #1
 263 0168 3B61     		str	r3, [r7, #16]
 329:Drivers/STM32F4xx_HAL_Driver/Src/stm32f4xx_hal_eth.c ****     
 330:Drivers/STM32F4xx_HAL_Driver/Src/stm32f4xx_hal_eth.c ****     /* Config MAC and DMA */
 331:Drivers/STM32F4xx_HAL_Driver/Src/stm32f4xx_hal_eth.c ****     ETH_MACDMAConfig(heth, err);
 264              		.loc 1 331 5
 265 016a 3969     		ldr	r1, [r7, #16]
 266 016c 7868     		ldr	r0, [r7, #4]
 267 016e FFF7FEFF 		bl	ETH_MACDMAConfig
 332:Drivers/STM32F4xx_HAL_Driver/Src/stm32f4xx_hal_eth.c ****     
 333:Drivers/STM32F4xx_HAL_Driver/Src/stm32f4xx_hal_eth.c ****     /* Set the ETH peripheral state to READY */
 334:Drivers/STM32F4xx_HAL_Driver/Src/stm32f4xx_hal_eth.c ****     heth->State = HAL_ETH_STATE_READY;
 268              		.loc 1 334 17
 269 0172 7B68     		ldr	r3, [r7, #4]
 270 0174 0122     		movs	r2, #1
 271 0176 83F84420 		strb	r2, [r3, #68]
 335:Drivers/STM32F4xx_HAL_Driver/Src/stm32f4xx_hal_eth.c ****     
 336:Drivers/STM32F4xx_HAL_Driver/Src/stm32f4xx_hal_eth.c ****     /* Return HAL_ERROR */
 337:Drivers/STM32F4xx_HAL_Driver/Src/stm32f4xx_hal_eth.c ****     return HAL_ERROR;
 272              		.loc 1 337 12
 273 017a 0123     		movs	r3, #1
 274 017c D9E0     		b	.L26
 275              	.L12:
 338:Drivers/STM32F4xx_HAL_Driver/Src/stm32f4xx_hal_eth.c ****   }
 339:Drivers/STM32F4xx_HAL_Driver/Src/stm32f4xx_hal_eth.c ****   
 340:Drivers/STM32F4xx_HAL_Driver/Src/stm32f4xx_hal_eth.c ****   /* Delay to assure PHY reset */
 341:Drivers/STM32F4xx_HAL_Driver/Src/stm32f4xx_hal_eth.c ****   HAL_Delay(PHY_RESET_DELAY);
 276              		.loc 1 341 3
 277 017e FF20     		movs	r0, #255
 278 0180 FFF7FEFF 		bl	HAL_Delay
 342:Drivers/STM32F4xx_HAL_Driver/Src/stm32f4xx_hal_eth.c ****   
 343:Drivers/STM32F4xx_HAL_Driver/Src/stm32f4xx_hal_eth.c ****   if((heth->Init).AutoNegotiation != ETH_AUTONEGOTIATION_DISABLE)
 279              		.loc 1 343 18
 280 0184 7B68     		ldr	r3, [r7, #4]
ARM GAS  /tmp/cc39NdF4.s 			page 12


 281 0186 5B68     		ldr	r3, [r3, #4]
 282              		.loc 1 343 5
 283 0188 002B     		cmp	r3, #0
 284 018a 00F0A780 		beq	.L13
 344:Drivers/STM32F4xx_HAL_Driver/Src/stm32f4xx_hal_eth.c ****   {
 345:Drivers/STM32F4xx_HAL_Driver/Src/stm32f4xx_hal_eth.c ****     /* Get tick */
 346:Drivers/STM32F4xx_HAL_Driver/Src/stm32f4xx_hal_eth.c ****     tickstart = HAL_GetTick();
 285              		.loc 1 346 17
 286 018e FFF7FEFF 		bl	HAL_GetTick
 287 0192 7861     		str	r0, [r7, #20]
 288              	.L15:
 347:Drivers/STM32F4xx_HAL_Driver/Src/stm32f4xx_hal_eth.c ****     
 348:Drivers/STM32F4xx_HAL_Driver/Src/stm32f4xx_hal_eth.c ****     /* We wait for linked status */
 349:Drivers/STM32F4xx_HAL_Driver/Src/stm32f4xx_hal_eth.c ****     do
 350:Drivers/STM32F4xx_HAL_Driver/Src/stm32f4xx_hal_eth.c ****     {
 351:Drivers/STM32F4xx_HAL_Driver/Src/stm32f4xx_hal_eth.c ****       HAL_ETH_ReadPHYRegister(heth, PHY_BSR, &phyreg);
 289              		.loc 1 351 7
 290 0194 07F10C03 		add	r3, r7, #12
 291 0198 1A46     		mov	r2, r3
 292 019a 0121     		movs	r1, #1
 293 019c 7868     		ldr	r0, [r7, #4]
 294 019e FFF7FEFF 		bl	HAL_ETH_ReadPHYRegister
 352:Drivers/STM32F4xx_HAL_Driver/Src/stm32f4xx_hal_eth.c ****       
 353:Drivers/STM32F4xx_HAL_Driver/Src/stm32f4xx_hal_eth.c ****       /* Check for the Timeout */
 354:Drivers/STM32F4xx_HAL_Driver/Src/stm32f4xx_hal_eth.c ****       if((HAL_GetTick() - tickstart ) > ETH_TIMEOUT_LINKED_STATE)
 295              		.loc 1 354 11
 296 01a2 FFF7FEFF 		bl	HAL_GetTick
 297 01a6 0246     		mov	r2, r0
 298              		.loc 1 354 25
 299 01a8 7B69     		ldr	r3, [r7, #20]
 300 01aa D31A     		subs	r3, r2, r3
 301              		.loc 1 354 9
 302 01ac 41F28832 		movw	r2, #5000
 303 01b0 9342     		cmp	r3, r2
 304 01b2 0FD9     		bls	.L14
 355:Drivers/STM32F4xx_HAL_Driver/Src/stm32f4xx_hal_eth.c ****       {
 356:Drivers/STM32F4xx_HAL_Driver/Src/stm32f4xx_hal_eth.c ****         /* In case of write timeout */
 357:Drivers/STM32F4xx_HAL_Driver/Src/stm32f4xx_hal_eth.c ****         err = ETH_ERROR;
 305              		.loc 1 357 13
 306 01b4 0123     		movs	r3, #1
 307 01b6 3B61     		str	r3, [r7, #16]
 358:Drivers/STM32F4xx_HAL_Driver/Src/stm32f4xx_hal_eth.c ****       
 359:Drivers/STM32F4xx_HAL_Driver/Src/stm32f4xx_hal_eth.c ****         /* Config MAC and DMA */
 360:Drivers/STM32F4xx_HAL_Driver/Src/stm32f4xx_hal_eth.c ****         ETH_MACDMAConfig(heth, err);
 308              		.loc 1 360 9
 309 01b8 3969     		ldr	r1, [r7, #16]
 310 01ba 7868     		ldr	r0, [r7, #4]
 311 01bc FFF7FEFF 		bl	ETH_MACDMAConfig
 361:Drivers/STM32F4xx_HAL_Driver/Src/stm32f4xx_hal_eth.c ****         
 362:Drivers/STM32F4xx_HAL_Driver/Src/stm32f4xx_hal_eth.c ****         heth->State= HAL_ETH_STATE_READY;
 312              		.loc 1 362 20
 313 01c0 7B68     		ldr	r3, [r7, #4]
 314 01c2 0122     		movs	r2, #1
 315 01c4 83F84420 		strb	r2, [r3, #68]
 363:Drivers/STM32F4xx_HAL_Driver/Src/stm32f4xx_hal_eth.c ****   
 364:Drivers/STM32F4xx_HAL_Driver/Src/stm32f4xx_hal_eth.c ****         /* Process Unlocked */
 365:Drivers/STM32F4xx_HAL_Driver/Src/stm32f4xx_hal_eth.c ****         __HAL_UNLOCK(heth);
ARM GAS  /tmp/cc39NdF4.s 			page 13


 316              		.loc 1 365 9
 317 01c8 7B68     		ldr	r3, [r7, #4]
 318 01ca 0022     		movs	r2, #0
 319 01cc 83F84520 		strb	r2, [r3, #69]
 366:Drivers/STM32F4xx_HAL_Driver/Src/stm32f4xx_hal_eth.c ****     
 367:Drivers/STM32F4xx_HAL_Driver/Src/stm32f4xx_hal_eth.c ****         return HAL_TIMEOUT;
 320              		.loc 1 367 16
 321 01d0 0323     		movs	r3, #3
 322 01d2 AEE0     		b	.L26
 323              	.L14:
 368:Drivers/STM32F4xx_HAL_Driver/Src/stm32f4xx_hal_eth.c ****       }
 369:Drivers/STM32F4xx_HAL_Driver/Src/stm32f4xx_hal_eth.c ****     } while (((phyreg & PHY_LINKED_STATUS) != PHY_LINKED_STATUS));
 324              		.loc 1 369 23
 325 01d4 FB68     		ldr	r3, [r7, #12]
 326 01d6 03F00403 		and	r3, r3, #4
 327              		.loc 1 369 5
 328 01da 002B     		cmp	r3, #0
 329 01dc DAD0     		beq	.L15
 370:Drivers/STM32F4xx_HAL_Driver/Src/stm32f4xx_hal_eth.c **** 
 371:Drivers/STM32F4xx_HAL_Driver/Src/stm32f4xx_hal_eth.c ****     
 372:Drivers/STM32F4xx_HAL_Driver/Src/stm32f4xx_hal_eth.c ****     /* Enable Auto-Negotiation */
 373:Drivers/STM32F4xx_HAL_Driver/Src/stm32f4xx_hal_eth.c ****     if((HAL_ETH_WritePHYRegister(heth, PHY_BCR, PHY_AUTONEGOTIATION)) != HAL_OK)
 330              		.loc 1 373 9
 331 01de 4FF48052 		mov	r2, #4096
 332 01e2 0021     		movs	r1, #0
 333 01e4 7868     		ldr	r0, [r7, #4]
 334 01e6 FFF7FEFF 		bl	HAL_ETH_WritePHYRegister
 335 01ea 0346     		mov	r3, r0
 336              		.loc 1 373 7
 337 01ec 002B     		cmp	r3, #0
 338 01ee 0BD0     		beq	.L16
 374:Drivers/STM32F4xx_HAL_Driver/Src/stm32f4xx_hal_eth.c ****     {
 375:Drivers/STM32F4xx_HAL_Driver/Src/stm32f4xx_hal_eth.c ****       /* In case of write timeout */
 376:Drivers/STM32F4xx_HAL_Driver/Src/stm32f4xx_hal_eth.c ****       err = ETH_ERROR;
 339              		.loc 1 376 11
 340 01f0 0123     		movs	r3, #1
 341 01f2 3B61     		str	r3, [r7, #16]
 377:Drivers/STM32F4xx_HAL_Driver/Src/stm32f4xx_hal_eth.c ****       
 378:Drivers/STM32F4xx_HAL_Driver/Src/stm32f4xx_hal_eth.c ****       /* Config MAC and DMA */
 379:Drivers/STM32F4xx_HAL_Driver/Src/stm32f4xx_hal_eth.c ****       ETH_MACDMAConfig(heth, err);
 342              		.loc 1 379 7
 343 01f4 3969     		ldr	r1, [r7, #16]
 344 01f6 7868     		ldr	r0, [r7, #4]
 345 01f8 FFF7FEFF 		bl	ETH_MACDMAConfig
 380:Drivers/STM32F4xx_HAL_Driver/Src/stm32f4xx_hal_eth.c ****       
 381:Drivers/STM32F4xx_HAL_Driver/Src/stm32f4xx_hal_eth.c ****       /* Set the ETH peripheral state to READY */
 382:Drivers/STM32F4xx_HAL_Driver/Src/stm32f4xx_hal_eth.c ****       heth->State = HAL_ETH_STATE_READY;
 346              		.loc 1 382 19
 347 01fc 7B68     		ldr	r3, [r7, #4]
 348 01fe 0122     		movs	r2, #1
 349 0200 83F84420 		strb	r2, [r3, #68]
 383:Drivers/STM32F4xx_HAL_Driver/Src/stm32f4xx_hal_eth.c ****       
 384:Drivers/STM32F4xx_HAL_Driver/Src/stm32f4xx_hal_eth.c ****       /* Return HAL_ERROR */
 385:Drivers/STM32F4xx_HAL_Driver/Src/stm32f4xx_hal_eth.c ****       return HAL_ERROR;   
 350              		.loc 1 385 14
 351 0204 0123     		movs	r3, #1
 352 0206 94E0     		b	.L26
ARM GAS  /tmp/cc39NdF4.s 			page 14


 353              	.L16:
 386:Drivers/STM32F4xx_HAL_Driver/Src/stm32f4xx_hal_eth.c ****     }
 387:Drivers/STM32F4xx_HAL_Driver/Src/stm32f4xx_hal_eth.c ****     
 388:Drivers/STM32F4xx_HAL_Driver/Src/stm32f4xx_hal_eth.c ****     /* Get tick */
 389:Drivers/STM32F4xx_HAL_Driver/Src/stm32f4xx_hal_eth.c ****     tickstart = HAL_GetTick();
 354              		.loc 1 389 17
 355 0208 FFF7FEFF 		bl	HAL_GetTick
 356 020c 7861     		str	r0, [r7, #20]
 357              	.L18:
 390:Drivers/STM32F4xx_HAL_Driver/Src/stm32f4xx_hal_eth.c ****     
 391:Drivers/STM32F4xx_HAL_Driver/Src/stm32f4xx_hal_eth.c ****     /* Wait until the auto-negotiation will be completed */
 392:Drivers/STM32F4xx_HAL_Driver/Src/stm32f4xx_hal_eth.c ****     do
 393:Drivers/STM32F4xx_HAL_Driver/Src/stm32f4xx_hal_eth.c ****     {
 394:Drivers/STM32F4xx_HAL_Driver/Src/stm32f4xx_hal_eth.c ****       HAL_ETH_ReadPHYRegister(heth, PHY_BSR, &phyreg);
 358              		.loc 1 394 7
 359 020e 07F10C03 		add	r3, r7, #12
 360 0212 1A46     		mov	r2, r3
 361 0214 0121     		movs	r1, #1
 362 0216 7868     		ldr	r0, [r7, #4]
 363 0218 FFF7FEFF 		bl	HAL_ETH_ReadPHYRegister
 395:Drivers/STM32F4xx_HAL_Driver/Src/stm32f4xx_hal_eth.c ****       
 396:Drivers/STM32F4xx_HAL_Driver/Src/stm32f4xx_hal_eth.c ****       /* Check for the Timeout */
 397:Drivers/STM32F4xx_HAL_Driver/Src/stm32f4xx_hal_eth.c ****       if((HAL_GetTick() - tickstart ) > ETH_TIMEOUT_AUTONEGO_COMPLETED)
 364              		.loc 1 397 11
 365 021c FFF7FEFF 		bl	HAL_GetTick
 366 0220 0246     		mov	r2, r0
 367              		.loc 1 397 25
 368 0222 7B69     		ldr	r3, [r7, #20]
 369 0224 D31A     		subs	r3, r2, r3
 370              		.loc 1 397 9
 371 0226 41F28832 		movw	r2, #5000
 372 022a 9342     		cmp	r3, r2
 373 022c 0FD9     		bls	.L17
 398:Drivers/STM32F4xx_HAL_Driver/Src/stm32f4xx_hal_eth.c ****       {
 399:Drivers/STM32F4xx_HAL_Driver/Src/stm32f4xx_hal_eth.c ****         /* In case of write timeout */
 400:Drivers/STM32F4xx_HAL_Driver/Src/stm32f4xx_hal_eth.c ****         err = ETH_ERROR;
 374              		.loc 1 400 13
 375 022e 0123     		movs	r3, #1
 376 0230 3B61     		str	r3, [r7, #16]
 401:Drivers/STM32F4xx_HAL_Driver/Src/stm32f4xx_hal_eth.c ****       
 402:Drivers/STM32F4xx_HAL_Driver/Src/stm32f4xx_hal_eth.c ****         /* Config MAC and DMA */
 403:Drivers/STM32F4xx_HAL_Driver/Src/stm32f4xx_hal_eth.c ****         ETH_MACDMAConfig(heth, err);
 377              		.loc 1 403 9
 378 0232 3969     		ldr	r1, [r7, #16]
 379 0234 7868     		ldr	r0, [r7, #4]
 380 0236 FFF7FEFF 		bl	ETH_MACDMAConfig
 404:Drivers/STM32F4xx_HAL_Driver/Src/stm32f4xx_hal_eth.c ****         
 405:Drivers/STM32F4xx_HAL_Driver/Src/stm32f4xx_hal_eth.c ****         heth->State= HAL_ETH_STATE_READY;
 381              		.loc 1 405 20
 382 023a 7B68     		ldr	r3, [r7, #4]
 383 023c 0122     		movs	r2, #1
 384 023e 83F84420 		strb	r2, [r3, #68]
 406:Drivers/STM32F4xx_HAL_Driver/Src/stm32f4xx_hal_eth.c ****   
 407:Drivers/STM32F4xx_HAL_Driver/Src/stm32f4xx_hal_eth.c ****         /* Process Unlocked */
 408:Drivers/STM32F4xx_HAL_Driver/Src/stm32f4xx_hal_eth.c ****         __HAL_UNLOCK(heth);
 385              		.loc 1 408 9
 386 0242 7B68     		ldr	r3, [r7, #4]
ARM GAS  /tmp/cc39NdF4.s 			page 15


 387 0244 0022     		movs	r2, #0
 388 0246 83F84520 		strb	r2, [r3, #69]
 409:Drivers/STM32F4xx_HAL_Driver/Src/stm32f4xx_hal_eth.c ****     
 410:Drivers/STM32F4xx_HAL_Driver/Src/stm32f4xx_hal_eth.c ****         return HAL_TIMEOUT;
 389              		.loc 1 410 16
 390 024a 0323     		movs	r3, #3
 391 024c 71E0     		b	.L26
 392              	.L17:
 411:Drivers/STM32F4xx_HAL_Driver/Src/stm32f4xx_hal_eth.c ****       }
 412:Drivers/STM32F4xx_HAL_Driver/Src/stm32f4xx_hal_eth.c ****       
 413:Drivers/STM32F4xx_HAL_Driver/Src/stm32f4xx_hal_eth.c ****     } while (((phyreg & PHY_AUTONEGO_COMPLETE) != PHY_AUTONEGO_COMPLETE));
 393              		.loc 1 413 23
 394 024e FB68     		ldr	r3, [r7, #12]
 395 0250 03F02003 		and	r3, r3, #32
 396              		.loc 1 413 5
 397 0254 002B     		cmp	r3, #0
 398 0256 DAD0     		beq	.L18
 414:Drivers/STM32F4xx_HAL_Driver/Src/stm32f4xx_hal_eth.c ****     
 415:Drivers/STM32F4xx_HAL_Driver/Src/stm32f4xx_hal_eth.c ****     /* Read the result of the auto-negotiation */
 416:Drivers/STM32F4xx_HAL_Driver/Src/stm32f4xx_hal_eth.c ****     if((HAL_ETH_ReadPHYRegister(heth, PHY_SR, &phyreg)) != HAL_OK)
 399              		.loc 1 416 9
 400 0258 07F10C03 		add	r3, r7, #12
 401 025c 1A46     		mov	r2, r3
 402 025e 1F21     		movs	r1, #31
 403 0260 7868     		ldr	r0, [r7, #4]
 404 0262 FFF7FEFF 		bl	HAL_ETH_ReadPHYRegister
 405 0266 0346     		mov	r3, r0
 406              		.loc 1 416 7
 407 0268 002B     		cmp	r3, #0
 408 026a 0BD0     		beq	.L19
 417:Drivers/STM32F4xx_HAL_Driver/Src/stm32f4xx_hal_eth.c ****     {
 418:Drivers/STM32F4xx_HAL_Driver/Src/stm32f4xx_hal_eth.c ****       /* In case of write timeout */
 419:Drivers/STM32F4xx_HAL_Driver/Src/stm32f4xx_hal_eth.c ****       err = ETH_ERROR;
 409              		.loc 1 419 11
 410 026c 0123     		movs	r3, #1
 411 026e 3B61     		str	r3, [r7, #16]
 420:Drivers/STM32F4xx_HAL_Driver/Src/stm32f4xx_hal_eth.c ****       
 421:Drivers/STM32F4xx_HAL_Driver/Src/stm32f4xx_hal_eth.c ****       /* Config MAC and DMA */
 422:Drivers/STM32F4xx_HAL_Driver/Src/stm32f4xx_hal_eth.c ****       ETH_MACDMAConfig(heth, err);
 412              		.loc 1 422 7
 413 0270 3969     		ldr	r1, [r7, #16]
 414 0272 7868     		ldr	r0, [r7, #4]
 415 0274 FFF7FEFF 		bl	ETH_MACDMAConfig
 423:Drivers/STM32F4xx_HAL_Driver/Src/stm32f4xx_hal_eth.c ****       
 424:Drivers/STM32F4xx_HAL_Driver/Src/stm32f4xx_hal_eth.c ****       /* Set the ETH peripheral state to READY */
 425:Drivers/STM32F4xx_HAL_Driver/Src/stm32f4xx_hal_eth.c ****       heth->State = HAL_ETH_STATE_READY;
 416              		.loc 1 425 19
 417 0278 7B68     		ldr	r3, [r7, #4]
 418 027a 0122     		movs	r2, #1
 419 027c 83F84420 		strb	r2, [r3, #68]
 426:Drivers/STM32F4xx_HAL_Driver/Src/stm32f4xx_hal_eth.c ****       
 427:Drivers/STM32F4xx_HAL_Driver/Src/stm32f4xx_hal_eth.c ****       /* Return HAL_ERROR */
 428:Drivers/STM32F4xx_HAL_Driver/Src/stm32f4xx_hal_eth.c ****       return HAL_ERROR;   
 420              		.loc 1 428 14
 421 0280 0123     		movs	r3, #1
 422 0282 56E0     		b	.L26
 423              	.L19:
ARM GAS  /tmp/cc39NdF4.s 			page 16


 429:Drivers/STM32F4xx_HAL_Driver/Src/stm32f4xx_hal_eth.c ****     }
 430:Drivers/STM32F4xx_HAL_Driver/Src/stm32f4xx_hal_eth.c ****     
 431:Drivers/STM32F4xx_HAL_Driver/Src/stm32f4xx_hal_eth.c ****     /* Configure the MAC with the Duplex Mode fixed by the auto-negotiation process */
 432:Drivers/STM32F4xx_HAL_Driver/Src/stm32f4xx_hal_eth.c ****     if((phyreg & PHY_DUPLEX_STATUS) != (uint32_t)RESET)
 424              		.loc 1 432 16
 425 0284 FB68     		ldr	r3, [r7, #12]
 426 0286 03F01003 		and	r3, r3, #16
 427              		.loc 1 432 7
 428 028a 002B     		cmp	r3, #0
 429 028c 04D0     		beq	.L20
 433:Drivers/STM32F4xx_HAL_Driver/Src/stm32f4xx_hal_eth.c ****     {
 434:Drivers/STM32F4xx_HAL_Driver/Src/stm32f4xx_hal_eth.c ****       /* Set Ethernet duplex mode to Full-duplex following the auto-negotiation */
 435:Drivers/STM32F4xx_HAL_Driver/Src/stm32f4xx_hal_eth.c ****       (heth->Init).DuplexMode = ETH_MODE_FULLDUPLEX;  
 430              		.loc 1 435 31
 431 028e 7B68     		ldr	r3, [r7, #4]
 432 0290 4FF40062 		mov	r2, #2048
 433 0294 DA60     		str	r2, [r3, #12]
 434 0296 02E0     		b	.L21
 435              	.L20:
 436:Drivers/STM32F4xx_HAL_Driver/Src/stm32f4xx_hal_eth.c ****     }
 437:Drivers/STM32F4xx_HAL_Driver/Src/stm32f4xx_hal_eth.c ****     else
 438:Drivers/STM32F4xx_HAL_Driver/Src/stm32f4xx_hal_eth.c ****     {
 439:Drivers/STM32F4xx_HAL_Driver/Src/stm32f4xx_hal_eth.c ****       /* Set Ethernet duplex mode to Half-duplex following the auto-negotiation */
 440:Drivers/STM32F4xx_HAL_Driver/Src/stm32f4xx_hal_eth.c ****       (heth->Init).DuplexMode = ETH_MODE_HALFDUPLEX;           
 436              		.loc 1 440 31
 437 0298 7B68     		ldr	r3, [r7, #4]
 438 029a 0022     		movs	r2, #0
 439 029c DA60     		str	r2, [r3, #12]
 440              	.L21:
 441:Drivers/STM32F4xx_HAL_Driver/Src/stm32f4xx_hal_eth.c ****     }
 442:Drivers/STM32F4xx_HAL_Driver/Src/stm32f4xx_hal_eth.c ****     /* Configure the MAC with the speed fixed by the auto-negotiation process */
 443:Drivers/STM32F4xx_HAL_Driver/Src/stm32f4xx_hal_eth.c ****     if((phyreg & PHY_SPEED_STATUS) == PHY_SPEED_STATUS)
 441              		.loc 1 443 16
 442 029e FB68     		ldr	r3, [r7, #12]
 443 02a0 03F00403 		and	r3, r3, #4
 444              		.loc 1 443 7
 445 02a4 002B     		cmp	r3, #0
 446 02a6 03D0     		beq	.L22
 444:Drivers/STM32F4xx_HAL_Driver/Src/stm32f4xx_hal_eth.c ****     {  
 445:Drivers/STM32F4xx_HAL_Driver/Src/stm32f4xx_hal_eth.c ****       /* Set Ethernet speed to 10M following the auto-negotiation */
 446:Drivers/STM32F4xx_HAL_Driver/Src/stm32f4xx_hal_eth.c ****       (heth->Init).Speed = ETH_SPEED_10M; 
 447              		.loc 1 446 26
 448 02a8 7B68     		ldr	r3, [r7, #4]
 449 02aa 0022     		movs	r2, #0
 450 02ac 9A60     		str	r2, [r3, #8]
 451 02ae 37E0     		b	.L24
 452              	.L22:
 447:Drivers/STM32F4xx_HAL_Driver/Src/stm32f4xx_hal_eth.c ****     }
 448:Drivers/STM32F4xx_HAL_Driver/Src/stm32f4xx_hal_eth.c ****     else
 449:Drivers/STM32F4xx_HAL_Driver/Src/stm32f4xx_hal_eth.c ****     {   
 450:Drivers/STM32F4xx_HAL_Driver/Src/stm32f4xx_hal_eth.c ****       /* Set Ethernet speed to 100M following the auto-negotiation */ 
 451:Drivers/STM32F4xx_HAL_Driver/Src/stm32f4xx_hal_eth.c ****       (heth->Init).Speed = ETH_SPEED_100M;
 453              		.loc 1 451 26
 454 02b0 7B68     		ldr	r3, [r7, #4]
 455 02b2 4FF48042 		mov	r2, #16384
 456 02b6 9A60     		str	r2, [r3, #8]
 457 02b8 32E0     		b	.L24
ARM GAS  /tmp/cc39NdF4.s 			page 17


 458              	.L29:
 459 02ba 00BF     		.align	2
 460              	.L28:
 461 02bc 00879303 		.word	60000000
 462 02c0 00380240 		.word	1073887232
 463 02c4 00380140 		.word	1073821696
 464 02c8 FF2C3101 		.word	19999999
 465 02cc BF0E1602 		.word	34999999
 466 02d0 FF869303 		.word	59999999
 467 02d4 FFE0F505 		.word	99999999
 468 02d8 7FD1F008 		.word	149999999
 469              	.L13:
 452:Drivers/STM32F4xx_HAL_Driver/Src/stm32f4xx_hal_eth.c ****     }
 453:Drivers/STM32F4xx_HAL_Driver/Src/stm32f4xx_hal_eth.c ****   }
 454:Drivers/STM32F4xx_HAL_Driver/Src/stm32f4xx_hal_eth.c ****   else /* AutoNegotiation Disable */
 455:Drivers/STM32F4xx_HAL_Driver/Src/stm32f4xx_hal_eth.c ****   {
 456:Drivers/STM32F4xx_HAL_Driver/Src/stm32f4xx_hal_eth.c ****     /* Check parameters */
 457:Drivers/STM32F4xx_HAL_Driver/Src/stm32f4xx_hal_eth.c ****     assert_param(IS_ETH_SPEED(heth->Init.Speed));
 458:Drivers/STM32F4xx_HAL_Driver/Src/stm32f4xx_hal_eth.c ****     assert_param(IS_ETH_DUPLEX_MODE(heth->Init.DuplexMode));
 459:Drivers/STM32F4xx_HAL_Driver/Src/stm32f4xx_hal_eth.c ****     
 460:Drivers/STM32F4xx_HAL_Driver/Src/stm32f4xx_hal_eth.c ****     /* Set MAC Speed and Duplex Mode */
 461:Drivers/STM32F4xx_HAL_Driver/Src/stm32f4xx_hal_eth.c ****     if(HAL_ETH_WritePHYRegister(heth, PHY_BCR, ((uint16_t)((heth->Init).DuplexMode >> 3U) |
 470              		.loc 1 461 72
 471 02dc 7B68     		ldr	r3, [r7, #4]
 472 02de DB68     		ldr	r3, [r3, #12]
 473              		.loc 1 461 84
 474 02e0 DB08     		lsrs	r3, r3, #3
 475              		.loc 1 461 49
 476 02e2 9AB2     		uxth	r2, r3
 462:Drivers/STM32F4xx_HAL_Driver/Src/stm32f4xx_hal_eth.c ****                                                 (uint16_t)((heth->Init).Speed >> 1U))) != HAL_OK)
 477              		.loc 1 462 72
 478 02e4 7B68     		ldr	r3, [r7, #4]
 479 02e6 9B68     		ldr	r3, [r3, #8]
 480              		.loc 1 462 79
 481 02e8 5B08     		lsrs	r3, r3, #1
 482              		.loc 1 462 49
 483 02ea 9BB2     		uxth	r3, r3
 461:Drivers/STM32F4xx_HAL_Driver/Src/stm32f4xx_hal_eth.c ****                                                 (uint16_t)((heth->Init).Speed >> 1U))) != HAL_OK)
 484              		.loc 1 461 8
 485 02ec 1343     		orrs	r3, r3, r2
 486 02ee 9BB2     		uxth	r3, r3
 487 02f0 1A46     		mov	r2, r3
 488 02f2 0021     		movs	r1, #0
 489 02f4 7868     		ldr	r0, [r7, #4]
 490 02f6 FFF7FEFF 		bl	HAL_ETH_WritePHYRegister
 491 02fa 0346     		mov	r3, r0
 461:Drivers/STM32F4xx_HAL_Driver/Src/stm32f4xx_hal_eth.c ****                                                 (uint16_t)((heth->Init).Speed >> 1U))) != HAL_OK)
 492              		.loc 1 461 7
 493 02fc 002B     		cmp	r3, #0
 494 02fe 0BD0     		beq	.L25
 463:Drivers/STM32F4xx_HAL_Driver/Src/stm32f4xx_hal_eth.c ****     {
 464:Drivers/STM32F4xx_HAL_Driver/Src/stm32f4xx_hal_eth.c ****       /* In case of write timeout */
 465:Drivers/STM32F4xx_HAL_Driver/Src/stm32f4xx_hal_eth.c ****       err = ETH_ERROR;
 495              		.loc 1 465 11
 496 0300 0123     		movs	r3, #1
 497 0302 3B61     		str	r3, [r7, #16]
 466:Drivers/STM32F4xx_HAL_Driver/Src/stm32f4xx_hal_eth.c ****       
ARM GAS  /tmp/cc39NdF4.s 			page 18


 467:Drivers/STM32F4xx_HAL_Driver/Src/stm32f4xx_hal_eth.c ****       /* Config MAC and DMA */
 468:Drivers/STM32F4xx_HAL_Driver/Src/stm32f4xx_hal_eth.c ****       ETH_MACDMAConfig(heth, err);
 498              		.loc 1 468 7
 499 0304 3969     		ldr	r1, [r7, #16]
 500 0306 7868     		ldr	r0, [r7, #4]
 501 0308 FFF7FEFF 		bl	ETH_MACDMAConfig
 469:Drivers/STM32F4xx_HAL_Driver/Src/stm32f4xx_hal_eth.c ****       
 470:Drivers/STM32F4xx_HAL_Driver/Src/stm32f4xx_hal_eth.c ****       /* Set the ETH peripheral state to READY */
 471:Drivers/STM32F4xx_HAL_Driver/Src/stm32f4xx_hal_eth.c ****       heth->State = HAL_ETH_STATE_READY;
 502              		.loc 1 471 19
 503 030c 7B68     		ldr	r3, [r7, #4]
 504 030e 0122     		movs	r2, #1
 505 0310 83F84420 		strb	r2, [r3, #68]
 472:Drivers/STM32F4xx_HAL_Driver/Src/stm32f4xx_hal_eth.c ****       
 473:Drivers/STM32F4xx_HAL_Driver/Src/stm32f4xx_hal_eth.c ****       /* Return HAL_ERROR */
 474:Drivers/STM32F4xx_HAL_Driver/Src/stm32f4xx_hal_eth.c ****       return HAL_ERROR;
 506              		.loc 1 474 14
 507 0314 0123     		movs	r3, #1
 508 0316 0CE0     		b	.L26
 509              	.L25:
 475:Drivers/STM32F4xx_HAL_Driver/Src/stm32f4xx_hal_eth.c ****     }  
 476:Drivers/STM32F4xx_HAL_Driver/Src/stm32f4xx_hal_eth.c ****     
 477:Drivers/STM32F4xx_HAL_Driver/Src/stm32f4xx_hal_eth.c ****     /* Delay to assure PHY configuration */
 478:Drivers/STM32F4xx_HAL_Driver/Src/stm32f4xx_hal_eth.c ****     HAL_Delay(PHY_CONFIG_DELAY);
 510              		.loc 1 478 5
 511 0318 40F6FF70 		movw	r0, #4095
 512 031c FFF7FEFF 		bl	HAL_Delay
 513              	.L24:
 479:Drivers/STM32F4xx_HAL_Driver/Src/stm32f4xx_hal_eth.c ****   }
 480:Drivers/STM32F4xx_HAL_Driver/Src/stm32f4xx_hal_eth.c ****   
 481:Drivers/STM32F4xx_HAL_Driver/Src/stm32f4xx_hal_eth.c ****   /* Config MAC and DMA */
 482:Drivers/STM32F4xx_HAL_Driver/Src/stm32f4xx_hal_eth.c ****   ETH_MACDMAConfig(heth, err);
 514              		.loc 1 482 3
 515 0320 3969     		ldr	r1, [r7, #16]
 516 0322 7868     		ldr	r0, [r7, #4]
 517 0324 FFF7FEFF 		bl	ETH_MACDMAConfig
 483:Drivers/STM32F4xx_HAL_Driver/Src/stm32f4xx_hal_eth.c ****   
 484:Drivers/STM32F4xx_HAL_Driver/Src/stm32f4xx_hal_eth.c ****   /* Set ETH HAL State to Ready */
 485:Drivers/STM32F4xx_HAL_Driver/Src/stm32f4xx_hal_eth.c ****   heth->State= HAL_ETH_STATE_READY;
 518              		.loc 1 485 14
 519 0328 7B68     		ldr	r3, [r7, #4]
 520 032a 0122     		movs	r2, #1
 521 032c 83F84420 		strb	r2, [r3, #68]
 486:Drivers/STM32F4xx_HAL_Driver/Src/stm32f4xx_hal_eth.c ****   
 487:Drivers/STM32F4xx_HAL_Driver/Src/stm32f4xx_hal_eth.c ****   /* Return function status */
 488:Drivers/STM32F4xx_HAL_Driver/Src/stm32f4xx_hal_eth.c ****   return HAL_OK;
 522              		.loc 1 488 10
 523 0330 0023     		movs	r3, #0
 524              	.L26:
 489:Drivers/STM32F4xx_HAL_Driver/Src/stm32f4xx_hal_eth.c **** }
 525              		.loc 1 489 1 discriminator 1
 526 0332 1846     		mov	r0, r3
 527 0334 2037     		adds	r7, r7, #32
 528              	.LCFI3:
 529              		.cfi_def_cfa_offset 8
 530 0336 BD46     		mov	sp, r7
 531              	.LCFI4:
ARM GAS  /tmp/cc39NdF4.s 			page 19


 532              		.cfi_def_cfa_register 13
 533              		@ sp needed
 534 0338 80BD     		pop	{r7, pc}
 535              		.cfi_endproc
 536              	.LFE130:
 538 033a 00BF     		.section	.text.HAL_ETH_DeInit,"ax",%progbits
 539              		.align	1
 540              		.global	HAL_ETH_DeInit
 541              		.syntax unified
 542              		.thumb
 543              		.thumb_func
 544              		.fpu fpv4-sp-d16
 546              	HAL_ETH_DeInit:
 547              	.LFB131:
 490:Drivers/STM32F4xx_HAL_Driver/Src/stm32f4xx_hal_eth.c **** 
 491:Drivers/STM32F4xx_HAL_Driver/Src/stm32f4xx_hal_eth.c **** /**
 492:Drivers/STM32F4xx_HAL_Driver/Src/stm32f4xx_hal_eth.c ****   * @brief  De-Initializes the ETH peripheral. 
 493:Drivers/STM32F4xx_HAL_Driver/Src/stm32f4xx_hal_eth.c ****   * @param  heth pointer to a ETH_HandleTypeDef structure that contains
 494:Drivers/STM32F4xx_HAL_Driver/Src/stm32f4xx_hal_eth.c ****   *         the configuration information for ETHERNET module
 495:Drivers/STM32F4xx_HAL_Driver/Src/stm32f4xx_hal_eth.c ****   * @retval HAL status
 496:Drivers/STM32F4xx_HAL_Driver/Src/stm32f4xx_hal_eth.c ****   */
 497:Drivers/STM32F4xx_HAL_Driver/Src/stm32f4xx_hal_eth.c **** HAL_StatusTypeDef HAL_ETH_DeInit(ETH_HandleTypeDef *heth)
 498:Drivers/STM32F4xx_HAL_Driver/Src/stm32f4xx_hal_eth.c **** {
 548              		.loc 1 498 1
 549              		.cfi_startproc
 550              		@ args = 0, pretend = 0, frame = 8
 551              		@ frame_needed = 1, uses_anonymous_args = 0
 552 0000 80B5     		push	{r7, lr}
 553              	.LCFI5:
 554              		.cfi_def_cfa_offset 8
 555              		.cfi_offset 7, -8
 556              		.cfi_offset 14, -4
 557 0002 82B0     		sub	sp, sp, #8
 558              	.LCFI6:
 559              		.cfi_def_cfa_offset 16
 560 0004 00AF     		add	r7, sp, #0
 561              	.LCFI7:
 562              		.cfi_def_cfa_register 7
 563 0006 7860     		str	r0, [r7, #4]
 499:Drivers/STM32F4xx_HAL_Driver/Src/stm32f4xx_hal_eth.c ****   /* Set the ETH peripheral state to BUSY */
 500:Drivers/STM32F4xx_HAL_Driver/Src/stm32f4xx_hal_eth.c ****   heth->State = HAL_ETH_STATE_BUSY;
 564              		.loc 1 500 15
 565 0008 7B68     		ldr	r3, [r7, #4]
 566 000a 0222     		movs	r2, #2
 567 000c 83F84420 		strb	r2, [r3, #68]
 501:Drivers/STM32F4xx_HAL_Driver/Src/stm32f4xx_hal_eth.c ****   
 502:Drivers/STM32F4xx_HAL_Driver/Src/stm32f4xx_hal_eth.c **** #if (USE_HAL_ETH_REGISTER_CALLBACKS == 1)
 503:Drivers/STM32F4xx_HAL_Driver/Src/stm32f4xx_hal_eth.c ****   if(heth->MspDeInitCallback == NULL)
 504:Drivers/STM32F4xx_HAL_Driver/Src/stm32f4xx_hal_eth.c ****   {
 505:Drivers/STM32F4xx_HAL_Driver/Src/stm32f4xx_hal_eth.c ****     heth->MspDeInitCallback = HAL_ETH_MspDeInit;
 506:Drivers/STM32F4xx_HAL_Driver/Src/stm32f4xx_hal_eth.c ****   }
 507:Drivers/STM32F4xx_HAL_Driver/Src/stm32f4xx_hal_eth.c ****   /* De-Init the low level hardware : GPIO, CLOCK, NVIC. */
 508:Drivers/STM32F4xx_HAL_Driver/Src/stm32f4xx_hal_eth.c ****   heth->MspDeInitCallback(heth);
 509:Drivers/STM32F4xx_HAL_Driver/Src/stm32f4xx_hal_eth.c **** #else
 510:Drivers/STM32F4xx_HAL_Driver/Src/stm32f4xx_hal_eth.c ****   /* De-Init the low level hardware : GPIO, CLOCK, NVIC. */
 511:Drivers/STM32F4xx_HAL_Driver/Src/stm32f4xx_hal_eth.c ****   HAL_ETH_MspDeInit(heth);
 568              		.loc 1 511 3
ARM GAS  /tmp/cc39NdF4.s 			page 20


 569 0010 7868     		ldr	r0, [r7, #4]
 570 0012 FFF7FEFF 		bl	HAL_ETH_MspDeInit
 512:Drivers/STM32F4xx_HAL_Driver/Src/stm32f4xx_hal_eth.c **** #endif
 513:Drivers/STM32F4xx_HAL_Driver/Src/stm32f4xx_hal_eth.c ****   
 514:Drivers/STM32F4xx_HAL_Driver/Src/stm32f4xx_hal_eth.c ****   /* Set ETH HAL state to Disabled */
 515:Drivers/STM32F4xx_HAL_Driver/Src/stm32f4xx_hal_eth.c ****   heth->State= HAL_ETH_STATE_RESET;
 571              		.loc 1 515 14
 572 0016 7B68     		ldr	r3, [r7, #4]
 573 0018 0022     		movs	r2, #0
 574 001a 83F84420 		strb	r2, [r3, #68]
 516:Drivers/STM32F4xx_HAL_Driver/Src/stm32f4xx_hal_eth.c **** 
 517:Drivers/STM32F4xx_HAL_Driver/Src/stm32f4xx_hal_eth.c ****   /* Release Lock */
 518:Drivers/STM32F4xx_HAL_Driver/Src/stm32f4xx_hal_eth.c ****   __HAL_UNLOCK(heth);
 575              		.loc 1 518 3
 576 001e 7B68     		ldr	r3, [r7, #4]
 577 0020 0022     		movs	r2, #0
 578 0022 83F84520 		strb	r2, [r3, #69]
 519:Drivers/STM32F4xx_HAL_Driver/Src/stm32f4xx_hal_eth.c **** 
 520:Drivers/STM32F4xx_HAL_Driver/Src/stm32f4xx_hal_eth.c ****   /* Return function status */
 521:Drivers/STM32F4xx_HAL_Driver/Src/stm32f4xx_hal_eth.c ****   return HAL_OK;
 579              		.loc 1 521 10
 580 0026 0023     		movs	r3, #0
 522:Drivers/STM32F4xx_HAL_Driver/Src/stm32f4xx_hal_eth.c **** }
 581              		.loc 1 522 1
 582 0028 1846     		mov	r0, r3
 583 002a 0837     		adds	r7, r7, #8
 584              	.LCFI8:
 585              		.cfi_def_cfa_offset 8
 586 002c BD46     		mov	sp, r7
 587              	.LCFI9:
 588              		.cfi_def_cfa_register 13
 589              		@ sp needed
 590 002e 80BD     		pop	{r7, pc}
 591              		.cfi_endproc
 592              	.LFE131:
 594              		.section	.text.HAL_ETH_DMATxDescListInit,"ax",%progbits
 595              		.align	1
 596              		.global	HAL_ETH_DMATxDescListInit
 597              		.syntax unified
 598              		.thumb
 599              		.thumb_func
 600              		.fpu fpv4-sp-d16
 602              	HAL_ETH_DMATxDescListInit:
 603              	.LFB132:
 523:Drivers/STM32F4xx_HAL_Driver/Src/stm32f4xx_hal_eth.c **** 
 524:Drivers/STM32F4xx_HAL_Driver/Src/stm32f4xx_hal_eth.c **** /**
 525:Drivers/STM32F4xx_HAL_Driver/Src/stm32f4xx_hal_eth.c ****   * @brief  Initializes the DMA Tx descriptors in chain mode.
 526:Drivers/STM32F4xx_HAL_Driver/Src/stm32f4xx_hal_eth.c ****   * @param  heth pointer to a ETH_HandleTypeDef structure that contains
 527:Drivers/STM32F4xx_HAL_Driver/Src/stm32f4xx_hal_eth.c ****   *         the configuration information for ETHERNET module  
 528:Drivers/STM32F4xx_HAL_Driver/Src/stm32f4xx_hal_eth.c ****   * @param  DMATxDescTab Pointer to the first Tx desc list 
 529:Drivers/STM32F4xx_HAL_Driver/Src/stm32f4xx_hal_eth.c ****   * @param  TxBuff Pointer to the first TxBuffer list
 530:Drivers/STM32F4xx_HAL_Driver/Src/stm32f4xx_hal_eth.c ****   * @param  TxBuffCount Number of the used Tx desc in the list
 531:Drivers/STM32F4xx_HAL_Driver/Src/stm32f4xx_hal_eth.c ****   * @retval HAL status
 532:Drivers/STM32F4xx_HAL_Driver/Src/stm32f4xx_hal_eth.c ****   */
 533:Drivers/STM32F4xx_HAL_Driver/Src/stm32f4xx_hal_eth.c **** HAL_StatusTypeDef HAL_ETH_DMATxDescListInit(ETH_HandleTypeDef *heth, ETH_DMADescTypeDef *DMATxDescT
 534:Drivers/STM32F4xx_HAL_Driver/Src/stm32f4xx_hal_eth.c **** {
 604              		.loc 1 534 1
ARM GAS  /tmp/cc39NdF4.s 			page 21


 605              		.cfi_startproc
 606              		@ args = 0, pretend = 0, frame = 24
 607              		@ frame_needed = 1, uses_anonymous_args = 0
 608              		@ link register save eliminated.
 609 0000 80B4     		push	{r7}
 610              	.LCFI10:
 611              		.cfi_def_cfa_offset 4
 612              		.cfi_offset 7, -4
 613 0002 87B0     		sub	sp, sp, #28
 614              	.LCFI11:
 615              		.cfi_def_cfa_offset 32
 616 0004 00AF     		add	r7, sp, #0
 617              	.LCFI12:
 618              		.cfi_def_cfa_register 7
 619 0006 F860     		str	r0, [r7, #12]
 620 0008 B960     		str	r1, [r7, #8]
 621 000a 7A60     		str	r2, [r7, #4]
 622 000c 3B60     		str	r3, [r7]
 535:Drivers/STM32F4xx_HAL_Driver/Src/stm32f4xx_hal_eth.c ****   uint32_t i = 0U;
 623              		.loc 1 535 12
 624 000e 0023     		movs	r3, #0
 625 0010 7B61     		str	r3, [r7, #20]
 536:Drivers/STM32F4xx_HAL_Driver/Src/stm32f4xx_hal_eth.c ****   ETH_DMADescTypeDef *dmatxdesc;
 537:Drivers/STM32F4xx_HAL_Driver/Src/stm32f4xx_hal_eth.c ****   
 538:Drivers/STM32F4xx_HAL_Driver/Src/stm32f4xx_hal_eth.c ****   /* Process Locked */
 539:Drivers/STM32F4xx_HAL_Driver/Src/stm32f4xx_hal_eth.c ****   __HAL_LOCK(heth);
 626              		.loc 1 539 3
 627 0012 FB68     		ldr	r3, [r7, #12]
 628 0014 93F84530 		ldrb	r3, [r3, #69]	@ zero_extendqisi2
 629 0018 012B     		cmp	r3, #1
 630 001a 01D1     		bne	.L33
 631              		.loc 1 539 3 is_stmt 0 discriminator 1
 632 001c 0223     		movs	r3, #2
 633 001e 52E0     		b	.L34
 634              	.L33:
 635              		.loc 1 539 3 discriminator 2
 636 0020 FB68     		ldr	r3, [r7, #12]
 637 0022 0122     		movs	r2, #1
 638 0024 83F84520 		strb	r2, [r3, #69]
 540:Drivers/STM32F4xx_HAL_Driver/Src/stm32f4xx_hal_eth.c ****   
 541:Drivers/STM32F4xx_HAL_Driver/Src/stm32f4xx_hal_eth.c ****   /* Set the ETH peripheral state to BUSY */
 542:Drivers/STM32F4xx_HAL_Driver/Src/stm32f4xx_hal_eth.c ****   heth->State = HAL_ETH_STATE_BUSY;
 639              		.loc 1 542 15 is_stmt 1 discriminator 2
 640 0028 FB68     		ldr	r3, [r7, #12]
 641 002a 0222     		movs	r2, #2
 642 002c 83F84420 		strb	r2, [r3, #68]
 543:Drivers/STM32F4xx_HAL_Driver/Src/stm32f4xx_hal_eth.c ****   
 544:Drivers/STM32F4xx_HAL_Driver/Src/stm32f4xx_hal_eth.c ****   /* Set the DMATxDescToSet pointer with the first one of the DMATxDescTab list */
 545:Drivers/STM32F4xx_HAL_Driver/Src/stm32f4xx_hal_eth.c ****   heth->TxDesc = DMATxDescTab;
 643              		.loc 1 545 16 discriminator 2
 644 0030 FB68     		ldr	r3, [r7, #12]
 645 0032 BA68     		ldr	r2, [r7, #8]
 646 0034 DA62     		str	r2, [r3, #44]
 546:Drivers/STM32F4xx_HAL_Driver/Src/stm32f4xx_hal_eth.c ****   
 547:Drivers/STM32F4xx_HAL_Driver/Src/stm32f4xx_hal_eth.c ****   /* Fill each DMATxDesc descriptor with the right values */   
 548:Drivers/STM32F4xx_HAL_Driver/Src/stm32f4xx_hal_eth.c ****   for(i=0U; i < TxBuffCount; i++)
 647              		.loc 1 548 8 discriminator 2
ARM GAS  /tmp/cc39NdF4.s 			page 22


 648 0036 0023     		movs	r3, #0
 649 0038 7B61     		str	r3, [r7, #20]
 650              		.loc 1 548 3 discriminator 2
 651 003a 30E0     		b	.L35
 652              	.L39:
 549:Drivers/STM32F4xx_HAL_Driver/Src/stm32f4xx_hal_eth.c ****   {
 550:Drivers/STM32F4xx_HAL_Driver/Src/stm32f4xx_hal_eth.c ****     /* Get the pointer on the ith member of the Tx Desc list */
 551:Drivers/STM32F4xx_HAL_Driver/Src/stm32f4xx_hal_eth.c ****     dmatxdesc = DMATxDescTab + i;
 653              		.loc 1 551 30
 654 003c 7B69     		ldr	r3, [r7, #20]
 655 003e 5B01     		lsls	r3, r3, #5
 656              		.loc 1 551 15
 657 0040 BA68     		ldr	r2, [r7, #8]
 658 0042 1344     		add	r3, r3, r2
 659 0044 3B61     		str	r3, [r7, #16]
 552:Drivers/STM32F4xx_HAL_Driver/Src/stm32f4xx_hal_eth.c ****     
 553:Drivers/STM32F4xx_HAL_Driver/Src/stm32f4xx_hal_eth.c ****     /* Set Second Address Chained bit */
 554:Drivers/STM32F4xx_HAL_Driver/Src/stm32f4xx_hal_eth.c ****     dmatxdesc->Status = ETH_DMATXDESC_TCH;  
 660              		.loc 1 554 23
 661 0046 3B69     		ldr	r3, [r7, #16]
 662 0048 4FF48012 		mov	r2, #1048576
 663 004c 1A60     		str	r2, [r3]
 555:Drivers/STM32F4xx_HAL_Driver/Src/stm32f4xx_hal_eth.c ****     
 556:Drivers/STM32F4xx_HAL_Driver/Src/stm32f4xx_hal_eth.c ****     /* Set Buffer1 address pointer */
 557:Drivers/STM32F4xx_HAL_Driver/Src/stm32f4xx_hal_eth.c ****     dmatxdesc->Buffer1Addr = (uint32_t)(&TxBuff[i*ETH_TX_BUF_SIZE]);
 664              		.loc 1 557 50
 665 004e 7B69     		ldr	r3, [r7, #20]
 666 0050 40F2F452 		movw	r2, #1524
 667 0054 02FB03F3 		mul	r3, r2, r3
 668              		.loc 1 557 41
 669 0058 7A68     		ldr	r2, [r7, #4]
 670 005a 1344     		add	r3, r3, r2
 671              		.loc 1 557 30
 672 005c 1A46     		mov	r2, r3
 673              		.loc 1 557 28
 674 005e 3B69     		ldr	r3, [r7, #16]
 675 0060 9A60     		str	r2, [r3, #8]
 558:Drivers/STM32F4xx_HAL_Driver/Src/stm32f4xx_hal_eth.c ****     
 559:Drivers/STM32F4xx_HAL_Driver/Src/stm32f4xx_hal_eth.c ****     if ((heth->Init).ChecksumMode == ETH_CHECKSUM_BY_HARDWARE)
 676              		.loc 1 559 21
 677 0062 FB68     		ldr	r3, [r7, #12]
 678 0064 DB69     		ldr	r3, [r3, #28]
 679              		.loc 1 559 8
 680 0066 002B     		cmp	r3, #0
 681 0068 05D1     		bne	.L36
 560:Drivers/STM32F4xx_HAL_Driver/Src/stm32f4xx_hal_eth.c ****     {
 561:Drivers/STM32F4xx_HAL_Driver/Src/stm32f4xx_hal_eth.c ****       /* Set the DMA Tx descriptors checksum insertion */
 562:Drivers/STM32F4xx_HAL_Driver/Src/stm32f4xx_hal_eth.c ****       dmatxdesc->Status |= ETH_DMATXDESC_CHECKSUMTCPUDPICMPFULL;
 682              		.loc 1 562 25
 683 006a 3B69     		ldr	r3, [r7, #16]
 684 006c 1B68     		ldr	r3, [r3]
 685 006e 43F44002 		orr	r2, r3, #12582912
 686 0072 3B69     		ldr	r3, [r7, #16]
 687 0074 1A60     		str	r2, [r3]
 688              	.L36:
 563:Drivers/STM32F4xx_HAL_Driver/Src/stm32f4xx_hal_eth.c ****     }
 564:Drivers/STM32F4xx_HAL_Driver/Src/stm32f4xx_hal_eth.c ****     
ARM GAS  /tmp/cc39NdF4.s 			page 23


 565:Drivers/STM32F4xx_HAL_Driver/Src/stm32f4xx_hal_eth.c ****     /* Initialize the next descriptor with the Next Descriptor Polling Enable */
 566:Drivers/STM32F4xx_HAL_Driver/Src/stm32f4xx_hal_eth.c ****     if(i < (TxBuffCount-1U))
 689              		.loc 1 566 24
 690 0076 3B68     		ldr	r3, [r7]
 691 0078 013B     		subs	r3, r3, #1
 692              		.loc 1 566 7
 693 007a 7A69     		ldr	r2, [r7, #20]
 694 007c 9A42     		cmp	r2, r3
 695 007e 08D2     		bcs	.L37
 567:Drivers/STM32F4xx_HAL_Driver/Src/stm32f4xx_hal_eth.c ****     {
 568:Drivers/STM32F4xx_HAL_Driver/Src/stm32f4xx_hal_eth.c ****       /* Set next descriptor address register with next descriptor base address */
 569:Drivers/STM32F4xx_HAL_Driver/Src/stm32f4xx_hal_eth.c ****       dmatxdesc->Buffer2NextDescAddr = (uint32_t)(DMATxDescTab+i+1U);
 696              		.loc 1 569 65
 697 0080 7B69     		ldr	r3, [r7, #20]
 698 0082 0133     		adds	r3, r3, #1
 699 0084 5B01     		lsls	r3, r3, #5
 700 0086 BA68     		ldr	r2, [r7, #8]
 701 0088 1344     		add	r3, r3, r2
 702              		.loc 1 569 40
 703 008a 1A46     		mov	r2, r3
 704              		.loc 1 569 38
 705 008c 3B69     		ldr	r3, [r7, #16]
 706 008e DA60     		str	r2, [r3, #12]
 707 0090 02E0     		b	.L38
 708              	.L37:
 570:Drivers/STM32F4xx_HAL_Driver/Src/stm32f4xx_hal_eth.c ****     }
 571:Drivers/STM32F4xx_HAL_Driver/Src/stm32f4xx_hal_eth.c ****     else
 572:Drivers/STM32F4xx_HAL_Driver/Src/stm32f4xx_hal_eth.c ****     {
 573:Drivers/STM32F4xx_HAL_Driver/Src/stm32f4xx_hal_eth.c ****       /* For last descriptor, set next descriptor address register equal to the first descriptor ba
 574:Drivers/STM32F4xx_HAL_Driver/Src/stm32f4xx_hal_eth.c ****       dmatxdesc->Buffer2NextDescAddr = (uint32_t) DMATxDescTab;  
 709              		.loc 1 574 40
 710 0092 BA68     		ldr	r2, [r7, #8]
 711              		.loc 1 574 38
 712 0094 3B69     		ldr	r3, [r7, #16]
 713 0096 DA60     		str	r2, [r3, #12]
 714              	.L38:
 548:Drivers/STM32F4xx_HAL_Driver/Src/stm32f4xx_hal_eth.c ****   {
 715              		.loc 1 548 31 discriminator 2
 716 0098 7B69     		ldr	r3, [r7, #20]
 717 009a 0133     		adds	r3, r3, #1
 718 009c 7B61     		str	r3, [r7, #20]
 719              	.L35:
 548:Drivers/STM32F4xx_HAL_Driver/Src/stm32f4xx_hal_eth.c ****   {
 720              		.loc 1 548 3 discriminator 1
 721 009e 7A69     		ldr	r2, [r7, #20]
 722 00a0 3B68     		ldr	r3, [r7]
 723 00a2 9A42     		cmp	r2, r3
 724 00a4 CAD3     		bcc	.L39
 575:Drivers/STM32F4xx_HAL_Driver/Src/stm32f4xx_hal_eth.c ****     }
 576:Drivers/STM32F4xx_HAL_Driver/Src/stm32f4xx_hal_eth.c ****   }
 577:Drivers/STM32F4xx_HAL_Driver/Src/stm32f4xx_hal_eth.c ****   
 578:Drivers/STM32F4xx_HAL_Driver/Src/stm32f4xx_hal_eth.c ****   /* Set Transmit Descriptor List Address Register */
 579:Drivers/STM32F4xx_HAL_Driver/Src/stm32f4xx_hal_eth.c ****   (heth->Instance)->DMATDLAR = (uint32_t) DMATxDescTab;
 725              		.loc 1 579 8
 726 00a6 FB68     		ldr	r3, [r7, #12]
 727 00a8 1B68     		ldr	r3, [r3]
 728              		.loc 1 579 32
ARM GAS  /tmp/cc39NdF4.s 			page 24


 729 00aa BA68     		ldr	r2, [r7, #8]
 730              		.loc 1 579 30
 731 00ac 03F58053 		add	r3, r3, #4096
 732 00b0 1033     		adds	r3, r3, #16
 733 00b2 1A60     		str	r2, [r3]
 580:Drivers/STM32F4xx_HAL_Driver/Src/stm32f4xx_hal_eth.c ****   
 581:Drivers/STM32F4xx_HAL_Driver/Src/stm32f4xx_hal_eth.c ****   /* Set ETH HAL State to Ready */
 582:Drivers/STM32F4xx_HAL_Driver/Src/stm32f4xx_hal_eth.c ****   heth->State= HAL_ETH_STATE_READY;
 734              		.loc 1 582 14
 735 00b4 FB68     		ldr	r3, [r7, #12]
 736 00b6 0122     		movs	r2, #1
 737 00b8 83F84420 		strb	r2, [r3, #68]
 583:Drivers/STM32F4xx_HAL_Driver/Src/stm32f4xx_hal_eth.c ****   
 584:Drivers/STM32F4xx_HAL_Driver/Src/stm32f4xx_hal_eth.c ****   /* Process Unlocked */
 585:Drivers/STM32F4xx_HAL_Driver/Src/stm32f4xx_hal_eth.c ****   __HAL_UNLOCK(heth);
 738              		.loc 1 585 3
 739 00bc FB68     		ldr	r3, [r7, #12]
 740 00be 0022     		movs	r2, #0
 741 00c0 83F84520 		strb	r2, [r3, #69]
 586:Drivers/STM32F4xx_HAL_Driver/Src/stm32f4xx_hal_eth.c ****   
 587:Drivers/STM32F4xx_HAL_Driver/Src/stm32f4xx_hal_eth.c ****   /* Return function status */
 588:Drivers/STM32F4xx_HAL_Driver/Src/stm32f4xx_hal_eth.c ****   return HAL_OK;
 742              		.loc 1 588 10
 743 00c4 0023     		movs	r3, #0
 744              	.L34:
 589:Drivers/STM32F4xx_HAL_Driver/Src/stm32f4xx_hal_eth.c **** }
 745              		.loc 1 589 1
 746 00c6 1846     		mov	r0, r3
 747 00c8 1C37     		adds	r7, r7, #28
 748              	.LCFI13:
 749              		.cfi_def_cfa_offset 4
 750 00ca BD46     		mov	sp, r7
 751              	.LCFI14:
 752              		.cfi_def_cfa_register 13
 753              		@ sp needed
 754 00cc 5DF8047B 		ldr	r7, [sp], #4
 755              	.LCFI15:
 756              		.cfi_restore 7
 757              		.cfi_def_cfa_offset 0
 758 00d0 7047     		bx	lr
 759              		.cfi_endproc
 760              	.LFE132:
 762              		.section	.text.HAL_ETH_DMARxDescListInit,"ax",%progbits
 763              		.align	1
 764              		.global	HAL_ETH_DMARxDescListInit
 765              		.syntax unified
 766              		.thumb
 767              		.thumb_func
 768              		.fpu fpv4-sp-d16
 770              	HAL_ETH_DMARxDescListInit:
 771              	.LFB133:
 590:Drivers/STM32F4xx_HAL_Driver/Src/stm32f4xx_hal_eth.c **** 
 591:Drivers/STM32F4xx_HAL_Driver/Src/stm32f4xx_hal_eth.c **** /**
 592:Drivers/STM32F4xx_HAL_Driver/Src/stm32f4xx_hal_eth.c ****   * @brief  Initializes the DMA Rx descriptors in chain mode.
 593:Drivers/STM32F4xx_HAL_Driver/Src/stm32f4xx_hal_eth.c ****   * @param  heth pointer to a ETH_HandleTypeDef structure that contains
 594:Drivers/STM32F4xx_HAL_Driver/Src/stm32f4xx_hal_eth.c ****   *         the configuration information for ETHERNET module  
 595:Drivers/STM32F4xx_HAL_Driver/Src/stm32f4xx_hal_eth.c ****   * @param  DMARxDescTab Pointer to the first Rx desc list 
ARM GAS  /tmp/cc39NdF4.s 			page 25


 596:Drivers/STM32F4xx_HAL_Driver/Src/stm32f4xx_hal_eth.c ****   * @param  RxBuff Pointer to the first RxBuffer list
 597:Drivers/STM32F4xx_HAL_Driver/Src/stm32f4xx_hal_eth.c ****   * @param  RxBuffCount Number of the used Rx desc in the list
 598:Drivers/STM32F4xx_HAL_Driver/Src/stm32f4xx_hal_eth.c ****   * @retval HAL status
 599:Drivers/STM32F4xx_HAL_Driver/Src/stm32f4xx_hal_eth.c ****   */
 600:Drivers/STM32F4xx_HAL_Driver/Src/stm32f4xx_hal_eth.c **** HAL_StatusTypeDef HAL_ETH_DMARxDescListInit(ETH_HandleTypeDef *heth, ETH_DMADescTypeDef *DMARxDescT
 601:Drivers/STM32F4xx_HAL_Driver/Src/stm32f4xx_hal_eth.c **** {
 772              		.loc 1 601 1
 773              		.cfi_startproc
 774              		@ args = 0, pretend = 0, frame = 24
 775              		@ frame_needed = 1, uses_anonymous_args = 0
 776              		@ link register save eliminated.
 777 0000 80B4     		push	{r7}
 778              	.LCFI16:
 779              		.cfi_def_cfa_offset 4
 780              		.cfi_offset 7, -4
 781 0002 87B0     		sub	sp, sp, #28
 782              	.LCFI17:
 783              		.cfi_def_cfa_offset 32
 784 0004 00AF     		add	r7, sp, #0
 785              	.LCFI18:
 786              		.cfi_def_cfa_register 7
 787 0006 F860     		str	r0, [r7, #12]
 788 0008 B960     		str	r1, [r7, #8]
 789 000a 7A60     		str	r2, [r7, #4]
 790 000c 3B60     		str	r3, [r7]
 602:Drivers/STM32F4xx_HAL_Driver/Src/stm32f4xx_hal_eth.c ****   uint32_t i = 0U;
 791              		.loc 1 602 12
 792 000e 0023     		movs	r3, #0
 793 0010 7B61     		str	r3, [r7, #20]
 603:Drivers/STM32F4xx_HAL_Driver/Src/stm32f4xx_hal_eth.c ****   ETH_DMADescTypeDef *DMARxDesc;
 604:Drivers/STM32F4xx_HAL_Driver/Src/stm32f4xx_hal_eth.c ****   
 605:Drivers/STM32F4xx_HAL_Driver/Src/stm32f4xx_hal_eth.c ****   /* Process Locked */
 606:Drivers/STM32F4xx_HAL_Driver/Src/stm32f4xx_hal_eth.c ****   __HAL_LOCK(heth);
 794              		.loc 1 606 3
 795 0012 FB68     		ldr	r3, [r7, #12]
 796 0014 93F84530 		ldrb	r3, [r3, #69]	@ zero_extendqisi2
 797 0018 012B     		cmp	r3, #1
 798 001a 01D1     		bne	.L41
 799              		.loc 1 606 3 is_stmt 0 discriminator 1
 800 001c 0223     		movs	r3, #2
 801 001e 56E0     		b	.L42
 802              	.L41:
 803              		.loc 1 606 3 discriminator 2
 804 0020 FB68     		ldr	r3, [r7, #12]
 805 0022 0122     		movs	r2, #1
 806 0024 83F84520 		strb	r2, [r3, #69]
 607:Drivers/STM32F4xx_HAL_Driver/Src/stm32f4xx_hal_eth.c ****   
 608:Drivers/STM32F4xx_HAL_Driver/Src/stm32f4xx_hal_eth.c ****   /* Set the ETH peripheral state to BUSY */
 609:Drivers/STM32F4xx_HAL_Driver/Src/stm32f4xx_hal_eth.c ****   heth->State = HAL_ETH_STATE_BUSY;
 807              		.loc 1 609 15 is_stmt 1 discriminator 2
 808 0028 FB68     		ldr	r3, [r7, #12]
 809 002a 0222     		movs	r2, #2
 810 002c 83F84420 		strb	r2, [r3, #68]
 610:Drivers/STM32F4xx_HAL_Driver/Src/stm32f4xx_hal_eth.c ****   
 611:Drivers/STM32F4xx_HAL_Driver/Src/stm32f4xx_hal_eth.c ****   /* Set the Ethernet RxDesc pointer with the first one of the DMARxDescTab list */
 612:Drivers/STM32F4xx_HAL_Driver/Src/stm32f4xx_hal_eth.c ****   heth->RxDesc = DMARxDescTab; 
 811              		.loc 1 612 16 discriminator 2
ARM GAS  /tmp/cc39NdF4.s 			page 26


 812 0030 FB68     		ldr	r3, [r7, #12]
 813 0032 BA68     		ldr	r2, [r7, #8]
 814 0034 9A62     		str	r2, [r3, #40]
 613:Drivers/STM32F4xx_HAL_Driver/Src/stm32f4xx_hal_eth.c ****   
 614:Drivers/STM32F4xx_HAL_Driver/Src/stm32f4xx_hal_eth.c ****   /* Fill each DMARxDesc descriptor with the right values */
 615:Drivers/STM32F4xx_HAL_Driver/Src/stm32f4xx_hal_eth.c ****   for(i=0U; i < RxBuffCount; i++)
 815              		.loc 1 615 8 discriminator 2
 816 0036 0023     		movs	r3, #0
 817 0038 7B61     		str	r3, [r7, #20]
 818              		.loc 1 615 3 discriminator 2
 819 003a 34E0     		b	.L43
 820              	.L47:
 616:Drivers/STM32F4xx_HAL_Driver/Src/stm32f4xx_hal_eth.c ****   {
 617:Drivers/STM32F4xx_HAL_Driver/Src/stm32f4xx_hal_eth.c ****     /* Get the pointer on the ith member of the Rx Desc list */
 618:Drivers/STM32F4xx_HAL_Driver/Src/stm32f4xx_hal_eth.c ****     DMARxDesc = DMARxDescTab+i;
 821              		.loc 1 618 29
 822 003c 7B69     		ldr	r3, [r7, #20]
 823 003e 5B01     		lsls	r3, r3, #5
 824              		.loc 1 618 15
 825 0040 BA68     		ldr	r2, [r7, #8]
 826 0042 1344     		add	r3, r3, r2
 827 0044 3B61     		str	r3, [r7, #16]
 619:Drivers/STM32F4xx_HAL_Driver/Src/stm32f4xx_hal_eth.c ****     
 620:Drivers/STM32F4xx_HAL_Driver/Src/stm32f4xx_hal_eth.c ****     /* Set Own bit of the Rx descriptor Status */
 621:Drivers/STM32F4xx_HAL_Driver/Src/stm32f4xx_hal_eth.c ****     DMARxDesc->Status = ETH_DMARXDESC_OWN;
 828              		.loc 1 621 23
 829 0046 3B69     		ldr	r3, [r7, #16]
 830 0048 4FF00042 		mov	r2, #-2147483648
 831 004c 1A60     		str	r2, [r3]
 622:Drivers/STM32F4xx_HAL_Driver/Src/stm32f4xx_hal_eth.c ****     
 623:Drivers/STM32F4xx_HAL_Driver/Src/stm32f4xx_hal_eth.c ****     /* Set Buffer1 size and Second Address Chained bit */
 624:Drivers/STM32F4xx_HAL_Driver/Src/stm32f4xx_hal_eth.c ****     DMARxDesc->ControlBufferSize = ETH_DMARXDESC_RCH | ETH_RX_BUF_SIZE;  
 832              		.loc 1 624 34
 833 004e 3B69     		ldr	r3, [r7, #16]
 834 0050 44F2F452 		movw	r2, #17908
 835 0054 5A60     		str	r2, [r3, #4]
 625:Drivers/STM32F4xx_HAL_Driver/Src/stm32f4xx_hal_eth.c ****     
 626:Drivers/STM32F4xx_HAL_Driver/Src/stm32f4xx_hal_eth.c ****     /* Set Buffer1 address pointer */
 627:Drivers/STM32F4xx_HAL_Driver/Src/stm32f4xx_hal_eth.c ****     DMARxDesc->Buffer1Addr = (uint32_t)(&RxBuff[i*ETH_RX_BUF_SIZE]);
 836              		.loc 1 627 50
 837 0056 7B69     		ldr	r3, [r7, #20]
 838 0058 40F2F452 		movw	r2, #1524
 839 005c 02FB03F3 		mul	r3, r2, r3
 840              		.loc 1 627 41
 841 0060 7A68     		ldr	r2, [r7, #4]
 842 0062 1344     		add	r3, r3, r2
 843              		.loc 1 627 30
 844 0064 1A46     		mov	r2, r3
 845              		.loc 1 627 28
 846 0066 3B69     		ldr	r3, [r7, #16]
 847 0068 9A60     		str	r2, [r3, #8]
 628:Drivers/STM32F4xx_HAL_Driver/Src/stm32f4xx_hal_eth.c ****     
 629:Drivers/STM32F4xx_HAL_Driver/Src/stm32f4xx_hal_eth.c ****     if((heth->Init).RxMode == ETH_RXINTERRUPT_MODE)
 848              		.loc 1 629 20
 849 006a FB68     		ldr	r3, [r7, #12]
 850 006c 9B69     		ldr	r3, [r3, #24]
 851              		.loc 1 629 7
ARM GAS  /tmp/cc39NdF4.s 			page 27


 852 006e 012B     		cmp	r3, #1
 853 0070 05D1     		bne	.L44
 630:Drivers/STM32F4xx_HAL_Driver/Src/stm32f4xx_hal_eth.c ****     {
 631:Drivers/STM32F4xx_HAL_Driver/Src/stm32f4xx_hal_eth.c ****       /* Enable Ethernet DMA Rx Descriptor interrupt */
 632:Drivers/STM32F4xx_HAL_Driver/Src/stm32f4xx_hal_eth.c ****       DMARxDesc->ControlBufferSize &= ~ETH_DMARXDESC_DIC;
 854              		.loc 1 632 36
 855 0072 3B69     		ldr	r3, [r7, #16]
 856 0074 5B68     		ldr	r3, [r3, #4]
 857 0076 23F00042 		bic	r2, r3, #-2147483648
 858 007a 3B69     		ldr	r3, [r7, #16]
 859 007c 5A60     		str	r2, [r3, #4]
 860              	.L44:
 633:Drivers/STM32F4xx_HAL_Driver/Src/stm32f4xx_hal_eth.c ****     }
 634:Drivers/STM32F4xx_HAL_Driver/Src/stm32f4xx_hal_eth.c ****     
 635:Drivers/STM32F4xx_HAL_Driver/Src/stm32f4xx_hal_eth.c ****     /* Initialize the next descriptor with the Next Descriptor Polling Enable */
 636:Drivers/STM32F4xx_HAL_Driver/Src/stm32f4xx_hal_eth.c ****     if(i < (RxBuffCount-1U))
 861              		.loc 1 636 24
 862 007e 3B68     		ldr	r3, [r7]
 863 0080 013B     		subs	r3, r3, #1
 864              		.loc 1 636 7
 865 0082 7A69     		ldr	r2, [r7, #20]
 866 0084 9A42     		cmp	r2, r3
 867 0086 08D2     		bcs	.L45
 637:Drivers/STM32F4xx_HAL_Driver/Src/stm32f4xx_hal_eth.c ****     {
 638:Drivers/STM32F4xx_HAL_Driver/Src/stm32f4xx_hal_eth.c ****       /* Set next descriptor address register with next descriptor base address */
 639:Drivers/STM32F4xx_HAL_Driver/Src/stm32f4xx_hal_eth.c ****       DMARxDesc->Buffer2NextDescAddr = (uint32_t)(DMARxDescTab+i+1U); 
 868              		.loc 1 639 65
 869 0088 7B69     		ldr	r3, [r7, #20]
 870 008a 0133     		adds	r3, r3, #1
 871 008c 5B01     		lsls	r3, r3, #5
 872 008e BA68     		ldr	r2, [r7, #8]
 873 0090 1344     		add	r3, r3, r2
 874              		.loc 1 639 40
 875 0092 1A46     		mov	r2, r3
 876              		.loc 1 639 38
 877 0094 3B69     		ldr	r3, [r7, #16]
 878 0096 DA60     		str	r2, [r3, #12]
 879 0098 02E0     		b	.L46
 880              	.L45:
 640:Drivers/STM32F4xx_HAL_Driver/Src/stm32f4xx_hal_eth.c ****     }
 641:Drivers/STM32F4xx_HAL_Driver/Src/stm32f4xx_hal_eth.c ****     else
 642:Drivers/STM32F4xx_HAL_Driver/Src/stm32f4xx_hal_eth.c ****     {
 643:Drivers/STM32F4xx_HAL_Driver/Src/stm32f4xx_hal_eth.c ****       /* For last descriptor, set next descriptor address register equal to the first descriptor ba
 644:Drivers/STM32F4xx_HAL_Driver/Src/stm32f4xx_hal_eth.c ****       DMARxDesc->Buffer2NextDescAddr = (uint32_t)(DMARxDescTab); 
 881              		.loc 1 644 40
 882 009a BA68     		ldr	r2, [r7, #8]
 883              		.loc 1 644 38
 884 009c 3B69     		ldr	r3, [r7, #16]
 885 009e DA60     		str	r2, [r3, #12]
 886              	.L46:
 615:Drivers/STM32F4xx_HAL_Driver/Src/stm32f4xx_hal_eth.c ****   {
 887              		.loc 1 615 31 discriminator 2
 888 00a0 7B69     		ldr	r3, [r7, #20]
 889 00a2 0133     		adds	r3, r3, #1
 890 00a4 7B61     		str	r3, [r7, #20]
 891              	.L43:
 615:Drivers/STM32F4xx_HAL_Driver/Src/stm32f4xx_hal_eth.c ****   {
ARM GAS  /tmp/cc39NdF4.s 			page 28


 892              		.loc 1 615 3 discriminator 1
 893 00a6 7A69     		ldr	r2, [r7, #20]
 894 00a8 3B68     		ldr	r3, [r7]
 895 00aa 9A42     		cmp	r2, r3
 896 00ac C6D3     		bcc	.L47
 645:Drivers/STM32F4xx_HAL_Driver/Src/stm32f4xx_hal_eth.c ****     }
 646:Drivers/STM32F4xx_HAL_Driver/Src/stm32f4xx_hal_eth.c ****   }
 647:Drivers/STM32F4xx_HAL_Driver/Src/stm32f4xx_hal_eth.c ****   
 648:Drivers/STM32F4xx_HAL_Driver/Src/stm32f4xx_hal_eth.c ****   /* Set Receive Descriptor List Address Register */
 649:Drivers/STM32F4xx_HAL_Driver/Src/stm32f4xx_hal_eth.c ****   (heth->Instance)->DMARDLAR = (uint32_t) DMARxDescTab;
 897              		.loc 1 649 8
 898 00ae FB68     		ldr	r3, [r7, #12]
 899 00b0 1B68     		ldr	r3, [r3]
 900              		.loc 1 649 32
 901 00b2 BA68     		ldr	r2, [r7, #8]
 902              		.loc 1 649 30
 903 00b4 03F58053 		add	r3, r3, #4096
 904 00b8 0C33     		adds	r3, r3, #12
 905 00ba 1A60     		str	r2, [r3]
 650:Drivers/STM32F4xx_HAL_Driver/Src/stm32f4xx_hal_eth.c ****   
 651:Drivers/STM32F4xx_HAL_Driver/Src/stm32f4xx_hal_eth.c ****   /* Set ETH HAL State to Ready */
 652:Drivers/STM32F4xx_HAL_Driver/Src/stm32f4xx_hal_eth.c ****   heth->State= HAL_ETH_STATE_READY;
 906              		.loc 1 652 14
 907 00bc FB68     		ldr	r3, [r7, #12]
 908 00be 0122     		movs	r2, #1
 909 00c0 83F84420 		strb	r2, [r3, #68]
 653:Drivers/STM32F4xx_HAL_Driver/Src/stm32f4xx_hal_eth.c ****   
 654:Drivers/STM32F4xx_HAL_Driver/Src/stm32f4xx_hal_eth.c ****   /* Process Unlocked */
 655:Drivers/STM32F4xx_HAL_Driver/Src/stm32f4xx_hal_eth.c ****   __HAL_UNLOCK(heth);
 910              		.loc 1 655 3
 911 00c4 FB68     		ldr	r3, [r7, #12]
 912 00c6 0022     		movs	r2, #0
 913 00c8 83F84520 		strb	r2, [r3, #69]
 656:Drivers/STM32F4xx_HAL_Driver/Src/stm32f4xx_hal_eth.c ****   
 657:Drivers/STM32F4xx_HAL_Driver/Src/stm32f4xx_hal_eth.c ****   /* Return function status */
 658:Drivers/STM32F4xx_HAL_Driver/Src/stm32f4xx_hal_eth.c ****   return HAL_OK;
 914              		.loc 1 658 10
 915 00cc 0023     		movs	r3, #0
 916              	.L42:
 659:Drivers/STM32F4xx_HAL_Driver/Src/stm32f4xx_hal_eth.c **** }
 917              		.loc 1 659 1
 918 00ce 1846     		mov	r0, r3
 919 00d0 1C37     		adds	r7, r7, #28
 920              	.LCFI19:
 921              		.cfi_def_cfa_offset 4
 922 00d2 BD46     		mov	sp, r7
 923              	.LCFI20:
 924              		.cfi_def_cfa_register 13
 925              		@ sp needed
 926 00d4 5DF8047B 		ldr	r7, [sp], #4
 927              	.LCFI21:
 928              		.cfi_restore 7
 929              		.cfi_def_cfa_offset 0
 930 00d8 7047     		bx	lr
 931              		.cfi_endproc
 932              	.LFE133:
 934              		.section	.text.HAL_ETH_MspInit,"ax",%progbits
ARM GAS  /tmp/cc39NdF4.s 			page 29


 935              		.align	1
 936              		.weak	HAL_ETH_MspInit
 937              		.syntax unified
 938              		.thumb
 939              		.thumb_func
 940              		.fpu fpv4-sp-d16
 942              	HAL_ETH_MspInit:
 943              	.LFB134:
 660:Drivers/STM32F4xx_HAL_Driver/Src/stm32f4xx_hal_eth.c **** 
 661:Drivers/STM32F4xx_HAL_Driver/Src/stm32f4xx_hal_eth.c **** /**
 662:Drivers/STM32F4xx_HAL_Driver/Src/stm32f4xx_hal_eth.c ****   * @brief  Initializes the ETH MSP.
 663:Drivers/STM32F4xx_HAL_Driver/Src/stm32f4xx_hal_eth.c ****   * @param  heth pointer to a ETH_HandleTypeDef structure that contains
 664:Drivers/STM32F4xx_HAL_Driver/Src/stm32f4xx_hal_eth.c ****   *         the configuration information for ETHERNET module
 665:Drivers/STM32F4xx_HAL_Driver/Src/stm32f4xx_hal_eth.c ****   * @retval None
 666:Drivers/STM32F4xx_HAL_Driver/Src/stm32f4xx_hal_eth.c ****   */
 667:Drivers/STM32F4xx_HAL_Driver/Src/stm32f4xx_hal_eth.c **** __weak void HAL_ETH_MspInit(ETH_HandleTypeDef *heth)
 668:Drivers/STM32F4xx_HAL_Driver/Src/stm32f4xx_hal_eth.c **** {
 944              		.loc 1 668 1
 945              		.cfi_startproc
 946              		@ args = 0, pretend = 0, frame = 8
 947              		@ frame_needed = 1, uses_anonymous_args = 0
 948              		@ link register save eliminated.
 949 0000 80B4     		push	{r7}
 950              	.LCFI22:
 951              		.cfi_def_cfa_offset 4
 952              		.cfi_offset 7, -4
 953 0002 83B0     		sub	sp, sp, #12
 954              	.LCFI23:
 955              		.cfi_def_cfa_offset 16
 956 0004 00AF     		add	r7, sp, #0
 957              	.LCFI24:
 958              		.cfi_def_cfa_register 7
 959 0006 7860     		str	r0, [r7, #4]
 669:Drivers/STM32F4xx_HAL_Driver/Src/stm32f4xx_hal_eth.c ****   /* Prevent unused argument(s) compilation warning */
 670:Drivers/STM32F4xx_HAL_Driver/Src/stm32f4xx_hal_eth.c ****   UNUSED(heth);
 671:Drivers/STM32F4xx_HAL_Driver/Src/stm32f4xx_hal_eth.c ****   /* NOTE : This function Should not be modified, when the callback is needed,
 672:Drivers/STM32F4xx_HAL_Driver/Src/stm32f4xx_hal_eth.c ****   the HAL_ETH_MspInit could be implemented in the user file
 673:Drivers/STM32F4xx_HAL_Driver/Src/stm32f4xx_hal_eth.c ****   */
 674:Drivers/STM32F4xx_HAL_Driver/Src/stm32f4xx_hal_eth.c **** }
 960              		.loc 1 674 1
 961 0008 00BF     		nop
 962 000a 0C37     		adds	r7, r7, #12
 963              	.LCFI25:
 964              		.cfi_def_cfa_offset 4
 965 000c BD46     		mov	sp, r7
 966              	.LCFI26:
 967              		.cfi_def_cfa_register 13
 968              		@ sp needed
 969 000e 5DF8047B 		ldr	r7, [sp], #4
 970              	.LCFI27:
 971              		.cfi_restore 7
 972              		.cfi_def_cfa_offset 0
 973 0012 7047     		bx	lr
 974              		.cfi_endproc
 975              	.LFE134:
 977              		.section	.text.HAL_ETH_MspDeInit,"ax",%progbits
 978              		.align	1
ARM GAS  /tmp/cc39NdF4.s 			page 30


 979              		.weak	HAL_ETH_MspDeInit
 980              		.syntax unified
 981              		.thumb
 982              		.thumb_func
 983              		.fpu fpv4-sp-d16
 985              	HAL_ETH_MspDeInit:
 986              	.LFB135:
 675:Drivers/STM32F4xx_HAL_Driver/Src/stm32f4xx_hal_eth.c **** 
 676:Drivers/STM32F4xx_HAL_Driver/Src/stm32f4xx_hal_eth.c **** /**
 677:Drivers/STM32F4xx_HAL_Driver/Src/stm32f4xx_hal_eth.c ****   * @brief  DeInitializes ETH MSP.
 678:Drivers/STM32F4xx_HAL_Driver/Src/stm32f4xx_hal_eth.c ****   * @param  heth pointer to a ETH_HandleTypeDef structure that contains
 679:Drivers/STM32F4xx_HAL_Driver/Src/stm32f4xx_hal_eth.c ****   *         the configuration information for ETHERNET module
 680:Drivers/STM32F4xx_HAL_Driver/Src/stm32f4xx_hal_eth.c ****   * @retval None
 681:Drivers/STM32F4xx_HAL_Driver/Src/stm32f4xx_hal_eth.c ****   */
 682:Drivers/STM32F4xx_HAL_Driver/Src/stm32f4xx_hal_eth.c **** __weak void HAL_ETH_MspDeInit(ETH_HandleTypeDef *heth)
 683:Drivers/STM32F4xx_HAL_Driver/Src/stm32f4xx_hal_eth.c **** {
 987              		.loc 1 683 1
 988              		.cfi_startproc
 989              		@ args = 0, pretend = 0, frame = 8
 990              		@ frame_needed = 1, uses_anonymous_args = 0
 991              		@ link register save eliminated.
 992 0000 80B4     		push	{r7}
 993              	.LCFI28:
 994              		.cfi_def_cfa_offset 4
 995              		.cfi_offset 7, -4
 996 0002 83B0     		sub	sp, sp, #12
 997              	.LCFI29:
 998              		.cfi_def_cfa_offset 16
 999 0004 00AF     		add	r7, sp, #0
 1000              	.LCFI30:
 1001              		.cfi_def_cfa_register 7
 1002 0006 7860     		str	r0, [r7, #4]
 684:Drivers/STM32F4xx_HAL_Driver/Src/stm32f4xx_hal_eth.c ****   /* Prevent unused argument(s) compilation warning */
 685:Drivers/STM32F4xx_HAL_Driver/Src/stm32f4xx_hal_eth.c ****   UNUSED(heth);
 686:Drivers/STM32F4xx_HAL_Driver/Src/stm32f4xx_hal_eth.c ****   /* NOTE : This function Should not be modified, when the callback is needed,
 687:Drivers/STM32F4xx_HAL_Driver/Src/stm32f4xx_hal_eth.c ****   the HAL_ETH_MspDeInit could be implemented in the user file
 688:Drivers/STM32F4xx_HAL_Driver/Src/stm32f4xx_hal_eth.c ****   */
 689:Drivers/STM32F4xx_HAL_Driver/Src/stm32f4xx_hal_eth.c **** }
 1003              		.loc 1 689 1
 1004 0008 00BF     		nop
 1005 000a 0C37     		adds	r7, r7, #12
 1006              	.LCFI31:
 1007              		.cfi_def_cfa_offset 4
 1008 000c BD46     		mov	sp, r7
 1009              	.LCFI32:
 1010              		.cfi_def_cfa_register 13
 1011              		@ sp needed
 1012 000e 5DF8047B 		ldr	r7, [sp], #4
 1013              	.LCFI33:
 1014              		.cfi_restore 7
 1015              		.cfi_def_cfa_offset 0
 1016 0012 7047     		bx	lr
 1017              		.cfi_endproc
 1018              	.LFE135:
 1020              		.section	.text.HAL_ETH_TransmitFrame,"ax",%progbits
 1021              		.align	1
 1022              		.global	HAL_ETH_TransmitFrame
ARM GAS  /tmp/cc39NdF4.s 			page 31


 1023              		.syntax unified
 1024              		.thumb
 1025              		.thumb_func
 1026              		.fpu fpv4-sp-d16
 1028              	HAL_ETH_TransmitFrame:
 1029              	.LFB136:
 690:Drivers/STM32F4xx_HAL_Driver/Src/stm32f4xx_hal_eth.c **** 
 691:Drivers/STM32F4xx_HAL_Driver/Src/stm32f4xx_hal_eth.c **** #if (USE_HAL_ETH_REGISTER_CALLBACKS == 1)
 692:Drivers/STM32F4xx_HAL_Driver/Src/stm32f4xx_hal_eth.c **** /**
 693:Drivers/STM32F4xx_HAL_Driver/Src/stm32f4xx_hal_eth.c ****   * @brief  Register a User ETH Callback
 694:Drivers/STM32F4xx_HAL_Driver/Src/stm32f4xx_hal_eth.c ****   *         To be used instead of the weak predefined callback
 695:Drivers/STM32F4xx_HAL_Driver/Src/stm32f4xx_hal_eth.c ****   * @param heth eth handle
 696:Drivers/STM32F4xx_HAL_Driver/Src/stm32f4xx_hal_eth.c ****   * @param CallbackID ID of the callback to be registered
 697:Drivers/STM32F4xx_HAL_Driver/Src/stm32f4xx_hal_eth.c ****   *        This parameter can be one of the following values:
 698:Drivers/STM32F4xx_HAL_Driver/Src/stm32f4xx_hal_eth.c ****   *          @arg @ref HAL_ETH_TX_COMPLETE_CB_ID Tx Complete Callback ID
 699:Drivers/STM32F4xx_HAL_Driver/Src/stm32f4xx_hal_eth.c ****   *          @arg @ref HAL_ETH_RX_COMPLETE_CB_ID Rx Complete Callback ID
 700:Drivers/STM32F4xx_HAL_Driver/Src/stm32f4xx_hal_eth.c ****   *          @arg @ref HAL_ETH_DMA_ERROR_CB_ID   DMA Error Callback ID
 701:Drivers/STM32F4xx_HAL_Driver/Src/stm32f4xx_hal_eth.c ****   *          @arg @ref HAL_ETH_MSPINIT_CB_ID     MspInit callback ID
 702:Drivers/STM32F4xx_HAL_Driver/Src/stm32f4xx_hal_eth.c ****   *          @arg @ref HAL_ETH_MSPDEINIT_CB_ID   MspDeInit callback ID
 703:Drivers/STM32F4xx_HAL_Driver/Src/stm32f4xx_hal_eth.c ****   * @param pCallback pointer to the Callback function
 704:Drivers/STM32F4xx_HAL_Driver/Src/stm32f4xx_hal_eth.c ****   * @retval status
 705:Drivers/STM32F4xx_HAL_Driver/Src/stm32f4xx_hal_eth.c ****   */
 706:Drivers/STM32F4xx_HAL_Driver/Src/stm32f4xx_hal_eth.c **** HAL_StatusTypeDef HAL_ETH_RegisterCallback(ETH_HandleTypeDef *heth, HAL_ETH_CallbackIDTypeDef Callb
 707:Drivers/STM32F4xx_HAL_Driver/Src/stm32f4xx_hal_eth.c **** {
 708:Drivers/STM32F4xx_HAL_Driver/Src/stm32f4xx_hal_eth.c ****   HAL_StatusTypeDef status = HAL_OK;
 709:Drivers/STM32F4xx_HAL_Driver/Src/stm32f4xx_hal_eth.c **** 
 710:Drivers/STM32F4xx_HAL_Driver/Src/stm32f4xx_hal_eth.c ****   if(pCallback == NULL)
 711:Drivers/STM32F4xx_HAL_Driver/Src/stm32f4xx_hal_eth.c ****   {
 712:Drivers/STM32F4xx_HAL_Driver/Src/stm32f4xx_hal_eth.c ****     return HAL_ERROR;
 713:Drivers/STM32F4xx_HAL_Driver/Src/stm32f4xx_hal_eth.c ****   }
 714:Drivers/STM32F4xx_HAL_Driver/Src/stm32f4xx_hal_eth.c ****   /* Process locked */
 715:Drivers/STM32F4xx_HAL_Driver/Src/stm32f4xx_hal_eth.c ****   __HAL_LOCK(heth);
 716:Drivers/STM32F4xx_HAL_Driver/Src/stm32f4xx_hal_eth.c **** 
 717:Drivers/STM32F4xx_HAL_Driver/Src/stm32f4xx_hal_eth.c ****   if(heth->State == HAL_ETH_STATE_READY)
 718:Drivers/STM32F4xx_HAL_Driver/Src/stm32f4xx_hal_eth.c ****   {
 719:Drivers/STM32F4xx_HAL_Driver/Src/stm32f4xx_hal_eth.c ****     switch (CallbackID)
 720:Drivers/STM32F4xx_HAL_Driver/Src/stm32f4xx_hal_eth.c ****     {
 721:Drivers/STM32F4xx_HAL_Driver/Src/stm32f4xx_hal_eth.c ****     case HAL_ETH_TX_COMPLETE_CB_ID :
 722:Drivers/STM32F4xx_HAL_Driver/Src/stm32f4xx_hal_eth.c ****       heth->TxCpltCallback = pCallback;
 723:Drivers/STM32F4xx_HAL_Driver/Src/stm32f4xx_hal_eth.c ****       break;
 724:Drivers/STM32F4xx_HAL_Driver/Src/stm32f4xx_hal_eth.c **** 
 725:Drivers/STM32F4xx_HAL_Driver/Src/stm32f4xx_hal_eth.c ****     case HAL_ETH_RX_COMPLETE_CB_ID :
 726:Drivers/STM32F4xx_HAL_Driver/Src/stm32f4xx_hal_eth.c ****       heth->RxCpltCallback = pCallback;
 727:Drivers/STM32F4xx_HAL_Driver/Src/stm32f4xx_hal_eth.c ****       break;
 728:Drivers/STM32F4xx_HAL_Driver/Src/stm32f4xx_hal_eth.c **** 
 729:Drivers/STM32F4xx_HAL_Driver/Src/stm32f4xx_hal_eth.c ****     case HAL_ETH_DMA_ERROR_CB_ID :
 730:Drivers/STM32F4xx_HAL_Driver/Src/stm32f4xx_hal_eth.c ****       heth->DMAErrorCallback = pCallback;
 731:Drivers/STM32F4xx_HAL_Driver/Src/stm32f4xx_hal_eth.c ****       break;
 732:Drivers/STM32F4xx_HAL_Driver/Src/stm32f4xx_hal_eth.c **** 
 733:Drivers/STM32F4xx_HAL_Driver/Src/stm32f4xx_hal_eth.c ****     case HAL_ETH_MSPINIT_CB_ID :
 734:Drivers/STM32F4xx_HAL_Driver/Src/stm32f4xx_hal_eth.c ****       heth->MspInitCallback = pCallback;
 735:Drivers/STM32F4xx_HAL_Driver/Src/stm32f4xx_hal_eth.c ****       break;
 736:Drivers/STM32F4xx_HAL_Driver/Src/stm32f4xx_hal_eth.c **** 
 737:Drivers/STM32F4xx_HAL_Driver/Src/stm32f4xx_hal_eth.c ****     case HAL_ETH_MSPDEINIT_CB_ID :
 738:Drivers/STM32F4xx_HAL_Driver/Src/stm32f4xx_hal_eth.c ****       heth->MspDeInitCallback = pCallback;
 739:Drivers/STM32F4xx_HAL_Driver/Src/stm32f4xx_hal_eth.c ****       break;
 740:Drivers/STM32F4xx_HAL_Driver/Src/stm32f4xx_hal_eth.c **** 
ARM GAS  /tmp/cc39NdF4.s 			page 32


 741:Drivers/STM32F4xx_HAL_Driver/Src/stm32f4xx_hal_eth.c ****     default :
 742:Drivers/STM32F4xx_HAL_Driver/Src/stm32f4xx_hal_eth.c ****       /* Return error status */
 743:Drivers/STM32F4xx_HAL_Driver/Src/stm32f4xx_hal_eth.c ****       status =  HAL_ERROR;
 744:Drivers/STM32F4xx_HAL_Driver/Src/stm32f4xx_hal_eth.c ****       break;
 745:Drivers/STM32F4xx_HAL_Driver/Src/stm32f4xx_hal_eth.c ****     }
 746:Drivers/STM32F4xx_HAL_Driver/Src/stm32f4xx_hal_eth.c ****   }
 747:Drivers/STM32F4xx_HAL_Driver/Src/stm32f4xx_hal_eth.c ****   else if(heth->State == HAL_ETH_STATE_RESET)
 748:Drivers/STM32F4xx_HAL_Driver/Src/stm32f4xx_hal_eth.c ****   {
 749:Drivers/STM32F4xx_HAL_Driver/Src/stm32f4xx_hal_eth.c ****     switch (CallbackID)
 750:Drivers/STM32F4xx_HAL_Driver/Src/stm32f4xx_hal_eth.c ****     {
 751:Drivers/STM32F4xx_HAL_Driver/Src/stm32f4xx_hal_eth.c ****     case HAL_ETH_MSPINIT_CB_ID :
 752:Drivers/STM32F4xx_HAL_Driver/Src/stm32f4xx_hal_eth.c ****       heth->MspInitCallback = pCallback;
 753:Drivers/STM32F4xx_HAL_Driver/Src/stm32f4xx_hal_eth.c ****       break;
 754:Drivers/STM32F4xx_HAL_Driver/Src/stm32f4xx_hal_eth.c **** 
 755:Drivers/STM32F4xx_HAL_Driver/Src/stm32f4xx_hal_eth.c ****     case HAL_ETH_MSPDEINIT_CB_ID :
 756:Drivers/STM32F4xx_HAL_Driver/Src/stm32f4xx_hal_eth.c ****       heth->MspDeInitCallback = pCallback;
 757:Drivers/STM32F4xx_HAL_Driver/Src/stm32f4xx_hal_eth.c ****       break;
 758:Drivers/STM32F4xx_HAL_Driver/Src/stm32f4xx_hal_eth.c **** 
 759:Drivers/STM32F4xx_HAL_Driver/Src/stm32f4xx_hal_eth.c ****     default :
 760:Drivers/STM32F4xx_HAL_Driver/Src/stm32f4xx_hal_eth.c ****       /* Return error status */
 761:Drivers/STM32F4xx_HAL_Driver/Src/stm32f4xx_hal_eth.c ****       status =  HAL_ERROR;
 762:Drivers/STM32F4xx_HAL_Driver/Src/stm32f4xx_hal_eth.c ****       break;
 763:Drivers/STM32F4xx_HAL_Driver/Src/stm32f4xx_hal_eth.c ****     }
 764:Drivers/STM32F4xx_HAL_Driver/Src/stm32f4xx_hal_eth.c ****   }
 765:Drivers/STM32F4xx_HAL_Driver/Src/stm32f4xx_hal_eth.c ****   else
 766:Drivers/STM32F4xx_HAL_Driver/Src/stm32f4xx_hal_eth.c ****   {
 767:Drivers/STM32F4xx_HAL_Driver/Src/stm32f4xx_hal_eth.c ****     /* Return error status */
 768:Drivers/STM32F4xx_HAL_Driver/Src/stm32f4xx_hal_eth.c ****     status =  HAL_ERROR;
 769:Drivers/STM32F4xx_HAL_Driver/Src/stm32f4xx_hal_eth.c ****   }
 770:Drivers/STM32F4xx_HAL_Driver/Src/stm32f4xx_hal_eth.c **** 
 771:Drivers/STM32F4xx_HAL_Driver/Src/stm32f4xx_hal_eth.c ****   /* Release Lock */
 772:Drivers/STM32F4xx_HAL_Driver/Src/stm32f4xx_hal_eth.c ****   __HAL_UNLOCK(heth);
 773:Drivers/STM32F4xx_HAL_Driver/Src/stm32f4xx_hal_eth.c **** 
 774:Drivers/STM32F4xx_HAL_Driver/Src/stm32f4xx_hal_eth.c ****   return status;
 775:Drivers/STM32F4xx_HAL_Driver/Src/stm32f4xx_hal_eth.c **** }
 776:Drivers/STM32F4xx_HAL_Driver/Src/stm32f4xx_hal_eth.c **** 
 777:Drivers/STM32F4xx_HAL_Driver/Src/stm32f4xx_hal_eth.c **** /**
 778:Drivers/STM32F4xx_HAL_Driver/Src/stm32f4xx_hal_eth.c ****   * @brief  Unregister an ETH Callback
 779:Drivers/STM32F4xx_HAL_Driver/Src/stm32f4xx_hal_eth.c ****   *         ETH callabck is redirected to the weak predefined callback
 780:Drivers/STM32F4xx_HAL_Driver/Src/stm32f4xx_hal_eth.c ****   * @param heth eth handle
 781:Drivers/STM32F4xx_HAL_Driver/Src/stm32f4xx_hal_eth.c ****   * @param CallbackID ID of the callback to be unregistered
 782:Drivers/STM32F4xx_HAL_Driver/Src/stm32f4xx_hal_eth.c ****   *        This parameter can be one of the following values:
 783:Drivers/STM32F4xx_HAL_Driver/Src/stm32f4xx_hal_eth.c ****   *          @arg @ref HAL_ETH_TX_COMPLETE_CB_ID Tx Complete Callback ID
 784:Drivers/STM32F4xx_HAL_Driver/Src/stm32f4xx_hal_eth.c ****   *          @arg @ref HAL_ETH_RX_COMPLETE_CB_ID Rx Complete Callback ID
 785:Drivers/STM32F4xx_HAL_Driver/Src/stm32f4xx_hal_eth.c ****   *          @arg @ref HAL_ETH_DMA_ERROR_CB_ID      DMA Error Callback ID
 786:Drivers/STM32F4xx_HAL_Driver/Src/stm32f4xx_hal_eth.c ****   *          @arg @ref HAL_ETH_MSPINIT_CB_ID     MspInit callback ID
 787:Drivers/STM32F4xx_HAL_Driver/Src/stm32f4xx_hal_eth.c ****   *          @arg @ref HAL_ETH_MSPDEINIT_CB_ID   MspDeInit callback ID
 788:Drivers/STM32F4xx_HAL_Driver/Src/stm32f4xx_hal_eth.c ****   * @retval status
 789:Drivers/STM32F4xx_HAL_Driver/Src/stm32f4xx_hal_eth.c ****   */
 790:Drivers/STM32F4xx_HAL_Driver/Src/stm32f4xx_hal_eth.c **** HAL_StatusTypeDef HAL_ETH_UnRegisterCallback(ETH_HandleTypeDef *heth, HAL_ETH_CallbackIDTypeDef Cal
 791:Drivers/STM32F4xx_HAL_Driver/Src/stm32f4xx_hal_eth.c **** {
 792:Drivers/STM32F4xx_HAL_Driver/Src/stm32f4xx_hal_eth.c ****   HAL_StatusTypeDef status = HAL_OK;
 793:Drivers/STM32F4xx_HAL_Driver/Src/stm32f4xx_hal_eth.c **** 
 794:Drivers/STM32F4xx_HAL_Driver/Src/stm32f4xx_hal_eth.c ****   /* Process locked */
 795:Drivers/STM32F4xx_HAL_Driver/Src/stm32f4xx_hal_eth.c ****   __HAL_LOCK(heth);
 796:Drivers/STM32F4xx_HAL_Driver/Src/stm32f4xx_hal_eth.c **** 
 797:Drivers/STM32F4xx_HAL_Driver/Src/stm32f4xx_hal_eth.c ****   if(heth->State == HAL_ETH_STATE_READY)
ARM GAS  /tmp/cc39NdF4.s 			page 33


 798:Drivers/STM32F4xx_HAL_Driver/Src/stm32f4xx_hal_eth.c ****   {
 799:Drivers/STM32F4xx_HAL_Driver/Src/stm32f4xx_hal_eth.c ****     switch (CallbackID)
 800:Drivers/STM32F4xx_HAL_Driver/Src/stm32f4xx_hal_eth.c ****     {
 801:Drivers/STM32F4xx_HAL_Driver/Src/stm32f4xx_hal_eth.c ****     case HAL_ETH_TX_COMPLETE_CB_ID :
 802:Drivers/STM32F4xx_HAL_Driver/Src/stm32f4xx_hal_eth.c ****       heth->TxCpltCallback = HAL_ETH_TxCpltCallback;
 803:Drivers/STM32F4xx_HAL_Driver/Src/stm32f4xx_hal_eth.c ****       break;
 804:Drivers/STM32F4xx_HAL_Driver/Src/stm32f4xx_hal_eth.c **** 
 805:Drivers/STM32F4xx_HAL_Driver/Src/stm32f4xx_hal_eth.c ****     case HAL_ETH_RX_COMPLETE_CB_ID :
 806:Drivers/STM32F4xx_HAL_Driver/Src/stm32f4xx_hal_eth.c ****       heth->RxCpltCallback = HAL_ETH_RxCpltCallback;
 807:Drivers/STM32F4xx_HAL_Driver/Src/stm32f4xx_hal_eth.c ****       break;
 808:Drivers/STM32F4xx_HAL_Driver/Src/stm32f4xx_hal_eth.c **** 
 809:Drivers/STM32F4xx_HAL_Driver/Src/stm32f4xx_hal_eth.c ****     case HAL_ETH_DMA_ERROR_CB_ID :
 810:Drivers/STM32F4xx_HAL_Driver/Src/stm32f4xx_hal_eth.c ****       heth->DMAErrorCallback = HAL_ETH_ErrorCallback;
 811:Drivers/STM32F4xx_HAL_Driver/Src/stm32f4xx_hal_eth.c ****       break;
 812:Drivers/STM32F4xx_HAL_Driver/Src/stm32f4xx_hal_eth.c **** 
 813:Drivers/STM32F4xx_HAL_Driver/Src/stm32f4xx_hal_eth.c ****     case HAL_ETH_MSPINIT_CB_ID :
 814:Drivers/STM32F4xx_HAL_Driver/Src/stm32f4xx_hal_eth.c ****       heth->MspInitCallback = HAL_ETH_MspInit;
 815:Drivers/STM32F4xx_HAL_Driver/Src/stm32f4xx_hal_eth.c ****       break;
 816:Drivers/STM32F4xx_HAL_Driver/Src/stm32f4xx_hal_eth.c **** 
 817:Drivers/STM32F4xx_HAL_Driver/Src/stm32f4xx_hal_eth.c ****     case HAL_ETH_MSPDEINIT_CB_ID :
 818:Drivers/STM32F4xx_HAL_Driver/Src/stm32f4xx_hal_eth.c ****       heth->MspDeInitCallback = HAL_ETH_MspDeInit;
 819:Drivers/STM32F4xx_HAL_Driver/Src/stm32f4xx_hal_eth.c ****       break;
 820:Drivers/STM32F4xx_HAL_Driver/Src/stm32f4xx_hal_eth.c **** 
 821:Drivers/STM32F4xx_HAL_Driver/Src/stm32f4xx_hal_eth.c ****     default :
 822:Drivers/STM32F4xx_HAL_Driver/Src/stm32f4xx_hal_eth.c ****       /* Return error status */
 823:Drivers/STM32F4xx_HAL_Driver/Src/stm32f4xx_hal_eth.c ****       status =  HAL_ERROR;
 824:Drivers/STM32F4xx_HAL_Driver/Src/stm32f4xx_hal_eth.c ****       break;
 825:Drivers/STM32F4xx_HAL_Driver/Src/stm32f4xx_hal_eth.c ****     }
 826:Drivers/STM32F4xx_HAL_Driver/Src/stm32f4xx_hal_eth.c ****   }
 827:Drivers/STM32F4xx_HAL_Driver/Src/stm32f4xx_hal_eth.c ****   else if(heth->State == HAL_ETH_STATE_RESET)
 828:Drivers/STM32F4xx_HAL_Driver/Src/stm32f4xx_hal_eth.c ****   {
 829:Drivers/STM32F4xx_HAL_Driver/Src/stm32f4xx_hal_eth.c ****     switch (CallbackID)
 830:Drivers/STM32F4xx_HAL_Driver/Src/stm32f4xx_hal_eth.c ****     {
 831:Drivers/STM32F4xx_HAL_Driver/Src/stm32f4xx_hal_eth.c ****     case HAL_ETH_MSPINIT_CB_ID :
 832:Drivers/STM32F4xx_HAL_Driver/Src/stm32f4xx_hal_eth.c ****       heth->MspInitCallback = HAL_ETH_MspInit;
 833:Drivers/STM32F4xx_HAL_Driver/Src/stm32f4xx_hal_eth.c ****       break;
 834:Drivers/STM32F4xx_HAL_Driver/Src/stm32f4xx_hal_eth.c **** 
 835:Drivers/STM32F4xx_HAL_Driver/Src/stm32f4xx_hal_eth.c ****     case HAL_ETH_MSPDEINIT_CB_ID :
 836:Drivers/STM32F4xx_HAL_Driver/Src/stm32f4xx_hal_eth.c ****       heth->MspDeInitCallback = HAL_ETH_MspDeInit;
 837:Drivers/STM32F4xx_HAL_Driver/Src/stm32f4xx_hal_eth.c ****       break;
 838:Drivers/STM32F4xx_HAL_Driver/Src/stm32f4xx_hal_eth.c **** 
 839:Drivers/STM32F4xx_HAL_Driver/Src/stm32f4xx_hal_eth.c ****     default :
 840:Drivers/STM32F4xx_HAL_Driver/Src/stm32f4xx_hal_eth.c ****       /* Return error status */
 841:Drivers/STM32F4xx_HAL_Driver/Src/stm32f4xx_hal_eth.c ****       status =  HAL_ERROR;
 842:Drivers/STM32F4xx_HAL_Driver/Src/stm32f4xx_hal_eth.c ****       break;
 843:Drivers/STM32F4xx_HAL_Driver/Src/stm32f4xx_hal_eth.c ****     }
 844:Drivers/STM32F4xx_HAL_Driver/Src/stm32f4xx_hal_eth.c ****   }
 845:Drivers/STM32F4xx_HAL_Driver/Src/stm32f4xx_hal_eth.c ****   else
 846:Drivers/STM32F4xx_HAL_Driver/Src/stm32f4xx_hal_eth.c ****   {
 847:Drivers/STM32F4xx_HAL_Driver/Src/stm32f4xx_hal_eth.c ****     /* Return error status */
 848:Drivers/STM32F4xx_HAL_Driver/Src/stm32f4xx_hal_eth.c ****     status =  HAL_ERROR;
 849:Drivers/STM32F4xx_HAL_Driver/Src/stm32f4xx_hal_eth.c ****   }
 850:Drivers/STM32F4xx_HAL_Driver/Src/stm32f4xx_hal_eth.c **** 
 851:Drivers/STM32F4xx_HAL_Driver/Src/stm32f4xx_hal_eth.c ****   /* Release Lock */
 852:Drivers/STM32F4xx_HAL_Driver/Src/stm32f4xx_hal_eth.c ****   __HAL_UNLOCK(heth);
 853:Drivers/STM32F4xx_HAL_Driver/Src/stm32f4xx_hal_eth.c **** 
 854:Drivers/STM32F4xx_HAL_Driver/Src/stm32f4xx_hal_eth.c ****   return status;
ARM GAS  /tmp/cc39NdF4.s 			page 34


 855:Drivers/STM32F4xx_HAL_Driver/Src/stm32f4xx_hal_eth.c **** }
 856:Drivers/STM32F4xx_HAL_Driver/Src/stm32f4xx_hal_eth.c **** #endif /* USE_HAL_ETH_REGISTER_CALLBACKS */
 857:Drivers/STM32F4xx_HAL_Driver/Src/stm32f4xx_hal_eth.c **** 
 858:Drivers/STM32F4xx_HAL_Driver/Src/stm32f4xx_hal_eth.c **** /**
 859:Drivers/STM32F4xx_HAL_Driver/Src/stm32f4xx_hal_eth.c ****   * @}
 860:Drivers/STM32F4xx_HAL_Driver/Src/stm32f4xx_hal_eth.c ****   */
 861:Drivers/STM32F4xx_HAL_Driver/Src/stm32f4xx_hal_eth.c **** 
 862:Drivers/STM32F4xx_HAL_Driver/Src/stm32f4xx_hal_eth.c **** /** @defgroup ETH_Exported_Functions_Group2 IO operation functions 
 863:Drivers/STM32F4xx_HAL_Driver/Src/stm32f4xx_hal_eth.c ****   *  @brief   Data transfers functions 
 864:Drivers/STM32F4xx_HAL_Driver/Src/stm32f4xx_hal_eth.c ****   *
 865:Drivers/STM32F4xx_HAL_Driver/Src/stm32f4xx_hal_eth.c ****   @verbatim   
 866:Drivers/STM32F4xx_HAL_Driver/Src/stm32f4xx_hal_eth.c ****   ==============================================================================
 867:Drivers/STM32F4xx_HAL_Driver/Src/stm32f4xx_hal_eth.c ****                           ##### IO operation functions #####
 868:Drivers/STM32F4xx_HAL_Driver/Src/stm32f4xx_hal_eth.c ****   ==============================================================================  
 869:Drivers/STM32F4xx_HAL_Driver/Src/stm32f4xx_hal_eth.c ****   [..]  This section provides functions allowing to:
 870:Drivers/STM32F4xx_HAL_Driver/Src/stm32f4xx_hal_eth.c ****         (+) Transmit a frame
 871:Drivers/STM32F4xx_HAL_Driver/Src/stm32f4xx_hal_eth.c ****             HAL_ETH_TransmitFrame();
 872:Drivers/STM32F4xx_HAL_Driver/Src/stm32f4xx_hal_eth.c ****         (+) Receive a frame
 873:Drivers/STM32F4xx_HAL_Driver/Src/stm32f4xx_hal_eth.c ****             HAL_ETH_GetReceivedFrame();
 874:Drivers/STM32F4xx_HAL_Driver/Src/stm32f4xx_hal_eth.c ****             HAL_ETH_GetReceivedFrame_IT();
 875:Drivers/STM32F4xx_HAL_Driver/Src/stm32f4xx_hal_eth.c ****         (+) Read from an External PHY register
 876:Drivers/STM32F4xx_HAL_Driver/Src/stm32f4xx_hal_eth.c ****             HAL_ETH_ReadPHYRegister();
 877:Drivers/STM32F4xx_HAL_Driver/Src/stm32f4xx_hal_eth.c ****         (+) Write to an External PHY register
 878:Drivers/STM32F4xx_HAL_Driver/Src/stm32f4xx_hal_eth.c ****             HAL_ETH_WritePHYRegister();
 879:Drivers/STM32F4xx_HAL_Driver/Src/stm32f4xx_hal_eth.c **** 
 880:Drivers/STM32F4xx_HAL_Driver/Src/stm32f4xx_hal_eth.c ****   @endverbatim
 881:Drivers/STM32F4xx_HAL_Driver/Src/stm32f4xx_hal_eth.c ****   
 882:Drivers/STM32F4xx_HAL_Driver/Src/stm32f4xx_hal_eth.c ****   * @{
 883:Drivers/STM32F4xx_HAL_Driver/Src/stm32f4xx_hal_eth.c ****   */
 884:Drivers/STM32F4xx_HAL_Driver/Src/stm32f4xx_hal_eth.c **** 
 885:Drivers/STM32F4xx_HAL_Driver/Src/stm32f4xx_hal_eth.c **** /**
 886:Drivers/STM32F4xx_HAL_Driver/Src/stm32f4xx_hal_eth.c ****   * @brief  Sends an Ethernet frame. 
 887:Drivers/STM32F4xx_HAL_Driver/Src/stm32f4xx_hal_eth.c ****   * @param  heth pointer to a ETH_HandleTypeDef structure that contains
 888:Drivers/STM32F4xx_HAL_Driver/Src/stm32f4xx_hal_eth.c ****   *         the configuration information for ETHERNET module
 889:Drivers/STM32F4xx_HAL_Driver/Src/stm32f4xx_hal_eth.c ****   * @param  FrameLength Amount of data to be sent
 890:Drivers/STM32F4xx_HAL_Driver/Src/stm32f4xx_hal_eth.c ****   * @retval HAL status
 891:Drivers/STM32F4xx_HAL_Driver/Src/stm32f4xx_hal_eth.c ****   */
 892:Drivers/STM32F4xx_HAL_Driver/Src/stm32f4xx_hal_eth.c **** HAL_StatusTypeDef HAL_ETH_TransmitFrame(ETH_HandleTypeDef *heth, uint32_t FrameLength)
 893:Drivers/STM32F4xx_HAL_Driver/Src/stm32f4xx_hal_eth.c **** {
 1030              		.loc 1 893 1
 1031              		.cfi_startproc
 1032              		@ args = 0, pretend = 0, frame = 24
 1033              		@ frame_needed = 1, uses_anonymous_args = 0
 1034              		@ link register save eliminated.
 1035 0000 80B4     		push	{r7}
 1036              	.LCFI34:
 1037              		.cfi_def_cfa_offset 4
 1038              		.cfi_offset 7, -4
 1039 0002 87B0     		sub	sp, sp, #28
 1040              	.LCFI35:
 1041              		.cfi_def_cfa_offset 32
 1042 0004 00AF     		add	r7, sp, #0
 1043              	.LCFI36:
 1044              		.cfi_def_cfa_register 7
 1045 0006 7860     		str	r0, [r7, #4]
 1046 0008 3960     		str	r1, [r7]
 894:Drivers/STM32F4xx_HAL_Driver/Src/stm32f4xx_hal_eth.c ****   uint32_t bufcount = 0U, size = 0U, i = 0U;
ARM GAS  /tmp/cc39NdF4.s 			page 35


 1047              		.loc 1 894 12
 1048 000a 0023     		movs	r3, #0
 1049 000c 7B61     		str	r3, [r7, #20]
 1050              		.loc 1 894 27
 1051 000e 0023     		movs	r3, #0
 1052 0010 FB60     		str	r3, [r7, #12]
 1053              		.loc 1 894 38
 1054 0012 0023     		movs	r3, #0
 1055 0014 3B61     		str	r3, [r7, #16]
 895:Drivers/STM32F4xx_HAL_Driver/Src/stm32f4xx_hal_eth.c ****   
 896:Drivers/STM32F4xx_HAL_Driver/Src/stm32f4xx_hal_eth.c ****   /* Process Locked */
 897:Drivers/STM32F4xx_HAL_Driver/Src/stm32f4xx_hal_eth.c ****   __HAL_LOCK(heth);
 1056              		.loc 1 897 3
 1057 0016 7B68     		ldr	r3, [r7, #4]
 1058 0018 93F84530 		ldrb	r3, [r3, #69]	@ zero_extendqisi2
 1059 001c 012B     		cmp	r3, #1
 1060 001e 01D1     		bne	.L51
 1061              		.loc 1 897 3 is_stmt 0 discriminator 1
 1062 0020 0223     		movs	r3, #2
 1063 0022 CDE0     		b	.L52
 1064              	.L51:
 1065              		.loc 1 897 3 discriminator 2
 1066 0024 7B68     		ldr	r3, [r7, #4]
 1067 0026 0122     		movs	r2, #1
 1068 0028 83F84520 		strb	r2, [r3, #69]
 898:Drivers/STM32F4xx_HAL_Driver/Src/stm32f4xx_hal_eth.c ****   
 899:Drivers/STM32F4xx_HAL_Driver/Src/stm32f4xx_hal_eth.c ****   /* Set the ETH peripheral state to BUSY */
 900:Drivers/STM32F4xx_HAL_Driver/Src/stm32f4xx_hal_eth.c ****   heth->State = HAL_ETH_STATE_BUSY;
 1069              		.loc 1 900 15 is_stmt 1 discriminator 2
 1070 002c 7B68     		ldr	r3, [r7, #4]
 1071 002e 0222     		movs	r2, #2
 1072 0030 83F84420 		strb	r2, [r3, #68]
 901:Drivers/STM32F4xx_HAL_Driver/Src/stm32f4xx_hal_eth.c ****   
 902:Drivers/STM32F4xx_HAL_Driver/Src/stm32f4xx_hal_eth.c ****   if (FrameLength == 0U) 
 1073              		.loc 1 902 6 discriminator 2
 1074 0034 3B68     		ldr	r3, [r7]
 1075 0036 002B     		cmp	r3, #0
 1076 0038 09D1     		bne	.L53
 903:Drivers/STM32F4xx_HAL_Driver/Src/stm32f4xx_hal_eth.c ****   {
 904:Drivers/STM32F4xx_HAL_Driver/Src/stm32f4xx_hal_eth.c ****     /* Set ETH HAL state to READY */
 905:Drivers/STM32F4xx_HAL_Driver/Src/stm32f4xx_hal_eth.c ****     heth->State = HAL_ETH_STATE_READY;
 1077              		.loc 1 905 17
 1078 003a 7B68     		ldr	r3, [r7, #4]
 1079 003c 0122     		movs	r2, #1
 1080 003e 83F84420 		strb	r2, [r3, #68]
 906:Drivers/STM32F4xx_HAL_Driver/Src/stm32f4xx_hal_eth.c ****     
 907:Drivers/STM32F4xx_HAL_Driver/Src/stm32f4xx_hal_eth.c ****     /* Process Unlocked */
 908:Drivers/STM32F4xx_HAL_Driver/Src/stm32f4xx_hal_eth.c ****     __HAL_UNLOCK(heth);
 1081              		.loc 1 908 5
 1082 0042 7B68     		ldr	r3, [r7, #4]
 1083 0044 0022     		movs	r2, #0
 1084 0046 83F84520 		strb	r2, [r3, #69]
 909:Drivers/STM32F4xx_HAL_Driver/Src/stm32f4xx_hal_eth.c ****     
 910:Drivers/STM32F4xx_HAL_Driver/Src/stm32f4xx_hal_eth.c ****     return  HAL_ERROR;                                    
 1085              		.loc 1 910 13
 1086 004a 0123     		movs	r3, #1
 1087 004c B8E0     		b	.L52
ARM GAS  /tmp/cc39NdF4.s 			page 36


 1088              	.L53:
 911:Drivers/STM32F4xx_HAL_Driver/Src/stm32f4xx_hal_eth.c ****   }  
 912:Drivers/STM32F4xx_HAL_Driver/Src/stm32f4xx_hal_eth.c ****   
 913:Drivers/STM32F4xx_HAL_Driver/Src/stm32f4xx_hal_eth.c ****   /* Check if the descriptor is owned by the ETHERNET DMA (when set) or CPU (when reset) */
 914:Drivers/STM32F4xx_HAL_Driver/Src/stm32f4xx_hal_eth.c ****   if(((heth->TxDesc)->Status & ETH_DMATXDESC_OWN) != (uint32_t)RESET)
 1089              		.loc 1 914 12
 1090 004e 7B68     		ldr	r3, [r7, #4]
 1091 0050 DB6A     		ldr	r3, [r3, #44]
 1092              		.loc 1 914 21
 1093 0052 1B68     		ldr	r3, [r3]
 1094              		.loc 1 914 5
 1095 0054 002B     		cmp	r3, #0
 1096 0056 09DA     		bge	.L54
 915:Drivers/STM32F4xx_HAL_Driver/Src/stm32f4xx_hal_eth.c ****   {  
 916:Drivers/STM32F4xx_HAL_Driver/Src/stm32f4xx_hal_eth.c ****     /* OWN bit set */
 917:Drivers/STM32F4xx_HAL_Driver/Src/stm32f4xx_hal_eth.c ****     heth->State = HAL_ETH_STATE_BUSY_TX;
 1097              		.loc 1 917 17
 1098 0058 7B68     		ldr	r3, [r7, #4]
 1099 005a 1222     		movs	r2, #18
 1100 005c 83F84420 		strb	r2, [r3, #68]
 918:Drivers/STM32F4xx_HAL_Driver/Src/stm32f4xx_hal_eth.c ****     
 919:Drivers/STM32F4xx_HAL_Driver/Src/stm32f4xx_hal_eth.c ****     /* Process Unlocked */
 920:Drivers/STM32F4xx_HAL_Driver/Src/stm32f4xx_hal_eth.c ****     __HAL_UNLOCK(heth);
 1101              		.loc 1 920 5
 1102 0060 7B68     		ldr	r3, [r7, #4]
 1103 0062 0022     		movs	r2, #0
 1104 0064 83F84520 		strb	r2, [r3, #69]
 921:Drivers/STM32F4xx_HAL_Driver/Src/stm32f4xx_hal_eth.c ****     
 922:Drivers/STM32F4xx_HAL_Driver/Src/stm32f4xx_hal_eth.c ****     return HAL_ERROR;
 1105              		.loc 1 922 12
 1106 0068 0123     		movs	r3, #1
 1107 006a A9E0     		b	.L52
 1108              	.L54:
 923:Drivers/STM32F4xx_HAL_Driver/Src/stm32f4xx_hal_eth.c ****   }
 924:Drivers/STM32F4xx_HAL_Driver/Src/stm32f4xx_hal_eth.c ****   
 925:Drivers/STM32F4xx_HAL_Driver/Src/stm32f4xx_hal_eth.c ****   /* Get the number of needed Tx buffers for the current frame */
 926:Drivers/STM32F4xx_HAL_Driver/Src/stm32f4xx_hal_eth.c ****   if (FrameLength > ETH_TX_BUF_SIZE)
 1109              		.loc 1 926 6
 1110 006c 3B68     		ldr	r3, [r7]
 1111 006e 40F2F452 		movw	r2, #1524
 1112 0072 9342     		cmp	r3, r2
 1113 0074 15D9     		bls	.L55
 927:Drivers/STM32F4xx_HAL_Driver/Src/stm32f4xx_hal_eth.c ****   {
 928:Drivers/STM32F4xx_HAL_Driver/Src/stm32f4xx_hal_eth.c ****     bufcount = FrameLength/ETH_TX_BUF_SIZE;
 1114              		.loc 1 928 14
 1115 0076 3B68     		ldr	r3, [r7]
 1116 0078 544A     		ldr	r2, .L65
 1117 007a A2FB0323 		umull	r2, r3, r2, r3
 1118 007e 9B0A     		lsrs	r3, r3, #10
 1119 0080 7B61     		str	r3, [r7, #20]
 929:Drivers/STM32F4xx_HAL_Driver/Src/stm32f4xx_hal_eth.c ****     if (FrameLength % ETH_TX_BUF_SIZE) 
 1120              		.loc 1 929 21
 1121 0082 3A68     		ldr	r2, [r7]
 1122 0084 514B     		ldr	r3, .L65
 1123 0086 A3FB0213 		umull	r1, r3, r3, r2
 1124 008a 9B0A     		lsrs	r3, r3, #10
 1125 008c 40F2F451 		movw	r1, #1524
ARM GAS  /tmp/cc39NdF4.s 			page 37


 1126 0090 01FB03F3 		mul	r3, r1, r3
 1127 0094 D31A     		subs	r3, r2, r3
 1128              		.loc 1 929 8
 1129 0096 002B     		cmp	r3, #0
 1130 0098 05D0     		beq	.L57
 930:Drivers/STM32F4xx_HAL_Driver/Src/stm32f4xx_hal_eth.c ****     {
 931:Drivers/STM32F4xx_HAL_Driver/Src/stm32f4xx_hal_eth.c ****       bufcount++;
 1131              		.loc 1 931 15
 1132 009a 7B69     		ldr	r3, [r7, #20]
 1133 009c 0133     		adds	r3, r3, #1
 1134 009e 7B61     		str	r3, [r7, #20]
 1135 00a0 01E0     		b	.L57
 1136              	.L55:
 932:Drivers/STM32F4xx_HAL_Driver/Src/stm32f4xx_hal_eth.c ****     }
 933:Drivers/STM32F4xx_HAL_Driver/Src/stm32f4xx_hal_eth.c ****   }
 934:Drivers/STM32F4xx_HAL_Driver/Src/stm32f4xx_hal_eth.c ****   else 
 935:Drivers/STM32F4xx_HAL_Driver/Src/stm32f4xx_hal_eth.c ****   {  
 936:Drivers/STM32F4xx_HAL_Driver/Src/stm32f4xx_hal_eth.c ****     bufcount = 1U;
 1137              		.loc 1 936 14
 1138 00a2 0123     		movs	r3, #1
 1139 00a4 7B61     		str	r3, [r7, #20]
 1140              	.L57:
 937:Drivers/STM32F4xx_HAL_Driver/Src/stm32f4xx_hal_eth.c ****   }
 938:Drivers/STM32F4xx_HAL_Driver/Src/stm32f4xx_hal_eth.c ****   if (bufcount == 1U)
 1141              		.loc 1 938 6
 1142 00a6 7B69     		ldr	r3, [r7, #20]
 1143 00a8 012B     		cmp	r3, #1
 1144 00aa 1CD1     		bne	.L58
 939:Drivers/STM32F4xx_HAL_Driver/Src/stm32f4xx_hal_eth.c ****   {
 940:Drivers/STM32F4xx_HAL_Driver/Src/stm32f4xx_hal_eth.c ****     /* Set LAST and FIRST segment */
 941:Drivers/STM32F4xx_HAL_Driver/Src/stm32f4xx_hal_eth.c ****     heth->TxDesc->Status |=ETH_DMATXDESC_FS|ETH_DMATXDESC_LS;
 1145              		.loc 1 941 9
 1146 00ac 7B68     		ldr	r3, [r7, #4]
 1147 00ae DB6A     		ldr	r3, [r3, #44]
 1148              		.loc 1 941 26
 1149 00b0 1A68     		ldr	r2, [r3]
 1150              		.loc 1 941 9
 1151 00b2 7B68     		ldr	r3, [r7, #4]
 1152 00b4 DB6A     		ldr	r3, [r3, #44]
 1153              		.loc 1 941 26
 1154 00b6 42F04052 		orr	r2, r2, #805306368
 1155 00ba 1A60     		str	r2, [r3]
 942:Drivers/STM32F4xx_HAL_Driver/Src/stm32f4xx_hal_eth.c ****     /* Set frame size */
 943:Drivers/STM32F4xx_HAL_Driver/Src/stm32f4xx_hal_eth.c ****     heth->TxDesc->ControlBufferSize = (FrameLength & ETH_DMATXDESC_TBS1);
 1156              		.loc 1 943 9
 1157 00bc 7B68     		ldr	r3, [r7, #4]
 1158 00be DB6A     		ldr	r3, [r3, #44]
 1159              		.loc 1 943 52
 1160 00c0 3A68     		ldr	r2, [r7]
 1161 00c2 C2F30C02 		ubfx	r2, r2, #0, #13
 1162              		.loc 1 943 37
 1163 00c6 5A60     		str	r2, [r3, #4]
 944:Drivers/STM32F4xx_HAL_Driver/Src/stm32f4xx_hal_eth.c ****     /* Set Own bit of the Tx descriptor Status: gives the buffer back to ETHERNET DMA */
 945:Drivers/STM32F4xx_HAL_Driver/Src/stm32f4xx_hal_eth.c ****     heth->TxDesc->Status |= ETH_DMATXDESC_OWN;
 1164              		.loc 1 945 9
 1165 00c8 7B68     		ldr	r3, [r7, #4]
 1166 00ca DB6A     		ldr	r3, [r3, #44]
ARM GAS  /tmp/cc39NdF4.s 			page 38


 1167              		.loc 1 945 26
 1168 00cc 1A68     		ldr	r2, [r3]
 1169              		.loc 1 945 9
 1170 00ce 7B68     		ldr	r3, [r7, #4]
 1171 00d0 DB6A     		ldr	r3, [r3, #44]
 1172              		.loc 1 945 26
 1173 00d2 42F00042 		orr	r2, r2, #-2147483648
 1174 00d6 1A60     		str	r2, [r3]
 946:Drivers/STM32F4xx_HAL_Driver/Src/stm32f4xx_hal_eth.c ****     /* Point to next descriptor */
 947:Drivers/STM32F4xx_HAL_Driver/Src/stm32f4xx_hal_eth.c ****     heth->TxDesc= (ETH_DMADescTypeDef *)(heth->TxDesc->Buffer2NextDescAddr);
 1175              		.loc 1 947 46
 1176 00d8 7B68     		ldr	r3, [r7, #4]
 1177 00da DB6A     		ldr	r3, [r3, #44]
 1178              		.loc 1 947 54
 1179 00dc DB68     		ldr	r3, [r3, #12]
 1180              		.loc 1 947 19
 1181 00de 1A46     		mov	r2, r3
 1182              		.loc 1 947 17
 1183 00e0 7B68     		ldr	r3, [r7, #4]
 1184 00e2 DA62     		str	r2, [r3, #44]
 1185 00e4 4BE0     		b	.L59
 1186              	.L58:
 948:Drivers/STM32F4xx_HAL_Driver/Src/stm32f4xx_hal_eth.c ****   }
 949:Drivers/STM32F4xx_HAL_Driver/Src/stm32f4xx_hal_eth.c ****   else
 950:Drivers/STM32F4xx_HAL_Driver/Src/stm32f4xx_hal_eth.c ****   {
 951:Drivers/STM32F4xx_HAL_Driver/Src/stm32f4xx_hal_eth.c ****     for (i=0U; i< bufcount; i++)
 1187              		.loc 1 951 11
 1188 00e6 0023     		movs	r3, #0
 1189 00e8 3B61     		str	r3, [r7, #16]
 1190              		.loc 1 951 5
 1191 00ea 44E0     		b	.L60
 1192              	.L63:
 952:Drivers/STM32F4xx_HAL_Driver/Src/stm32f4xx_hal_eth.c ****     {
 953:Drivers/STM32F4xx_HAL_Driver/Src/stm32f4xx_hal_eth.c ****       /* Clear FIRST and LAST segment bits */
 954:Drivers/STM32F4xx_HAL_Driver/Src/stm32f4xx_hal_eth.c ****       heth->TxDesc->Status &= ~(ETH_DMATXDESC_FS | ETH_DMATXDESC_LS);
 1193              		.loc 1 954 11
 1194 00ec 7B68     		ldr	r3, [r7, #4]
 1195 00ee DB6A     		ldr	r3, [r3, #44]
 1196              		.loc 1 954 28
 1197 00f0 1A68     		ldr	r2, [r3]
 1198              		.loc 1 954 11
 1199 00f2 7B68     		ldr	r3, [r7, #4]
 1200 00f4 DB6A     		ldr	r3, [r3, #44]
 1201              		.loc 1 954 28
 1202 00f6 22F04052 		bic	r2, r2, #805306368
 1203 00fa 1A60     		str	r2, [r3]
 955:Drivers/STM32F4xx_HAL_Driver/Src/stm32f4xx_hal_eth.c ****       
 956:Drivers/STM32F4xx_HAL_Driver/Src/stm32f4xx_hal_eth.c ****       if (i == 0U) 
 1204              		.loc 1 956 10
 1205 00fc 3B69     		ldr	r3, [r7, #16]
 1206 00fe 002B     		cmp	r3, #0
 1207 0100 07D1     		bne	.L61
 957:Drivers/STM32F4xx_HAL_Driver/Src/stm32f4xx_hal_eth.c ****       {
 958:Drivers/STM32F4xx_HAL_Driver/Src/stm32f4xx_hal_eth.c ****         /* Setting the first segment bit */
 959:Drivers/STM32F4xx_HAL_Driver/Src/stm32f4xx_hal_eth.c ****         heth->TxDesc->Status |= ETH_DMATXDESC_FS;  
 1208              		.loc 1 959 13
 1209 0102 7B68     		ldr	r3, [r7, #4]
ARM GAS  /tmp/cc39NdF4.s 			page 39


 1210 0104 DB6A     		ldr	r3, [r3, #44]
 1211              		.loc 1 959 30
 1212 0106 1A68     		ldr	r2, [r3]
 1213              		.loc 1 959 13
 1214 0108 7B68     		ldr	r3, [r7, #4]
 1215 010a DB6A     		ldr	r3, [r3, #44]
 1216              		.loc 1 959 30
 1217 010c 42F08052 		orr	r2, r2, #268435456
 1218 0110 1A60     		str	r2, [r3]
 1219              	.L61:
 960:Drivers/STM32F4xx_HAL_Driver/Src/stm32f4xx_hal_eth.c ****       }
 961:Drivers/STM32F4xx_HAL_Driver/Src/stm32f4xx_hal_eth.c ****       
 962:Drivers/STM32F4xx_HAL_Driver/Src/stm32f4xx_hal_eth.c ****       /* Program size */
 963:Drivers/STM32F4xx_HAL_Driver/Src/stm32f4xx_hal_eth.c ****       heth->TxDesc->ControlBufferSize = (ETH_TX_BUF_SIZE & ETH_DMATXDESC_TBS1);
 1220              		.loc 1 963 11
 1221 0112 7B68     		ldr	r3, [r7, #4]
 1222 0114 DB6A     		ldr	r3, [r3, #44]
 1223              		.loc 1 963 39
 1224 0116 40F2F452 		movw	r2, #1524
 1225 011a 5A60     		str	r2, [r3, #4]
 964:Drivers/STM32F4xx_HAL_Driver/Src/stm32f4xx_hal_eth.c ****       
 965:Drivers/STM32F4xx_HAL_Driver/Src/stm32f4xx_hal_eth.c ****       if (i == (bufcount-1U))
 1226              		.loc 1 965 25
 1227 011c 7B69     		ldr	r3, [r7, #20]
 1228 011e 013B     		subs	r3, r3, #1
 1229              		.loc 1 965 10
 1230 0120 3A69     		ldr	r2, [r7, #16]
 1231 0122 9A42     		cmp	r2, r3
 1232 0124 16D1     		bne	.L62
 966:Drivers/STM32F4xx_HAL_Driver/Src/stm32f4xx_hal_eth.c ****       {
 967:Drivers/STM32F4xx_HAL_Driver/Src/stm32f4xx_hal_eth.c ****         /* Setting the last segment bit */
 968:Drivers/STM32F4xx_HAL_Driver/Src/stm32f4xx_hal_eth.c ****         heth->TxDesc->Status |= ETH_DMATXDESC_LS;
 1233              		.loc 1 968 13
 1234 0126 7B68     		ldr	r3, [r7, #4]
 1235 0128 DB6A     		ldr	r3, [r3, #44]
 1236              		.loc 1 968 30
 1237 012a 1A68     		ldr	r2, [r3]
 1238              		.loc 1 968 13
 1239 012c 7B68     		ldr	r3, [r7, #4]
 1240 012e DB6A     		ldr	r3, [r3, #44]
 1241              		.loc 1 968 30
 1242 0130 42F00052 		orr	r2, r2, #536870912
 1243 0134 1A60     		str	r2, [r3]
 969:Drivers/STM32F4xx_HAL_Driver/Src/stm32f4xx_hal_eth.c ****         size = FrameLength - (bufcount-1U)*ETH_TX_BUF_SIZE;
 1244              		.loc 1 969 28
 1245 0136 7B69     		ldr	r3, [r7, #20]
 1246 0138 254A     		ldr	r2, .L65+4
 1247 013a 02FB03F2 		mul	r2, r2, r3
 1248 013e 3B68     		ldr	r3, [r7]
 1249 0140 1344     		add	r3, r3, r2
 1250              		.loc 1 969 14
 1251 0142 03F2F453 		addw	r3, r3, #1524
 1252 0146 FB60     		str	r3, [r7, #12]
 970:Drivers/STM32F4xx_HAL_Driver/Src/stm32f4xx_hal_eth.c ****         heth->TxDesc->ControlBufferSize = (size & ETH_DMATXDESC_TBS1);
 1253              		.loc 1 970 13
 1254 0148 7B68     		ldr	r3, [r7, #4]
 1255 014a DB6A     		ldr	r3, [r3, #44]
ARM GAS  /tmp/cc39NdF4.s 			page 40


 1256              		.loc 1 970 49
 1257 014c FA68     		ldr	r2, [r7, #12]
 1258 014e C2F30C02 		ubfx	r2, r2, #0, #13
 1259              		.loc 1 970 41
 1260 0152 5A60     		str	r2, [r3, #4]
 1261              	.L62:
 971:Drivers/STM32F4xx_HAL_Driver/Src/stm32f4xx_hal_eth.c ****       }
 972:Drivers/STM32F4xx_HAL_Driver/Src/stm32f4xx_hal_eth.c ****       
 973:Drivers/STM32F4xx_HAL_Driver/Src/stm32f4xx_hal_eth.c ****       /* Set Own bit of the Tx descriptor Status: gives the buffer back to ETHERNET DMA */
 974:Drivers/STM32F4xx_HAL_Driver/Src/stm32f4xx_hal_eth.c ****       heth->TxDesc->Status |= ETH_DMATXDESC_OWN;
 1262              		.loc 1 974 11 discriminator 2
 1263 0154 7B68     		ldr	r3, [r7, #4]
 1264 0156 DB6A     		ldr	r3, [r3, #44]
 1265              		.loc 1 974 28 discriminator 2
 1266 0158 1A68     		ldr	r2, [r3]
 1267              		.loc 1 974 11 discriminator 2
 1268 015a 7B68     		ldr	r3, [r7, #4]
 1269 015c DB6A     		ldr	r3, [r3, #44]
 1270              		.loc 1 974 28 discriminator 2
 1271 015e 42F00042 		orr	r2, r2, #-2147483648
 1272 0162 1A60     		str	r2, [r3]
 975:Drivers/STM32F4xx_HAL_Driver/Src/stm32f4xx_hal_eth.c ****       /* point to next descriptor */
 976:Drivers/STM32F4xx_HAL_Driver/Src/stm32f4xx_hal_eth.c ****       heth->TxDesc = (ETH_DMADescTypeDef *)(heth->TxDesc->Buffer2NextDescAddr);
 1273              		.loc 1 976 49 discriminator 2
 1274 0164 7B68     		ldr	r3, [r7, #4]
 1275 0166 DB6A     		ldr	r3, [r3, #44]
 1276              		.loc 1 976 57 discriminator 2
 1277 0168 DB68     		ldr	r3, [r3, #12]
 1278              		.loc 1 976 22 discriminator 2
 1279 016a 1A46     		mov	r2, r3
 1280              		.loc 1 976 20 discriminator 2
 1281 016c 7B68     		ldr	r3, [r7, #4]
 1282 016e DA62     		str	r2, [r3, #44]
 951:Drivers/STM32F4xx_HAL_Driver/Src/stm32f4xx_hal_eth.c ****     {
 1283              		.loc 1 951 30 discriminator 2
 1284 0170 3B69     		ldr	r3, [r7, #16]
 1285 0172 0133     		adds	r3, r3, #1
 1286 0174 3B61     		str	r3, [r7, #16]
 1287              	.L60:
 951:Drivers/STM32F4xx_HAL_Driver/Src/stm32f4xx_hal_eth.c ****     {
 1288              		.loc 1 951 5 discriminator 1
 1289 0176 3A69     		ldr	r2, [r7, #16]
 1290 0178 7B69     		ldr	r3, [r7, #20]
 1291 017a 9A42     		cmp	r2, r3
 1292 017c B6D3     		bcc	.L63
 1293              	.L59:
 977:Drivers/STM32F4xx_HAL_Driver/Src/stm32f4xx_hal_eth.c ****     }
 978:Drivers/STM32F4xx_HAL_Driver/Src/stm32f4xx_hal_eth.c ****   }
 979:Drivers/STM32F4xx_HAL_Driver/Src/stm32f4xx_hal_eth.c ****   
 980:Drivers/STM32F4xx_HAL_Driver/Src/stm32f4xx_hal_eth.c ****   /* When Tx Buffer unavailable flag is set: clear it and resume transmission */
 981:Drivers/STM32F4xx_HAL_Driver/Src/stm32f4xx_hal_eth.c ****   if (((heth->Instance)->DMASR & ETH_DMASR_TBUS) != (uint32_t)RESET)
 1294              		.loc 1 981 13
 1295 017e 7B68     		ldr	r3, [r7, #4]
 1296 0180 1B68     		ldr	r3, [r3]
 1297              		.loc 1 981 24
 1298 0182 03F58053 		add	r3, r3, #4096
 1299 0186 1433     		adds	r3, r3, #20
ARM GAS  /tmp/cc39NdF4.s 			page 41


 1300 0188 1B68     		ldr	r3, [r3]
 1301              		.loc 1 981 32
 1302 018a 03F00403 		and	r3, r3, #4
 1303              		.loc 1 981 6
 1304 018e 002B     		cmp	r3, #0
 1305 0190 0DD0     		beq	.L64
 982:Drivers/STM32F4xx_HAL_Driver/Src/stm32f4xx_hal_eth.c ****   {
 983:Drivers/STM32F4xx_HAL_Driver/Src/stm32f4xx_hal_eth.c ****     /* Clear TBUS ETHERNET DMA flag */
 984:Drivers/STM32F4xx_HAL_Driver/Src/stm32f4xx_hal_eth.c ****     (heth->Instance)->DMASR = ETH_DMASR_TBUS;
 1306              		.loc 1 984 10
 1307 0192 7B68     		ldr	r3, [r7, #4]
 1308 0194 1B68     		ldr	r3, [r3]
 1309              		.loc 1 984 29
 1310 0196 03F58053 		add	r3, r3, #4096
 1311 019a 1433     		adds	r3, r3, #20
 1312 019c 0422     		movs	r2, #4
 1313 019e 1A60     		str	r2, [r3]
 985:Drivers/STM32F4xx_HAL_Driver/Src/stm32f4xx_hal_eth.c ****     /* Resume DMA transmission*/
 986:Drivers/STM32F4xx_HAL_Driver/Src/stm32f4xx_hal_eth.c ****     (heth->Instance)->DMATPDR = 0U;
 1314              		.loc 1 986 10
 1315 01a0 7B68     		ldr	r3, [r7, #4]
 1316 01a2 1B68     		ldr	r3, [r3]
 1317              		.loc 1 986 31
 1318 01a4 03F58053 		add	r3, r3, #4096
 1319 01a8 0433     		adds	r3, r3, #4
 1320 01aa 0022     		movs	r2, #0
 1321 01ac 1A60     		str	r2, [r3]
 1322              	.L64:
 987:Drivers/STM32F4xx_HAL_Driver/Src/stm32f4xx_hal_eth.c ****   }
 988:Drivers/STM32F4xx_HAL_Driver/Src/stm32f4xx_hal_eth.c ****   
 989:Drivers/STM32F4xx_HAL_Driver/Src/stm32f4xx_hal_eth.c ****   /* Set ETH HAL State to Ready */
 990:Drivers/STM32F4xx_HAL_Driver/Src/stm32f4xx_hal_eth.c ****   heth->State = HAL_ETH_STATE_READY;
 1323              		.loc 1 990 15
 1324 01ae 7B68     		ldr	r3, [r7, #4]
 1325 01b0 0122     		movs	r2, #1
 1326 01b2 83F84420 		strb	r2, [r3, #68]
 991:Drivers/STM32F4xx_HAL_Driver/Src/stm32f4xx_hal_eth.c ****   
 992:Drivers/STM32F4xx_HAL_Driver/Src/stm32f4xx_hal_eth.c ****   /* Process Unlocked */
 993:Drivers/STM32F4xx_HAL_Driver/Src/stm32f4xx_hal_eth.c ****   __HAL_UNLOCK(heth);
 1327              		.loc 1 993 3
 1328 01b6 7B68     		ldr	r3, [r7, #4]
 1329 01b8 0022     		movs	r2, #0
 1330 01ba 83F84520 		strb	r2, [r3, #69]
 994:Drivers/STM32F4xx_HAL_Driver/Src/stm32f4xx_hal_eth.c ****   
 995:Drivers/STM32F4xx_HAL_Driver/Src/stm32f4xx_hal_eth.c ****   /* Return function status */
 996:Drivers/STM32F4xx_HAL_Driver/Src/stm32f4xx_hal_eth.c ****   return HAL_OK;
 1331              		.loc 1 996 10
 1332 01be 0023     		movs	r3, #0
 1333              	.L52:
 997:Drivers/STM32F4xx_HAL_Driver/Src/stm32f4xx_hal_eth.c **** }
 1334              		.loc 1 997 1
 1335 01c0 1846     		mov	r0, r3
 1336 01c2 1C37     		adds	r7, r7, #28
 1337              	.LCFI37:
 1338              		.cfi_def_cfa_offset 4
 1339 01c4 BD46     		mov	sp, r7
 1340              	.LCFI38:
ARM GAS  /tmp/cc39NdF4.s 			page 42


 1341              		.cfi_def_cfa_register 13
 1342              		@ sp needed
 1343 01c6 5DF8047B 		ldr	r7, [sp], #4
 1344              	.LCFI39:
 1345              		.cfi_restore 7
 1346              		.cfi_def_cfa_offset 0
 1347 01ca 7047     		bx	lr
 1348              	.L66:
 1349              		.align	2
 1350              	.L65:
 1351 01cc 0BB002AC 		.word	-1409110005
 1352 01d0 0CFAFFFF 		.word	-1524
 1353              		.cfi_endproc
 1354              	.LFE136:
 1356              		.section	.text.HAL_ETH_GetReceivedFrame,"ax",%progbits
 1357              		.align	1
 1358              		.global	HAL_ETH_GetReceivedFrame
 1359              		.syntax unified
 1360              		.thumb
 1361              		.thumb_func
 1362              		.fpu fpv4-sp-d16
 1364              	HAL_ETH_GetReceivedFrame:
 1365              	.LFB137:
 998:Drivers/STM32F4xx_HAL_Driver/Src/stm32f4xx_hal_eth.c **** 
 999:Drivers/STM32F4xx_HAL_Driver/Src/stm32f4xx_hal_eth.c **** /**
1000:Drivers/STM32F4xx_HAL_Driver/Src/stm32f4xx_hal_eth.c ****   * @brief  Checks for received frames. 
1001:Drivers/STM32F4xx_HAL_Driver/Src/stm32f4xx_hal_eth.c ****   * @param  heth pointer to a ETH_HandleTypeDef structure that contains
1002:Drivers/STM32F4xx_HAL_Driver/Src/stm32f4xx_hal_eth.c ****   *         the configuration information for ETHERNET module
1003:Drivers/STM32F4xx_HAL_Driver/Src/stm32f4xx_hal_eth.c ****   * @retval HAL status
1004:Drivers/STM32F4xx_HAL_Driver/Src/stm32f4xx_hal_eth.c ****   */
1005:Drivers/STM32F4xx_HAL_Driver/Src/stm32f4xx_hal_eth.c **** HAL_StatusTypeDef HAL_ETH_GetReceivedFrame(ETH_HandleTypeDef *heth)
1006:Drivers/STM32F4xx_HAL_Driver/Src/stm32f4xx_hal_eth.c **** {
 1366              		.loc 1 1006 1
 1367              		.cfi_startproc
 1368              		@ args = 0, pretend = 0, frame = 16
 1369              		@ frame_needed = 1, uses_anonymous_args = 0
 1370              		@ link register save eliminated.
 1371 0000 80B4     		push	{r7}
 1372              	.LCFI40:
 1373              		.cfi_def_cfa_offset 4
 1374              		.cfi_offset 7, -4
 1375 0002 85B0     		sub	sp, sp, #20
 1376              	.LCFI41:
 1377              		.cfi_def_cfa_offset 24
 1378 0004 00AF     		add	r7, sp, #0
 1379              	.LCFI42:
 1380              		.cfi_def_cfa_register 7
 1381 0006 7860     		str	r0, [r7, #4]
1007:Drivers/STM32F4xx_HAL_Driver/Src/stm32f4xx_hal_eth.c ****   uint32_t framelength = 0U;
 1382              		.loc 1 1007 12
 1383 0008 0023     		movs	r3, #0
 1384 000a FB60     		str	r3, [r7, #12]
1008:Drivers/STM32F4xx_HAL_Driver/Src/stm32f4xx_hal_eth.c ****   
1009:Drivers/STM32F4xx_HAL_Driver/Src/stm32f4xx_hal_eth.c ****   /* Process Locked */
1010:Drivers/STM32F4xx_HAL_Driver/Src/stm32f4xx_hal_eth.c ****   __HAL_LOCK(heth);
 1385              		.loc 1 1010 3
 1386 000c 7B68     		ldr	r3, [r7, #4]
ARM GAS  /tmp/cc39NdF4.s 			page 43


 1387 000e 93F84530 		ldrb	r3, [r3, #69]	@ zero_extendqisi2
 1388 0012 012B     		cmp	r3, #1
 1389 0014 01D1     		bne	.L68
 1390              		.loc 1 1010 3 is_stmt 0 discriminator 1
 1391 0016 0223     		movs	r3, #2
 1392 0018 70E0     		b	.L69
 1393              	.L68:
 1394              		.loc 1 1010 3 discriminator 2
 1395 001a 7B68     		ldr	r3, [r7, #4]
 1396 001c 0122     		movs	r2, #1
 1397 001e 83F84520 		strb	r2, [r3, #69]
1011:Drivers/STM32F4xx_HAL_Driver/Src/stm32f4xx_hal_eth.c ****   
1012:Drivers/STM32F4xx_HAL_Driver/Src/stm32f4xx_hal_eth.c ****   /* Check the ETH state to BUSY */
1013:Drivers/STM32F4xx_HAL_Driver/Src/stm32f4xx_hal_eth.c ****   heth->State = HAL_ETH_STATE_BUSY;
 1398              		.loc 1 1013 15 is_stmt 1 discriminator 2
 1399 0022 7B68     		ldr	r3, [r7, #4]
 1400 0024 0222     		movs	r2, #2
 1401 0026 83F84420 		strb	r2, [r3, #68]
1014:Drivers/STM32F4xx_HAL_Driver/Src/stm32f4xx_hal_eth.c ****   
1015:Drivers/STM32F4xx_HAL_Driver/Src/stm32f4xx_hal_eth.c ****   /* Check if segment is not owned by DMA */
1016:Drivers/STM32F4xx_HAL_Driver/Src/stm32f4xx_hal_eth.c ****   /* (((heth->RxDesc->Status & ETH_DMARXDESC_OWN) == (uint32_t)RESET) && ((heth->RxDesc->Status & E
1017:Drivers/STM32F4xx_HAL_Driver/Src/stm32f4xx_hal_eth.c ****   if(((heth->RxDesc->Status & ETH_DMARXDESC_OWN) == (uint32_t)RESET))
 1402              		.loc 1 1017 12 discriminator 2
 1403 002a 7B68     		ldr	r3, [r7, #4]
 1404 002c 9B6A     		ldr	r3, [r3, #40]
 1405              		.loc 1 1017 20 discriminator 2
 1406 002e 1B68     		ldr	r3, [r3]
 1407              		.loc 1 1017 5 discriminator 2
 1408 0030 002B     		cmp	r3, #0
 1409 0032 5ADB     		blt	.L70
1018:Drivers/STM32F4xx_HAL_Driver/Src/stm32f4xx_hal_eth.c ****   {
1019:Drivers/STM32F4xx_HAL_Driver/Src/stm32f4xx_hal_eth.c ****     /* Check if last segment */
1020:Drivers/STM32F4xx_HAL_Driver/Src/stm32f4xx_hal_eth.c ****     if(((heth->RxDesc->Status & ETH_DMARXDESC_LS) != (uint32_t)RESET)) 
 1410              		.loc 1 1020 14
 1411 0034 7B68     		ldr	r3, [r7, #4]
 1412 0036 9B6A     		ldr	r3, [r3, #40]
 1413              		.loc 1 1020 22
 1414 0038 1B68     		ldr	r3, [r3]
 1415              		.loc 1 1020 31
 1416 003a 03F48073 		and	r3, r3, #256
 1417              		.loc 1 1020 7
 1418 003e 002B     		cmp	r3, #0
 1419 0040 30D0     		beq	.L71
1021:Drivers/STM32F4xx_HAL_Driver/Src/stm32f4xx_hal_eth.c ****     {
1022:Drivers/STM32F4xx_HAL_Driver/Src/stm32f4xx_hal_eth.c ****       /* increment segment count */
1023:Drivers/STM32F4xx_HAL_Driver/Src/stm32f4xx_hal_eth.c ****       (heth->RxFrameInfos).SegCount++;
 1420              		.loc 1 1023 27
 1421 0042 7B68     		ldr	r3, [r7, #4]
 1422 0044 9B6B     		ldr	r3, [r3, #56]
 1423              		.loc 1 1023 36
 1424 0046 5A1C     		adds	r2, r3, #1
 1425 0048 7B68     		ldr	r3, [r7, #4]
 1426 004a 9A63     		str	r2, [r3, #56]
1024:Drivers/STM32F4xx_HAL_Driver/Src/stm32f4xx_hal_eth.c ****       
1025:Drivers/STM32F4xx_HAL_Driver/Src/stm32f4xx_hal_eth.c ****       /* Check if last segment is first segment: one segment contains the frame */
1026:Drivers/STM32F4xx_HAL_Driver/Src/stm32f4xx_hal_eth.c ****       if ((heth->RxFrameInfos).SegCount == 1U)
 1427              		.loc 1 1026 31
ARM GAS  /tmp/cc39NdF4.s 			page 44


 1428 004c 7B68     		ldr	r3, [r7, #4]
 1429 004e 9B6B     		ldr	r3, [r3, #56]
 1430              		.loc 1 1026 10
 1431 0050 012B     		cmp	r3, #1
 1432 0052 03D1     		bne	.L72
1027:Drivers/STM32F4xx_HAL_Driver/Src/stm32f4xx_hal_eth.c ****       {
1028:Drivers/STM32F4xx_HAL_Driver/Src/stm32f4xx_hal_eth.c ****         (heth->RxFrameInfos).FSRxDesc =heth->RxDesc;
 1433              		.loc 1 1028 44
 1434 0054 7B68     		ldr	r3, [r7, #4]
 1435 0056 9A6A     		ldr	r2, [r3, #40]
 1436              		.loc 1 1028 39
 1437 0058 7B68     		ldr	r3, [r7, #4]
 1438 005a 1A63     		str	r2, [r3, #48]
 1439              	.L72:
1029:Drivers/STM32F4xx_HAL_Driver/Src/stm32f4xx_hal_eth.c ****       }
1030:Drivers/STM32F4xx_HAL_Driver/Src/stm32f4xx_hal_eth.c ****       
1031:Drivers/STM32F4xx_HAL_Driver/Src/stm32f4xx_hal_eth.c ****       heth->RxFrameInfos.LSRxDesc = heth->RxDesc;
 1440              		.loc 1 1031 41
 1441 005c 7B68     		ldr	r3, [r7, #4]
 1442 005e 9A6A     		ldr	r2, [r3, #40]
 1443              		.loc 1 1031 35
 1444 0060 7B68     		ldr	r3, [r7, #4]
 1445 0062 5A63     		str	r2, [r3, #52]
1032:Drivers/STM32F4xx_HAL_Driver/Src/stm32f4xx_hal_eth.c ****       
1033:Drivers/STM32F4xx_HAL_Driver/Src/stm32f4xx_hal_eth.c ****       /* Get the Frame Length of the received packet: substruct 4 bytes of the CRC */
1034:Drivers/STM32F4xx_HAL_Driver/Src/stm32f4xx_hal_eth.c ****       framelength = (((heth->RxDesc)->Status & ETH_DMARXDESC_FL) >> ETH_DMARXDESC_FRAMELENGTHSHIFT)
 1446              		.loc 1 1034 28
 1447 0064 7B68     		ldr	r3, [r7, #4]
 1448 0066 9B6A     		ldr	r3, [r3, #40]
 1449              		.loc 1 1034 37
 1450 0068 1B68     		ldr	r3, [r3]
 1451              		.loc 1 1034 66
 1452 006a 1B0C     		lsrs	r3, r3, #16
 1453 006c C3F30D03 		ubfx	r3, r3, #0, #14
 1454              		.loc 1 1034 19
 1455 0070 043B     		subs	r3, r3, #4
 1456 0072 FB60     		str	r3, [r7, #12]
1035:Drivers/STM32F4xx_HAL_Driver/Src/stm32f4xx_hal_eth.c ****       heth->RxFrameInfos.length = framelength;
 1457              		.loc 1 1035 33
 1458 0074 7B68     		ldr	r3, [r7, #4]
 1459 0076 FA68     		ldr	r2, [r7, #12]
 1460 0078 DA63     		str	r2, [r3, #60]
1036:Drivers/STM32F4xx_HAL_Driver/Src/stm32f4xx_hal_eth.c ****       
1037:Drivers/STM32F4xx_HAL_Driver/Src/stm32f4xx_hal_eth.c ****       /* Get the address of the buffer start address */
1038:Drivers/STM32F4xx_HAL_Driver/Src/stm32f4xx_hal_eth.c ****       heth->RxFrameInfos.buffer = ((heth->RxFrameInfos).FSRxDesc)->Buffer1Addr;
 1461              		.loc 1 1038 56
 1462 007a 7B68     		ldr	r3, [r7, #4]
 1463 007c 1B6B     		ldr	r3, [r3, #48]
 1464              		.loc 1 1038 66
 1465 007e 9A68     		ldr	r2, [r3, #8]
 1466              		.loc 1 1038 33
 1467 0080 7B68     		ldr	r3, [r7, #4]
 1468 0082 1A64     		str	r2, [r3, #64]
1039:Drivers/STM32F4xx_HAL_Driver/Src/stm32f4xx_hal_eth.c ****       /* point to next descriptor */
1040:Drivers/STM32F4xx_HAL_Driver/Src/stm32f4xx_hal_eth.c ****       heth->RxDesc = (ETH_DMADescTypeDef*) ((heth->RxDesc)->Buffer2NextDescAddr);
 1469              		.loc 1 1040 50
 1470 0084 7B68     		ldr	r3, [r7, #4]
ARM GAS  /tmp/cc39NdF4.s 			page 45


 1471 0086 9B6A     		ldr	r3, [r3, #40]
 1472              		.loc 1 1040 59
 1473 0088 DB68     		ldr	r3, [r3, #12]
 1474              		.loc 1 1040 22
 1475 008a 1A46     		mov	r2, r3
 1476              		.loc 1 1040 20
 1477 008c 7B68     		ldr	r3, [r7, #4]
 1478 008e 9A62     		str	r2, [r3, #40]
1041:Drivers/STM32F4xx_HAL_Driver/Src/stm32f4xx_hal_eth.c ****       
1042:Drivers/STM32F4xx_HAL_Driver/Src/stm32f4xx_hal_eth.c ****       /* Set HAL State to Ready */
1043:Drivers/STM32F4xx_HAL_Driver/Src/stm32f4xx_hal_eth.c ****       heth->State = HAL_ETH_STATE_READY;
 1479              		.loc 1 1043 19
 1480 0090 7B68     		ldr	r3, [r7, #4]
 1481 0092 0122     		movs	r2, #1
 1482 0094 83F84420 		strb	r2, [r3, #68]
1044:Drivers/STM32F4xx_HAL_Driver/Src/stm32f4xx_hal_eth.c ****       
1045:Drivers/STM32F4xx_HAL_Driver/Src/stm32f4xx_hal_eth.c ****       /* Process Unlocked */
1046:Drivers/STM32F4xx_HAL_Driver/Src/stm32f4xx_hal_eth.c ****       __HAL_UNLOCK(heth);
 1483              		.loc 1 1046 7
 1484 0098 7B68     		ldr	r3, [r7, #4]
 1485 009a 0022     		movs	r2, #0
 1486 009c 83F84520 		strb	r2, [r3, #69]
1047:Drivers/STM32F4xx_HAL_Driver/Src/stm32f4xx_hal_eth.c ****       
1048:Drivers/STM32F4xx_HAL_Driver/Src/stm32f4xx_hal_eth.c ****       /* Return function status */
1049:Drivers/STM32F4xx_HAL_Driver/Src/stm32f4xx_hal_eth.c ****       return HAL_OK;
 1487              		.loc 1 1049 14
 1488 00a0 0023     		movs	r3, #0
 1489 00a2 2BE0     		b	.L69
 1490              	.L71:
1050:Drivers/STM32F4xx_HAL_Driver/Src/stm32f4xx_hal_eth.c ****     }
1051:Drivers/STM32F4xx_HAL_Driver/Src/stm32f4xx_hal_eth.c ****     /* Check if first segment */
1052:Drivers/STM32F4xx_HAL_Driver/Src/stm32f4xx_hal_eth.c ****     else if((heth->RxDesc->Status & ETH_DMARXDESC_FS) != (uint32_t)RESET)
 1491              		.loc 1 1052 18
 1492 00a4 7B68     		ldr	r3, [r7, #4]
 1493 00a6 9B6A     		ldr	r3, [r3, #40]
 1494              		.loc 1 1052 26
 1495 00a8 1B68     		ldr	r3, [r3]
 1496              		.loc 1 1052 35
 1497 00aa 03F40073 		and	r3, r3, #512
 1498              		.loc 1 1052 12
 1499 00ae 002B     		cmp	r3, #0
 1500 00b0 10D0     		beq	.L73
1053:Drivers/STM32F4xx_HAL_Driver/Src/stm32f4xx_hal_eth.c ****     {
1054:Drivers/STM32F4xx_HAL_Driver/Src/stm32f4xx_hal_eth.c ****       (heth->RxFrameInfos).FSRxDesc = heth->RxDesc;
 1501              		.loc 1 1054 43
 1502 00b2 7B68     		ldr	r3, [r7, #4]
 1503 00b4 9A6A     		ldr	r2, [r3, #40]
 1504              		.loc 1 1054 37
 1505 00b6 7B68     		ldr	r3, [r7, #4]
 1506 00b8 1A63     		str	r2, [r3, #48]
1055:Drivers/STM32F4xx_HAL_Driver/Src/stm32f4xx_hal_eth.c ****       (heth->RxFrameInfos).LSRxDesc = NULL;
 1507              		.loc 1 1055 37
 1508 00ba 7B68     		ldr	r3, [r7, #4]
 1509 00bc 0022     		movs	r2, #0
 1510 00be 5A63     		str	r2, [r3, #52]
1056:Drivers/STM32F4xx_HAL_Driver/Src/stm32f4xx_hal_eth.c ****       (heth->RxFrameInfos).SegCount = 1U;
 1511              		.loc 1 1056 37
ARM GAS  /tmp/cc39NdF4.s 			page 46


 1512 00c0 7B68     		ldr	r3, [r7, #4]
 1513 00c2 0122     		movs	r2, #1
 1514 00c4 9A63     		str	r2, [r3, #56]
1057:Drivers/STM32F4xx_HAL_Driver/Src/stm32f4xx_hal_eth.c ****       /* Point to next descriptor */
1058:Drivers/STM32F4xx_HAL_Driver/Src/stm32f4xx_hal_eth.c ****       heth->RxDesc = (ETH_DMADescTypeDef*) (heth->RxDesc->Buffer2NextDescAddr);
 1515              		.loc 1 1058 49
 1516 00c6 7B68     		ldr	r3, [r7, #4]
 1517 00c8 9B6A     		ldr	r3, [r3, #40]
 1518              		.loc 1 1058 57
 1519 00ca DB68     		ldr	r3, [r3, #12]
 1520              		.loc 1 1058 22
 1521 00cc 1A46     		mov	r2, r3
 1522              		.loc 1 1058 20
 1523 00ce 7B68     		ldr	r3, [r7, #4]
 1524 00d0 9A62     		str	r2, [r3, #40]
 1525 00d2 0AE0     		b	.L70
 1526              	.L73:
1059:Drivers/STM32F4xx_HAL_Driver/Src/stm32f4xx_hal_eth.c ****     }
1060:Drivers/STM32F4xx_HAL_Driver/Src/stm32f4xx_hal_eth.c ****     /* Check if intermediate segment */ 
1061:Drivers/STM32F4xx_HAL_Driver/Src/stm32f4xx_hal_eth.c ****     else
1062:Drivers/STM32F4xx_HAL_Driver/Src/stm32f4xx_hal_eth.c ****     {
1063:Drivers/STM32F4xx_HAL_Driver/Src/stm32f4xx_hal_eth.c ****       (heth->RxFrameInfos).SegCount++;
 1527              		.loc 1 1063 27
 1528 00d4 7B68     		ldr	r3, [r7, #4]
 1529 00d6 9B6B     		ldr	r3, [r3, #56]
 1530              		.loc 1 1063 36
 1531 00d8 5A1C     		adds	r2, r3, #1
 1532 00da 7B68     		ldr	r3, [r7, #4]
 1533 00dc 9A63     		str	r2, [r3, #56]
1064:Drivers/STM32F4xx_HAL_Driver/Src/stm32f4xx_hal_eth.c ****       /* Point to next descriptor */
1065:Drivers/STM32F4xx_HAL_Driver/Src/stm32f4xx_hal_eth.c ****       heth->RxDesc = (ETH_DMADescTypeDef*) (heth->RxDesc->Buffer2NextDescAddr);
 1534              		.loc 1 1065 49
 1535 00de 7B68     		ldr	r3, [r7, #4]
 1536 00e0 9B6A     		ldr	r3, [r3, #40]
 1537              		.loc 1 1065 57
 1538 00e2 DB68     		ldr	r3, [r3, #12]
 1539              		.loc 1 1065 22
 1540 00e4 1A46     		mov	r2, r3
 1541              		.loc 1 1065 20
 1542 00e6 7B68     		ldr	r3, [r7, #4]
 1543 00e8 9A62     		str	r2, [r3, #40]
 1544              	.L70:
1066:Drivers/STM32F4xx_HAL_Driver/Src/stm32f4xx_hal_eth.c ****     } 
1067:Drivers/STM32F4xx_HAL_Driver/Src/stm32f4xx_hal_eth.c ****   }
1068:Drivers/STM32F4xx_HAL_Driver/Src/stm32f4xx_hal_eth.c ****   
1069:Drivers/STM32F4xx_HAL_Driver/Src/stm32f4xx_hal_eth.c ****   /* Set ETH HAL State to Ready */
1070:Drivers/STM32F4xx_HAL_Driver/Src/stm32f4xx_hal_eth.c ****   heth->State = HAL_ETH_STATE_READY;
 1545              		.loc 1 1070 15
 1546 00ea 7B68     		ldr	r3, [r7, #4]
 1547 00ec 0122     		movs	r2, #1
 1548 00ee 83F84420 		strb	r2, [r3, #68]
1071:Drivers/STM32F4xx_HAL_Driver/Src/stm32f4xx_hal_eth.c ****   
1072:Drivers/STM32F4xx_HAL_Driver/Src/stm32f4xx_hal_eth.c ****   /* Process Unlocked */
1073:Drivers/STM32F4xx_HAL_Driver/Src/stm32f4xx_hal_eth.c ****   __HAL_UNLOCK(heth);
 1549              		.loc 1 1073 3
 1550 00f2 7B68     		ldr	r3, [r7, #4]
 1551 00f4 0022     		movs	r2, #0
ARM GAS  /tmp/cc39NdF4.s 			page 47


 1552 00f6 83F84520 		strb	r2, [r3, #69]
1074:Drivers/STM32F4xx_HAL_Driver/Src/stm32f4xx_hal_eth.c ****   
1075:Drivers/STM32F4xx_HAL_Driver/Src/stm32f4xx_hal_eth.c ****   /* Return function status */
1076:Drivers/STM32F4xx_HAL_Driver/Src/stm32f4xx_hal_eth.c ****   return HAL_ERROR;
 1553              		.loc 1 1076 10
 1554 00fa 0123     		movs	r3, #1
 1555              	.L69:
1077:Drivers/STM32F4xx_HAL_Driver/Src/stm32f4xx_hal_eth.c **** }
 1556              		.loc 1 1077 1
 1557 00fc 1846     		mov	r0, r3
 1558 00fe 1437     		adds	r7, r7, #20
 1559              	.LCFI43:
 1560              		.cfi_def_cfa_offset 4
 1561 0100 BD46     		mov	sp, r7
 1562              	.LCFI44:
 1563              		.cfi_def_cfa_register 13
 1564              		@ sp needed
 1565 0102 5DF8047B 		ldr	r7, [sp], #4
 1566              	.LCFI45:
 1567              		.cfi_restore 7
 1568              		.cfi_def_cfa_offset 0
 1569 0106 7047     		bx	lr
 1570              		.cfi_endproc
 1571              	.LFE137:
 1573              		.section	.text.HAL_ETH_GetReceivedFrame_IT,"ax",%progbits
 1574              		.align	1
 1575              		.global	HAL_ETH_GetReceivedFrame_IT
 1576              		.syntax unified
 1577              		.thumb
 1578              		.thumb_func
 1579              		.fpu fpv4-sp-d16
 1581              	HAL_ETH_GetReceivedFrame_IT:
 1582              	.LFB138:
1078:Drivers/STM32F4xx_HAL_Driver/Src/stm32f4xx_hal_eth.c **** 
1079:Drivers/STM32F4xx_HAL_Driver/Src/stm32f4xx_hal_eth.c **** /**
1080:Drivers/STM32F4xx_HAL_Driver/Src/stm32f4xx_hal_eth.c ****   * @brief  Gets the Received frame in interrupt mode. 
1081:Drivers/STM32F4xx_HAL_Driver/Src/stm32f4xx_hal_eth.c ****   * @param  heth pointer to a ETH_HandleTypeDef structure that contains
1082:Drivers/STM32F4xx_HAL_Driver/Src/stm32f4xx_hal_eth.c ****   *         the configuration information for ETHERNET module
1083:Drivers/STM32F4xx_HAL_Driver/Src/stm32f4xx_hal_eth.c ****   * @retval HAL status
1084:Drivers/STM32F4xx_HAL_Driver/Src/stm32f4xx_hal_eth.c ****   */
1085:Drivers/STM32F4xx_HAL_Driver/Src/stm32f4xx_hal_eth.c **** HAL_StatusTypeDef HAL_ETH_GetReceivedFrame_IT(ETH_HandleTypeDef *heth)
1086:Drivers/STM32F4xx_HAL_Driver/Src/stm32f4xx_hal_eth.c **** {
 1583              		.loc 1 1086 1
 1584              		.cfi_startproc
 1585              		@ args = 0, pretend = 0, frame = 16
 1586              		@ frame_needed = 1, uses_anonymous_args = 0
 1587              		@ link register save eliminated.
 1588 0000 80B4     		push	{r7}
 1589              	.LCFI46:
 1590              		.cfi_def_cfa_offset 4
 1591              		.cfi_offset 7, -4
 1592 0002 85B0     		sub	sp, sp, #20
 1593              	.LCFI47:
 1594              		.cfi_def_cfa_offset 24
 1595 0004 00AF     		add	r7, sp, #0
 1596              	.LCFI48:
 1597              		.cfi_def_cfa_register 7
ARM GAS  /tmp/cc39NdF4.s 			page 48


 1598 0006 7860     		str	r0, [r7, #4]
1087:Drivers/STM32F4xx_HAL_Driver/Src/stm32f4xx_hal_eth.c ****   uint32_t descriptorscancounter = 0U;
 1599              		.loc 1 1087 12
 1600 0008 0023     		movs	r3, #0
 1601 000a FB60     		str	r3, [r7, #12]
1088:Drivers/STM32F4xx_HAL_Driver/Src/stm32f4xx_hal_eth.c ****   
1089:Drivers/STM32F4xx_HAL_Driver/Src/stm32f4xx_hal_eth.c ****   /* Process Locked */
1090:Drivers/STM32F4xx_HAL_Driver/Src/stm32f4xx_hal_eth.c ****   __HAL_LOCK(heth);
 1602              		.loc 1 1090 3
 1603 000c 7B68     		ldr	r3, [r7, #4]
 1604 000e 93F84530 		ldrb	r3, [r3, #69]	@ zero_extendqisi2
 1605 0012 012B     		cmp	r3, #1
 1606 0014 01D1     		bne	.L75
 1607              		.loc 1 1090 3 is_stmt 0 discriminator 1
 1608 0016 0223     		movs	r3, #2
 1609 0018 74E0     		b	.L76
 1610              	.L75:
 1611              		.loc 1 1090 3 discriminator 2
 1612 001a 7B68     		ldr	r3, [r7, #4]
 1613 001c 0122     		movs	r2, #1
 1614 001e 83F84520 		strb	r2, [r3, #69]
1091:Drivers/STM32F4xx_HAL_Driver/Src/stm32f4xx_hal_eth.c ****   
1092:Drivers/STM32F4xx_HAL_Driver/Src/stm32f4xx_hal_eth.c ****   /* Set ETH HAL State to BUSY */
1093:Drivers/STM32F4xx_HAL_Driver/Src/stm32f4xx_hal_eth.c ****   heth->State = HAL_ETH_STATE_BUSY;
 1615              		.loc 1 1093 15 is_stmt 1 discriminator 2
 1616 0022 7B68     		ldr	r3, [r7, #4]
 1617 0024 0222     		movs	r2, #2
 1618 0026 83F84420 		strb	r2, [r3, #68]
1094:Drivers/STM32F4xx_HAL_Driver/Src/stm32f4xx_hal_eth.c ****   
1095:Drivers/STM32F4xx_HAL_Driver/Src/stm32f4xx_hal_eth.c ****   /* Scan descriptors owned by CPU */
1096:Drivers/STM32F4xx_HAL_Driver/Src/stm32f4xx_hal_eth.c ****   while (((heth->RxDesc->Status & ETH_DMARXDESC_OWN) == (uint32_t)RESET) && (descriptorscancounter 
 1619              		.loc 1 1096 9 discriminator 2
 1620 002a 5AE0     		b	.L77
 1621              	.L82:
1097:Drivers/STM32F4xx_HAL_Driver/Src/stm32f4xx_hal_eth.c ****   {
1098:Drivers/STM32F4xx_HAL_Driver/Src/stm32f4xx_hal_eth.c ****     /* Just for security */
1099:Drivers/STM32F4xx_HAL_Driver/Src/stm32f4xx_hal_eth.c ****     descriptorscancounter++;
 1622              		.loc 1 1099 26
 1623 002c FB68     		ldr	r3, [r7, #12]
 1624 002e 0133     		adds	r3, r3, #1
 1625 0030 FB60     		str	r3, [r7, #12]
1100:Drivers/STM32F4xx_HAL_Driver/Src/stm32f4xx_hal_eth.c ****     
1101:Drivers/STM32F4xx_HAL_Driver/Src/stm32f4xx_hal_eth.c ****     /* Check if first segment in frame */
1102:Drivers/STM32F4xx_HAL_Driver/Src/stm32f4xx_hal_eth.c ****     /* ((heth->RxDesc->Status & ETH_DMARXDESC_FS) != (uint32_t)RESET) && ((heth->RxDesc->Status & E
1103:Drivers/STM32F4xx_HAL_Driver/Src/stm32f4xx_hal_eth.c ****     if((heth->RxDesc->Status & (ETH_DMARXDESC_FS | ETH_DMARXDESC_LS)) == (uint32_t)ETH_DMARXDESC_FS
 1626              		.loc 1 1103 13
 1627 0032 7B68     		ldr	r3, [r7, #4]
 1628 0034 9B6A     		ldr	r3, [r3, #40]
 1629              		.loc 1 1103 21
 1630 0036 1B68     		ldr	r3, [r3]
 1631              		.loc 1 1103 30
 1632 0038 03F44073 		and	r3, r3, #768
 1633              		.loc 1 1103 7
 1634 003c B3F5007F 		cmp	r3, #512
 1635 0040 0DD1     		bne	.L78
1104:Drivers/STM32F4xx_HAL_Driver/Src/stm32f4xx_hal_eth.c ****     { 
1105:Drivers/STM32F4xx_HAL_Driver/Src/stm32f4xx_hal_eth.c ****       heth->RxFrameInfos.FSRxDesc = heth->RxDesc;
ARM GAS  /tmp/cc39NdF4.s 			page 49


 1636              		.loc 1 1105 41
 1637 0042 7B68     		ldr	r3, [r7, #4]
 1638 0044 9A6A     		ldr	r2, [r3, #40]
 1639              		.loc 1 1105 35
 1640 0046 7B68     		ldr	r3, [r7, #4]
 1641 0048 1A63     		str	r2, [r3, #48]
1106:Drivers/STM32F4xx_HAL_Driver/Src/stm32f4xx_hal_eth.c ****       heth->RxFrameInfos.SegCount = 1U;   
 1642              		.loc 1 1106 35
 1643 004a 7B68     		ldr	r3, [r7, #4]
 1644 004c 0122     		movs	r2, #1
 1645 004e 9A63     		str	r2, [r3, #56]
1107:Drivers/STM32F4xx_HAL_Driver/Src/stm32f4xx_hal_eth.c ****       /* Point to next descriptor */
1108:Drivers/STM32F4xx_HAL_Driver/Src/stm32f4xx_hal_eth.c ****       heth->RxDesc = (ETH_DMADescTypeDef*) (heth->RxDesc->Buffer2NextDescAddr);
 1646              		.loc 1 1108 49
 1647 0050 7B68     		ldr	r3, [r7, #4]
 1648 0052 9B6A     		ldr	r3, [r3, #40]
 1649              		.loc 1 1108 57
 1650 0054 DB68     		ldr	r3, [r3, #12]
 1651              		.loc 1 1108 22
 1652 0056 1A46     		mov	r2, r3
 1653              		.loc 1 1108 20
 1654 0058 7B68     		ldr	r3, [r7, #4]
 1655 005a 9A62     		str	r2, [r3, #40]
 1656 005c 41E0     		b	.L77
 1657              	.L78:
1109:Drivers/STM32F4xx_HAL_Driver/Src/stm32f4xx_hal_eth.c ****     }
1110:Drivers/STM32F4xx_HAL_Driver/Src/stm32f4xx_hal_eth.c ****     /* Check if intermediate segment */
1111:Drivers/STM32F4xx_HAL_Driver/Src/stm32f4xx_hal_eth.c ****     /* ((heth->RxDesc->Status & ETH_DMARXDESC_LS) == (uint32_t)RESET)&& ((heth->RxDesc->Status & ET
1112:Drivers/STM32F4xx_HAL_Driver/Src/stm32f4xx_hal_eth.c ****     else if ((heth->RxDesc->Status & (ETH_DMARXDESC_LS | ETH_DMARXDESC_FS)) == (uint32_t)RESET)
 1658              		.loc 1 1112 19
 1659 005e 7B68     		ldr	r3, [r7, #4]
 1660 0060 9B6A     		ldr	r3, [r3, #40]
 1661              		.loc 1 1112 27
 1662 0062 1B68     		ldr	r3, [r3]
 1663              		.loc 1 1112 36
 1664 0064 03F44073 		and	r3, r3, #768
 1665              		.loc 1 1112 13
 1666 0068 002B     		cmp	r3, #0
 1667 006a 0BD1     		bne	.L79
1113:Drivers/STM32F4xx_HAL_Driver/Src/stm32f4xx_hal_eth.c ****     {
1114:Drivers/STM32F4xx_HAL_Driver/Src/stm32f4xx_hal_eth.c ****       /* Increment segment count */
1115:Drivers/STM32F4xx_HAL_Driver/Src/stm32f4xx_hal_eth.c ****       (heth->RxFrameInfos.SegCount)++;
 1668              		.loc 1 1115 26
 1669 006c 7B68     		ldr	r3, [r7, #4]
 1670 006e 9B6B     		ldr	r3, [r3, #56]
 1671              		.loc 1 1115 36
 1672 0070 5A1C     		adds	r2, r3, #1
 1673 0072 7B68     		ldr	r3, [r7, #4]
 1674 0074 9A63     		str	r2, [r3, #56]
1116:Drivers/STM32F4xx_HAL_Driver/Src/stm32f4xx_hal_eth.c ****       /* Point to next descriptor */
1117:Drivers/STM32F4xx_HAL_Driver/Src/stm32f4xx_hal_eth.c ****       heth->RxDesc = (ETH_DMADescTypeDef*)(heth->RxDesc->Buffer2NextDescAddr);
 1675              		.loc 1 1117 48
 1676 0076 7B68     		ldr	r3, [r7, #4]
 1677 0078 9B6A     		ldr	r3, [r3, #40]
 1678              		.loc 1 1117 56
 1679 007a DB68     		ldr	r3, [r3, #12]
 1680              		.loc 1 1117 22
ARM GAS  /tmp/cc39NdF4.s 			page 50


 1681 007c 1A46     		mov	r2, r3
 1682              		.loc 1 1117 20
 1683 007e 7B68     		ldr	r3, [r7, #4]
 1684 0080 9A62     		str	r2, [r3, #40]
 1685 0082 2EE0     		b	.L77
 1686              	.L79:
1118:Drivers/STM32F4xx_HAL_Driver/Src/stm32f4xx_hal_eth.c ****     }
1119:Drivers/STM32F4xx_HAL_Driver/Src/stm32f4xx_hal_eth.c ****     /* Should be last segment */
1120:Drivers/STM32F4xx_HAL_Driver/Src/stm32f4xx_hal_eth.c ****     else
1121:Drivers/STM32F4xx_HAL_Driver/Src/stm32f4xx_hal_eth.c ****     { 
1122:Drivers/STM32F4xx_HAL_Driver/Src/stm32f4xx_hal_eth.c ****       /* Last segment */
1123:Drivers/STM32F4xx_HAL_Driver/Src/stm32f4xx_hal_eth.c ****       heth->RxFrameInfos.LSRxDesc = heth->RxDesc;
 1687              		.loc 1 1123 41
 1688 0084 7B68     		ldr	r3, [r7, #4]
 1689 0086 9A6A     		ldr	r2, [r3, #40]
 1690              		.loc 1 1123 35
 1691 0088 7B68     		ldr	r3, [r7, #4]
 1692 008a 5A63     		str	r2, [r3, #52]
1124:Drivers/STM32F4xx_HAL_Driver/Src/stm32f4xx_hal_eth.c ****       
1125:Drivers/STM32F4xx_HAL_Driver/Src/stm32f4xx_hal_eth.c ****       /* Increment segment count */
1126:Drivers/STM32F4xx_HAL_Driver/Src/stm32f4xx_hal_eth.c ****       (heth->RxFrameInfos.SegCount)++;
 1693              		.loc 1 1126 26
 1694 008c 7B68     		ldr	r3, [r7, #4]
 1695 008e 9B6B     		ldr	r3, [r3, #56]
 1696              		.loc 1 1126 36
 1697 0090 5A1C     		adds	r2, r3, #1
 1698 0092 7B68     		ldr	r3, [r7, #4]
 1699 0094 9A63     		str	r2, [r3, #56]
1127:Drivers/STM32F4xx_HAL_Driver/Src/stm32f4xx_hal_eth.c ****       
1128:Drivers/STM32F4xx_HAL_Driver/Src/stm32f4xx_hal_eth.c ****       /* Check if last segment is first segment: one segment contains the frame */
1129:Drivers/STM32F4xx_HAL_Driver/Src/stm32f4xx_hal_eth.c ****       if ((heth->RxFrameInfos.SegCount) == 1U)
 1700              		.loc 1 1129 30
 1701 0096 7B68     		ldr	r3, [r7, #4]
 1702 0098 9B6B     		ldr	r3, [r3, #56]
 1703              		.loc 1 1129 10
 1704 009a 012B     		cmp	r3, #1
 1705 009c 03D1     		bne	.L80
1130:Drivers/STM32F4xx_HAL_Driver/Src/stm32f4xx_hal_eth.c ****       {
1131:Drivers/STM32F4xx_HAL_Driver/Src/stm32f4xx_hal_eth.c ****         heth->RxFrameInfos.FSRxDesc = heth->RxDesc;
 1706              		.loc 1 1131 43
 1707 009e 7B68     		ldr	r3, [r7, #4]
 1708 00a0 9A6A     		ldr	r2, [r3, #40]
 1709              		.loc 1 1131 37
 1710 00a2 7B68     		ldr	r3, [r7, #4]
 1711 00a4 1A63     		str	r2, [r3, #48]
 1712              	.L80:
1132:Drivers/STM32F4xx_HAL_Driver/Src/stm32f4xx_hal_eth.c ****       }
1133:Drivers/STM32F4xx_HAL_Driver/Src/stm32f4xx_hal_eth.c ****       
1134:Drivers/STM32F4xx_HAL_Driver/Src/stm32f4xx_hal_eth.c ****       /* Get the Frame Length of the received packet: substruct 4 bytes of the CRC */
1135:Drivers/STM32F4xx_HAL_Driver/Src/stm32f4xx_hal_eth.c ****       heth->RxFrameInfos.length = (((heth->RxDesc)->Status & ETH_DMARXDESC_FL) >> ETH_DMARXDESC_FRA
 1713              		.loc 1 1135 42
 1714 00a6 7B68     		ldr	r3, [r7, #4]
 1715 00a8 9B6A     		ldr	r3, [r3, #40]
 1716              		.loc 1 1135 51
 1717 00aa 1B68     		ldr	r3, [r3]
 1718              		.loc 1 1135 80
 1719 00ac 1B0C     		lsrs	r3, r3, #16
ARM GAS  /tmp/cc39NdF4.s 			page 51


 1720 00ae C3F30D03 		ubfx	r3, r3, #0, #14
 1721              		.loc 1 1135 115
 1722 00b2 1A1F     		subs	r2, r3, #4
 1723              		.loc 1 1135 33
 1724 00b4 7B68     		ldr	r3, [r7, #4]
 1725 00b6 DA63     		str	r2, [r3, #60]
1136:Drivers/STM32F4xx_HAL_Driver/Src/stm32f4xx_hal_eth.c ****       
1137:Drivers/STM32F4xx_HAL_Driver/Src/stm32f4xx_hal_eth.c ****       /* Get the address of the buffer start address */ 
1138:Drivers/STM32F4xx_HAL_Driver/Src/stm32f4xx_hal_eth.c ****       heth->RxFrameInfos.buffer =((heth->RxFrameInfos).FSRxDesc)->Buffer1Addr;
 1726              		.loc 1 1138 55
 1727 00b8 7B68     		ldr	r3, [r7, #4]
 1728 00ba 1B6B     		ldr	r3, [r3, #48]
 1729              		.loc 1 1138 65
 1730 00bc 9A68     		ldr	r2, [r3, #8]
 1731              		.loc 1 1138 33
 1732 00be 7B68     		ldr	r3, [r7, #4]
 1733 00c0 1A64     		str	r2, [r3, #64]
1139:Drivers/STM32F4xx_HAL_Driver/Src/stm32f4xx_hal_eth.c ****       
1140:Drivers/STM32F4xx_HAL_Driver/Src/stm32f4xx_hal_eth.c ****       /* Point to next descriptor */      
1141:Drivers/STM32F4xx_HAL_Driver/Src/stm32f4xx_hal_eth.c ****       heth->RxDesc = (ETH_DMADescTypeDef*) (heth->RxDesc->Buffer2NextDescAddr);
 1734              		.loc 1 1141 49
 1735 00c2 7B68     		ldr	r3, [r7, #4]
 1736 00c4 9B6A     		ldr	r3, [r3, #40]
 1737              		.loc 1 1141 57
 1738 00c6 DB68     		ldr	r3, [r3, #12]
 1739              		.loc 1 1141 22
 1740 00c8 1A46     		mov	r2, r3
 1741              		.loc 1 1141 20
 1742 00ca 7B68     		ldr	r3, [r7, #4]
 1743 00cc 9A62     		str	r2, [r3, #40]
1142:Drivers/STM32F4xx_HAL_Driver/Src/stm32f4xx_hal_eth.c ****       
1143:Drivers/STM32F4xx_HAL_Driver/Src/stm32f4xx_hal_eth.c ****       /* Set HAL State to Ready */
1144:Drivers/STM32F4xx_HAL_Driver/Src/stm32f4xx_hal_eth.c ****       heth->State = HAL_ETH_STATE_READY;
 1744              		.loc 1 1144 19
 1745 00ce 7B68     		ldr	r3, [r7, #4]
 1746 00d0 0122     		movs	r2, #1
 1747 00d2 83F84420 		strb	r2, [r3, #68]
1145:Drivers/STM32F4xx_HAL_Driver/Src/stm32f4xx_hal_eth.c ****       
1146:Drivers/STM32F4xx_HAL_Driver/Src/stm32f4xx_hal_eth.c ****       /* Process Unlocked */
1147:Drivers/STM32F4xx_HAL_Driver/Src/stm32f4xx_hal_eth.c ****       __HAL_UNLOCK(heth);
 1748              		.loc 1 1147 7
 1749 00d6 7B68     		ldr	r3, [r7, #4]
 1750 00d8 0022     		movs	r2, #0
 1751 00da 83F84520 		strb	r2, [r3, #69]
1148:Drivers/STM32F4xx_HAL_Driver/Src/stm32f4xx_hal_eth.c ****   
1149:Drivers/STM32F4xx_HAL_Driver/Src/stm32f4xx_hal_eth.c ****       /* Return function status */
1150:Drivers/STM32F4xx_HAL_Driver/Src/stm32f4xx_hal_eth.c ****       return HAL_OK;
 1752              		.loc 1 1150 14
 1753 00de 0023     		movs	r3, #0
 1754 00e0 10E0     		b	.L76
 1755              	.L77:
1096:Drivers/STM32F4xx_HAL_Driver/Src/stm32f4xx_hal_eth.c ****   {
 1756              		.loc 1 1096 16
 1757 00e2 7B68     		ldr	r3, [r7, #4]
 1758 00e4 9B6A     		ldr	r3, [r3, #40]
1096:Drivers/STM32F4xx_HAL_Driver/Src/stm32f4xx_hal_eth.c ****   {
 1759              		.loc 1 1096 24
ARM GAS  /tmp/cc39NdF4.s 			page 52


 1760 00e6 1B68     		ldr	r3, [r3]
1096:Drivers/STM32F4xx_HAL_Driver/Src/stm32f4xx_hal_eth.c ****   {
 1761              		.loc 1 1096 9
 1762 00e8 002B     		cmp	r3, #0
 1763 00ea 02DB     		blt	.L81
1096:Drivers/STM32F4xx_HAL_Driver/Src/stm32f4xx_hal_eth.c ****   {
 1764              		.loc 1 1096 74 discriminator 1
 1765 00ec FB68     		ldr	r3, [r7, #12]
 1766 00ee 032B     		cmp	r3, #3
 1767 00f0 9CD9     		bls	.L82
 1768              	.L81:
1151:Drivers/STM32F4xx_HAL_Driver/Src/stm32f4xx_hal_eth.c ****     }
1152:Drivers/STM32F4xx_HAL_Driver/Src/stm32f4xx_hal_eth.c ****   }
1153:Drivers/STM32F4xx_HAL_Driver/Src/stm32f4xx_hal_eth.c **** 
1154:Drivers/STM32F4xx_HAL_Driver/Src/stm32f4xx_hal_eth.c ****   /* Set HAL State to Ready */
1155:Drivers/STM32F4xx_HAL_Driver/Src/stm32f4xx_hal_eth.c ****   heth->State = HAL_ETH_STATE_READY;
 1769              		.loc 1 1155 15
 1770 00f2 7B68     		ldr	r3, [r7, #4]
 1771 00f4 0122     		movs	r2, #1
 1772 00f6 83F84420 		strb	r2, [r3, #68]
1156:Drivers/STM32F4xx_HAL_Driver/Src/stm32f4xx_hal_eth.c ****   
1157:Drivers/STM32F4xx_HAL_Driver/Src/stm32f4xx_hal_eth.c ****   /* Process Unlocked */
1158:Drivers/STM32F4xx_HAL_Driver/Src/stm32f4xx_hal_eth.c ****   __HAL_UNLOCK(heth);
 1773              		.loc 1 1158 3
 1774 00fa 7B68     		ldr	r3, [r7, #4]
 1775 00fc 0022     		movs	r2, #0
 1776 00fe 83F84520 		strb	r2, [r3, #69]
1159:Drivers/STM32F4xx_HAL_Driver/Src/stm32f4xx_hal_eth.c ****   
1160:Drivers/STM32F4xx_HAL_Driver/Src/stm32f4xx_hal_eth.c ****   /* Return function status */
1161:Drivers/STM32F4xx_HAL_Driver/Src/stm32f4xx_hal_eth.c ****   return HAL_ERROR;
 1777              		.loc 1 1161 10
 1778 0102 0123     		movs	r3, #1
 1779              	.L76:
1162:Drivers/STM32F4xx_HAL_Driver/Src/stm32f4xx_hal_eth.c **** }
 1780              		.loc 1 1162 1
 1781 0104 1846     		mov	r0, r3
 1782 0106 1437     		adds	r7, r7, #20
 1783              	.LCFI49:
 1784              		.cfi_def_cfa_offset 4
 1785 0108 BD46     		mov	sp, r7
 1786              	.LCFI50:
 1787              		.cfi_def_cfa_register 13
 1788              		@ sp needed
 1789 010a 5DF8047B 		ldr	r7, [sp], #4
 1790              	.LCFI51:
 1791              		.cfi_restore 7
 1792              		.cfi_def_cfa_offset 0
 1793 010e 7047     		bx	lr
 1794              		.cfi_endproc
 1795              	.LFE138:
 1797              		.section	.text.HAL_ETH_IRQHandler,"ax",%progbits
 1798              		.align	1
 1799              		.global	HAL_ETH_IRQHandler
 1800              		.syntax unified
 1801              		.thumb
 1802              		.thumb_func
 1803              		.fpu fpv4-sp-d16
ARM GAS  /tmp/cc39NdF4.s 			page 53


 1805              	HAL_ETH_IRQHandler:
 1806              	.LFB139:
1163:Drivers/STM32F4xx_HAL_Driver/Src/stm32f4xx_hal_eth.c **** 
1164:Drivers/STM32F4xx_HAL_Driver/Src/stm32f4xx_hal_eth.c **** /**
1165:Drivers/STM32F4xx_HAL_Driver/Src/stm32f4xx_hal_eth.c ****   * @brief  This function handles ETH interrupt request.
1166:Drivers/STM32F4xx_HAL_Driver/Src/stm32f4xx_hal_eth.c ****   * @param  heth pointer to a ETH_HandleTypeDef structure that contains
1167:Drivers/STM32F4xx_HAL_Driver/Src/stm32f4xx_hal_eth.c ****   *         the configuration information for ETHERNET module
1168:Drivers/STM32F4xx_HAL_Driver/Src/stm32f4xx_hal_eth.c ****   * @retval HAL status
1169:Drivers/STM32F4xx_HAL_Driver/Src/stm32f4xx_hal_eth.c ****   */
1170:Drivers/STM32F4xx_HAL_Driver/Src/stm32f4xx_hal_eth.c **** void HAL_ETH_IRQHandler(ETH_HandleTypeDef *heth)
1171:Drivers/STM32F4xx_HAL_Driver/Src/stm32f4xx_hal_eth.c **** {
 1807              		.loc 1 1171 1
 1808              		.cfi_startproc
 1809              		@ args = 0, pretend = 0, frame = 8
 1810              		@ frame_needed = 1, uses_anonymous_args = 0
 1811 0000 80B5     		push	{r7, lr}
 1812              	.LCFI52:
 1813              		.cfi_def_cfa_offset 8
 1814              		.cfi_offset 7, -8
 1815              		.cfi_offset 14, -4
 1816 0002 82B0     		sub	sp, sp, #8
 1817              	.LCFI53:
 1818              		.cfi_def_cfa_offset 16
 1819 0004 00AF     		add	r7, sp, #0
 1820              	.LCFI54:
 1821              		.cfi_def_cfa_register 7
 1822 0006 7860     		str	r0, [r7, #4]
1172:Drivers/STM32F4xx_HAL_Driver/Src/stm32f4xx_hal_eth.c ****   /* Frame received */
1173:Drivers/STM32F4xx_HAL_Driver/Src/stm32f4xx_hal_eth.c ****   if (__HAL_ETH_DMA_GET_FLAG(heth, ETH_DMA_FLAG_R)) 
 1823              		.loc 1 1173 7
 1824 0008 7B68     		ldr	r3, [r7, #4]
 1825 000a 1B68     		ldr	r3, [r3]
 1826 000c 03F58053 		add	r3, r3, #4096
 1827 0010 1433     		adds	r3, r3, #20
 1828 0012 1B68     		ldr	r3, [r3]
 1829 0014 03F04003 		and	r3, r3, #64
 1830              		.loc 1 1173 6
 1831 0018 402B     		cmp	r3, #64
 1832 001a 12D1     		bne	.L84
1174:Drivers/STM32F4xx_HAL_Driver/Src/stm32f4xx_hal_eth.c ****   {
1175:Drivers/STM32F4xx_HAL_Driver/Src/stm32f4xx_hal_eth.c **** #if (USE_HAL_ETH_REGISTER_CALLBACKS == 1)
1176:Drivers/STM32F4xx_HAL_Driver/Src/stm32f4xx_hal_eth.c ****     /*Call registered Receive complete callback*/
1177:Drivers/STM32F4xx_HAL_Driver/Src/stm32f4xx_hal_eth.c ****     heth->RxCpltCallback(heth);
1178:Drivers/STM32F4xx_HAL_Driver/Src/stm32f4xx_hal_eth.c **** #else
1179:Drivers/STM32F4xx_HAL_Driver/Src/stm32f4xx_hal_eth.c ****     /* Receive complete callback */
1180:Drivers/STM32F4xx_HAL_Driver/Src/stm32f4xx_hal_eth.c ****     HAL_ETH_RxCpltCallback(heth);
 1833              		.loc 1 1180 5
 1834 001c 7868     		ldr	r0, [r7, #4]
 1835 001e FFF7FEFF 		bl	HAL_ETH_RxCpltCallback
1181:Drivers/STM32F4xx_HAL_Driver/Src/stm32f4xx_hal_eth.c **** #endif /* USE_HAL_ETH_REGISTER_CALLBACKS */
1182:Drivers/STM32F4xx_HAL_Driver/Src/stm32f4xx_hal_eth.c **** 
1183:Drivers/STM32F4xx_HAL_Driver/Src/stm32f4xx_hal_eth.c ****      /* Clear the Eth DMA Rx IT pending bits */
1184:Drivers/STM32F4xx_HAL_Driver/Src/stm32f4xx_hal_eth.c ****     __HAL_ETH_DMA_CLEAR_IT(heth, ETH_DMA_IT_R);
 1836              		.loc 1 1184 5
 1837 0022 7B68     		ldr	r3, [r7, #4]
 1838 0024 1B68     		ldr	r3, [r3]
 1839 0026 03F58053 		add	r3, r3, #4096
ARM GAS  /tmp/cc39NdF4.s 			page 54


 1840 002a 1433     		adds	r3, r3, #20
 1841 002c 4022     		movs	r2, #64
 1842 002e 1A60     		str	r2, [r3]
1185:Drivers/STM32F4xx_HAL_Driver/Src/stm32f4xx_hal_eth.c **** 
1186:Drivers/STM32F4xx_HAL_Driver/Src/stm32f4xx_hal_eth.c ****     /* Set HAL State to Ready */
1187:Drivers/STM32F4xx_HAL_Driver/Src/stm32f4xx_hal_eth.c ****     heth->State = HAL_ETH_STATE_READY;
 1843              		.loc 1 1187 17
 1844 0030 7B68     		ldr	r3, [r7, #4]
 1845 0032 0122     		movs	r2, #1
 1846 0034 83F84420 		strb	r2, [r3, #68]
1188:Drivers/STM32F4xx_HAL_Driver/Src/stm32f4xx_hal_eth.c ****     
1189:Drivers/STM32F4xx_HAL_Driver/Src/stm32f4xx_hal_eth.c ****     /* Process Unlocked */
1190:Drivers/STM32F4xx_HAL_Driver/Src/stm32f4xx_hal_eth.c ****     __HAL_UNLOCK(heth);
 1847              		.loc 1 1190 5
 1848 0038 7B68     		ldr	r3, [r7, #4]
 1849 003a 0022     		movs	r2, #0
 1850 003c 83F84520 		strb	r2, [r3, #69]
 1851 0040 1BE0     		b	.L85
 1852              	.L84:
1191:Drivers/STM32F4xx_HAL_Driver/Src/stm32f4xx_hal_eth.c **** 
1192:Drivers/STM32F4xx_HAL_Driver/Src/stm32f4xx_hal_eth.c ****   }
1193:Drivers/STM32F4xx_HAL_Driver/Src/stm32f4xx_hal_eth.c ****   /* Frame transmitted */
1194:Drivers/STM32F4xx_HAL_Driver/Src/stm32f4xx_hal_eth.c ****   else if (__HAL_ETH_DMA_GET_FLAG(heth, ETH_DMA_FLAG_T)) 
 1853              		.loc 1 1194 12
 1854 0042 7B68     		ldr	r3, [r7, #4]
 1855 0044 1B68     		ldr	r3, [r3]
 1856 0046 03F58053 		add	r3, r3, #4096
 1857 004a 1433     		adds	r3, r3, #20
 1858 004c 1B68     		ldr	r3, [r3]
 1859 004e 03F00103 		and	r3, r3, #1
 1860              		.loc 1 1194 11
 1861 0052 012B     		cmp	r3, #1
 1862 0054 11D1     		bne	.L85
1195:Drivers/STM32F4xx_HAL_Driver/Src/stm32f4xx_hal_eth.c ****   {
1196:Drivers/STM32F4xx_HAL_Driver/Src/stm32f4xx_hal_eth.c **** #if (USE_HAL_ETH_REGISTER_CALLBACKS == 1)
1197:Drivers/STM32F4xx_HAL_Driver/Src/stm32f4xx_hal_eth.c ****     /*  Call resgistered Transfer complete callback*/
1198:Drivers/STM32F4xx_HAL_Driver/Src/stm32f4xx_hal_eth.c ****     heth->TxCpltCallback(heth);
1199:Drivers/STM32F4xx_HAL_Driver/Src/stm32f4xx_hal_eth.c **** #else
1200:Drivers/STM32F4xx_HAL_Driver/Src/stm32f4xx_hal_eth.c ****     /* Transfer complete callback */
1201:Drivers/STM32F4xx_HAL_Driver/Src/stm32f4xx_hal_eth.c ****     HAL_ETH_TxCpltCallback(heth);
 1863              		.loc 1 1201 5
 1864 0056 7868     		ldr	r0, [r7, #4]
 1865 0058 FFF7FEFF 		bl	HAL_ETH_TxCpltCallback
1202:Drivers/STM32F4xx_HAL_Driver/Src/stm32f4xx_hal_eth.c **** #endif /* USE_HAL_ETH_REGISTER_CALLBACKS */
1203:Drivers/STM32F4xx_HAL_Driver/Src/stm32f4xx_hal_eth.c **** 
1204:Drivers/STM32F4xx_HAL_Driver/Src/stm32f4xx_hal_eth.c ****     /* Clear the Eth DMA Tx IT pending bits */
1205:Drivers/STM32F4xx_HAL_Driver/Src/stm32f4xx_hal_eth.c ****     __HAL_ETH_DMA_CLEAR_IT(heth, ETH_DMA_IT_T);
 1866              		.loc 1 1205 5
 1867 005c 7B68     		ldr	r3, [r7, #4]
 1868 005e 1B68     		ldr	r3, [r3]
 1869 0060 03F58053 		add	r3, r3, #4096
 1870 0064 1433     		adds	r3, r3, #20
 1871 0066 0122     		movs	r2, #1
 1872 0068 1A60     		str	r2, [r3]
1206:Drivers/STM32F4xx_HAL_Driver/Src/stm32f4xx_hal_eth.c **** 
1207:Drivers/STM32F4xx_HAL_Driver/Src/stm32f4xx_hal_eth.c ****     /* Set HAL State to Ready */
1208:Drivers/STM32F4xx_HAL_Driver/Src/stm32f4xx_hal_eth.c ****     heth->State = HAL_ETH_STATE_READY;
ARM GAS  /tmp/cc39NdF4.s 			page 55


 1873              		.loc 1 1208 17
 1874 006a 7B68     		ldr	r3, [r7, #4]
 1875 006c 0122     		movs	r2, #1
 1876 006e 83F84420 		strb	r2, [r3, #68]
1209:Drivers/STM32F4xx_HAL_Driver/Src/stm32f4xx_hal_eth.c ****     
1210:Drivers/STM32F4xx_HAL_Driver/Src/stm32f4xx_hal_eth.c ****     /* Process Unlocked */
1211:Drivers/STM32F4xx_HAL_Driver/Src/stm32f4xx_hal_eth.c ****     __HAL_UNLOCK(heth);
 1877              		.loc 1 1211 5
 1878 0072 7B68     		ldr	r3, [r7, #4]
 1879 0074 0022     		movs	r2, #0
 1880 0076 83F84520 		strb	r2, [r3, #69]
 1881              	.L85:
1212:Drivers/STM32F4xx_HAL_Driver/Src/stm32f4xx_hal_eth.c ****   }
1213:Drivers/STM32F4xx_HAL_Driver/Src/stm32f4xx_hal_eth.c ****   
1214:Drivers/STM32F4xx_HAL_Driver/Src/stm32f4xx_hal_eth.c ****   /* Clear the interrupt flags */
1215:Drivers/STM32F4xx_HAL_Driver/Src/stm32f4xx_hal_eth.c ****   __HAL_ETH_DMA_CLEAR_IT(heth, ETH_DMA_IT_NIS);
 1882              		.loc 1 1215 3
 1883 007a 7B68     		ldr	r3, [r7, #4]
 1884 007c 1B68     		ldr	r3, [r3]
 1885 007e 03F58053 		add	r3, r3, #4096
 1886 0082 1433     		adds	r3, r3, #20
 1887 0084 4FF48032 		mov	r2, #65536
 1888 0088 1A60     		str	r2, [r3]
1216:Drivers/STM32F4xx_HAL_Driver/Src/stm32f4xx_hal_eth.c ****   
1217:Drivers/STM32F4xx_HAL_Driver/Src/stm32f4xx_hal_eth.c ****   /* ETH DMA Error */
1218:Drivers/STM32F4xx_HAL_Driver/Src/stm32f4xx_hal_eth.c ****   if(__HAL_ETH_DMA_GET_FLAG(heth, ETH_DMA_FLAG_AIS))
 1889              		.loc 1 1218 6
 1890 008a 7B68     		ldr	r3, [r7, #4]
 1891 008c 1B68     		ldr	r3, [r3]
 1892 008e 03F58053 		add	r3, r3, #4096
 1893 0092 1433     		adds	r3, r3, #20
 1894 0094 1B68     		ldr	r3, [r3]
 1895 0096 03F40043 		and	r3, r3, #32768
 1896              		.loc 1 1218 5
 1897 009a B3F5004F 		cmp	r3, #32768
 1898 009e 12D1     		bne	.L87
1219:Drivers/STM32F4xx_HAL_Driver/Src/stm32f4xx_hal_eth.c ****   {
1220:Drivers/STM32F4xx_HAL_Driver/Src/stm32f4xx_hal_eth.c **** #if (USE_HAL_ETH_REGISTER_CALLBACKS == 1)
1221:Drivers/STM32F4xx_HAL_Driver/Src/stm32f4xx_hal_eth.c ****     heth->DMAErrorCallback(heth);
1222:Drivers/STM32F4xx_HAL_Driver/Src/stm32f4xx_hal_eth.c **** #else
1223:Drivers/STM32F4xx_HAL_Driver/Src/stm32f4xx_hal_eth.c ****     /* Ethernet Error callback */
1224:Drivers/STM32F4xx_HAL_Driver/Src/stm32f4xx_hal_eth.c ****     HAL_ETH_ErrorCallback(heth);
 1899              		.loc 1 1224 5
 1900 00a0 7868     		ldr	r0, [r7, #4]
 1901 00a2 FFF7FEFF 		bl	HAL_ETH_ErrorCallback
1225:Drivers/STM32F4xx_HAL_Driver/Src/stm32f4xx_hal_eth.c **** #endif /* USE_HAL_ETH_REGISTER_CALLBACKS */
1226:Drivers/STM32F4xx_HAL_Driver/Src/stm32f4xx_hal_eth.c **** 
1227:Drivers/STM32F4xx_HAL_Driver/Src/stm32f4xx_hal_eth.c ****     /* Clear the interrupt flags */
1228:Drivers/STM32F4xx_HAL_Driver/Src/stm32f4xx_hal_eth.c ****     __HAL_ETH_DMA_CLEAR_IT(heth, ETH_DMA_FLAG_AIS);
 1902              		.loc 1 1228 5
 1903 00a6 7B68     		ldr	r3, [r7, #4]
 1904 00a8 1B68     		ldr	r3, [r3]
 1905 00aa 03F58053 		add	r3, r3, #4096
 1906 00ae 1433     		adds	r3, r3, #20
 1907 00b0 4FF40042 		mov	r2, #32768
 1908 00b4 1A60     		str	r2, [r3]
1229:Drivers/STM32F4xx_HAL_Driver/Src/stm32f4xx_hal_eth.c ****   
ARM GAS  /tmp/cc39NdF4.s 			page 56


1230:Drivers/STM32F4xx_HAL_Driver/Src/stm32f4xx_hal_eth.c ****     /* Set HAL State to Ready */
1231:Drivers/STM32F4xx_HAL_Driver/Src/stm32f4xx_hal_eth.c ****     heth->State = HAL_ETH_STATE_READY;
 1909              		.loc 1 1231 17
 1910 00b6 7B68     		ldr	r3, [r7, #4]
 1911 00b8 0122     		movs	r2, #1
 1912 00ba 83F84420 		strb	r2, [r3, #68]
1232:Drivers/STM32F4xx_HAL_Driver/Src/stm32f4xx_hal_eth.c ****     
1233:Drivers/STM32F4xx_HAL_Driver/Src/stm32f4xx_hal_eth.c ****     /* Process Unlocked */
1234:Drivers/STM32F4xx_HAL_Driver/Src/stm32f4xx_hal_eth.c ****     __HAL_UNLOCK(heth);
 1913              		.loc 1 1234 5
 1914 00be 7B68     		ldr	r3, [r7, #4]
 1915 00c0 0022     		movs	r2, #0
 1916 00c2 83F84520 		strb	r2, [r3, #69]
 1917              	.L87:
1235:Drivers/STM32F4xx_HAL_Driver/Src/stm32f4xx_hal_eth.c ****   }
1236:Drivers/STM32F4xx_HAL_Driver/Src/stm32f4xx_hal_eth.c **** }
 1918              		.loc 1 1236 1
 1919 00c6 00BF     		nop
 1920 00c8 0837     		adds	r7, r7, #8
 1921              	.LCFI55:
 1922              		.cfi_def_cfa_offset 8
 1923 00ca BD46     		mov	sp, r7
 1924              	.LCFI56:
 1925              		.cfi_def_cfa_register 13
 1926              		@ sp needed
 1927 00cc 80BD     		pop	{r7, pc}
 1928              		.cfi_endproc
 1929              	.LFE139:
 1931              		.section	.text.HAL_ETH_TxCpltCallback,"ax",%progbits
 1932              		.align	1
 1933              		.weak	HAL_ETH_TxCpltCallback
 1934              		.syntax unified
 1935              		.thumb
 1936              		.thumb_func
 1937              		.fpu fpv4-sp-d16
 1939              	HAL_ETH_TxCpltCallback:
 1940              	.LFB140:
1237:Drivers/STM32F4xx_HAL_Driver/Src/stm32f4xx_hal_eth.c **** 
1238:Drivers/STM32F4xx_HAL_Driver/Src/stm32f4xx_hal_eth.c **** /**
1239:Drivers/STM32F4xx_HAL_Driver/Src/stm32f4xx_hal_eth.c ****   * @brief  Tx Transfer completed callbacks.
1240:Drivers/STM32F4xx_HAL_Driver/Src/stm32f4xx_hal_eth.c ****   * @param  heth pointer to a ETH_HandleTypeDef structure that contains
1241:Drivers/STM32F4xx_HAL_Driver/Src/stm32f4xx_hal_eth.c ****   *         the configuration information for ETHERNET module
1242:Drivers/STM32F4xx_HAL_Driver/Src/stm32f4xx_hal_eth.c ****   * @retval None
1243:Drivers/STM32F4xx_HAL_Driver/Src/stm32f4xx_hal_eth.c ****   */
1244:Drivers/STM32F4xx_HAL_Driver/Src/stm32f4xx_hal_eth.c **** __weak void HAL_ETH_TxCpltCallback(ETH_HandleTypeDef *heth)
1245:Drivers/STM32F4xx_HAL_Driver/Src/stm32f4xx_hal_eth.c **** {
 1941              		.loc 1 1245 1
 1942              		.cfi_startproc
 1943              		@ args = 0, pretend = 0, frame = 8
 1944              		@ frame_needed = 1, uses_anonymous_args = 0
 1945              		@ link register save eliminated.
 1946 0000 80B4     		push	{r7}
 1947              	.LCFI57:
 1948              		.cfi_def_cfa_offset 4
 1949              		.cfi_offset 7, -4
 1950 0002 83B0     		sub	sp, sp, #12
 1951              	.LCFI58:
ARM GAS  /tmp/cc39NdF4.s 			page 57


 1952              		.cfi_def_cfa_offset 16
 1953 0004 00AF     		add	r7, sp, #0
 1954              	.LCFI59:
 1955              		.cfi_def_cfa_register 7
 1956 0006 7860     		str	r0, [r7, #4]
1246:Drivers/STM32F4xx_HAL_Driver/Src/stm32f4xx_hal_eth.c ****   /* Prevent unused argument(s) compilation warning */
1247:Drivers/STM32F4xx_HAL_Driver/Src/stm32f4xx_hal_eth.c ****   UNUSED(heth);
1248:Drivers/STM32F4xx_HAL_Driver/Src/stm32f4xx_hal_eth.c ****   /* NOTE : This function Should not be modified, when the callback is needed,
1249:Drivers/STM32F4xx_HAL_Driver/Src/stm32f4xx_hal_eth.c ****   the HAL_ETH_TxCpltCallback could be implemented in the user file
1250:Drivers/STM32F4xx_HAL_Driver/Src/stm32f4xx_hal_eth.c ****   */ 
1251:Drivers/STM32F4xx_HAL_Driver/Src/stm32f4xx_hal_eth.c **** }
 1957              		.loc 1 1251 1
 1958 0008 00BF     		nop
 1959 000a 0C37     		adds	r7, r7, #12
 1960              	.LCFI60:
 1961              		.cfi_def_cfa_offset 4
 1962 000c BD46     		mov	sp, r7
 1963              	.LCFI61:
 1964              		.cfi_def_cfa_register 13
 1965              		@ sp needed
 1966 000e 5DF8047B 		ldr	r7, [sp], #4
 1967              	.LCFI62:
 1968              		.cfi_restore 7
 1969              		.cfi_def_cfa_offset 0
 1970 0012 7047     		bx	lr
 1971              		.cfi_endproc
 1972              	.LFE140:
 1974              		.section	.text.HAL_ETH_RxCpltCallback,"ax",%progbits
 1975              		.align	1
 1976              		.weak	HAL_ETH_RxCpltCallback
 1977              		.syntax unified
 1978              		.thumb
 1979              		.thumb_func
 1980              		.fpu fpv4-sp-d16
 1982              	HAL_ETH_RxCpltCallback:
 1983              	.LFB141:
1252:Drivers/STM32F4xx_HAL_Driver/Src/stm32f4xx_hal_eth.c **** 
1253:Drivers/STM32F4xx_HAL_Driver/Src/stm32f4xx_hal_eth.c **** /**
1254:Drivers/STM32F4xx_HAL_Driver/Src/stm32f4xx_hal_eth.c ****   * @brief  Rx Transfer completed callbacks.
1255:Drivers/STM32F4xx_HAL_Driver/Src/stm32f4xx_hal_eth.c ****   * @param  heth pointer to a ETH_HandleTypeDef structure that contains
1256:Drivers/STM32F4xx_HAL_Driver/Src/stm32f4xx_hal_eth.c ****   *         the configuration information for ETHERNET module
1257:Drivers/STM32F4xx_HAL_Driver/Src/stm32f4xx_hal_eth.c ****   * @retval None
1258:Drivers/STM32F4xx_HAL_Driver/Src/stm32f4xx_hal_eth.c ****   */
1259:Drivers/STM32F4xx_HAL_Driver/Src/stm32f4xx_hal_eth.c **** __weak void HAL_ETH_RxCpltCallback(ETH_HandleTypeDef *heth)
1260:Drivers/STM32F4xx_HAL_Driver/Src/stm32f4xx_hal_eth.c **** {
 1984              		.loc 1 1260 1
 1985              		.cfi_startproc
 1986              		@ args = 0, pretend = 0, frame = 8
 1987              		@ frame_needed = 1, uses_anonymous_args = 0
 1988              		@ link register save eliminated.
 1989 0000 80B4     		push	{r7}
 1990              	.LCFI63:
 1991              		.cfi_def_cfa_offset 4
 1992              		.cfi_offset 7, -4
 1993 0002 83B0     		sub	sp, sp, #12
 1994              	.LCFI64:
 1995              		.cfi_def_cfa_offset 16
ARM GAS  /tmp/cc39NdF4.s 			page 58


 1996 0004 00AF     		add	r7, sp, #0
 1997              	.LCFI65:
 1998              		.cfi_def_cfa_register 7
 1999 0006 7860     		str	r0, [r7, #4]
1261:Drivers/STM32F4xx_HAL_Driver/Src/stm32f4xx_hal_eth.c ****   /* Prevent unused argument(s) compilation warning */
1262:Drivers/STM32F4xx_HAL_Driver/Src/stm32f4xx_hal_eth.c ****   UNUSED(heth);
1263:Drivers/STM32F4xx_HAL_Driver/Src/stm32f4xx_hal_eth.c ****   /* NOTE : This function Should not be modified, when the callback is needed,
1264:Drivers/STM32F4xx_HAL_Driver/Src/stm32f4xx_hal_eth.c ****   the HAL_ETH_TxCpltCallback could be implemented in the user file
1265:Drivers/STM32F4xx_HAL_Driver/Src/stm32f4xx_hal_eth.c ****   */ 
1266:Drivers/STM32F4xx_HAL_Driver/Src/stm32f4xx_hal_eth.c **** }
 2000              		.loc 1 1266 1
 2001 0008 00BF     		nop
 2002 000a 0C37     		adds	r7, r7, #12
 2003              	.LCFI66:
 2004              		.cfi_def_cfa_offset 4
 2005 000c BD46     		mov	sp, r7
 2006              	.LCFI67:
 2007              		.cfi_def_cfa_register 13
 2008              		@ sp needed
 2009 000e 5DF8047B 		ldr	r7, [sp], #4
 2010              	.LCFI68:
 2011              		.cfi_restore 7
 2012              		.cfi_def_cfa_offset 0
 2013 0012 7047     		bx	lr
 2014              		.cfi_endproc
 2015              	.LFE141:
 2017              		.section	.text.HAL_ETH_ErrorCallback,"ax",%progbits
 2018              		.align	1
 2019              		.weak	HAL_ETH_ErrorCallback
 2020              		.syntax unified
 2021              		.thumb
 2022              		.thumb_func
 2023              		.fpu fpv4-sp-d16
 2025              	HAL_ETH_ErrorCallback:
 2026              	.LFB142:
1267:Drivers/STM32F4xx_HAL_Driver/Src/stm32f4xx_hal_eth.c **** 
1268:Drivers/STM32F4xx_HAL_Driver/Src/stm32f4xx_hal_eth.c **** /**
1269:Drivers/STM32F4xx_HAL_Driver/Src/stm32f4xx_hal_eth.c ****   * @brief  Ethernet transfer error callbacks
1270:Drivers/STM32F4xx_HAL_Driver/Src/stm32f4xx_hal_eth.c ****   * @param  heth pointer to a ETH_HandleTypeDef structure that contains
1271:Drivers/STM32F4xx_HAL_Driver/Src/stm32f4xx_hal_eth.c ****   *         the configuration information for ETHERNET module
1272:Drivers/STM32F4xx_HAL_Driver/Src/stm32f4xx_hal_eth.c ****   * @retval None
1273:Drivers/STM32F4xx_HAL_Driver/Src/stm32f4xx_hal_eth.c ****   */
1274:Drivers/STM32F4xx_HAL_Driver/Src/stm32f4xx_hal_eth.c **** __weak void HAL_ETH_ErrorCallback(ETH_HandleTypeDef *heth)
1275:Drivers/STM32F4xx_HAL_Driver/Src/stm32f4xx_hal_eth.c **** {
 2027              		.loc 1 1275 1
 2028              		.cfi_startproc
 2029              		@ args = 0, pretend = 0, frame = 8
 2030              		@ frame_needed = 1, uses_anonymous_args = 0
 2031              		@ link register save eliminated.
 2032 0000 80B4     		push	{r7}
 2033              	.LCFI69:
 2034              		.cfi_def_cfa_offset 4
 2035              		.cfi_offset 7, -4
 2036 0002 83B0     		sub	sp, sp, #12
 2037              	.LCFI70:
 2038              		.cfi_def_cfa_offset 16
 2039 0004 00AF     		add	r7, sp, #0
ARM GAS  /tmp/cc39NdF4.s 			page 59


 2040              	.LCFI71:
 2041              		.cfi_def_cfa_register 7
 2042 0006 7860     		str	r0, [r7, #4]
1276:Drivers/STM32F4xx_HAL_Driver/Src/stm32f4xx_hal_eth.c ****   /* Prevent unused argument(s) compilation warning */
1277:Drivers/STM32F4xx_HAL_Driver/Src/stm32f4xx_hal_eth.c ****   UNUSED(heth);
1278:Drivers/STM32F4xx_HAL_Driver/Src/stm32f4xx_hal_eth.c ****   /* NOTE : This function Should not be modified, when the callback is needed,
1279:Drivers/STM32F4xx_HAL_Driver/Src/stm32f4xx_hal_eth.c ****   the HAL_ETH_TxCpltCallback could be implemented in the user file
1280:Drivers/STM32F4xx_HAL_Driver/Src/stm32f4xx_hal_eth.c ****   */ 
1281:Drivers/STM32F4xx_HAL_Driver/Src/stm32f4xx_hal_eth.c **** }
 2043              		.loc 1 1281 1
 2044 0008 00BF     		nop
 2045 000a 0C37     		adds	r7, r7, #12
 2046              	.LCFI72:
 2047              		.cfi_def_cfa_offset 4
 2048 000c BD46     		mov	sp, r7
 2049              	.LCFI73:
 2050              		.cfi_def_cfa_register 13
 2051              		@ sp needed
 2052 000e 5DF8047B 		ldr	r7, [sp], #4
 2053              	.LCFI74:
 2054              		.cfi_restore 7
 2055              		.cfi_def_cfa_offset 0
 2056 0012 7047     		bx	lr
 2057              		.cfi_endproc
 2058              	.LFE142:
 2060              		.section	.text.HAL_ETH_ReadPHYRegister,"ax",%progbits
 2061              		.align	1
 2062              		.global	HAL_ETH_ReadPHYRegister
 2063              		.syntax unified
 2064              		.thumb
 2065              		.thumb_func
 2066              		.fpu fpv4-sp-d16
 2068              	HAL_ETH_ReadPHYRegister:
 2069              	.LFB143:
1282:Drivers/STM32F4xx_HAL_Driver/Src/stm32f4xx_hal_eth.c **** 
1283:Drivers/STM32F4xx_HAL_Driver/Src/stm32f4xx_hal_eth.c **** /**
1284:Drivers/STM32F4xx_HAL_Driver/Src/stm32f4xx_hal_eth.c ****   * @brief  Reads a PHY register
1285:Drivers/STM32F4xx_HAL_Driver/Src/stm32f4xx_hal_eth.c ****   * @param  heth pointer to a ETH_HandleTypeDef structure that contains
1286:Drivers/STM32F4xx_HAL_Driver/Src/stm32f4xx_hal_eth.c ****   *         the configuration information for ETHERNET module                  
1287:Drivers/STM32F4xx_HAL_Driver/Src/stm32f4xx_hal_eth.c ****   * @param PHYReg PHY register address, is the index of one of the 32 PHY register. 
1288:Drivers/STM32F4xx_HAL_Driver/Src/stm32f4xx_hal_eth.c ****   *                This parameter can be one of the following values: 
1289:Drivers/STM32F4xx_HAL_Driver/Src/stm32f4xx_hal_eth.c ****   *                   PHY_BCR: Transceiver Basic Control Register, 
1290:Drivers/STM32F4xx_HAL_Driver/Src/stm32f4xx_hal_eth.c ****   *                   PHY_BSR: Transceiver Basic Status Register.   
1291:Drivers/STM32F4xx_HAL_Driver/Src/stm32f4xx_hal_eth.c ****   *                   More PHY register could be read depending on the used PHY
1292:Drivers/STM32F4xx_HAL_Driver/Src/stm32f4xx_hal_eth.c ****   * @param RegValue PHY register value                  
1293:Drivers/STM32F4xx_HAL_Driver/Src/stm32f4xx_hal_eth.c ****   * @retval HAL status
1294:Drivers/STM32F4xx_HAL_Driver/Src/stm32f4xx_hal_eth.c ****   */
1295:Drivers/STM32F4xx_HAL_Driver/Src/stm32f4xx_hal_eth.c **** HAL_StatusTypeDef HAL_ETH_ReadPHYRegister(ETH_HandleTypeDef *heth, uint16_t PHYReg, uint32_t *RegVa
1296:Drivers/STM32F4xx_HAL_Driver/Src/stm32f4xx_hal_eth.c **** {
 2070              		.loc 1 1296 1
 2071              		.cfi_startproc
 2072              		@ args = 0, pretend = 0, frame = 24
 2073              		@ frame_needed = 1, uses_anonymous_args = 0
 2074 0000 80B5     		push	{r7, lr}
 2075              	.LCFI75:
 2076              		.cfi_def_cfa_offset 8
 2077              		.cfi_offset 7, -8
ARM GAS  /tmp/cc39NdF4.s 			page 60


 2078              		.cfi_offset 14, -4
 2079 0002 86B0     		sub	sp, sp, #24
 2080              	.LCFI76:
 2081              		.cfi_def_cfa_offset 32
 2082 0004 00AF     		add	r7, sp, #0
 2083              	.LCFI77:
 2084              		.cfi_def_cfa_register 7
 2085 0006 F860     		str	r0, [r7, #12]
 2086 0008 0B46     		mov	r3, r1
 2087 000a 7A60     		str	r2, [r7, #4]
 2088 000c 7B81     		strh	r3, [r7, #10]	@ movhi
1297:Drivers/STM32F4xx_HAL_Driver/Src/stm32f4xx_hal_eth.c ****   uint32_t tmpreg1 = 0U;     
 2089              		.loc 1 1297 12
 2090 000e 0023     		movs	r3, #0
 2091 0010 7B61     		str	r3, [r7, #20]
1298:Drivers/STM32F4xx_HAL_Driver/Src/stm32f4xx_hal_eth.c ****   uint32_t tickstart = 0U;
 2092              		.loc 1 1298 12
 2093 0012 0023     		movs	r3, #0
 2094 0014 3B61     		str	r3, [r7, #16]
1299:Drivers/STM32F4xx_HAL_Driver/Src/stm32f4xx_hal_eth.c ****   
1300:Drivers/STM32F4xx_HAL_Driver/Src/stm32f4xx_hal_eth.c ****   /* Check parameters */
1301:Drivers/STM32F4xx_HAL_Driver/Src/stm32f4xx_hal_eth.c ****   assert_param(IS_ETH_PHY_ADDRESS(heth->Init.PhyAddress));
1302:Drivers/STM32F4xx_HAL_Driver/Src/stm32f4xx_hal_eth.c ****   
1303:Drivers/STM32F4xx_HAL_Driver/Src/stm32f4xx_hal_eth.c ****   /* Check the ETH peripheral state */
1304:Drivers/STM32F4xx_HAL_Driver/Src/stm32f4xx_hal_eth.c ****   if(heth->State == HAL_ETH_STATE_BUSY_RD)
 2095              		.loc 1 1304 10
 2096 0016 FB68     		ldr	r3, [r7, #12]
 2097 0018 93F84430 		ldrb	r3, [r3, #68]
 2098 001c DBB2     		uxtb	r3, r3
 2099              		.loc 1 1304 5
 2100 001e 822B     		cmp	r3, #130
 2101 0020 01D1     		bne	.L92
1305:Drivers/STM32F4xx_HAL_Driver/Src/stm32f4xx_hal_eth.c ****   {
1306:Drivers/STM32F4xx_HAL_Driver/Src/stm32f4xx_hal_eth.c ****     return HAL_BUSY;
 2102              		.loc 1 1306 12
 2103 0022 0223     		movs	r3, #2
 2104 0024 50E0     		b	.L93
 2105              	.L92:
1307:Drivers/STM32F4xx_HAL_Driver/Src/stm32f4xx_hal_eth.c ****   }
1308:Drivers/STM32F4xx_HAL_Driver/Src/stm32f4xx_hal_eth.c ****   /* Set ETH HAL State to BUSY_RD */
1309:Drivers/STM32F4xx_HAL_Driver/Src/stm32f4xx_hal_eth.c ****   heth->State = HAL_ETH_STATE_BUSY_RD;
 2106              		.loc 1 1309 15
 2107 0026 FB68     		ldr	r3, [r7, #12]
 2108 0028 8222     		movs	r2, #130
 2109 002a 83F84420 		strb	r2, [r3, #68]
1310:Drivers/STM32F4xx_HAL_Driver/Src/stm32f4xx_hal_eth.c ****   
1311:Drivers/STM32F4xx_HAL_Driver/Src/stm32f4xx_hal_eth.c ****   /* Get the ETHERNET MACMIIAR value */
1312:Drivers/STM32F4xx_HAL_Driver/Src/stm32f4xx_hal_eth.c ****   tmpreg1 = heth->Instance->MACMIIAR;
 2110              		.loc 1 1312 17
 2111 002e FB68     		ldr	r3, [r7, #12]
 2112 0030 1B68     		ldr	r3, [r3]
 2113              		.loc 1 1312 11
 2114 0032 1B69     		ldr	r3, [r3, #16]
 2115 0034 7B61     		str	r3, [r7, #20]
1313:Drivers/STM32F4xx_HAL_Driver/Src/stm32f4xx_hal_eth.c ****   
1314:Drivers/STM32F4xx_HAL_Driver/Src/stm32f4xx_hal_eth.c ****   /* Keep only the CSR Clock Range CR[2:0] bits value */
1315:Drivers/STM32F4xx_HAL_Driver/Src/stm32f4xx_hal_eth.c ****   tmpreg1 &= ~ETH_MACMIIAR_CR_MASK;
ARM GAS  /tmp/cc39NdF4.s 			page 61


 2116              		.loc 1 1315 11
 2117 0036 7B69     		ldr	r3, [r7, #20]
 2118 0038 03F01C03 		and	r3, r3, #28
 2119 003c 7B61     		str	r3, [r7, #20]
1316:Drivers/STM32F4xx_HAL_Driver/Src/stm32f4xx_hal_eth.c ****   
1317:Drivers/STM32F4xx_HAL_Driver/Src/stm32f4xx_hal_eth.c ****   /* Prepare the MII address register value */
1318:Drivers/STM32F4xx_HAL_Driver/Src/stm32f4xx_hal_eth.c ****   tmpreg1 |=(((uint32_t)heth->Init.PhyAddress << 11U) & ETH_MACMIIAR_PA); /* Set the PHY device add
 2120              		.loc 1 1318 35
 2121 003e FB68     		ldr	r3, [r7, #12]
 2122 0040 1B8A     		ldrh	r3, [r3, #16]
 2123              		.loc 1 1318 47
 2124 0042 DB02     		lsls	r3, r3, #11
 2125              		.loc 1 1318 55
 2126 0044 9BB2     		uxth	r3, r3
 2127              		.loc 1 1318 11
 2128 0046 7A69     		ldr	r2, [r7, #20]
 2129 0048 1343     		orrs	r3, r3, r2
 2130 004a 7B61     		str	r3, [r7, #20]
1319:Drivers/STM32F4xx_HAL_Driver/Src/stm32f4xx_hal_eth.c ****   tmpreg1 |=(((uint32_t)PHYReg<<6U) & ETH_MACMIIAR_MR);                   /* Set the PHY register a
 2131              		.loc 1 1319 15
 2132 004c 7B89     		ldrh	r3, [r7, #10]
 2133              		.loc 1 1319 31
 2134 004e 9B01     		lsls	r3, r3, #6
 2135              		.loc 1 1319 37
 2136 0050 03F4F863 		and	r3, r3, #1984
 2137              		.loc 1 1319 11
 2138 0054 7A69     		ldr	r2, [r7, #20]
 2139 0056 1343     		orrs	r3, r3, r2
 2140 0058 7B61     		str	r3, [r7, #20]
1320:Drivers/STM32F4xx_HAL_Driver/Src/stm32f4xx_hal_eth.c ****   tmpreg1 &= ~ETH_MACMIIAR_MW;                                            /* Set the read mode     
 2141              		.loc 1 1320 11
 2142 005a 7B69     		ldr	r3, [r7, #20]
 2143 005c 23F00203 		bic	r3, r3, #2
 2144 0060 7B61     		str	r3, [r7, #20]
1321:Drivers/STM32F4xx_HAL_Driver/Src/stm32f4xx_hal_eth.c ****   tmpreg1 |= ETH_MACMIIAR_MB;                                             /* Set the MII Busy bit  
 2145              		.loc 1 1321 11
 2146 0062 7B69     		ldr	r3, [r7, #20]
 2147 0064 43F00103 		orr	r3, r3, #1
 2148 0068 7B61     		str	r3, [r7, #20]
1322:Drivers/STM32F4xx_HAL_Driver/Src/stm32f4xx_hal_eth.c ****   
1323:Drivers/STM32F4xx_HAL_Driver/Src/stm32f4xx_hal_eth.c ****   /* Write the result value into the MII Address register */
1324:Drivers/STM32F4xx_HAL_Driver/Src/stm32f4xx_hal_eth.c ****   heth->Instance->MACMIIAR = tmpreg1;
 2149              		.loc 1 1324 7
 2150 006a FB68     		ldr	r3, [r7, #12]
 2151 006c 1B68     		ldr	r3, [r3]
 2152              		.loc 1 1324 28
 2153 006e 7A69     		ldr	r2, [r7, #20]
 2154 0070 1A61     		str	r2, [r3, #16]
1325:Drivers/STM32F4xx_HAL_Driver/Src/stm32f4xx_hal_eth.c ****   
1326:Drivers/STM32F4xx_HAL_Driver/Src/stm32f4xx_hal_eth.c ****   /* Get tick */
1327:Drivers/STM32F4xx_HAL_Driver/Src/stm32f4xx_hal_eth.c ****   tickstart = HAL_GetTick();
 2155              		.loc 1 1327 15
 2156 0072 FFF7FEFF 		bl	HAL_GetTick
 2157 0076 3861     		str	r0, [r7, #16]
1328:Drivers/STM32F4xx_HAL_Driver/Src/stm32f4xx_hal_eth.c ****   
1329:Drivers/STM32F4xx_HAL_Driver/Src/stm32f4xx_hal_eth.c ****   /* Check for the Busy flag */
1330:Drivers/STM32F4xx_HAL_Driver/Src/stm32f4xx_hal_eth.c ****   while((tmpreg1 & ETH_MACMIIAR_MB) == ETH_MACMIIAR_MB)
ARM GAS  /tmp/cc39NdF4.s 			page 62


 2158              		.loc 1 1330 8
 2159 0078 15E0     		b	.L94
 2160              	.L96:
1331:Drivers/STM32F4xx_HAL_Driver/Src/stm32f4xx_hal_eth.c ****   {
1332:Drivers/STM32F4xx_HAL_Driver/Src/stm32f4xx_hal_eth.c ****     /* Check for the Timeout */
1333:Drivers/STM32F4xx_HAL_Driver/Src/stm32f4xx_hal_eth.c ****     if((HAL_GetTick() - tickstart ) > PHY_READ_TO)
 2161              		.loc 1 1333 9
 2162 007a FFF7FEFF 		bl	HAL_GetTick
 2163 007e 0246     		mov	r2, r0
 2164              		.loc 1 1333 23
 2165 0080 3B69     		ldr	r3, [r7, #16]
 2166 0082 D31A     		subs	r3, r2, r3
 2167              		.loc 1 1333 7
 2168 0084 B3F5803F 		cmp	r3, #65536
 2169 0088 09D3     		bcc	.L95
1334:Drivers/STM32F4xx_HAL_Driver/Src/stm32f4xx_hal_eth.c ****     {
1335:Drivers/STM32F4xx_HAL_Driver/Src/stm32f4xx_hal_eth.c ****       heth->State= HAL_ETH_STATE_READY;
 2170              		.loc 1 1335 18
 2171 008a FB68     		ldr	r3, [r7, #12]
 2172 008c 0122     		movs	r2, #1
 2173 008e 83F84420 		strb	r2, [r3, #68]
1336:Drivers/STM32F4xx_HAL_Driver/Src/stm32f4xx_hal_eth.c ****   
1337:Drivers/STM32F4xx_HAL_Driver/Src/stm32f4xx_hal_eth.c ****       /* Process Unlocked */
1338:Drivers/STM32F4xx_HAL_Driver/Src/stm32f4xx_hal_eth.c ****       __HAL_UNLOCK(heth);
 2174              		.loc 1 1338 7
 2175 0092 FB68     		ldr	r3, [r7, #12]
 2176 0094 0022     		movs	r2, #0
 2177 0096 83F84520 		strb	r2, [r3, #69]
1339:Drivers/STM32F4xx_HAL_Driver/Src/stm32f4xx_hal_eth.c ****     
1340:Drivers/STM32F4xx_HAL_Driver/Src/stm32f4xx_hal_eth.c ****       return HAL_TIMEOUT;
 2178              		.loc 1 1340 14
 2179 009a 0323     		movs	r3, #3
 2180 009c 14E0     		b	.L93
 2181              	.L95:
1341:Drivers/STM32F4xx_HAL_Driver/Src/stm32f4xx_hal_eth.c ****     }
1342:Drivers/STM32F4xx_HAL_Driver/Src/stm32f4xx_hal_eth.c ****     
1343:Drivers/STM32F4xx_HAL_Driver/Src/stm32f4xx_hal_eth.c ****     tmpreg1 = heth->Instance->MACMIIAR;
 2182              		.loc 1 1343 19
 2183 009e FB68     		ldr	r3, [r7, #12]
 2184 00a0 1B68     		ldr	r3, [r3]
 2185              		.loc 1 1343 13
 2186 00a2 1B69     		ldr	r3, [r3, #16]
 2187 00a4 7B61     		str	r3, [r7, #20]
 2188              	.L94:
1330:Drivers/STM32F4xx_HAL_Driver/Src/stm32f4xx_hal_eth.c ****   {
 2189              		.loc 1 1330 18
 2190 00a6 7B69     		ldr	r3, [r7, #20]
 2191 00a8 03F00103 		and	r3, r3, #1
1330:Drivers/STM32F4xx_HAL_Driver/Src/stm32f4xx_hal_eth.c ****   {
 2192              		.loc 1 1330 8
 2193 00ac 002B     		cmp	r3, #0
 2194 00ae E4D1     		bne	.L96
1344:Drivers/STM32F4xx_HAL_Driver/Src/stm32f4xx_hal_eth.c ****   }
1345:Drivers/STM32F4xx_HAL_Driver/Src/stm32f4xx_hal_eth.c ****   
1346:Drivers/STM32F4xx_HAL_Driver/Src/stm32f4xx_hal_eth.c ****   /* Get MACMIIDR value */
1347:Drivers/STM32F4xx_HAL_Driver/Src/stm32f4xx_hal_eth.c ****   *RegValue = (uint16_t)(heth->Instance->MACMIIDR);
 2195              		.loc 1 1347 30
ARM GAS  /tmp/cc39NdF4.s 			page 63


 2196 00b0 FB68     		ldr	r3, [r7, #12]
 2197 00b2 1B68     		ldr	r3, [r3]
 2198              		.loc 1 1347 40
 2199 00b4 5B69     		ldr	r3, [r3, #20]
 2200              		.loc 1 1347 15
 2201 00b6 9BB2     		uxth	r3, r3
 2202 00b8 1A46     		mov	r2, r3
 2203              		.loc 1 1347 13
 2204 00ba 7B68     		ldr	r3, [r7, #4]
 2205 00bc 1A60     		str	r2, [r3]
1348:Drivers/STM32F4xx_HAL_Driver/Src/stm32f4xx_hal_eth.c ****   
1349:Drivers/STM32F4xx_HAL_Driver/Src/stm32f4xx_hal_eth.c ****   /* Set ETH HAL State to READY */
1350:Drivers/STM32F4xx_HAL_Driver/Src/stm32f4xx_hal_eth.c ****   heth->State = HAL_ETH_STATE_READY;
 2206              		.loc 1 1350 15
 2207 00be FB68     		ldr	r3, [r7, #12]
 2208 00c0 0122     		movs	r2, #1
 2209 00c2 83F84420 		strb	r2, [r3, #68]
1351:Drivers/STM32F4xx_HAL_Driver/Src/stm32f4xx_hal_eth.c ****   
1352:Drivers/STM32F4xx_HAL_Driver/Src/stm32f4xx_hal_eth.c ****   /* Return function status */
1353:Drivers/STM32F4xx_HAL_Driver/Src/stm32f4xx_hal_eth.c ****   return HAL_OK;
 2210              		.loc 1 1353 10
 2211 00c6 0023     		movs	r3, #0
 2212              	.L93:
1354:Drivers/STM32F4xx_HAL_Driver/Src/stm32f4xx_hal_eth.c **** }
 2213              		.loc 1 1354 1
 2214 00c8 1846     		mov	r0, r3
 2215 00ca 1837     		adds	r7, r7, #24
 2216              	.LCFI78:
 2217              		.cfi_def_cfa_offset 8
 2218 00cc BD46     		mov	sp, r7
 2219              	.LCFI79:
 2220              		.cfi_def_cfa_register 13
 2221              		@ sp needed
 2222 00ce 80BD     		pop	{r7, pc}
 2223              		.cfi_endproc
 2224              	.LFE143:
 2226              		.section	.text.HAL_ETH_WritePHYRegister,"ax",%progbits
 2227              		.align	1
 2228              		.global	HAL_ETH_WritePHYRegister
 2229              		.syntax unified
 2230              		.thumb
 2231              		.thumb_func
 2232              		.fpu fpv4-sp-d16
 2234              	HAL_ETH_WritePHYRegister:
 2235              	.LFB144:
1355:Drivers/STM32F4xx_HAL_Driver/Src/stm32f4xx_hal_eth.c **** 
1356:Drivers/STM32F4xx_HAL_Driver/Src/stm32f4xx_hal_eth.c **** /**
1357:Drivers/STM32F4xx_HAL_Driver/Src/stm32f4xx_hal_eth.c ****   * @brief  Writes to a PHY register.
1358:Drivers/STM32F4xx_HAL_Driver/Src/stm32f4xx_hal_eth.c ****   * @param  heth pointer to a ETH_HandleTypeDef structure that contains
1359:Drivers/STM32F4xx_HAL_Driver/Src/stm32f4xx_hal_eth.c ****   *         the configuration information for ETHERNET module  
1360:Drivers/STM32F4xx_HAL_Driver/Src/stm32f4xx_hal_eth.c ****   * @param  PHYReg PHY register address, is the index of one of the 32 PHY register. 
1361:Drivers/STM32F4xx_HAL_Driver/Src/stm32f4xx_hal_eth.c ****   *          This parameter can be one of the following values: 
1362:Drivers/STM32F4xx_HAL_Driver/Src/stm32f4xx_hal_eth.c ****   *             PHY_BCR: Transceiver Control Register.  
1363:Drivers/STM32F4xx_HAL_Driver/Src/stm32f4xx_hal_eth.c ****   *             More PHY register could be written depending on the used PHY
1364:Drivers/STM32F4xx_HAL_Driver/Src/stm32f4xx_hal_eth.c ****   * @param  RegValue the value to write
1365:Drivers/STM32F4xx_HAL_Driver/Src/stm32f4xx_hal_eth.c ****   * @retval HAL status
1366:Drivers/STM32F4xx_HAL_Driver/Src/stm32f4xx_hal_eth.c ****   */
ARM GAS  /tmp/cc39NdF4.s 			page 64


1367:Drivers/STM32F4xx_HAL_Driver/Src/stm32f4xx_hal_eth.c **** HAL_StatusTypeDef HAL_ETH_WritePHYRegister(ETH_HandleTypeDef *heth, uint16_t PHYReg, uint32_t RegVa
1368:Drivers/STM32F4xx_HAL_Driver/Src/stm32f4xx_hal_eth.c **** {
 2236              		.loc 1 1368 1
 2237              		.cfi_startproc
 2238              		@ args = 0, pretend = 0, frame = 24
 2239              		@ frame_needed = 1, uses_anonymous_args = 0
 2240 0000 80B5     		push	{r7, lr}
 2241              	.LCFI80:
 2242              		.cfi_def_cfa_offset 8
 2243              		.cfi_offset 7, -8
 2244              		.cfi_offset 14, -4
 2245 0002 86B0     		sub	sp, sp, #24
 2246              	.LCFI81:
 2247              		.cfi_def_cfa_offset 32
 2248 0004 00AF     		add	r7, sp, #0
 2249              	.LCFI82:
 2250              		.cfi_def_cfa_register 7
 2251 0006 F860     		str	r0, [r7, #12]
 2252 0008 0B46     		mov	r3, r1
 2253 000a 7A60     		str	r2, [r7, #4]
 2254 000c 7B81     		strh	r3, [r7, #10]	@ movhi
1369:Drivers/STM32F4xx_HAL_Driver/Src/stm32f4xx_hal_eth.c ****   uint32_t tmpreg1 = 0U;
 2255              		.loc 1 1369 12
 2256 000e 0023     		movs	r3, #0
 2257 0010 7B61     		str	r3, [r7, #20]
1370:Drivers/STM32F4xx_HAL_Driver/Src/stm32f4xx_hal_eth.c ****   uint32_t tickstart = 0U;
 2258              		.loc 1 1370 12
 2259 0012 0023     		movs	r3, #0
 2260 0014 3B61     		str	r3, [r7, #16]
1371:Drivers/STM32F4xx_HAL_Driver/Src/stm32f4xx_hal_eth.c ****   
1372:Drivers/STM32F4xx_HAL_Driver/Src/stm32f4xx_hal_eth.c ****   /* Check parameters */
1373:Drivers/STM32F4xx_HAL_Driver/Src/stm32f4xx_hal_eth.c ****   assert_param(IS_ETH_PHY_ADDRESS(heth->Init.PhyAddress));
1374:Drivers/STM32F4xx_HAL_Driver/Src/stm32f4xx_hal_eth.c ****   
1375:Drivers/STM32F4xx_HAL_Driver/Src/stm32f4xx_hal_eth.c ****   /* Check the ETH peripheral state */
1376:Drivers/STM32F4xx_HAL_Driver/Src/stm32f4xx_hal_eth.c ****   if(heth->State == HAL_ETH_STATE_BUSY_WR)
 2261              		.loc 1 1376 10
 2262 0016 FB68     		ldr	r3, [r7, #12]
 2263 0018 93F84430 		ldrb	r3, [r3, #68]
 2264 001c DBB2     		uxtb	r3, r3
 2265              		.loc 1 1376 5
 2266 001e 422B     		cmp	r3, #66
 2267 0020 01D1     		bne	.L98
1377:Drivers/STM32F4xx_HAL_Driver/Src/stm32f4xx_hal_eth.c ****   {
1378:Drivers/STM32F4xx_HAL_Driver/Src/stm32f4xx_hal_eth.c ****     return HAL_BUSY;
 2268              		.loc 1 1378 12
 2269 0022 0223     		movs	r3, #2
 2270 0024 4EE0     		b	.L99
 2271              	.L98:
1379:Drivers/STM32F4xx_HAL_Driver/Src/stm32f4xx_hal_eth.c ****   }
1380:Drivers/STM32F4xx_HAL_Driver/Src/stm32f4xx_hal_eth.c ****   /* Set ETH HAL State to BUSY_WR */
1381:Drivers/STM32F4xx_HAL_Driver/Src/stm32f4xx_hal_eth.c ****   heth->State = HAL_ETH_STATE_BUSY_WR;
 2272              		.loc 1 1381 15
 2273 0026 FB68     		ldr	r3, [r7, #12]
 2274 0028 4222     		movs	r2, #66
 2275 002a 83F84420 		strb	r2, [r3, #68]
1382:Drivers/STM32F4xx_HAL_Driver/Src/stm32f4xx_hal_eth.c ****   
1383:Drivers/STM32F4xx_HAL_Driver/Src/stm32f4xx_hal_eth.c ****   /* Get the ETHERNET MACMIIAR value */
ARM GAS  /tmp/cc39NdF4.s 			page 65


1384:Drivers/STM32F4xx_HAL_Driver/Src/stm32f4xx_hal_eth.c ****   tmpreg1 = heth->Instance->MACMIIAR;
 2276              		.loc 1 1384 17
 2277 002e FB68     		ldr	r3, [r7, #12]
 2278 0030 1B68     		ldr	r3, [r3]
 2279              		.loc 1 1384 11
 2280 0032 1B69     		ldr	r3, [r3, #16]
 2281 0034 7B61     		str	r3, [r7, #20]
1385:Drivers/STM32F4xx_HAL_Driver/Src/stm32f4xx_hal_eth.c ****   
1386:Drivers/STM32F4xx_HAL_Driver/Src/stm32f4xx_hal_eth.c ****   /* Keep only the CSR Clock Range CR[2:0] bits value */
1387:Drivers/STM32F4xx_HAL_Driver/Src/stm32f4xx_hal_eth.c ****   tmpreg1 &= ~ETH_MACMIIAR_CR_MASK;
 2282              		.loc 1 1387 11
 2283 0036 7B69     		ldr	r3, [r7, #20]
 2284 0038 03F01C03 		and	r3, r3, #28
 2285 003c 7B61     		str	r3, [r7, #20]
1388:Drivers/STM32F4xx_HAL_Driver/Src/stm32f4xx_hal_eth.c ****   
1389:Drivers/STM32F4xx_HAL_Driver/Src/stm32f4xx_hal_eth.c ****   /* Prepare the MII register address value */
1390:Drivers/STM32F4xx_HAL_Driver/Src/stm32f4xx_hal_eth.c ****   tmpreg1 |=(((uint32_t)heth->Init.PhyAddress<<11U) & ETH_MACMIIAR_PA); /* Set the PHY device addre
 2286              		.loc 1 1390 35
 2287 003e FB68     		ldr	r3, [r7, #12]
 2288 0040 1B8A     		ldrh	r3, [r3, #16]
 2289              		.loc 1 1390 46
 2290 0042 DB02     		lsls	r3, r3, #11
 2291              		.loc 1 1390 53
 2292 0044 9BB2     		uxth	r3, r3
 2293              		.loc 1 1390 11
 2294 0046 7A69     		ldr	r2, [r7, #20]
 2295 0048 1343     		orrs	r3, r3, r2
 2296 004a 7B61     		str	r3, [r7, #20]
1391:Drivers/STM32F4xx_HAL_Driver/Src/stm32f4xx_hal_eth.c ****   tmpreg1 |=(((uint32_t)PHYReg<<6U) & ETH_MACMIIAR_MR);                 /* Set the PHY register add
 2297              		.loc 1 1391 15
 2298 004c 7B89     		ldrh	r3, [r7, #10]
 2299              		.loc 1 1391 31
 2300 004e 9B01     		lsls	r3, r3, #6
 2301              		.loc 1 1391 37
 2302 0050 03F4F863 		and	r3, r3, #1984
 2303              		.loc 1 1391 11
 2304 0054 7A69     		ldr	r2, [r7, #20]
 2305 0056 1343     		orrs	r3, r3, r2
 2306 0058 7B61     		str	r3, [r7, #20]
1392:Drivers/STM32F4xx_HAL_Driver/Src/stm32f4xx_hal_eth.c ****   tmpreg1 |= ETH_MACMIIAR_MW;                                           /* Set the write mode */
 2307              		.loc 1 1392 11
 2308 005a 7B69     		ldr	r3, [r7, #20]
 2309 005c 43F00203 		orr	r3, r3, #2
 2310 0060 7B61     		str	r3, [r7, #20]
1393:Drivers/STM32F4xx_HAL_Driver/Src/stm32f4xx_hal_eth.c ****   tmpreg1 |= ETH_MACMIIAR_MB;                                           /* Set the MII Busy bit */
 2311              		.loc 1 1393 11
 2312 0062 7B69     		ldr	r3, [r7, #20]
 2313 0064 43F00103 		orr	r3, r3, #1
 2314 0068 7B61     		str	r3, [r7, #20]
1394:Drivers/STM32F4xx_HAL_Driver/Src/stm32f4xx_hal_eth.c ****   
1395:Drivers/STM32F4xx_HAL_Driver/Src/stm32f4xx_hal_eth.c ****   /* Give the value to the MII data register */
1396:Drivers/STM32F4xx_HAL_Driver/Src/stm32f4xx_hal_eth.c ****   heth->Instance->MACMIIDR = (uint16_t)RegValue;
 2315              		.loc 1 1396 30
 2316 006a 7B68     		ldr	r3, [r7, #4]
 2317 006c 9AB2     		uxth	r2, r3
 2318              		.loc 1 1396 7
 2319 006e FB68     		ldr	r3, [r7, #12]
ARM GAS  /tmp/cc39NdF4.s 			page 66


 2320 0070 1B68     		ldr	r3, [r3]
 2321              		.loc 1 1396 28
 2322 0072 5A61     		str	r2, [r3, #20]
1397:Drivers/STM32F4xx_HAL_Driver/Src/stm32f4xx_hal_eth.c ****   
1398:Drivers/STM32F4xx_HAL_Driver/Src/stm32f4xx_hal_eth.c ****   /* Write the result value into the MII Address register */
1399:Drivers/STM32F4xx_HAL_Driver/Src/stm32f4xx_hal_eth.c ****   heth->Instance->MACMIIAR = tmpreg1;
 2323              		.loc 1 1399 7
 2324 0074 FB68     		ldr	r3, [r7, #12]
 2325 0076 1B68     		ldr	r3, [r3]
 2326              		.loc 1 1399 28
 2327 0078 7A69     		ldr	r2, [r7, #20]
 2328 007a 1A61     		str	r2, [r3, #16]
1400:Drivers/STM32F4xx_HAL_Driver/Src/stm32f4xx_hal_eth.c ****   
1401:Drivers/STM32F4xx_HAL_Driver/Src/stm32f4xx_hal_eth.c ****   /* Get tick */
1402:Drivers/STM32F4xx_HAL_Driver/Src/stm32f4xx_hal_eth.c ****   tickstart = HAL_GetTick();
 2329              		.loc 1 1402 15
 2330 007c FFF7FEFF 		bl	HAL_GetTick
 2331 0080 3861     		str	r0, [r7, #16]
1403:Drivers/STM32F4xx_HAL_Driver/Src/stm32f4xx_hal_eth.c ****   
1404:Drivers/STM32F4xx_HAL_Driver/Src/stm32f4xx_hal_eth.c ****   /* Check for the Busy flag */
1405:Drivers/STM32F4xx_HAL_Driver/Src/stm32f4xx_hal_eth.c ****   while((tmpreg1 & ETH_MACMIIAR_MB) == ETH_MACMIIAR_MB)
 2332              		.loc 1 1405 8
 2333 0082 15E0     		b	.L100
 2334              	.L102:
1406:Drivers/STM32F4xx_HAL_Driver/Src/stm32f4xx_hal_eth.c ****   {
1407:Drivers/STM32F4xx_HAL_Driver/Src/stm32f4xx_hal_eth.c ****     /* Check for the Timeout */
1408:Drivers/STM32F4xx_HAL_Driver/Src/stm32f4xx_hal_eth.c ****     if((HAL_GetTick() - tickstart ) > PHY_WRITE_TO)
 2335              		.loc 1 1408 9
 2336 0084 FFF7FEFF 		bl	HAL_GetTick
 2337 0088 0246     		mov	r2, r0
 2338              		.loc 1 1408 23
 2339 008a 3B69     		ldr	r3, [r7, #16]
 2340 008c D31A     		subs	r3, r2, r3
 2341              		.loc 1 1408 7
 2342 008e B3F5803F 		cmp	r3, #65536
 2343 0092 09D3     		bcc	.L101
1409:Drivers/STM32F4xx_HAL_Driver/Src/stm32f4xx_hal_eth.c ****     {
1410:Drivers/STM32F4xx_HAL_Driver/Src/stm32f4xx_hal_eth.c ****       heth->State= HAL_ETH_STATE_READY;
 2344              		.loc 1 1410 18
 2345 0094 FB68     		ldr	r3, [r7, #12]
 2346 0096 0122     		movs	r2, #1
 2347 0098 83F84420 		strb	r2, [r3, #68]
1411:Drivers/STM32F4xx_HAL_Driver/Src/stm32f4xx_hal_eth.c ****   
1412:Drivers/STM32F4xx_HAL_Driver/Src/stm32f4xx_hal_eth.c ****       /* Process Unlocked */
1413:Drivers/STM32F4xx_HAL_Driver/Src/stm32f4xx_hal_eth.c ****       __HAL_UNLOCK(heth);
 2348              		.loc 1 1413 7
 2349 009c FB68     		ldr	r3, [r7, #12]
 2350 009e 0022     		movs	r2, #0
 2351 00a0 83F84520 		strb	r2, [r3, #69]
1414:Drivers/STM32F4xx_HAL_Driver/Src/stm32f4xx_hal_eth.c ****     
1415:Drivers/STM32F4xx_HAL_Driver/Src/stm32f4xx_hal_eth.c ****       return HAL_TIMEOUT;
 2352              		.loc 1 1415 14
 2353 00a4 0323     		movs	r3, #3
 2354 00a6 0DE0     		b	.L99
 2355              	.L101:
1416:Drivers/STM32F4xx_HAL_Driver/Src/stm32f4xx_hal_eth.c ****     }
1417:Drivers/STM32F4xx_HAL_Driver/Src/stm32f4xx_hal_eth.c ****     
ARM GAS  /tmp/cc39NdF4.s 			page 67


1418:Drivers/STM32F4xx_HAL_Driver/Src/stm32f4xx_hal_eth.c ****     tmpreg1 = heth->Instance->MACMIIAR;
 2356              		.loc 1 1418 19
 2357 00a8 FB68     		ldr	r3, [r7, #12]
 2358 00aa 1B68     		ldr	r3, [r3]
 2359              		.loc 1 1418 13
 2360 00ac 1B69     		ldr	r3, [r3, #16]
 2361 00ae 7B61     		str	r3, [r7, #20]
 2362              	.L100:
1405:Drivers/STM32F4xx_HAL_Driver/Src/stm32f4xx_hal_eth.c ****   {
 2363              		.loc 1 1405 18
 2364 00b0 7B69     		ldr	r3, [r7, #20]
 2365 00b2 03F00103 		and	r3, r3, #1
1405:Drivers/STM32F4xx_HAL_Driver/Src/stm32f4xx_hal_eth.c ****   {
 2366              		.loc 1 1405 8
 2367 00b6 002B     		cmp	r3, #0
 2368 00b8 E4D1     		bne	.L102
1419:Drivers/STM32F4xx_HAL_Driver/Src/stm32f4xx_hal_eth.c ****   }
1420:Drivers/STM32F4xx_HAL_Driver/Src/stm32f4xx_hal_eth.c ****   
1421:Drivers/STM32F4xx_HAL_Driver/Src/stm32f4xx_hal_eth.c ****   /* Set ETH HAL State to READY */
1422:Drivers/STM32F4xx_HAL_Driver/Src/stm32f4xx_hal_eth.c ****   heth->State = HAL_ETH_STATE_READY;
 2369              		.loc 1 1422 15
 2370 00ba FB68     		ldr	r3, [r7, #12]
 2371 00bc 0122     		movs	r2, #1
 2372 00be 83F84420 		strb	r2, [r3, #68]
1423:Drivers/STM32F4xx_HAL_Driver/Src/stm32f4xx_hal_eth.c ****   
1424:Drivers/STM32F4xx_HAL_Driver/Src/stm32f4xx_hal_eth.c ****   /* Return function status */
1425:Drivers/STM32F4xx_HAL_Driver/Src/stm32f4xx_hal_eth.c ****   return HAL_OK; 
 2373              		.loc 1 1425 10
 2374 00c2 0023     		movs	r3, #0
 2375              	.L99:
1426:Drivers/STM32F4xx_HAL_Driver/Src/stm32f4xx_hal_eth.c **** }
 2376              		.loc 1 1426 1
 2377 00c4 1846     		mov	r0, r3
 2378 00c6 1837     		adds	r7, r7, #24
 2379              	.LCFI83:
 2380              		.cfi_def_cfa_offset 8
 2381 00c8 BD46     		mov	sp, r7
 2382              	.LCFI84:
 2383              		.cfi_def_cfa_register 13
 2384              		@ sp needed
 2385 00ca 80BD     		pop	{r7, pc}
 2386              		.cfi_endproc
 2387              	.LFE144:
 2389              		.section	.text.HAL_ETH_Start,"ax",%progbits
 2390              		.align	1
 2391              		.global	HAL_ETH_Start
 2392              		.syntax unified
 2393              		.thumb
 2394              		.thumb_func
 2395              		.fpu fpv4-sp-d16
 2397              	HAL_ETH_Start:
 2398              	.LFB145:
1427:Drivers/STM32F4xx_HAL_Driver/Src/stm32f4xx_hal_eth.c **** 
1428:Drivers/STM32F4xx_HAL_Driver/Src/stm32f4xx_hal_eth.c **** /**
1429:Drivers/STM32F4xx_HAL_Driver/Src/stm32f4xx_hal_eth.c ****   * @}
1430:Drivers/STM32F4xx_HAL_Driver/Src/stm32f4xx_hal_eth.c ****   */
1431:Drivers/STM32F4xx_HAL_Driver/Src/stm32f4xx_hal_eth.c **** 
ARM GAS  /tmp/cc39NdF4.s 			page 68


1432:Drivers/STM32F4xx_HAL_Driver/Src/stm32f4xx_hal_eth.c **** /** @defgroup ETH_Exported_Functions_Group3 Peripheral Control functions
1433:Drivers/STM32F4xx_HAL_Driver/Src/stm32f4xx_hal_eth.c ****  *  @brief    Peripheral Control functions 
1434:Drivers/STM32F4xx_HAL_Driver/Src/stm32f4xx_hal_eth.c ****  *
1435:Drivers/STM32F4xx_HAL_Driver/Src/stm32f4xx_hal_eth.c **** @verbatim   
1436:Drivers/STM32F4xx_HAL_Driver/Src/stm32f4xx_hal_eth.c ****  ===============================================================================
1437:Drivers/STM32F4xx_HAL_Driver/Src/stm32f4xx_hal_eth.c ****                   ##### Peripheral Control functions #####
1438:Drivers/STM32F4xx_HAL_Driver/Src/stm32f4xx_hal_eth.c ****  ===============================================================================  
1439:Drivers/STM32F4xx_HAL_Driver/Src/stm32f4xx_hal_eth.c ****     [..]  This section provides functions allowing to:
1440:Drivers/STM32F4xx_HAL_Driver/Src/stm32f4xx_hal_eth.c ****       (+) Enable MAC and DMA transmission and reception.
1441:Drivers/STM32F4xx_HAL_Driver/Src/stm32f4xx_hal_eth.c ****           HAL_ETH_Start();
1442:Drivers/STM32F4xx_HAL_Driver/Src/stm32f4xx_hal_eth.c ****       (+) Disable MAC and DMA transmission and reception. 
1443:Drivers/STM32F4xx_HAL_Driver/Src/stm32f4xx_hal_eth.c ****           HAL_ETH_Stop();
1444:Drivers/STM32F4xx_HAL_Driver/Src/stm32f4xx_hal_eth.c ****       (+) Set the MAC configuration in runtime mode
1445:Drivers/STM32F4xx_HAL_Driver/Src/stm32f4xx_hal_eth.c ****           HAL_ETH_ConfigMAC();
1446:Drivers/STM32F4xx_HAL_Driver/Src/stm32f4xx_hal_eth.c ****       (+) Set the DMA configuration in runtime mode
1447:Drivers/STM32F4xx_HAL_Driver/Src/stm32f4xx_hal_eth.c ****           HAL_ETH_ConfigDMA();
1448:Drivers/STM32F4xx_HAL_Driver/Src/stm32f4xx_hal_eth.c **** 
1449:Drivers/STM32F4xx_HAL_Driver/Src/stm32f4xx_hal_eth.c **** @endverbatim
1450:Drivers/STM32F4xx_HAL_Driver/Src/stm32f4xx_hal_eth.c ****   * @{
1451:Drivers/STM32F4xx_HAL_Driver/Src/stm32f4xx_hal_eth.c ****   */ 
1452:Drivers/STM32F4xx_HAL_Driver/Src/stm32f4xx_hal_eth.c **** 
1453:Drivers/STM32F4xx_HAL_Driver/Src/stm32f4xx_hal_eth.c ****  /**
1454:Drivers/STM32F4xx_HAL_Driver/Src/stm32f4xx_hal_eth.c ****   * @brief  Enables Ethernet MAC and DMA reception/transmission 
1455:Drivers/STM32F4xx_HAL_Driver/Src/stm32f4xx_hal_eth.c ****   * @param  heth pointer to a ETH_HandleTypeDef structure that contains
1456:Drivers/STM32F4xx_HAL_Driver/Src/stm32f4xx_hal_eth.c ****   *         the configuration information for ETHERNET module
1457:Drivers/STM32F4xx_HAL_Driver/Src/stm32f4xx_hal_eth.c ****   * @retval HAL status
1458:Drivers/STM32F4xx_HAL_Driver/Src/stm32f4xx_hal_eth.c ****   */
1459:Drivers/STM32F4xx_HAL_Driver/Src/stm32f4xx_hal_eth.c **** HAL_StatusTypeDef HAL_ETH_Start(ETH_HandleTypeDef *heth)
1460:Drivers/STM32F4xx_HAL_Driver/Src/stm32f4xx_hal_eth.c **** {  
 2399              		.loc 1 1460 1
 2400              		.cfi_startproc
 2401              		@ args = 0, pretend = 0, frame = 8
 2402              		@ frame_needed = 1, uses_anonymous_args = 0
 2403 0000 80B5     		push	{r7, lr}
 2404              	.LCFI85:
 2405              		.cfi_def_cfa_offset 8
 2406              		.cfi_offset 7, -8
 2407              		.cfi_offset 14, -4
 2408 0002 82B0     		sub	sp, sp, #8
 2409              	.LCFI86:
 2410              		.cfi_def_cfa_offset 16
 2411 0004 00AF     		add	r7, sp, #0
 2412              	.LCFI87:
 2413              		.cfi_def_cfa_register 7
 2414 0006 7860     		str	r0, [r7, #4]
1461:Drivers/STM32F4xx_HAL_Driver/Src/stm32f4xx_hal_eth.c ****   /* Process Locked */
1462:Drivers/STM32F4xx_HAL_Driver/Src/stm32f4xx_hal_eth.c ****   __HAL_LOCK(heth);
 2415              		.loc 1 1462 3
 2416 0008 7B68     		ldr	r3, [r7, #4]
 2417 000a 93F84530 		ldrb	r3, [r3, #69]	@ zero_extendqisi2
 2418 000e 012B     		cmp	r3, #1
 2419 0010 01D1     		bne	.L104
 2420              		.loc 1 1462 3 is_stmt 0 discriminator 1
 2421 0012 0223     		movs	r3, #2
 2422 0014 1FE0     		b	.L105
 2423              	.L104:
 2424              		.loc 1 1462 3 discriminator 2
ARM GAS  /tmp/cc39NdF4.s 			page 69


 2425 0016 7B68     		ldr	r3, [r7, #4]
 2426 0018 0122     		movs	r2, #1
 2427 001a 83F84520 		strb	r2, [r3, #69]
1463:Drivers/STM32F4xx_HAL_Driver/Src/stm32f4xx_hal_eth.c ****   
1464:Drivers/STM32F4xx_HAL_Driver/Src/stm32f4xx_hal_eth.c ****   /* Set the ETH peripheral state to BUSY */
1465:Drivers/STM32F4xx_HAL_Driver/Src/stm32f4xx_hal_eth.c ****   heth->State = HAL_ETH_STATE_BUSY;
 2428              		.loc 1 1465 15 is_stmt 1 discriminator 2
 2429 001e 7B68     		ldr	r3, [r7, #4]
 2430 0020 0222     		movs	r2, #2
 2431 0022 83F84420 		strb	r2, [r3, #68]
1466:Drivers/STM32F4xx_HAL_Driver/Src/stm32f4xx_hal_eth.c ****   
1467:Drivers/STM32F4xx_HAL_Driver/Src/stm32f4xx_hal_eth.c ****   /* Enable transmit state machine of the MAC for transmission on the MII */
1468:Drivers/STM32F4xx_HAL_Driver/Src/stm32f4xx_hal_eth.c ****   ETH_MACTransmissionEnable(heth);
 2432              		.loc 1 1468 3 discriminator 2
 2433 0026 7868     		ldr	r0, [r7, #4]
 2434 0028 FFF7FEFF 		bl	ETH_MACTransmissionEnable
1469:Drivers/STM32F4xx_HAL_Driver/Src/stm32f4xx_hal_eth.c ****   
1470:Drivers/STM32F4xx_HAL_Driver/Src/stm32f4xx_hal_eth.c ****   /* Enable receive state machine of the MAC for reception from the MII */
1471:Drivers/STM32F4xx_HAL_Driver/Src/stm32f4xx_hal_eth.c ****   ETH_MACReceptionEnable(heth);
 2435              		.loc 1 1471 3 discriminator 2
 2436 002c 7868     		ldr	r0, [r7, #4]
 2437 002e FFF7FEFF 		bl	ETH_MACReceptionEnable
1472:Drivers/STM32F4xx_HAL_Driver/Src/stm32f4xx_hal_eth.c ****   
1473:Drivers/STM32F4xx_HAL_Driver/Src/stm32f4xx_hal_eth.c ****   /* Flush Transmit FIFO */
1474:Drivers/STM32F4xx_HAL_Driver/Src/stm32f4xx_hal_eth.c ****   ETH_FlushTransmitFIFO(heth);
 2438              		.loc 1 1474 3 discriminator 2
 2439 0032 7868     		ldr	r0, [r7, #4]
 2440 0034 FFF7FEFF 		bl	ETH_FlushTransmitFIFO
1475:Drivers/STM32F4xx_HAL_Driver/Src/stm32f4xx_hal_eth.c ****   
1476:Drivers/STM32F4xx_HAL_Driver/Src/stm32f4xx_hal_eth.c ****   /* Start DMA transmission */
1477:Drivers/STM32F4xx_HAL_Driver/Src/stm32f4xx_hal_eth.c ****   ETH_DMATransmissionEnable(heth);
 2441              		.loc 1 1477 3 discriminator 2
 2442 0038 7868     		ldr	r0, [r7, #4]
 2443 003a FFF7FEFF 		bl	ETH_DMATransmissionEnable
1478:Drivers/STM32F4xx_HAL_Driver/Src/stm32f4xx_hal_eth.c ****   
1479:Drivers/STM32F4xx_HAL_Driver/Src/stm32f4xx_hal_eth.c ****   /* Start DMA reception */
1480:Drivers/STM32F4xx_HAL_Driver/Src/stm32f4xx_hal_eth.c ****   ETH_DMAReceptionEnable(heth);
 2444              		.loc 1 1480 3 discriminator 2
 2445 003e 7868     		ldr	r0, [r7, #4]
 2446 0040 FFF7FEFF 		bl	ETH_DMAReceptionEnable
1481:Drivers/STM32F4xx_HAL_Driver/Src/stm32f4xx_hal_eth.c ****   
1482:Drivers/STM32F4xx_HAL_Driver/Src/stm32f4xx_hal_eth.c ****   /* Set the ETH state to READY*/
1483:Drivers/STM32F4xx_HAL_Driver/Src/stm32f4xx_hal_eth.c ****   heth->State= HAL_ETH_STATE_READY;
 2447              		.loc 1 1483 14 discriminator 2
 2448 0044 7B68     		ldr	r3, [r7, #4]
 2449 0046 0122     		movs	r2, #1
 2450 0048 83F84420 		strb	r2, [r3, #68]
1484:Drivers/STM32F4xx_HAL_Driver/Src/stm32f4xx_hal_eth.c ****   
1485:Drivers/STM32F4xx_HAL_Driver/Src/stm32f4xx_hal_eth.c ****   /* Process Unlocked */
1486:Drivers/STM32F4xx_HAL_Driver/Src/stm32f4xx_hal_eth.c ****   __HAL_UNLOCK(heth);
 2451              		.loc 1 1486 3 discriminator 2
 2452 004c 7B68     		ldr	r3, [r7, #4]
 2453 004e 0022     		movs	r2, #0
 2454 0050 83F84520 		strb	r2, [r3, #69]
1487:Drivers/STM32F4xx_HAL_Driver/Src/stm32f4xx_hal_eth.c ****   
1488:Drivers/STM32F4xx_HAL_Driver/Src/stm32f4xx_hal_eth.c ****   /* Return function status */
1489:Drivers/STM32F4xx_HAL_Driver/Src/stm32f4xx_hal_eth.c ****   return HAL_OK;
ARM GAS  /tmp/cc39NdF4.s 			page 70


 2455              		.loc 1 1489 10 discriminator 2
 2456 0054 0023     		movs	r3, #0
 2457              	.L105:
1490:Drivers/STM32F4xx_HAL_Driver/Src/stm32f4xx_hal_eth.c **** }
 2458              		.loc 1 1490 1
 2459 0056 1846     		mov	r0, r3
 2460 0058 0837     		adds	r7, r7, #8
 2461              	.LCFI88:
 2462              		.cfi_def_cfa_offset 8
 2463 005a BD46     		mov	sp, r7
 2464              	.LCFI89:
 2465              		.cfi_def_cfa_register 13
 2466              		@ sp needed
 2467 005c 80BD     		pop	{r7, pc}
 2468              		.cfi_endproc
 2469              	.LFE145:
 2471              		.section	.text.HAL_ETH_Stop,"ax",%progbits
 2472              		.align	1
 2473              		.global	HAL_ETH_Stop
 2474              		.syntax unified
 2475              		.thumb
 2476              		.thumb_func
 2477              		.fpu fpv4-sp-d16
 2479              	HAL_ETH_Stop:
 2480              	.LFB146:
1491:Drivers/STM32F4xx_HAL_Driver/Src/stm32f4xx_hal_eth.c **** 
1492:Drivers/STM32F4xx_HAL_Driver/Src/stm32f4xx_hal_eth.c **** /**
1493:Drivers/STM32F4xx_HAL_Driver/Src/stm32f4xx_hal_eth.c ****   * @brief  Stop Ethernet MAC and DMA reception/transmission 
1494:Drivers/STM32F4xx_HAL_Driver/Src/stm32f4xx_hal_eth.c ****   * @param  heth pointer to a ETH_HandleTypeDef structure that contains
1495:Drivers/STM32F4xx_HAL_Driver/Src/stm32f4xx_hal_eth.c ****   *         the configuration information for ETHERNET module
1496:Drivers/STM32F4xx_HAL_Driver/Src/stm32f4xx_hal_eth.c ****   * @retval HAL status
1497:Drivers/STM32F4xx_HAL_Driver/Src/stm32f4xx_hal_eth.c ****   */
1498:Drivers/STM32F4xx_HAL_Driver/Src/stm32f4xx_hal_eth.c **** HAL_StatusTypeDef HAL_ETH_Stop(ETH_HandleTypeDef *heth)
1499:Drivers/STM32F4xx_HAL_Driver/Src/stm32f4xx_hal_eth.c **** {  
 2481              		.loc 1 1499 1
 2482              		.cfi_startproc
 2483              		@ args = 0, pretend = 0, frame = 8
 2484              		@ frame_needed = 1, uses_anonymous_args = 0
 2485 0000 80B5     		push	{r7, lr}
 2486              	.LCFI90:
 2487              		.cfi_def_cfa_offset 8
 2488              		.cfi_offset 7, -8
 2489              		.cfi_offset 14, -4
 2490 0002 82B0     		sub	sp, sp, #8
 2491              	.LCFI91:
 2492              		.cfi_def_cfa_offset 16
 2493 0004 00AF     		add	r7, sp, #0
 2494              	.LCFI92:
 2495              		.cfi_def_cfa_register 7
 2496 0006 7860     		str	r0, [r7, #4]
1500:Drivers/STM32F4xx_HAL_Driver/Src/stm32f4xx_hal_eth.c ****   /* Process Locked */
1501:Drivers/STM32F4xx_HAL_Driver/Src/stm32f4xx_hal_eth.c ****   __HAL_LOCK(heth);
 2497              		.loc 1 1501 3
 2498 0008 7B68     		ldr	r3, [r7, #4]
 2499 000a 93F84530 		ldrb	r3, [r3, #69]	@ zero_extendqisi2
 2500 000e 012B     		cmp	r3, #1
 2501 0010 01D1     		bne	.L107
ARM GAS  /tmp/cc39NdF4.s 			page 71


 2502              		.loc 1 1501 3 is_stmt 0 discriminator 1
 2503 0012 0223     		movs	r3, #2
 2504 0014 1FE0     		b	.L108
 2505              	.L107:
 2506              		.loc 1 1501 3 discriminator 2
 2507 0016 7B68     		ldr	r3, [r7, #4]
 2508 0018 0122     		movs	r2, #1
 2509 001a 83F84520 		strb	r2, [r3, #69]
1502:Drivers/STM32F4xx_HAL_Driver/Src/stm32f4xx_hal_eth.c ****   
1503:Drivers/STM32F4xx_HAL_Driver/Src/stm32f4xx_hal_eth.c ****   /* Set the ETH peripheral state to BUSY */
1504:Drivers/STM32F4xx_HAL_Driver/Src/stm32f4xx_hal_eth.c ****   heth->State = HAL_ETH_STATE_BUSY;
 2510              		.loc 1 1504 15 is_stmt 1 discriminator 2
 2511 001e 7B68     		ldr	r3, [r7, #4]
 2512 0020 0222     		movs	r2, #2
 2513 0022 83F84420 		strb	r2, [r3, #68]
1505:Drivers/STM32F4xx_HAL_Driver/Src/stm32f4xx_hal_eth.c ****   
1506:Drivers/STM32F4xx_HAL_Driver/Src/stm32f4xx_hal_eth.c ****   /* Stop DMA transmission */
1507:Drivers/STM32F4xx_HAL_Driver/Src/stm32f4xx_hal_eth.c ****   ETH_DMATransmissionDisable(heth);
 2514              		.loc 1 1507 3 discriminator 2
 2515 0026 7868     		ldr	r0, [r7, #4]
 2516 0028 FFF7FEFF 		bl	ETH_DMATransmissionDisable
1508:Drivers/STM32F4xx_HAL_Driver/Src/stm32f4xx_hal_eth.c ****   
1509:Drivers/STM32F4xx_HAL_Driver/Src/stm32f4xx_hal_eth.c ****   /* Stop DMA reception */
1510:Drivers/STM32F4xx_HAL_Driver/Src/stm32f4xx_hal_eth.c ****   ETH_DMAReceptionDisable(heth);
 2517              		.loc 1 1510 3 discriminator 2
 2518 002c 7868     		ldr	r0, [r7, #4]
 2519 002e FFF7FEFF 		bl	ETH_DMAReceptionDisable
1511:Drivers/STM32F4xx_HAL_Driver/Src/stm32f4xx_hal_eth.c ****   
1512:Drivers/STM32F4xx_HAL_Driver/Src/stm32f4xx_hal_eth.c ****   /* Disable receive state machine of the MAC for reception from the MII */
1513:Drivers/STM32F4xx_HAL_Driver/Src/stm32f4xx_hal_eth.c ****   ETH_MACReceptionDisable(heth);
 2520              		.loc 1 1513 3 discriminator 2
 2521 0032 7868     		ldr	r0, [r7, #4]
 2522 0034 FFF7FEFF 		bl	ETH_MACReceptionDisable
1514:Drivers/STM32F4xx_HAL_Driver/Src/stm32f4xx_hal_eth.c ****   
1515:Drivers/STM32F4xx_HAL_Driver/Src/stm32f4xx_hal_eth.c ****   /* Flush Transmit FIFO */
1516:Drivers/STM32F4xx_HAL_Driver/Src/stm32f4xx_hal_eth.c ****   ETH_FlushTransmitFIFO(heth);
 2523              		.loc 1 1516 3 discriminator 2
 2524 0038 7868     		ldr	r0, [r7, #4]
 2525 003a FFF7FEFF 		bl	ETH_FlushTransmitFIFO
1517:Drivers/STM32F4xx_HAL_Driver/Src/stm32f4xx_hal_eth.c ****   
1518:Drivers/STM32F4xx_HAL_Driver/Src/stm32f4xx_hal_eth.c ****   /* Disable transmit state machine of the MAC for transmission on the MII */
1519:Drivers/STM32F4xx_HAL_Driver/Src/stm32f4xx_hal_eth.c ****   ETH_MACTransmissionDisable(heth);
 2526              		.loc 1 1519 3 discriminator 2
 2527 003e 7868     		ldr	r0, [r7, #4]
 2528 0040 FFF7FEFF 		bl	ETH_MACTransmissionDisable
1520:Drivers/STM32F4xx_HAL_Driver/Src/stm32f4xx_hal_eth.c ****   
1521:Drivers/STM32F4xx_HAL_Driver/Src/stm32f4xx_hal_eth.c ****   /* Set the ETH state*/
1522:Drivers/STM32F4xx_HAL_Driver/Src/stm32f4xx_hal_eth.c ****   heth->State = HAL_ETH_STATE_READY;
 2529              		.loc 1 1522 15 discriminator 2
 2530 0044 7B68     		ldr	r3, [r7, #4]
 2531 0046 0122     		movs	r2, #1
 2532 0048 83F84420 		strb	r2, [r3, #68]
1523:Drivers/STM32F4xx_HAL_Driver/Src/stm32f4xx_hal_eth.c ****   
1524:Drivers/STM32F4xx_HAL_Driver/Src/stm32f4xx_hal_eth.c ****   /* Process Unlocked */
1525:Drivers/STM32F4xx_HAL_Driver/Src/stm32f4xx_hal_eth.c ****   __HAL_UNLOCK(heth);
 2533              		.loc 1 1525 3 discriminator 2
 2534 004c 7B68     		ldr	r3, [r7, #4]
ARM GAS  /tmp/cc39NdF4.s 			page 72


 2535 004e 0022     		movs	r2, #0
 2536 0050 83F84520 		strb	r2, [r3, #69]
1526:Drivers/STM32F4xx_HAL_Driver/Src/stm32f4xx_hal_eth.c ****   
1527:Drivers/STM32F4xx_HAL_Driver/Src/stm32f4xx_hal_eth.c ****   /* Return function status */
1528:Drivers/STM32F4xx_HAL_Driver/Src/stm32f4xx_hal_eth.c ****   return HAL_OK;
 2537              		.loc 1 1528 10 discriminator 2
 2538 0054 0023     		movs	r3, #0
 2539              	.L108:
1529:Drivers/STM32F4xx_HAL_Driver/Src/stm32f4xx_hal_eth.c **** }
 2540              		.loc 1 1529 1
 2541 0056 1846     		mov	r0, r3
 2542 0058 0837     		adds	r7, r7, #8
 2543              	.LCFI93:
 2544              		.cfi_def_cfa_offset 8
 2545 005a BD46     		mov	sp, r7
 2546              	.LCFI94:
 2547              		.cfi_def_cfa_register 13
 2548              		@ sp needed
 2549 005c 80BD     		pop	{r7, pc}
 2550              		.cfi_endproc
 2551              	.LFE146:
 2553              		.section	.text.HAL_ETH_ConfigMAC,"ax",%progbits
 2554              		.align	1
 2555              		.global	HAL_ETH_ConfigMAC
 2556              		.syntax unified
 2557              		.thumb
 2558              		.thumb_func
 2559              		.fpu fpv4-sp-d16
 2561              	HAL_ETH_ConfigMAC:
 2562              	.LFB147:
1530:Drivers/STM32F4xx_HAL_Driver/Src/stm32f4xx_hal_eth.c **** 
1531:Drivers/STM32F4xx_HAL_Driver/Src/stm32f4xx_hal_eth.c **** /**
1532:Drivers/STM32F4xx_HAL_Driver/Src/stm32f4xx_hal_eth.c ****   * @brief  Set ETH MAC Configuration.
1533:Drivers/STM32F4xx_HAL_Driver/Src/stm32f4xx_hal_eth.c ****   * @param  heth pointer to a ETH_HandleTypeDef structure that contains
1534:Drivers/STM32F4xx_HAL_Driver/Src/stm32f4xx_hal_eth.c ****   *         the configuration information for ETHERNET module
1535:Drivers/STM32F4xx_HAL_Driver/Src/stm32f4xx_hal_eth.c ****   * @param  macconf MAC Configuration structure  
1536:Drivers/STM32F4xx_HAL_Driver/Src/stm32f4xx_hal_eth.c ****   * @retval HAL status
1537:Drivers/STM32F4xx_HAL_Driver/Src/stm32f4xx_hal_eth.c ****   */
1538:Drivers/STM32F4xx_HAL_Driver/Src/stm32f4xx_hal_eth.c **** HAL_StatusTypeDef HAL_ETH_ConfigMAC(ETH_HandleTypeDef *heth, ETH_MACInitTypeDef *macconf)
1539:Drivers/STM32F4xx_HAL_Driver/Src/stm32f4xx_hal_eth.c **** {
 2563              		.loc 1 1539 1
 2564              		.cfi_startproc
 2565              		@ args = 0, pretend = 0, frame = 16
 2566              		@ frame_needed = 1, uses_anonymous_args = 0
 2567 0000 80B5     		push	{r7, lr}
 2568              	.LCFI95:
 2569              		.cfi_def_cfa_offset 8
 2570              		.cfi_offset 7, -8
 2571              		.cfi_offset 14, -4
 2572 0002 84B0     		sub	sp, sp, #16
 2573              	.LCFI96:
 2574              		.cfi_def_cfa_offset 24
 2575 0004 00AF     		add	r7, sp, #0
 2576              	.LCFI97:
 2577              		.cfi_def_cfa_register 7
 2578 0006 7860     		str	r0, [r7, #4]
 2579 0008 3960     		str	r1, [r7]
ARM GAS  /tmp/cc39NdF4.s 			page 73


1540:Drivers/STM32F4xx_HAL_Driver/Src/stm32f4xx_hal_eth.c ****   uint32_t tmpreg1 = 0U;
 2580              		.loc 1 1540 12
 2581 000a 0023     		movs	r3, #0
 2582 000c FB60     		str	r3, [r7, #12]
1541:Drivers/STM32F4xx_HAL_Driver/Src/stm32f4xx_hal_eth.c ****   
1542:Drivers/STM32F4xx_HAL_Driver/Src/stm32f4xx_hal_eth.c ****   /* Process Locked */
1543:Drivers/STM32F4xx_HAL_Driver/Src/stm32f4xx_hal_eth.c ****   __HAL_LOCK(heth);
 2583              		.loc 1 1543 3
 2584 000e 7B68     		ldr	r3, [r7, #4]
 2585 0010 93F84530 		ldrb	r3, [r3, #69]	@ zero_extendqisi2
 2586 0014 012B     		cmp	r3, #1
 2587 0016 01D1     		bne	.L110
 2588              		.loc 1 1543 3 is_stmt 0 discriminator 1
 2589 0018 0223     		movs	r3, #2
 2590 001a E4E0     		b	.L111
 2591              	.L110:
 2592              		.loc 1 1543 3 discriminator 2
 2593 001c 7B68     		ldr	r3, [r7, #4]
 2594 001e 0122     		movs	r2, #1
 2595 0020 83F84520 		strb	r2, [r3, #69]
1544:Drivers/STM32F4xx_HAL_Driver/Src/stm32f4xx_hal_eth.c ****   
1545:Drivers/STM32F4xx_HAL_Driver/Src/stm32f4xx_hal_eth.c ****   /* Set the ETH peripheral state to BUSY */
1546:Drivers/STM32F4xx_HAL_Driver/Src/stm32f4xx_hal_eth.c ****   heth->State= HAL_ETH_STATE_BUSY;
 2596              		.loc 1 1546 14 is_stmt 1 discriminator 2
 2597 0024 7B68     		ldr	r3, [r7, #4]
 2598 0026 0222     		movs	r2, #2
 2599 0028 83F84420 		strb	r2, [r3, #68]
1547:Drivers/STM32F4xx_HAL_Driver/Src/stm32f4xx_hal_eth.c ****   
1548:Drivers/STM32F4xx_HAL_Driver/Src/stm32f4xx_hal_eth.c ****   assert_param(IS_ETH_SPEED(heth->Init.Speed));
1549:Drivers/STM32F4xx_HAL_Driver/Src/stm32f4xx_hal_eth.c ****   assert_param(IS_ETH_DUPLEX_MODE(heth->Init.DuplexMode)); 
1550:Drivers/STM32F4xx_HAL_Driver/Src/stm32f4xx_hal_eth.c ****   
1551:Drivers/STM32F4xx_HAL_Driver/Src/stm32f4xx_hal_eth.c ****   if (macconf != NULL)
 2600              		.loc 1 1551 6 discriminator 2
 2601 002c 3B68     		ldr	r3, [r7]
 2602 002e 002B     		cmp	r3, #0
 2603 0030 00F0B180 		beq	.L112
1552:Drivers/STM32F4xx_HAL_Driver/Src/stm32f4xx_hal_eth.c ****   {
1553:Drivers/STM32F4xx_HAL_Driver/Src/stm32f4xx_hal_eth.c ****     /* Check the parameters */
1554:Drivers/STM32F4xx_HAL_Driver/Src/stm32f4xx_hal_eth.c ****     assert_param(IS_ETH_WATCHDOG(macconf->Watchdog));
1555:Drivers/STM32F4xx_HAL_Driver/Src/stm32f4xx_hal_eth.c ****     assert_param(IS_ETH_JABBER(macconf->Jabber));
1556:Drivers/STM32F4xx_HAL_Driver/Src/stm32f4xx_hal_eth.c ****     assert_param(IS_ETH_INTER_FRAME_GAP(macconf->InterFrameGap));
1557:Drivers/STM32F4xx_HAL_Driver/Src/stm32f4xx_hal_eth.c ****     assert_param(IS_ETH_CARRIER_SENSE(macconf->CarrierSense));
1558:Drivers/STM32F4xx_HAL_Driver/Src/stm32f4xx_hal_eth.c ****     assert_param(IS_ETH_RECEIVE_OWN(macconf->ReceiveOwn));
1559:Drivers/STM32F4xx_HAL_Driver/Src/stm32f4xx_hal_eth.c ****     assert_param(IS_ETH_LOOPBACK_MODE(macconf->LoopbackMode));
1560:Drivers/STM32F4xx_HAL_Driver/Src/stm32f4xx_hal_eth.c ****     assert_param(IS_ETH_CHECKSUM_OFFLOAD(macconf->ChecksumOffload));
1561:Drivers/STM32F4xx_HAL_Driver/Src/stm32f4xx_hal_eth.c ****     assert_param(IS_ETH_RETRY_TRANSMISSION(macconf->RetryTransmission));
1562:Drivers/STM32F4xx_HAL_Driver/Src/stm32f4xx_hal_eth.c ****     assert_param(IS_ETH_AUTOMATIC_PADCRC_STRIP(macconf->AutomaticPadCRCStrip));
1563:Drivers/STM32F4xx_HAL_Driver/Src/stm32f4xx_hal_eth.c ****     assert_param(IS_ETH_BACKOFF_LIMIT(macconf->BackOffLimit));
1564:Drivers/STM32F4xx_HAL_Driver/Src/stm32f4xx_hal_eth.c ****     assert_param(IS_ETH_DEFERRAL_CHECK(macconf->DeferralCheck));
1565:Drivers/STM32F4xx_HAL_Driver/Src/stm32f4xx_hal_eth.c ****     assert_param(IS_ETH_RECEIVE_ALL(macconf->ReceiveAll));
1566:Drivers/STM32F4xx_HAL_Driver/Src/stm32f4xx_hal_eth.c ****     assert_param(IS_ETH_SOURCE_ADDR_FILTER(macconf->SourceAddrFilter));
1567:Drivers/STM32F4xx_HAL_Driver/Src/stm32f4xx_hal_eth.c ****     assert_param(IS_ETH_CONTROL_FRAMES(macconf->PassControlFrames));
1568:Drivers/STM32F4xx_HAL_Driver/Src/stm32f4xx_hal_eth.c ****     assert_param(IS_ETH_BROADCAST_FRAMES_RECEPTION(macconf->BroadcastFramesReception));
1569:Drivers/STM32F4xx_HAL_Driver/Src/stm32f4xx_hal_eth.c ****     assert_param(IS_ETH_DESTINATION_ADDR_FILTER(macconf->DestinationAddrFilter));
1570:Drivers/STM32F4xx_HAL_Driver/Src/stm32f4xx_hal_eth.c ****     assert_param(IS_ETH_PROMISCUOUS_MODE(macconf->PromiscuousMode));
1571:Drivers/STM32F4xx_HAL_Driver/Src/stm32f4xx_hal_eth.c ****     assert_param(IS_ETH_MULTICAST_FRAMES_FILTER(macconf->MulticastFramesFilter));
1572:Drivers/STM32F4xx_HAL_Driver/Src/stm32f4xx_hal_eth.c ****     assert_param(IS_ETH_UNICAST_FRAMES_FILTER(macconf->UnicastFramesFilter));
ARM GAS  /tmp/cc39NdF4.s 			page 74


1573:Drivers/STM32F4xx_HAL_Driver/Src/stm32f4xx_hal_eth.c ****     assert_param(IS_ETH_PAUSE_TIME(macconf->PauseTime));
1574:Drivers/STM32F4xx_HAL_Driver/Src/stm32f4xx_hal_eth.c ****     assert_param(IS_ETH_ZEROQUANTA_PAUSE(macconf->ZeroQuantaPause));
1575:Drivers/STM32F4xx_HAL_Driver/Src/stm32f4xx_hal_eth.c ****     assert_param(IS_ETH_PAUSE_LOW_THRESHOLD(macconf->PauseLowThreshold));
1576:Drivers/STM32F4xx_HAL_Driver/Src/stm32f4xx_hal_eth.c ****     assert_param(IS_ETH_UNICAST_PAUSE_FRAME_DETECT(macconf->UnicastPauseFrameDetect));
1577:Drivers/STM32F4xx_HAL_Driver/Src/stm32f4xx_hal_eth.c ****     assert_param(IS_ETH_RECEIVE_FLOWCONTROL(macconf->ReceiveFlowControl));
1578:Drivers/STM32F4xx_HAL_Driver/Src/stm32f4xx_hal_eth.c ****     assert_param(IS_ETH_TRANSMIT_FLOWCONTROL(macconf->TransmitFlowControl));
1579:Drivers/STM32F4xx_HAL_Driver/Src/stm32f4xx_hal_eth.c ****     assert_param(IS_ETH_VLAN_TAG_COMPARISON(macconf->VLANTagComparison));
1580:Drivers/STM32F4xx_HAL_Driver/Src/stm32f4xx_hal_eth.c ****     assert_param(IS_ETH_VLAN_TAG_IDENTIFIER(macconf->VLANTagIdentifier));
1581:Drivers/STM32F4xx_HAL_Driver/Src/stm32f4xx_hal_eth.c ****     
1582:Drivers/STM32F4xx_HAL_Driver/Src/stm32f4xx_hal_eth.c ****     /*------------------------ ETHERNET MACCR Configuration --------------------*/
1583:Drivers/STM32F4xx_HAL_Driver/Src/stm32f4xx_hal_eth.c ****     /* Get the ETHERNET MACCR value */
