ARM GAS  /tmp/ccFjPNuy.s 			page 1


   1              		.cpu cortex-m4
   2              		.eabi_attribute 27, 1
   3              		.eabi_attribute 28, 1
   4              		.eabi_attribute 20, 1
   5              		.eabi_attribute 21, 1
   6              		.eabi_attribute 23, 3
   7              		.eabi_attribute 24, 1
   8              		.eabi_attribute 25, 1
   9              		.eabi_attribute 26, 1
  10              		.eabi_attribute 30, 6
  11              		.eabi_attribute 34, 1
  12              		.eabi_attribute 18, 4
  13              		.file	"tcp.c"
  14              		.text
  15              	.Ltext0:
  16              		.cfi_sections	.debug_frame
  17              		.section	.rodata
  18              		.align	2
  19              	.LC0:
  20 0000 434C4F53 		.ascii	"CLOSED\000"
  20      454400
  21 0007 00       		.align	2
  22              	.LC1:
  23 0008 4C495354 		.ascii	"LISTEN\000"
  23      454E00
  24 000f 00       		.align	2
  25              	.LC2:
  26 0010 53594E5F 		.ascii	"SYN_SENT\000"
  26      53454E54 
  26      00
  27 0019 000000   		.align	2
  28              	.LC3:
  29 001c 53594E5F 		.ascii	"SYN_RCVD\000"
  29      52435644 
  29      00
  30 0025 000000   		.align	2
  31              	.LC4:
  32 0028 45535441 		.ascii	"ESTABLISHED\000"
  32      424C4953 
  32      48454400 
  33              		.align	2
  34              	.LC5:
  35 0034 46494E5F 		.ascii	"FIN_WAIT_1\000"
  35      57414954 
  35      5F3100
  36 003f 00       		.align	2
  37              	.LC6:
  38 0040 46494E5F 		.ascii	"FIN_WAIT_2\000"
  38      57414954 
  38      5F3200
  39 004b 00       		.align	2
  40              	.LC7:
  41 004c 434C4F53 		.ascii	"CLOSE_WAIT\000"
  41      455F5741 
  41      495400
  42 0057 00       		.align	2
  43              	.LC8:
ARM GAS  /tmp/ccFjPNuy.s 			page 2


  44 0058 434C4F53 		.ascii	"CLOSING\000"
  44      494E4700 
  45              		.align	2
  46              	.LC9:
  47 0060 4C415354 		.ascii	"LAST_ACK\000"
  47      5F41434B 
  47      00
  48 0069 000000   		.align	2
  49              	.LC10:
  50 006c 54494D45 		.ascii	"TIME_WAIT\000"
  50      5F574149 
  50      5400
  51              		.section	.rodata.tcp_state_str,"a"
  52              		.align	2
  55              	tcp_state_str:
  56 0000 00000000 		.word	.LC0
  57 0004 08000000 		.word	.LC1
  58 0008 10000000 		.word	.LC2
  59 000c 1C000000 		.word	.LC3
  60 0010 28000000 		.word	.LC4
  61 0014 34000000 		.word	.LC5
  62 0018 40000000 		.word	.LC6
  63 001c 4C000000 		.word	.LC7
  64 0020 58000000 		.word	.LC8
  65 0024 60000000 		.word	.LC9
  66 0028 6C000000 		.word	.LC10
  67              		.section	.data.tcp_port,"aw"
  68              		.align	1
  71              	tcp_port:
  72 0000 00C0     		.short	-16384
  73              		.comm	tcp_ticks,4,4
  74              		.section	.rodata.tcp_backoff,"a"
  75              		.align	2
  78              	tcp_backoff:
  79 0000 01       		.byte	1
  80 0001 02       		.byte	2
  81 0002 03       		.byte	3
  82 0003 04       		.byte	4
  83 0004 05       		.byte	5
  84 0005 06       		.byte	6
  85 0006 07       		.byte	7
  86 0007 07       		.byte	7
  87 0008 07       		.byte	7
  88 0009 07       		.byte	7
  89 000a 07       		.byte	7
  90 000b 07       		.byte	7
  91 000c 07       		.byte	7
  92              		.section	.rodata.tcp_persist_backoff,"a"
  93              		.align	2
  96              	tcp_persist_backoff:
  97 0000 03       		.byte	3
  98 0001 06       		.byte	6
  99 0002 0C       		.byte	12
 100 0003 18       		.byte	24
 101 0004 30       		.byte	48
 102 0005 60       		.byte	96
 103 0006 78       		.byte	120
ARM GAS  /tmp/ccFjPNuy.s 			page 3


 104              		.comm	tcp_bound_pcbs,4,4
 105              		.comm	tcp_listen_pcbs,4,4
 106              		.comm	tcp_active_pcbs,4,4
 107              		.comm	tcp_tw_pcbs,4,4
 108              		.global	tcp_pcb_lists
 109              		.section	.rodata.tcp_pcb_lists,"a"
 110              		.align	2
 113              	tcp_pcb_lists:
 114 0000 00000000 		.word	tcp_listen_pcbs
 115 0004 00000000 		.word	tcp_bound_pcbs
 116 0008 00000000 		.word	tcp_active_pcbs
 117 000c 00000000 		.word	tcp_tw_pcbs
 118              		.comm	tcp_active_pcbs_changed,1,1
 119              		.section	.bss.tcp_timer,"aw",%nobits
 122              	tcp_timer:
 123 0000 00       		.space	1
 124              		.section	.bss.tcp_timer_ctr,"aw",%nobits
 127              	tcp_timer_ctr:
 128 0000 00       		.space	1
 129              		.section	.text.tcp_init,"ax",%progbits
 130              		.align	1
 131              		.global	tcp_init
 132              		.arch armv7e-m
 133              		.syntax unified
 134              		.thumb
 135              		.thumb_func
 136              		.fpu fpv4-sp-d16
 138              	tcp_init:
 139              	.LFB133:
 140              		.file 1 "Middlewares/Third_Party/LwIP/src/core/tcp.c"
   1:Middlewares/Third_Party/LwIP/src/core/tcp.c **** /**
   2:Middlewares/Third_Party/LwIP/src/core/tcp.c ****  * @file
   3:Middlewares/Third_Party/LwIP/src/core/tcp.c ****  * Transmission Control Protocol for IP
   4:Middlewares/Third_Party/LwIP/src/core/tcp.c ****  * See also @ref tcp_raw
   5:Middlewares/Third_Party/LwIP/src/core/tcp.c ****  *
   6:Middlewares/Third_Party/LwIP/src/core/tcp.c ****  * @defgroup tcp_raw TCP
   7:Middlewares/Third_Party/LwIP/src/core/tcp.c ****  * @ingroup callbackstyle_api
   8:Middlewares/Third_Party/LwIP/src/core/tcp.c ****  * Transmission Control Protocol for IP\n
   9:Middlewares/Third_Party/LwIP/src/core/tcp.c ****  * @see @ref api
  10:Middlewares/Third_Party/LwIP/src/core/tcp.c ****  *
  11:Middlewares/Third_Party/LwIP/src/core/tcp.c ****  * Common functions for the TCP implementation, such as functions
  12:Middlewares/Third_Party/LwIP/src/core/tcp.c ****  * for manipulating the data structures and the TCP timer functions. TCP functions
  13:Middlewares/Third_Party/LwIP/src/core/tcp.c ****  * related to input and output is found in tcp_in.c and tcp_out.c respectively.\n
  14:Middlewares/Third_Party/LwIP/src/core/tcp.c ****  * 
  15:Middlewares/Third_Party/LwIP/src/core/tcp.c ****  * TCP connection setup
  16:Middlewares/Third_Party/LwIP/src/core/tcp.c ****  * --------------------
  17:Middlewares/Third_Party/LwIP/src/core/tcp.c ****  * The functions used for setting up connections is similar to that of
  18:Middlewares/Third_Party/LwIP/src/core/tcp.c ****  * the sequential API and of the BSD socket API. A new TCP connection
  19:Middlewares/Third_Party/LwIP/src/core/tcp.c ****  * identifier (i.e., a protocol control block - PCB) is created with the
  20:Middlewares/Third_Party/LwIP/src/core/tcp.c ****  * tcp_new() function. This PCB can then be either set to listen for new
  21:Middlewares/Third_Party/LwIP/src/core/tcp.c ****  * incoming connections or be explicitly connected to another host.
  22:Middlewares/Third_Party/LwIP/src/core/tcp.c ****  * - tcp_new()
  23:Middlewares/Third_Party/LwIP/src/core/tcp.c ****  * - tcp_bind()
  24:Middlewares/Third_Party/LwIP/src/core/tcp.c ****  * - tcp_listen() and tcp_listen_with_backlog()
  25:Middlewares/Third_Party/LwIP/src/core/tcp.c ****  * - tcp_accept()
  26:Middlewares/Third_Party/LwIP/src/core/tcp.c ****  * - tcp_connect()
  27:Middlewares/Third_Party/LwIP/src/core/tcp.c ****  * 
ARM GAS  /tmp/ccFjPNuy.s 			page 4


  28:Middlewares/Third_Party/LwIP/src/core/tcp.c ****  * Sending TCP data
  29:Middlewares/Third_Party/LwIP/src/core/tcp.c ****  * ----------------
  30:Middlewares/Third_Party/LwIP/src/core/tcp.c ****  * TCP data is sent by enqueueing the data with a call to tcp_write() and
  31:Middlewares/Third_Party/LwIP/src/core/tcp.c ****  * triggering to send by calling tcp_output(). When the data is successfully
  32:Middlewares/Third_Party/LwIP/src/core/tcp.c ****  * transmitted to the remote host, the application will be notified with a
  33:Middlewares/Third_Party/LwIP/src/core/tcp.c ****  * call to a specified callback function.
  34:Middlewares/Third_Party/LwIP/src/core/tcp.c ****  * - tcp_write()
  35:Middlewares/Third_Party/LwIP/src/core/tcp.c ****  * - tcp_output()
  36:Middlewares/Third_Party/LwIP/src/core/tcp.c ****  * - tcp_sent()
  37:Middlewares/Third_Party/LwIP/src/core/tcp.c ****  * 
  38:Middlewares/Third_Party/LwIP/src/core/tcp.c ****  * Receiving TCP data
  39:Middlewares/Third_Party/LwIP/src/core/tcp.c ****  * ------------------
  40:Middlewares/Third_Party/LwIP/src/core/tcp.c ****  * TCP data reception is callback based - an application specified
  41:Middlewares/Third_Party/LwIP/src/core/tcp.c ****  * callback function is called when new data arrives. When the
  42:Middlewares/Third_Party/LwIP/src/core/tcp.c ****  * application has taken the data, it has to call the tcp_recved()
  43:Middlewares/Third_Party/LwIP/src/core/tcp.c ****  * function to indicate that TCP can advertise increase the receive
  44:Middlewares/Third_Party/LwIP/src/core/tcp.c ****  * window.
  45:Middlewares/Third_Party/LwIP/src/core/tcp.c ****  * - tcp_recv()
  46:Middlewares/Third_Party/LwIP/src/core/tcp.c ****  * - tcp_recved()
  47:Middlewares/Third_Party/LwIP/src/core/tcp.c ****  * 
  48:Middlewares/Third_Party/LwIP/src/core/tcp.c ****  * Application polling
  49:Middlewares/Third_Party/LwIP/src/core/tcp.c ****  * -------------------
  50:Middlewares/Third_Party/LwIP/src/core/tcp.c ****  * When a connection is idle (i.e., no data is either transmitted or
  51:Middlewares/Third_Party/LwIP/src/core/tcp.c ****  * received), lwIP will repeatedly poll the application by calling a
  52:Middlewares/Third_Party/LwIP/src/core/tcp.c ****  * specified callback function. This can be used either as a watchdog
  53:Middlewares/Third_Party/LwIP/src/core/tcp.c ****  * timer for killing connections that have stayed idle for too long, or
  54:Middlewares/Third_Party/LwIP/src/core/tcp.c ****  * as a method of waiting for memory to become available. For instance,
  55:Middlewares/Third_Party/LwIP/src/core/tcp.c ****  * if a call to tcp_write() has failed because memory wasn't available,
  56:Middlewares/Third_Party/LwIP/src/core/tcp.c ****  * the application may use the polling functionality to call tcp_write()
  57:Middlewares/Third_Party/LwIP/src/core/tcp.c ****  * again when the connection has been idle for a while.
  58:Middlewares/Third_Party/LwIP/src/core/tcp.c ****  * - tcp_poll()
  59:Middlewares/Third_Party/LwIP/src/core/tcp.c ****  *
  60:Middlewares/Third_Party/LwIP/src/core/tcp.c ****  * Closing and aborting connections
  61:Middlewares/Third_Party/LwIP/src/core/tcp.c ****  * --------------------------------
  62:Middlewares/Third_Party/LwIP/src/core/tcp.c ****  * - tcp_close()
  63:Middlewares/Third_Party/LwIP/src/core/tcp.c ****  * - tcp_abort()
  64:Middlewares/Third_Party/LwIP/src/core/tcp.c ****  * - tcp_err()
  65:Middlewares/Third_Party/LwIP/src/core/tcp.c ****  * 
  66:Middlewares/Third_Party/LwIP/src/core/tcp.c ****  */
  67:Middlewares/Third_Party/LwIP/src/core/tcp.c **** 
  68:Middlewares/Third_Party/LwIP/src/core/tcp.c **** /*
  69:Middlewares/Third_Party/LwIP/src/core/tcp.c ****  * Copyright (c) 2001-2004 Swedish Institute of Computer Science.
  70:Middlewares/Third_Party/LwIP/src/core/tcp.c ****  * All rights reserved.
  71:Middlewares/Third_Party/LwIP/src/core/tcp.c ****  *
  72:Middlewares/Third_Party/LwIP/src/core/tcp.c ****  * Redistribution and use in source and binary forms, with or without modification,
  73:Middlewares/Third_Party/LwIP/src/core/tcp.c ****  * are permitted provided that the following conditions are met:
  74:Middlewares/Third_Party/LwIP/src/core/tcp.c ****  *
  75:Middlewares/Third_Party/LwIP/src/core/tcp.c ****  * 1. Redistributions of source code must retain the above copyright notice,
  76:Middlewares/Third_Party/LwIP/src/core/tcp.c ****  *    this list of conditions and the following disclaimer.
  77:Middlewares/Third_Party/LwIP/src/core/tcp.c ****  * 2. Redistributions in binary form must reproduce the above copyright notice,
  78:Middlewares/Third_Party/LwIP/src/core/tcp.c ****  *    this list of conditions and the following disclaimer in the documentation
  79:Middlewares/Third_Party/LwIP/src/core/tcp.c ****  *    and/or other materials provided with the distribution.
  80:Middlewares/Third_Party/LwIP/src/core/tcp.c ****  * 3. The name of the author may not be used to endorse or promote products
  81:Middlewares/Third_Party/LwIP/src/core/tcp.c ****  *    derived from this software without specific prior written permission.
  82:Middlewares/Third_Party/LwIP/src/core/tcp.c ****  *
  83:Middlewares/Third_Party/LwIP/src/core/tcp.c ****  * THIS SOFTWARE IS PROVIDED BY THE AUTHOR ``AS IS'' AND ANY EXPRESS OR IMPLIED
  84:Middlewares/Third_Party/LwIP/src/core/tcp.c ****  * WARRANTIES, INCLUDING, BUT NOT LIMITED TO, THE IMPLIED WARRANTIES OF
ARM GAS  /tmp/ccFjPNuy.s 			page 5


  85:Middlewares/Third_Party/LwIP/src/core/tcp.c ****  * MERCHANTABILITY AND FITNESS FOR A PARTICULAR PURPOSE ARE DISCLAIMED. IN NO EVENT
  86:Middlewares/Third_Party/LwIP/src/core/tcp.c ****  * SHALL THE AUTHOR BE LIABLE FOR ANY DIRECT, INDIRECT, INCIDENTAL, SPECIAL,
  87:Middlewares/Third_Party/LwIP/src/core/tcp.c ****  * EXEMPLARY, OR CONSEQUENTIAL DAMAGES (INCLUDING, BUT NOT LIMITED TO, PROCUREMENT
  88:Middlewares/Third_Party/LwIP/src/core/tcp.c ****  * OF SUBSTITUTE GOODS OR SERVICES; LOSS OF USE, DATA, OR PROFITS; OR BUSINESS
  89:Middlewares/Third_Party/LwIP/src/core/tcp.c ****  * INTERRUPTION) HOWEVER CAUSED AND ON ANY THEORY OF LIABILITY, WHETHER IN
  90:Middlewares/Third_Party/LwIP/src/core/tcp.c ****  * CONTRACT, STRICT LIABILITY, OR TORT (INCLUDING NEGLIGENCE OR OTHERWISE) ARISING
  91:Middlewares/Third_Party/LwIP/src/core/tcp.c ****  * IN ANY WAY OUT OF THE USE OF THIS SOFTWARE, EVEN IF ADVISED OF THE POSSIBILITY
  92:Middlewares/Third_Party/LwIP/src/core/tcp.c ****  * OF SUCH DAMAGE.
  93:Middlewares/Third_Party/LwIP/src/core/tcp.c ****  *
  94:Middlewares/Third_Party/LwIP/src/core/tcp.c ****  * This file is part of the lwIP TCP/IP stack.
  95:Middlewares/Third_Party/LwIP/src/core/tcp.c ****  *
  96:Middlewares/Third_Party/LwIP/src/core/tcp.c ****  * Author: Adam Dunkels <adam@sics.se>
  97:Middlewares/Third_Party/LwIP/src/core/tcp.c ****  *
  98:Middlewares/Third_Party/LwIP/src/core/tcp.c ****  */
  99:Middlewares/Third_Party/LwIP/src/core/tcp.c **** 
 100:Middlewares/Third_Party/LwIP/src/core/tcp.c **** #include "lwip/opt.h"
 101:Middlewares/Third_Party/LwIP/src/core/tcp.c **** 
 102:Middlewares/Third_Party/LwIP/src/core/tcp.c **** #if LWIP_TCP /* don't build if not configured for use in lwipopts.h */
 103:Middlewares/Third_Party/LwIP/src/core/tcp.c **** 
 104:Middlewares/Third_Party/LwIP/src/core/tcp.c **** #include "lwip/def.h"
 105:Middlewares/Third_Party/LwIP/src/core/tcp.c **** #include "lwip/mem.h"
 106:Middlewares/Third_Party/LwIP/src/core/tcp.c **** #include "lwip/memp.h"
 107:Middlewares/Third_Party/LwIP/src/core/tcp.c **** #include "lwip/tcp.h"
 108:Middlewares/Third_Party/LwIP/src/core/tcp.c **** #include "lwip/priv/tcp_priv.h"
 109:Middlewares/Third_Party/LwIP/src/core/tcp.c **** #include "lwip/debug.h"
 110:Middlewares/Third_Party/LwIP/src/core/tcp.c **** #include "lwip/stats.h"
 111:Middlewares/Third_Party/LwIP/src/core/tcp.c **** #include "lwip/ip6.h"
 112:Middlewares/Third_Party/LwIP/src/core/tcp.c **** #include "lwip/ip6_addr.h"
 113:Middlewares/Third_Party/LwIP/src/core/tcp.c **** #include "lwip/nd6.h"
 114:Middlewares/Third_Party/LwIP/src/core/tcp.c **** 
 115:Middlewares/Third_Party/LwIP/src/core/tcp.c **** #include <string.h>
 116:Middlewares/Third_Party/LwIP/src/core/tcp.c **** 
 117:Middlewares/Third_Party/LwIP/src/core/tcp.c **** #ifdef LWIP_HOOK_FILENAME
 118:Middlewares/Third_Party/LwIP/src/core/tcp.c **** #include LWIP_HOOK_FILENAME
 119:Middlewares/Third_Party/LwIP/src/core/tcp.c **** #endif
 120:Middlewares/Third_Party/LwIP/src/core/tcp.c **** 
 121:Middlewares/Third_Party/LwIP/src/core/tcp.c **** #ifndef TCP_LOCAL_PORT_RANGE_START
 122:Middlewares/Third_Party/LwIP/src/core/tcp.c **** /* From http://www.iana.org/assignments/port-numbers:
 123:Middlewares/Third_Party/LwIP/src/core/tcp.c ****    "The Dynamic and/or Private Ports are those from 49152 through 65535" */
 124:Middlewares/Third_Party/LwIP/src/core/tcp.c **** #define TCP_LOCAL_PORT_RANGE_START        0xc000
 125:Middlewares/Third_Party/LwIP/src/core/tcp.c **** #define TCP_LOCAL_PORT_RANGE_END          0xffff
 126:Middlewares/Third_Party/LwIP/src/core/tcp.c **** #define TCP_ENSURE_LOCAL_PORT_RANGE(port) ((u16_t)(((port) & (u16_t)~TCP_LOCAL_PORT_RANGE_START) + 
 127:Middlewares/Third_Party/LwIP/src/core/tcp.c **** #endif
 128:Middlewares/Third_Party/LwIP/src/core/tcp.c **** 
 129:Middlewares/Third_Party/LwIP/src/core/tcp.c **** #if LWIP_TCP_KEEPALIVE
 130:Middlewares/Third_Party/LwIP/src/core/tcp.c **** #define TCP_KEEP_DUR(pcb)   ((pcb)->keep_cnt * (pcb)->keep_intvl)
 131:Middlewares/Third_Party/LwIP/src/core/tcp.c **** #define TCP_KEEP_INTVL(pcb) ((pcb)->keep_intvl)
 132:Middlewares/Third_Party/LwIP/src/core/tcp.c **** #else /* LWIP_TCP_KEEPALIVE */
 133:Middlewares/Third_Party/LwIP/src/core/tcp.c **** #define TCP_KEEP_DUR(pcb)   TCP_MAXIDLE
 134:Middlewares/Third_Party/LwIP/src/core/tcp.c **** #define TCP_KEEP_INTVL(pcb) TCP_KEEPINTVL_DEFAULT
 135:Middlewares/Third_Party/LwIP/src/core/tcp.c **** #endif /* LWIP_TCP_KEEPALIVE */
 136:Middlewares/Third_Party/LwIP/src/core/tcp.c **** 
 137:Middlewares/Third_Party/LwIP/src/core/tcp.c **** /* As initial send MSS, we use TCP_MSS but limit it to 536. */
 138:Middlewares/Third_Party/LwIP/src/core/tcp.c **** #if TCP_MSS > 536
 139:Middlewares/Third_Party/LwIP/src/core/tcp.c **** #define INITIAL_MSS 536
 140:Middlewares/Third_Party/LwIP/src/core/tcp.c **** #else
 141:Middlewares/Third_Party/LwIP/src/core/tcp.c **** #define INITIAL_MSS TCP_MSS
ARM GAS  /tmp/ccFjPNuy.s 			page 6


 142:Middlewares/Third_Party/LwIP/src/core/tcp.c **** #endif
 143:Middlewares/Third_Party/LwIP/src/core/tcp.c **** 
 144:Middlewares/Third_Party/LwIP/src/core/tcp.c **** static const char *const tcp_state_str[] = {
 145:Middlewares/Third_Party/LwIP/src/core/tcp.c ****   "CLOSED",
 146:Middlewares/Third_Party/LwIP/src/core/tcp.c ****   "LISTEN",
 147:Middlewares/Third_Party/LwIP/src/core/tcp.c ****   "SYN_SENT",
 148:Middlewares/Third_Party/LwIP/src/core/tcp.c ****   "SYN_RCVD",
 149:Middlewares/Third_Party/LwIP/src/core/tcp.c ****   "ESTABLISHED",
 150:Middlewares/Third_Party/LwIP/src/core/tcp.c ****   "FIN_WAIT_1",
 151:Middlewares/Third_Party/LwIP/src/core/tcp.c ****   "FIN_WAIT_2",
 152:Middlewares/Third_Party/LwIP/src/core/tcp.c ****   "CLOSE_WAIT",
 153:Middlewares/Third_Party/LwIP/src/core/tcp.c ****   "CLOSING",
 154:Middlewares/Third_Party/LwIP/src/core/tcp.c ****   "LAST_ACK",
 155:Middlewares/Third_Party/LwIP/src/core/tcp.c ****   "TIME_WAIT"
 156:Middlewares/Third_Party/LwIP/src/core/tcp.c **** };
 157:Middlewares/Third_Party/LwIP/src/core/tcp.c **** 
 158:Middlewares/Third_Party/LwIP/src/core/tcp.c **** /* last local TCP port */
 159:Middlewares/Third_Party/LwIP/src/core/tcp.c **** static u16_t tcp_port = TCP_LOCAL_PORT_RANGE_START;
 160:Middlewares/Third_Party/LwIP/src/core/tcp.c **** 
 161:Middlewares/Third_Party/LwIP/src/core/tcp.c **** /* Incremented every coarse grained timer shot (typically every 500 ms). */
 162:Middlewares/Third_Party/LwIP/src/core/tcp.c **** u32_t tcp_ticks;
 163:Middlewares/Third_Party/LwIP/src/core/tcp.c **** static const u8_t tcp_backoff[13] =
 164:Middlewares/Third_Party/LwIP/src/core/tcp.c **** { 1, 2, 3, 4, 5, 6, 7, 7, 7, 7, 7, 7, 7};
 165:Middlewares/Third_Party/LwIP/src/core/tcp.c **** /* Times per slowtmr hits */
 166:Middlewares/Third_Party/LwIP/src/core/tcp.c **** static const u8_t tcp_persist_backoff[7] = { 3, 6, 12, 24, 48, 96, 120 };
 167:Middlewares/Third_Party/LwIP/src/core/tcp.c **** 
 168:Middlewares/Third_Party/LwIP/src/core/tcp.c **** /* The TCP PCB lists. */
 169:Middlewares/Third_Party/LwIP/src/core/tcp.c **** 
 170:Middlewares/Third_Party/LwIP/src/core/tcp.c **** /** List of all TCP PCBs bound but not yet (connected || listening) */
 171:Middlewares/Third_Party/LwIP/src/core/tcp.c **** struct tcp_pcb *tcp_bound_pcbs;
 172:Middlewares/Third_Party/LwIP/src/core/tcp.c **** /** List of all TCP PCBs in LISTEN state */
 173:Middlewares/Third_Party/LwIP/src/core/tcp.c **** union tcp_listen_pcbs_t tcp_listen_pcbs;
 174:Middlewares/Third_Party/LwIP/src/core/tcp.c **** /** List of all TCP PCBs that are in a state in which
 175:Middlewares/Third_Party/LwIP/src/core/tcp.c ****  * they accept or send data. */
 176:Middlewares/Third_Party/LwIP/src/core/tcp.c **** struct tcp_pcb *tcp_active_pcbs;
 177:Middlewares/Third_Party/LwIP/src/core/tcp.c **** /** List of all TCP PCBs in TIME-WAIT state */
 178:Middlewares/Third_Party/LwIP/src/core/tcp.c **** struct tcp_pcb *tcp_tw_pcbs;
 179:Middlewares/Third_Party/LwIP/src/core/tcp.c **** 
 180:Middlewares/Third_Party/LwIP/src/core/tcp.c **** /** An array with all (non-temporary) PCB lists, mainly used for smaller code size */
 181:Middlewares/Third_Party/LwIP/src/core/tcp.c **** struct tcp_pcb **const tcp_pcb_lists[] = {&tcp_listen_pcbs.pcbs, &tcp_bound_pcbs,
 182:Middlewares/Third_Party/LwIP/src/core/tcp.c ****          &tcp_active_pcbs, &tcp_tw_pcbs
 183:Middlewares/Third_Party/LwIP/src/core/tcp.c **** };
 184:Middlewares/Third_Party/LwIP/src/core/tcp.c **** 
 185:Middlewares/Third_Party/LwIP/src/core/tcp.c **** u8_t tcp_active_pcbs_changed;
 186:Middlewares/Third_Party/LwIP/src/core/tcp.c **** 
 187:Middlewares/Third_Party/LwIP/src/core/tcp.c **** /** Timer counter to handle calling slow-timer from tcp_tmr() */
 188:Middlewares/Third_Party/LwIP/src/core/tcp.c **** static u8_t tcp_timer;
 189:Middlewares/Third_Party/LwIP/src/core/tcp.c **** static u8_t tcp_timer_ctr;
 190:Middlewares/Third_Party/LwIP/src/core/tcp.c **** static u16_t tcp_new_port(void);
 191:Middlewares/Third_Party/LwIP/src/core/tcp.c **** 
 192:Middlewares/Third_Party/LwIP/src/core/tcp.c **** static err_t tcp_close_shutdown_fin(struct tcp_pcb *pcb);
 193:Middlewares/Third_Party/LwIP/src/core/tcp.c **** #if LWIP_TCP_PCB_NUM_EXT_ARGS
 194:Middlewares/Third_Party/LwIP/src/core/tcp.c **** static void tcp_ext_arg_invoke_callbacks_destroyed(struct tcp_pcb_ext_args *ext_args);
 195:Middlewares/Third_Party/LwIP/src/core/tcp.c **** #endif
 196:Middlewares/Third_Party/LwIP/src/core/tcp.c **** 
 197:Middlewares/Third_Party/LwIP/src/core/tcp.c **** /**
 198:Middlewares/Third_Party/LwIP/src/core/tcp.c ****  * Initialize this module.
ARM GAS  /tmp/ccFjPNuy.s 			page 7


 199:Middlewares/Third_Party/LwIP/src/core/tcp.c ****  */
 200:Middlewares/Third_Party/LwIP/src/core/tcp.c **** void
 201:Middlewares/Third_Party/LwIP/src/core/tcp.c **** tcp_init(void)
 202:Middlewares/Third_Party/LwIP/src/core/tcp.c **** {
 141              		.loc 1 202 1
 142              		.cfi_startproc
 143              		@ args = 0, pretend = 0, frame = 0
 144              		@ frame_needed = 1, uses_anonymous_args = 0
 145 0000 80B5     		push	{r7, lr}
 146              	.LCFI0:
 147              		.cfi_def_cfa_offset 8
 148              		.cfi_offset 7, -8
 149              		.cfi_offset 14, -4
 150 0002 00AF     		add	r7, sp, #0
 151              	.LCFI1:
 152              		.cfi_def_cfa_register 7
 203:Middlewares/Third_Party/LwIP/src/core/tcp.c **** #ifdef LWIP_RAND
 204:Middlewares/Third_Party/LwIP/src/core/tcp.c ****   tcp_port = TCP_ENSURE_LOCAL_PORT_RANGE(LWIP_RAND());
 153              		.loc 1 204 14
 154 0004 FFF7FEFF 		bl	rand
 155 0008 0346     		mov	r3, r0
 156 000a 9BB2     		uxth	r3, r3
 157 000c C3F30D03 		ubfx	r3, r3, #0, #14
 158 0010 9BB2     		uxth	r3, r3
 159 0012 A3F58043 		sub	r3, r3, #16384
 160 0016 9AB2     		uxth	r2, r3
 161              		.loc 1 204 12
 162 0018 014B     		ldr	r3, .L2
 163 001a 1A80     		strh	r2, [r3]	@ movhi
 205:Middlewares/Third_Party/LwIP/src/core/tcp.c **** #endif /* LWIP_RAND */
 206:Middlewares/Third_Party/LwIP/src/core/tcp.c **** }
 164              		.loc 1 206 1
 165 001c 00BF     		nop
 166 001e 80BD     		pop	{r7, pc}
 167              	.L3:
 168              		.align	2
 169              	.L2:
 170 0020 00000000 		.word	tcp_port
 171              		.cfi_endproc
 172              	.LFE133:
 174              		.section	.rodata
 175 0076 0000     		.align	2
 176              	.LC11:
 177 0078 4D696464 		.ascii	"Middlewares/Third_Party/LwIP/src/core/tcp.c\000"
 177      6C657761 
 177      7265732F 
 177      54686972 
 177      645F5061 
 178              		.align	2
 179              	.LC12:
 180 00a4 7463705F 		.ascii	"tcp_free: LISTEN\000"
 180      66726565 
 180      3A204C49 
 180      5354454E 
 180      00
 181 00b5 000000   		.align	2
 182              	.LC13:
ARM GAS  /tmp/ccFjPNuy.s 			page 8


 183 00b8 41737365 		.ascii	"Assertion \"%s\" failed at line %d in %s\012\000"
 183      7274696F 
 183      6E202225 
 183      73222066 
 183      61696C65 
 184              		.section	.text.tcp_free,"ax",%progbits
 185              		.align	1
 186              		.global	tcp_free
 187              		.syntax unified
 188              		.thumb
 189              		.thumb_func
 190              		.fpu fpv4-sp-d16
 192              	tcp_free:
 193              	.LFB134:
 207:Middlewares/Third_Party/LwIP/src/core/tcp.c **** 
 208:Middlewares/Third_Party/LwIP/src/core/tcp.c **** /** Free a tcp pcb */
 209:Middlewares/Third_Party/LwIP/src/core/tcp.c **** void
 210:Middlewares/Third_Party/LwIP/src/core/tcp.c **** tcp_free(struct tcp_pcb *pcb)
 211:Middlewares/Third_Party/LwIP/src/core/tcp.c **** {
 194              		.loc 1 211 1
 195              		.cfi_startproc
 196              		@ args = 0, pretend = 0, frame = 8
 197              		@ frame_needed = 1, uses_anonymous_args = 0
 198 0000 80B5     		push	{r7, lr}
 199              	.LCFI2:
 200              		.cfi_def_cfa_offset 8
 201              		.cfi_offset 7, -8
 202              		.cfi_offset 14, -4
 203 0002 82B0     		sub	sp, sp, #8
 204              	.LCFI3:
 205              		.cfi_def_cfa_offset 16
 206 0004 00AF     		add	r7, sp, #0
 207              	.LCFI4:
 208              		.cfi_def_cfa_register 7
 209 0006 7860     		str	r0, [r7, #4]
 212:Middlewares/Third_Party/LwIP/src/core/tcp.c ****   LWIP_ASSERT("tcp_free: LISTEN", pcb->state != LISTEN);
 210              		.loc 1 212 3
 211 0008 7B68     		ldr	r3, [r7, #4]
 212 000a 1B7D     		ldrb	r3, [r3, #20]	@ zero_extendqisi2
 213 000c 012B     		cmp	r3, #1
 214 000e 05D1     		bne	.L5
 215              		.loc 1 212 3 is_stmt 0 discriminator 1
 216 0010 064B     		ldr	r3, .L6
 217 0012 D422     		movs	r2, #212
 218 0014 0649     		ldr	r1, .L6+4
 219 0016 0748     		ldr	r0, .L6+8
 220 0018 FFF7FEFF 		bl	printf
 221              	.L5:
 213:Middlewares/Third_Party/LwIP/src/core/tcp.c **** #if LWIP_TCP_PCB_NUM_EXT_ARGS
 214:Middlewares/Third_Party/LwIP/src/core/tcp.c ****   tcp_ext_arg_invoke_callbacks_destroyed(pcb->ext_args);
 215:Middlewares/Third_Party/LwIP/src/core/tcp.c **** #endif
 216:Middlewares/Third_Party/LwIP/src/core/tcp.c ****   memp_free(MEMP_TCP_PCB, pcb);
 222              		.loc 1 216 3 is_stmt 1
 223 001c 7968     		ldr	r1, [r7, #4]
 224 001e 0120     		movs	r0, #1
 225 0020 FFF7FEFF 		bl	memp_free
 217:Middlewares/Third_Party/LwIP/src/core/tcp.c **** }
ARM GAS  /tmp/ccFjPNuy.s 			page 9


 226              		.loc 1 217 1
 227 0024 00BF     		nop
 228 0026 0837     		adds	r7, r7, #8
 229              	.LCFI5:
 230              		.cfi_def_cfa_offset 8
 231 0028 BD46     		mov	sp, r7
 232              	.LCFI6:
 233              		.cfi_def_cfa_register 13
 234              		@ sp needed
 235 002a 80BD     		pop	{r7, pc}
 236              	.L7:
 237              		.align	2
 238              	.L6:
 239 002c 78000000 		.word	.LC11
 240 0030 A4000000 		.word	.LC12
 241 0034 B8000000 		.word	.LC13
 242              		.cfi_endproc
 243              	.LFE134:
 245              		.section	.rodata
 246              		.align	2
 247              	.LC14:
 248 00e0 7463705F 		.ascii	"tcp_free_listen: !LISTEN\000"
 248      66726565 
 248      5F6C6973 
 248      74656E3A 
 248      20214C49 
 249              		.section	.text.tcp_free_listen,"ax",%progbits
 250              		.align	1
 251              		.syntax unified
 252              		.thumb
 253              		.thumb_func
 254              		.fpu fpv4-sp-d16
 256              	tcp_free_listen:
 257              	.LFB135:
 218:Middlewares/Third_Party/LwIP/src/core/tcp.c **** 
 219:Middlewares/Third_Party/LwIP/src/core/tcp.c **** /** Free a tcp listen pcb */
 220:Middlewares/Third_Party/LwIP/src/core/tcp.c **** static void
 221:Middlewares/Third_Party/LwIP/src/core/tcp.c **** tcp_free_listen(struct tcp_pcb *pcb)
 222:Middlewares/Third_Party/LwIP/src/core/tcp.c **** {
 258              		.loc 1 222 1
 259              		.cfi_startproc
 260              		@ args = 0, pretend = 0, frame = 8
 261              		@ frame_needed = 1, uses_anonymous_args = 0
 262 0000 80B5     		push	{r7, lr}
 263              	.LCFI7:
 264              		.cfi_def_cfa_offset 8
 265              		.cfi_offset 7, -8
 266              		.cfi_offset 14, -4
 267 0002 82B0     		sub	sp, sp, #8
 268              	.LCFI8:
 269              		.cfi_def_cfa_offset 16
 270 0004 00AF     		add	r7, sp, #0
 271              	.LCFI9:
 272              		.cfi_def_cfa_register 7
 273 0006 7860     		str	r0, [r7, #4]
 223:Middlewares/Third_Party/LwIP/src/core/tcp.c ****   LWIP_ASSERT("tcp_free_listen: !LISTEN", pcb->state != LISTEN);
 274              		.loc 1 223 3
ARM GAS  /tmp/ccFjPNuy.s 			page 10


 275 0008 7B68     		ldr	r3, [r7, #4]
 276 000a 1B7D     		ldrb	r3, [r3, #20]	@ zero_extendqisi2
 277 000c 012B     		cmp	r3, #1
 278 000e 05D1     		bne	.L9
 279              		.loc 1 223 3 is_stmt 0 discriminator 1
 280 0010 064B     		ldr	r3, .L10
 281 0012 DF22     		movs	r2, #223
 282 0014 0649     		ldr	r1, .L10+4
 283 0016 0748     		ldr	r0, .L10+8
 284 0018 FFF7FEFF 		bl	printf
 285              	.L9:
 224:Middlewares/Third_Party/LwIP/src/core/tcp.c **** #if LWIP_TCP_PCB_NUM_EXT_ARGS
 225:Middlewares/Third_Party/LwIP/src/core/tcp.c ****   tcp_ext_arg_invoke_callbacks_destroyed(pcb->ext_args);
 226:Middlewares/Third_Party/LwIP/src/core/tcp.c **** #endif
 227:Middlewares/Third_Party/LwIP/src/core/tcp.c ****   memp_free(MEMP_TCP_PCB_LISTEN, pcb);
 286              		.loc 1 227 3 is_stmt 1
 287 001c 7968     		ldr	r1, [r7, #4]
 288 001e 0220     		movs	r0, #2
 289 0020 FFF7FEFF 		bl	memp_free
 228:Middlewares/Third_Party/LwIP/src/core/tcp.c **** }
 290              		.loc 1 228 1
 291 0024 00BF     		nop
 292 0026 0837     		adds	r7, r7, #8
 293              	.LCFI10:
 294              		.cfi_def_cfa_offset 8
 295 0028 BD46     		mov	sp, r7
 296              	.LCFI11:
 297              		.cfi_def_cfa_register 13
 298              		@ sp needed
 299 002a 80BD     		pop	{r7, pc}
 300              	.L11:
 301              		.align	2
 302              	.L10:
 303 002c 78000000 		.word	.LC11
 304 0030 E0000000 		.word	.LC14
 305 0034 B8000000 		.word	.LC13
 306              		.cfi_endproc
 307              	.LFE135:
 309              		.section	.text.tcp_tmr,"ax",%progbits
 310              		.align	1
 311              		.global	tcp_tmr
 312              		.syntax unified
 313              		.thumb
 314              		.thumb_func
 315              		.fpu fpv4-sp-d16
 317              	tcp_tmr:
 318              	.LFB136:
 229:Middlewares/Third_Party/LwIP/src/core/tcp.c **** 
 230:Middlewares/Third_Party/LwIP/src/core/tcp.c **** /**
 231:Middlewares/Third_Party/LwIP/src/core/tcp.c ****  * Called periodically to dispatch TCP timers.
 232:Middlewares/Third_Party/LwIP/src/core/tcp.c ****  */
 233:Middlewares/Third_Party/LwIP/src/core/tcp.c **** void
 234:Middlewares/Third_Party/LwIP/src/core/tcp.c **** tcp_tmr(void)
 235:Middlewares/Third_Party/LwIP/src/core/tcp.c **** {
 319              		.loc 1 235 1
 320              		.cfi_startproc
 321              		@ args = 0, pretend = 0, frame = 0
ARM GAS  /tmp/ccFjPNuy.s 			page 11


 322              		@ frame_needed = 1, uses_anonymous_args = 0
 323 0000 80B5     		push	{r7, lr}
 324              	.LCFI12:
 325              		.cfi_def_cfa_offset 8
 326              		.cfi_offset 7, -8
 327              		.cfi_offset 14, -4
 328 0002 00AF     		add	r7, sp, #0
 329              	.LCFI13:
 330              		.cfi_def_cfa_register 7
 236:Middlewares/Third_Party/LwIP/src/core/tcp.c ****   /* Call tcp_fasttmr() every 250 ms */
 237:Middlewares/Third_Party/LwIP/src/core/tcp.c ****   tcp_fasttmr();
 331              		.loc 1 237 3
 332 0004 FFF7FEFF 		bl	tcp_fasttmr
 238:Middlewares/Third_Party/LwIP/src/core/tcp.c **** 
 239:Middlewares/Third_Party/LwIP/src/core/tcp.c ****   if (++tcp_timer & 1) {
 333              		.loc 1 239 7
 334 0008 074B     		ldr	r3, .L15
 335 000a 1B78     		ldrb	r3, [r3]	@ zero_extendqisi2
 336 000c 0133     		adds	r3, r3, #1
 337 000e DAB2     		uxtb	r2, r3
 338              		.loc 1 239 6
 339 0010 054B     		ldr	r3, .L15
 340 0012 1A70     		strb	r2, [r3]
 341              		.loc 1 239 7
 342 0014 044B     		ldr	r3, .L15
 343 0016 1B78     		ldrb	r3, [r3]	@ zero_extendqisi2
 344              		.loc 1 239 19
 345 0018 03F00103 		and	r3, r3, #1
 346              		.loc 1 239 6
 347 001c 002B     		cmp	r3, #0
 348 001e 01D0     		beq	.L14
 240:Middlewares/Third_Party/LwIP/src/core/tcp.c ****     /* Call tcp_slowtmr() every 500 ms, i.e., every other timer
 241:Middlewares/Third_Party/LwIP/src/core/tcp.c ****        tcp_tmr() is called. */
 242:Middlewares/Third_Party/LwIP/src/core/tcp.c ****     tcp_slowtmr();
 349              		.loc 1 242 5
 350 0020 FFF7FEFF 		bl	tcp_slowtmr
 351              	.L14:
 243:Middlewares/Third_Party/LwIP/src/core/tcp.c ****   }
 244:Middlewares/Third_Party/LwIP/src/core/tcp.c **** }
 352              		.loc 1 244 1
 353 0024 00BF     		nop
 354 0026 80BD     		pop	{r7, pc}
 355              	.L16:
 356              		.align	2
 357              	.L15:
 358 0028 00000000 		.word	tcp_timer
 359              		.cfi_endproc
 360              	.LFE136:
 362              		.section	.rodata
 363 00f9 000000   		.align	2
 364              	.LC15:
 365 00fc 7463705F 		.ascii	"tcp_remove_listener: invalid listener\000"
 365      72656D6F 
 365      76655F6C 
 365      69737465 
 365      6E65723A 
 366              		.section	.text.tcp_remove_listener,"ax",%progbits
ARM GAS  /tmp/ccFjPNuy.s 			page 12


 367              		.align	1
 368              		.syntax unified
 369              		.thumb
 370              		.thumb_func
 371              		.fpu fpv4-sp-d16
 373              	tcp_remove_listener:
 374              	.LFB137:
 245:Middlewares/Third_Party/LwIP/src/core/tcp.c **** 
 246:Middlewares/Third_Party/LwIP/src/core/tcp.c **** #if LWIP_CALLBACK_API || TCP_LISTEN_BACKLOG
 247:Middlewares/Third_Party/LwIP/src/core/tcp.c **** /** Called when a listen pcb is closed. Iterates one pcb list and removes the
 248:Middlewares/Third_Party/LwIP/src/core/tcp.c ****  * closed listener pcb from pcb->listener if matching.
 249:Middlewares/Third_Party/LwIP/src/core/tcp.c ****  */
 250:Middlewares/Third_Party/LwIP/src/core/tcp.c **** static void
 251:Middlewares/Third_Party/LwIP/src/core/tcp.c **** tcp_remove_listener(struct tcp_pcb *list, struct tcp_pcb_listen *lpcb)
 252:Middlewares/Third_Party/LwIP/src/core/tcp.c **** {
 375              		.loc 1 252 1
 376              		.cfi_startproc
 377              		@ args = 0, pretend = 0, frame = 16
 378              		@ frame_needed = 1, uses_anonymous_args = 0
 379 0000 80B5     		push	{r7, lr}
 380              	.LCFI14:
 381              		.cfi_def_cfa_offset 8
 382              		.cfi_offset 7, -8
 383              		.cfi_offset 14, -4
 384 0002 84B0     		sub	sp, sp, #16
 385              	.LCFI15:
 386              		.cfi_def_cfa_offset 24
 387 0004 00AF     		add	r7, sp, #0
 388              	.LCFI16:
 389              		.cfi_def_cfa_register 7
 390 0006 7860     		str	r0, [r7, #4]
 391 0008 3960     		str	r1, [r7]
 253:Middlewares/Third_Party/LwIP/src/core/tcp.c ****   struct tcp_pcb *pcb;
 254:Middlewares/Third_Party/LwIP/src/core/tcp.c **** 
 255:Middlewares/Third_Party/LwIP/src/core/tcp.c ****   LWIP_ASSERT("tcp_remove_listener: invalid listener", lpcb != NULL);
 392              		.loc 1 255 3
 393 000a 3B68     		ldr	r3, [r7]
 394 000c 002B     		cmp	r3, #0
 395 000e 05D1     		bne	.L18
 396              		.loc 1 255 3 is_stmt 0 discriminator 1
 397 0010 0D4B     		ldr	r3, .L22
 398 0012 FF22     		movs	r2, #255
 399 0014 0D49     		ldr	r1, .L22+4
 400 0016 0E48     		ldr	r0, .L22+8
 401 0018 FFF7FEFF 		bl	printf
 402              	.L18:
 256:Middlewares/Third_Party/LwIP/src/core/tcp.c **** 
 257:Middlewares/Third_Party/LwIP/src/core/tcp.c ****   for (pcb = list; pcb != NULL; pcb = pcb->next) {
 403              		.loc 1 257 12 is_stmt 1
 404 001c 7B68     		ldr	r3, [r7, #4]
 405 001e FB60     		str	r3, [r7, #12]
 406              		.loc 1 257 3
 407 0020 0AE0     		b	.L19
 408              	.L21:
 258:Middlewares/Third_Party/LwIP/src/core/tcp.c ****     if (pcb->listener == lpcb) {
 409              		.loc 1 258 12
 410 0022 FB68     		ldr	r3, [r7, #12]
ARM GAS  /tmp/ccFjPNuy.s 			page 13


 411 0024 DB6F     		ldr	r3, [r3, #124]
 412              		.loc 1 258 8
 413 0026 3A68     		ldr	r2, [r7]
 414 0028 9A42     		cmp	r2, r3
 415 002a 02D1     		bne	.L20
 259:Middlewares/Third_Party/LwIP/src/core/tcp.c ****       pcb->listener = NULL;
 416              		.loc 1 259 21
 417 002c FB68     		ldr	r3, [r7, #12]
 418 002e 0022     		movs	r2, #0
 419 0030 DA67     		str	r2, [r3, #124]
 420              	.L20:
 257:Middlewares/Third_Party/LwIP/src/core/tcp.c ****     if (pcb->listener == lpcb) {
 421              		.loc 1 257 37 discriminator 2
 422 0032 FB68     		ldr	r3, [r7, #12]
 423 0034 DB68     		ldr	r3, [r3, #12]
 424 0036 FB60     		str	r3, [r7, #12]
 425              	.L19:
 257:Middlewares/Third_Party/LwIP/src/core/tcp.c ****     if (pcb->listener == lpcb) {
 426              		.loc 1 257 3 discriminator 1
 427 0038 FB68     		ldr	r3, [r7, #12]
 428 003a 002B     		cmp	r3, #0
 429 003c F1D1     		bne	.L21
 260:Middlewares/Third_Party/LwIP/src/core/tcp.c ****     }
 261:Middlewares/Third_Party/LwIP/src/core/tcp.c ****   }
 262:Middlewares/Third_Party/LwIP/src/core/tcp.c **** }
 430              		.loc 1 262 1
 431 003e 00BF     		nop
 432 0040 1037     		adds	r7, r7, #16
 433              	.LCFI17:
 434              		.cfi_def_cfa_offset 8
 435 0042 BD46     		mov	sp, r7
 436              	.LCFI18:
 437              		.cfi_def_cfa_register 13
 438              		@ sp needed
 439 0044 80BD     		pop	{r7, pc}
 440              	.L23:
 441 0046 00BF     		.align	2
 442              	.L22:
 443 0048 78000000 		.word	.LC11
 444 004c FC000000 		.word	.LC15
 445 0050 B8000000 		.word	.LC13
 446              		.cfi_endproc
 447              	.LFE137:
 449              		.section	.rodata
 450 0122 0000     		.align	2
 451              	.LC16:
 452 0124 70636220 		.ascii	"pcb != NULL\000"
 452      213D204E 
 452      554C4C00 
 453              		.align	2
 454              	.LC17:
 455 0130 7063622D 		.ascii	"pcb->state == LISTEN\000"
 455      3E737461 
 455      7465203D 
 455      3D204C49 
 455      5354454E 
 456              		.section	.text.tcp_listen_closed,"ax",%progbits
ARM GAS  /tmp/ccFjPNuy.s 			page 14


 457              		.align	1
 458              		.syntax unified
 459              		.thumb
 460              		.thumb_func
 461              		.fpu fpv4-sp-d16
 463              	tcp_listen_closed:
 464              	.LFB138:
 263:Middlewares/Third_Party/LwIP/src/core/tcp.c **** #endif
 264:Middlewares/Third_Party/LwIP/src/core/tcp.c **** 
 265:Middlewares/Third_Party/LwIP/src/core/tcp.c **** /** Called when a listen pcb is closed. Iterates all pcb lists and removes the
 266:Middlewares/Third_Party/LwIP/src/core/tcp.c ****  * closed listener pcb from pcb->listener if matching.
 267:Middlewares/Third_Party/LwIP/src/core/tcp.c ****  */
 268:Middlewares/Third_Party/LwIP/src/core/tcp.c **** static void
 269:Middlewares/Third_Party/LwIP/src/core/tcp.c **** tcp_listen_closed(struct tcp_pcb *pcb)
 270:Middlewares/Third_Party/LwIP/src/core/tcp.c **** {
 465              		.loc 1 270 1
 466              		.cfi_startproc
 467              		@ args = 0, pretend = 0, frame = 16
 468              		@ frame_needed = 1, uses_anonymous_args = 0
 469 0000 80B5     		push	{r7, lr}
 470              	.LCFI19:
 471              		.cfi_def_cfa_offset 8
 472              		.cfi_offset 7, -8
 473              		.cfi_offset 14, -4
 474 0002 84B0     		sub	sp, sp, #16
 475              	.LCFI20:
 476              		.cfi_def_cfa_offset 24
 477 0004 00AF     		add	r7, sp, #0
 478              	.LCFI21:
 479              		.cfi_def_cfa_register 7
 480 0006 7860     		str	r0, [r7, #4]
 271:Middlewares/Third_Party/LwIP/src/core/tcp.c **** #if LWIP_CALLBACK_API || TCP_LISTEN_BACKLOG
 272:Middlewares/Third_Party/LwIP/src/core/tcp.c ****   size_t i;
 273:Middlewares/Third_Party/LwIP/src/core/tcp.c ****   LWIP_ASSERT("pcb != NULL", pcb != NULL);
 481              		.loc 1 273 3
 482 0008 7B68     		ldr	r3, [r7, #4]
 483 000a 002B     		cmp	r3, #0
 484 000c 06D1     		bne	.L25
 485              		.loc 1 273 3 is_stmt 0 discriminator 1
 486 000e 144B     		ldr	r3, .L29
 487 0010 40F21112 		movw	r2, #273
 488 0014 1349     		ldr	r1, .L29+4
 489 0016 1448     		ldr	r0, .L29+8
 490 0018 FFF7FEFF 		bl	printf
 491              	.L25:
 274:Middlewares/Third_Party/LwIP/src/core/tcp.c ****   LWIP_ASSERT("pcb->state == LISTEN", pcb->state == LISTEN);
 492              		.loc 1 274 3 is_stmt 1
 493 001c 7B68     		ldr	r3, [r7, #4]
 494 001e 1B7D     		ldrb	r3, [r3, #20]	@ zero_extendqisi2
 495 0020 012B     		cmp	r3, #1
 496 0022 06D0     		beq	.L26
 497              		.loc 1 274 3 is_stmt 0 discriminator 1
 498 0024 0E4B     		ldr	r3, .L29
 499 0026 4FF48972 		mov	r2, #274
 500 002a 1049     		ldr	r1, .L29+12
 501 002c 0E48     		ldr	r0, .L29+8
 502 002e FFF7FEFF 		bl	printf
ARM GAS  /tmp/ccFjPNuy.s 			page 15


 503              	.L26:
 275:Middlewares/Third_Party/LwIP/src/core/tcp.c ****   for (i = 1; i < LWIP_ARRAYSIZE(tcp_pcb_lists); i++) {
 504              		.loc 1 275 10 is_stmt 1
 505 0032 0123     		movs	r3, #1
 506 0034 FB60     		str	r3, [r7, #12]
 507              		.loc 1 275 3
 508 0036 0BE0     		b	.L27
 509              	.L28:
 276:Middlewares/Third_Party/LwIP/src/core/tcp.c ****     tcp_remove_listener(*tcp_pcb_lists[i], (struct tcp_pcb_listen *)pcb);
 510              		.loc 1 276 39 discriminator 3
 511 0038 0D4A     		ldr	r2, .L29+16
 512 003a FB68     		ldr	r3, [r7, #12]
 513 003c 52F82330 		ldr	r3, [r2, r3, lsl #2]
 514              		.loc 1 276 5 discriminator 3
 515 0040 1B68     		ldr	r3, [r3]
 516 0042 7968     		ldr	r1, [r7, #4]
 517 0044 1846     		mov	r0, r3
 518 0046 FFF7FEFF 		bl	tcp_remove_listener
 275:Middlewares/Third_Party/LwIP/src/core/tcp.c ****   for (i = 1; i < LWIP_ARRAYSIZE(tcp_pcb_lists); i++) {
 519              		.loc 1 275 51 discriminator 3
 520 004a FB68     		ldr	r3, [r7, #12]
 521 004c 0133     		adds	r3, r3, #1
 522 004e FB60     		str	r3, [r7, #12]
 523              	.L27:
 275:Middlewares/Third_Party/LwIP/src/core/tcp.c ****   for (i = 1; i < LWIP_ARRAYSIZE(tcp_pcb_lists); i++) {
 524              		.loc 1 275 3 discriminator 1
 525 0050 FB68     		ldr	r3, [r7, #12]
 526 0052 032B     		cmp	r3, #3
 527 0054 F0D9     		bls	.L28
 277:Middlewares/Third_Party/LwIP/src/core/tcp.c ****   }
 278:Middlewares/Third_Party/LwIP/src/core/tcp.c **** #endif
 279:Middlewares/Third_Party/LwIP/src/core/tcp.c ****   LWIP_UNUSED_ARG(pcb);
 280:Middlewares/Third_Party/LwIP/src/core/tcp.c **** }
 528              		.loc 1 280 1
 529 0056 00BF     		nop
 530 0058 1037     		adds	r7, r7, #16
 531              	.LCFI22:
 532              		.cfi_def_cfa_offset 8
 533 005a BD46     		mov	sp, r7
 534              	.LCFI23:
 535              		.cfi_def_cfa_register 13
 536              		@ sp needed
 537 005c 80BD     		pop	{r7, pc}
 538              	.L30:
 539 005e 00BF     		.align	2
 540              	.L29:
 541 0060 78000000 		.word	.LC11
 542 0064 24010000 		.word	.LC16
 543 0068 B8000000 		.word	.LC13
 544 006c 30010000 		.word	.LC17
 545 0070 00000000 		.word	tcp_pcb_lists
 546              		.cfi_endproc
 547              	.LFE138:
 549              		.section	.rodata
 550 0145 000000   		.align	2
 551              	.LC18:
 552 0148 7463705F 		.ascii	"tcp_close_shutdown: invalid pcb\000"
ARM GAS  /tmp/ccFjPNuy.s 			page 16


 552      636C6F73 
 552      655F7368 
 552      7574646F 
 552      776E3A20 
 553              		.align	2
 554              	.LC19:
 555 0168 7063622D 		.ascii	"pcb->flags & TF_RXCLOSED\000"
 555      3E666C61 
 555      67732026 
 555      2054465F 
 555      5258434C 
 556              		.section	.text.tcp_close_shutdown,"ax",%progbits
 557              		.align	1
 558              		.syntax unified
 559              		.thumb
 560              		.thumb_func
 561              		.fpu fpv4-sp-d16
 563              	tcp_close_shutdown:
 564              	.LFB139:
 281:Middlewares/Third_Party/LwIP/src/core/tcp.c **** 
 282:Middlewares/Third_Party/LwIP/src/core/tcp.c **** #if TCP_LISTEN_BACKLOG
 283:Middlewares/Third_Party/LwIP/src/core/tcp.c **** /** @ingroup tcp_raw
 284:Middlewares/Third_Party/LwIP/src/core/tcp.c ****  * Delay accepting a connection in respect to the listen backlog:
 285:Middlewares/Third_Party/LwIP/src/core/tcp.c ****  * the number of outstanding connections is increased until
 286:Middlewares/Third_Party/LwIP/src/core/tcp.c ****  * tcp_backlog_accepted() is called.
 287:Middlewares/Third_Party/LwIP/src/core/tcp.c ****  *
 288:Middlewares/Third_Party/LwIP/src/core/tcp.c ****  * ATTENTION: the caller is responsible for calling tcp_backlog_accepted()
 289:Middlewares/Third_Party/LwIP/src/core/tcp.c ****  * or else the backlog feature will get out of sync!
 290:Middlewares/Third_Party/LwIP/src/core/tcp.c ****  *
 291:Middlewares/Third_Party/LwIP/src/core/tcp.c ****  * @param pcb the connection pcb which is not fully accepted yet
 292:Middlewares/Third_Party/LwIP/src/core/tcp.c ****  */
 293:Middlewares/Third_Party/LwIP/src/core/tcp.c **** void
 294:Middlewares/Third_Party/LwIP/src/core/tcp.c **** tcp_backlog_delayed(struct tcp_pcb *pcb)
 295:Middlewares/Third_Party/LwIP/src/core/tcp.c **** {
 296:Middlewares/Third_Party/LwIP/src/core/tcp.c ****   LWIP_ASSERT("pcb != NULL", pcb != NULL);
 297:Middlewares/Third_Party/LwIP/src/core/tcp.c ****   LWIP_ASSERT_CORE_LOCKED();
 298:Middlewares/Third_Party/LwIP/src/core/tcp.c ****   if ((pcb->flags & TF_BACKLOGPEND) == 0) {
 299:Middlewares/Third_Party/LwIP/src/core/tcp.c ****     if (pcb->listener != NULL) {
 300:Middlewares/Third_Party/LwIP/src/core/tcp.c ****       pcb->listener->accepts_pending++;
 301:Middlewares/Third_Party/LwIP/src/core/tcp.c ****       LWIP_ASSERT("accepts_pending != 0", pcb->listener->accepts_pending != 0);
 302:Middlewares/Third_Party/LwIP/src/core/tcp.c ****       tcp_set_flags(pcb, TF_BACKLOGPEND);
 303:Middlewares/Third_Party/LwIP/src/core/tcp.c ****     }
 304:Middlewares/Third_Party/LwIP/src/core/tcp.c ****   }
 305:Middlewares/Third_Party/LwIP/src/core/tcp.c **** }
 306:Middlewares/Third_Party/LwIP/src/core/tcp.c **** 
 307:Middlewares/Third_Party/LwIP/src/core/tcp.c **** /** @ingroup tcp_raw
 308:Middlewares/Third_Party/LwIP/src/core/tcp.c ****  * A delayed-accept a connection is accepted (or closed/aborted): decreases
 309:Middlewares/Third_Party/LwIP/src/core/tcp.c ****  * the number of outstanding connections after calling tcp_backlog_delayed().
 310:Middlewares/Third_Party/LwIP/src/core/tcp.c ****  *
 311:Middlewares/Third_Party/LwIP/src/core/tcp.c ****  * ATTENTION: the caller is responsible for calling tcp_backlog_accepted()
 312:Middlewares/Third_Party/LwIP/src/core/tcp.c ****  * or else the backlog feature will get out of sync!
 313:Middlewares/Third_Party/LwIP/src/core/tcp.c ****  *
 314:Middlewares/Third_Party/LwIP/src/core/tcp.c ****  * @param pcb the connection pcb which is now fully accepted (or closed/aborted)
 315:Middlewares/Third_Party/LwIP/src/core/tcp.c ****  */
 316:Middlewares/Third_Party/LwIP/src/core/tcp.c **** void
 317:Middlewares/Third_Party/LwIP/src/core/tcp.c **** tcp_backlog_accepted(struct tcp_pcb *pcb)
 318:Middlewares/Third_Party/LwIP/src/core/tcp.c **** {
ARM GAS  /tmp/ccFjPNuy.s 			page 17


 319:Middlewares/Third_Party/LwIP/src/core/tcp.c ****   LWIP_ASSERT("pcb != NULL", pcb != NULL);
 320:Middlewares/Third_Party/LwIP/src/core/tcp.c ****   LWIP_ASSERT_CORE_LOCKED();
 321:Middlewares/Third_Party/LwIP/src/core/tcp.c ****   if ((pcb->flags & TF_BACKLOGPEND) != 0) {
 322:Middlewares/Third_Party/LwIP/src/core/tcp.c ****     if (pcb->listener != NULL) {
 323:Middlewares/Third_Party/LwIP/src/core/tcp.c ****       LWIP_ASSERT("accepts_pending != 0", pcb->listener->accepts_pending != 0);
 324:Middlewares/Third_Party/LwIP/src/core/tcp.c ****       pcb->listener->accepts_pending--;
 325:Middlewares/Third_Party/LwIP/src/core/tcp.c ****       tcp_clear_flags(pcb, TF_BACKLOGPEND);
 326:Middlewares/Third_Party/LwIP/src/core/tcp.c ****     }
 327:Middlewares/Third_Party/LwIP/src/core/tcp.c ****   }
 328:Middlewares/Third_Party/LwIP/src/core/tcp.c **** }
 329:Middlewares/Third_Party/LwIP/src/core/tcp.c **** #endif /* TCP_LISTEN_BACKLOG */
 330:Middlewares/Third_Party/LwIP/src/core/tcp.c **** 
 331:Middlewares/Third_Party/LwIP/src/core/tcp.c **** /**
 332:Middlewares/Third_Party/LwIP/src/core/tcp.c ****  * Closes the TX side of a connection held by the PCB.
 333:Middlewares/Third_Party/LwIP/src/core/tcp.c ****  * For tcp_close(), a RST is sent if the application didn't receive all data
 334:Middlewares/Third_Party/LwIP/src/core/tcp.c ****  * (tcp_recved() not called for all data passed to recv callback).
 335:Middlewares/Third_Party/LwIP/src/core/tcp.c ****  *
 336:Middlewares/Third_Party/LwIP/src/core/tcp.c ****  * Listening pcbs are freed and may not be referenced any more.
 337:Middlewares/Third_Party/LwIP/src/core/tcp.c ****  * Connection pcbs are freed if not yet connected and may not be referenced
 338:Middlewares/Third_Party/LwIP/src/core/tcp.c ****  * any more. If a connection is established (at least SYN received or in
 339:Middlewares/Third_Party/LwIP/src/core/tcp.c ****  * a closing state), the connection is closed, and put in a closing state.
 340:Middlewares/Third_Party/LwIP/src/core/tcp.c ****  * The pcb is then automatically freed in tcp_slowtmr(). It is therefore
 341:Middlewares/Third_Party/LwIP/src/core/tcp.c ****  * unsafe to reference it.
 342:Middlewares/Third_Party/LwIP/src/core/tcp.c ****  *
 343:Middlewares/Third_Party/LwIP/src/core/tcp.c ****  * @param pcb the tcp_pcb to close
 344:Middlewares/Third_Party/LwIP/src/core/tcp.c ****  * @return ERR_OK if connection has been closed
 345:Middlewares/Third_Party/LwIP/src/core/tcp.c ****  *         another err_t if closing failed and pcb is not freed
 346:Middlewares/Third_Party/LwIP/src/core/tcp.c ****  */
 347:Middlewares/Third_Party/LwIP/src/core/tcp.c **** static err_t
 348:Middlewares/Third_Party/LwIP/src/core/tcp.c **** tcp_close_shutdown(struct tcp_pcb *pcb, u8_t rst_on_unacked_data)
 349:Middlewares/Third_Party/LwIP/src/core/tcp.c **** {
 565              		.loc 1 349 1
 566              		.cfi_startproc
 567              		@ args = 0, pretend = 0, frame = 16
 568              		@ frame_needed = 1, uses_anonymous_args = 0
 569 0000 B0B5     		push	{r4, r5, r7, lr}
 570              	.LCFI24:
 571              		.cfi_def_cfa_offset 16
 572              		.cfi_offset 4, -16
 573              		.cfi_offset 5, -12
 574              		.cfi_offset 7, -8
 575              		.cfi_offset 14, -4
 576 0002 88B0     		sub	sp, sp, #32
 577              	.LCFI25:
 578              		.cfi_def_cfa_offset 48
 579 0004 04AF     		add	r7, sp, #16
 580              	.LCFI26:
 581              		.cfi_def_cfa 7, 32
 582 0006 7860     		str	r0, [r7, #4]
 583 0008 0B46     		mov	r3, r1
 584 000a FB70     		strb	r3, [r7, #3]
 350:Middlewares/Third_Party/LwIP/src/core/tcp.c ****   LWIP_ASSERT("tcp_close_shutdown: invalid pcb", pcb != NULL);
 585              		.loc 1 350 3
 586 000c 7B68     		ldr	r3, [r7, #4]
 587 000e 002B     		cmp	r3, #0
 588 0010 06D1     		bne	.L32
 589              		.loc 1 350 3 is_stmt 0 discriminator 1
ARM GAS  /tmp/ccFjPNuy.s 			page 18


 590 0012 614B     		ldr	r3, .L55
 591 0014 4FF4AF72 		mov	r2, #350
 592 0018 6049     		ldr	r1, .L55+4
 593 001a 6148     		ldr	r0, .L55+8
 594 001c FFF7FEFF 		bl	printf
 595              	.L32:
 351:Middlewares/Third_Party/LwIP/src/core/tcp.c **** 
 352:Middlewares/Third_Party/LwIP/src/core/tcp.c ****   if (rst_on_unacked_data && ((pcb->state == ESTABLISHED) || (pcb->state == CLOSE_WAIT))) {
 596              		.loc 1 352 6 is_stmt 1
 597 0020 FB78     		ldrb	r3, [r7, #3]	@ zero_extendqisi2
 598 0022 002B     		cmp	r3, #0
 599 0024 66D0     		beq	.L33
 600              		.loc 1 352 35 discriminator 1
 601 0026 7B68     		ldr	r3, [r7, #4]
 602 0028 1B7D     		ldrb	r3, [r3, #20]	@ zero_extendqisi2
 603              		.loc 1 352 27 discriminator 1
 604 002a 042B     		cmp	r3, #4
 605 002c 03D0     		beq	.L34
 606              		.loc 1 352 66 discriminator 2
 607 002e 7B68     		ldr	r3, [r7, #4]
 608 0030 1B7D     		ldrb	r3, [r3, #20]	@ zero_extendqisi2
 609              		.loc 1 352 59 discriminator 2
 610 0032 072B     		cmp	r3, #7
 611 0034 5ED1     		bne	.L33
 612              	.L34:
 353:Middlewares/Third_Party/LwIP/src/core/tcp.c ****     if ((pcb->refused_data != NULL) || (pcb->rcv_wnd != TCP_WND_MAX(pcb))) {
 613              		.loc 1 353 13
 614 0036 7B68     		ldr	r3, [r7, #4]
 615 0038 9B6F     		ldr	r3, [r3, #120]
 616              		.loc 1 353 8
 617 003a 002B     		cmp	r3, #0
 618 003c 04D1     		bne	.L35
 619              		.loc 1 353 44 discriminator 1
 620 003e 7B68     		ldr	r3, [r7, #4]
 621 0040 1B8D     		ldrh	r3, [r3, #40]
 622              		.loc 1 353 37 discriminator 1
 623 0042 B3F5066F 		cmp	r3, #2144
 624 0046 55D0     		beq	.L33
 625              	.L35:
 354:Middlewares/Third_Party/LwIP/src/core/tcp.c ****       /* Not all data received by application, send RST to tell the remote
 355:Middlewares/Third_Party/LwIP/src/core/tcp.c ****          side about this. */
 356:Middlewares/Third_Party/LwIP/src/core/tcp.c ****       LWIP_ASSERT("pcb->flags & TF_RXCLOSED", pcb->flags & TF_RXCLOSED);
 626              		.loc 1 356 7
 627 0048 7B68     		ldr	r3, [r7, #4]
 628 004a 5B8B     		ldrh	r3, [r3, #26]
 629 004c 03F01003 		and	r3, r3, #16
 630 0050 002B     		cmp	r3, #0
 631 0052 06D1     		bne	.L36
 632              		.loc 1 356 7 is_stmt 0 discriminator 1
 633 0054 504B     		ldr	r3, .L55
 634 0056 4FF4B272 		mov	r2, #356
 635 005a 5249     		ldr	r1, .L55+12
 636 005c 5048     		ldr	r0, .L55+8
 637 005e FFF7FEFF 		bl	printf
 638              	.L36:
 357:Middlewares/Third_Party/LwIP/src/core/tcp.c **** 
 358:Middlewares/Third_Party/LwIP/src/core/tcp.c ****       /* don't call tcp_abort here: we must not deallocate the pcb since
ARM GAS  /tmp/ccFjPNuy.s 			page 19


 359:Middlewares/Third_Party/LwIP/src/core/tcp.c ****          that might not be expected when calling tcp_close */
 360:Middlewares/Third_Party/LwIP/src/core/tcp.c ****       tcp_rst(pcb, pcb->snd_nxt, pcb->rcv_nxt, &pcb->local_ip, &pcb->remote_ip,
 639              		.loc 1 360 7 is_stmt 1
 640 0062 7B68     		ldr	r3, [r7, #4]
 641 0064 186D     		ldr	r0, [r3, #80]
 642 0066 7B68     		ldr	r3, [r7, #4]
 643 0068 5C6A     		ldr	r4, [r3, #36]
 644              		.loc 1 360 48
 645 006a 7D68     		ldr	r5, [r7, #4]
 646              		.loc 1 360 64
 647 006c 7B68     		ldr	r3, [r7, #4]
 648 006e 0433     		adds	r3, r3, #4
 649              		.loc 1 360 7
 650 0070 7A68     		ldr	r2, [r7, #4]
 651 0072 D28A     		ldrh	r2, [r2, #22]
 652 0074 7968     		ldr	r1, [r7, #4]
 653 0076 098B     		ldrh	r1, [r1, #24]
 654 0078 0291     		str	r1, [sp, #8]
 655 007a 0192     		str	r2, [sp, #4]
 656 007c 0093     		str	r3, [sp]
 657 007e 2B46     		mov	r3, r5
 658 0080 2246     		mov	r2, r4
 659 0082 0146     		mov	r1, r0
 660 0084 7868     		ldr	r0, [r7, #4]
 661 0086 FFF7FEFF 		bl	tcp_rst
 361:Middlewares/Third_Party/LwIP/src/core/tcp.c ****               pcb->local_port, pcb->remote_port);
 362:Middlewares/Third_Party/LwIP/src/core/tcp.c **** 
 363:Middlewares/Third_Party/LwIP/src/core/tcp.c ****       tcp_pcb_purge(pcb);
 662              		.loc 1 363 7
 663 008a 7868     		ldr	r0, [r7, #4]
 664 008c FFF7FEFF 		bl	tcp_pcb_purge
 364:Middlewares/Third_Party/LwIP/src/core/tcp.c ****       TCP_RMV_ACTIVE(pcb);
 665              		.loc 1 364 7
 666 0090 454B     		ldr	r3, .L55+16
 667 0092 1B68     		ldr	r3, [r3]
 668 0094 7A68     		ldr	r2, [r7, #4]
 669 0096 9A42     		cmp	r2, r3
 670 0098 05D1     		bne	.L37
 671              		.loc 1 364 7 is_stmt 0 discriminator 1
 672 009a 434B     		ldr	r3, .L55+16
 673 009c 1B68     		ldr	r3, [r3]
 674 009e DB68     		ldr	r3, [r3, #12]
 675 00a0 414A     		ldr	r2, .L55+16
 676 00a2 1360     		str	r3, [r2]
 677 00a4 13E0     		b	.L38
 678              	.L37:
 679              	.LBB2:
 680              		.loc 1 364 7 discriminator 2
 681 00a6 404B     		ldr	r3, .L55+16
 682 00a8 1B68     		ldr	r3, [r3]
 683 00aa FB60     		str	r3, [r7, #12]
 684 00ac 0CE0     		b	.L39
 685              	.L41:
 686              		.loc 1 364 7 discriminator 9
 687 00ae FB68     		ldr	r3, [r7, #12]
 688 00b0 DB68     		ldr	r3, [r3, #12]
 689 00b2 7A68     		ldr	r2, [r7, #4]
ARM GAS  /tmp/ccFjPNuy.s 			page 20


 690 00b4 9A42     		cmp	r2, r3
 691 00b6 04D1     		bne	.L40
 692              		.loc 1 364 7 discriminator 5
 693 00b8 7B68     		ldr	r3, [r7, #4]
 694 00ba DA68     		ldr	r2, [r3, #12]
 695 00bc FB68     		ldr	r3, [r7, #12]
 696 00be DA60     		str	r2, [r3, #12]
 697 00c0 05E0     		b	.L38
 698              	.L40:
 699              		.loc 1 364 7 discriminator 6
 700 00c2 FB68     		ldr	r3, [r7, #12]
 701 00c4 DB68     		ldr	r3, [r3, #12]
 702 00c6 FB60     		str	r3, [r7, #12]
 703              	.L39:
 704              		.loc 1 364 7 discriminator 8
 705 00c8 FB68     		ldr	r3, [r7, #12]
 706 00ca 002B     		cmp	r3, #0
 707 00cc EFD1     		bne	.L41
 708              	.L38:
 709              	.LBE2:
 710              		.loc 1 364 7 discriminator 10
 711 00ce 7B68     		ldr	r3, [r7, #4]
 712 00d0 0022     		movs	r2, #0
 713 00d2 DA60     		str	r2, [r3, #12]
 714 00d4 354B     		ldr	r3, .L55+20
 715 00d6 0122     		movs	r2, #1
 716 00d8 1A70     		strb	r2, [r3]
 365:Middlewares/Third_Party/LwIP/src/core/tcp.c ****       /* Deallocate the pcb since we already sent a RST for it */
 366:Middlewares/Third_Party/LwIP/src/core/tcp.c ****       if (tcp_input_pcb == pcb) {
 717              		.loc 1 366 25 is_stmt 1 discriminator 10
 718 00da 354B     		ldr	r3, .L55+24
 719 00dc 1B68     		ldr	r3, [r3]
 720              		.loc 1 366 10 discriminator 10
 721 00de 7A68     		ldr	r2, [r7, #4]
 722 00e0 9A42     		cmp	r2, r3
 723 00e2 02D1     		bne	.L42
 367:Middlewares/Third_Party/LwIP/src/core/tcp.c ****         /* prevent using a deallocated pcb: free it from tcp_input later */
 368:Middlewares/Third_Party/LwIP/src/core/tcp.c ****         tcp_trigger_input_pcb_close();
 724              		.loc 1 368 9
 725 00e4 FFF7FEFF 		bl	tcp_trigger_input_pcb_close
 726 00e8 02E0     		b	.L43
 727              	.L42:
 369:Middlewares/Third_Party/LwIP/src/core/tcp.c ****       } else {
 370:Middlewares/Third_Party/LwIP/src/core/tcp.c ****         tcp_free(pcb);
 728              		.loc 1 370 9
 729 00ea 7868     		ldr	r0, [r7, #4]
 730 00ec FFF7FEFF 		bl	tcp_free
 731              	.L43:
 371:Middlewares/Third_Party/LwIP/src/core/tcp.c ****       }
 372:Middlewares/Third_Party/LwIP/src/core/tcp.c ****       return ERR_OK;
 732              		.loc 1 372 14
 733 00f0 0023     		movs	r3, #0
 734 00f2 4DE0     		b	.L44
 735              	.L33:
 373:Middlewares/Third_Party/LwIP/src/core/tcp.c ****     }
 374:Middlewares/Third_Party/LwIP/src/core/tcp.c ****   }
 375:Middlewares/Third_Party/LwIP/src/core/tcp.c **** 
ARM GAS  /tmp/ccFjPNuy.s 			page 21


 376:Middlewares/Third_Party/LwIP/src/core/tcp.c ****   /* - states which free the pcb are handled here,
 377:Middlewares/Third_Party/LwIP/src/core/tcp.c ****      - states which send FIN and change state are handled in tcp_close_shutdown_fin() */
 378:Middlewares/Third_Party/LwIP/src/core/tcp.c ****   switch (pcb->state) {
 736              		.loc 1 378 14
 737 00f4 7B68     		ldr	r3, [r7, #4]
 738 00f6 1B7D     		ldrb	r3, [r3, #20]	@ zero_extendqisi2
 739              		.loc 1 378 3
 740 00f8 012B     		cmp	r3, #1
 741 00fa 2DD0     		beq	.L45
 742 00fc 022B     		cmp	r3, #2
 743 00fe 36D0     		beq	.L46
 744 0100 002B     		cmp	r3, #0
 745 0102 3FD1     		bne	.L47
 379:Middlewares/Third_Party/LwIP/src/core/tcp.c ****     case CLOSED:
 380:Middlewares/Third_Party/LwIP/src/core/tcp.c ****       /* Closing a pcb in the CLOSED state might seem erroneous,
 381:Middlewares/Third_Party/LwIP/src/core/tcp.c ****        * however, it is in this state once allocated and as yet unused
 382:Middlewares/Third_Party/LwIP/src/core/tcp.c ****        * and the user needs some way to free it should the need arise.
 383:Middlewares/Third_Party/LwIP/src/core/tcp.c ****        * Calling tcp_close() with a pcb that has already been closed, (i.e. twice)
 384:Middlewares/Third_Party/LwIP/src/core/tcp.c ****        * or for a pcb that has been used and then entered the CLOSED state
 385:Middlewares/Third_Party/LwIP/src/core/tcp.c ****        * is erroneous, but this should never happen as the pcb has in those cases
 386:Middlewares/Third_Party/LwIP/src/core/tcp.c ****        * been freed, and so any remaining handles are bogus. */
 387:Middlewares/Third_Party/LwIP/src/core/tcp.c ****       if (pcb->local_port != 0) {
 746              		.loc 1 387 14
 747 0104 7B68     		ldr	r3, [r7, #4]
 748 0106 DB8A     		ldrh	r3, [r3, #22]
 749              		.loc 1 387 10
 750 0108 002B     		cmp	r3, #0
 751 010a 21D0     		beq	.L48
 388:Middlewares/Third_Party/LwIP/src/core/tcp.c ****         TCP_RMV(&tcp_bound_pcbs, pcb);
 752              		.loc 1 388 9
 753 010c 294B     		ldr	r3, .L55+28
 754 010e 1B68     		ldr	r3, [r3]
 755 0110 7A68     		ldr	r2, [r7, #4]
 756 0112 9A42     		cmp	r2, r3
 757 0114 05D1     		bne	.L49
 758              		.loc 1 388 9 is_stmt 0 discriminator 1
 759 0116 274B     		ldr	r3, .L55+28
 760 0118 1B68     		ldr	r3, [r3]
 761 011a DB68     		ldr	r3, [r3, #12]
 762 011c 254A     		ldr	r2, .L55+28
 763 011e 1360     		str	r3, [r2]
 764 0120 13E0     		b	.L50
 765              	.L49:
 766              	.LBB3:
 767              		.loc 1 388 9 discriminator 2
 768 0122 244B     		ldr	r3, .L55+28
 769 0124 1B68     		ldr	r3, [r3]
 770 0126 BB60     		str	r3, [r7, #8]
 771 0128 0CE0     		b	.L51
 772              	.L53:
 773              		.loc 1 388 9 discriminator 9
 774 012a BB68     		ldr	r3, [r7, #8]
 775 012c DB68     		ldr	r3, [r3, #12]
 776 012e 7A68     		ldr	r2, [r7, #4]
 777 0130 9A42     		cmp	r2, r3
 778 0132 04D1     		bne	.L52
 779              		.loc 1 388 9 discriminator 5
ARM GAS  /tmp/ccFjPNuy.s 			page 22


 780 0134 7B68     		ldr	r3, [r7, #4]
 781 0136 DA68     		ldr	r2, [r3, #12]
 782 0138 BB68     		ldr	r3, [r7, #8]
 783 013a DA60     		str	r2, [r3, #12]
 784 013c 05E0     		b	.L50
 785              	.L52:
 786              		.loc 1 388 9 discriminator 6
 787 013e BB68     		ldr	r3, [r7, #8]
 788 0140 DB68     		ldr	r3, [r3, #12]
 789 0142 BB60     		str	r3, [r7, #8]
 790              	.L51:
 791              		.loc 1 388 9 discriminator 8
 792 0144 BB68     		ldr	r3, [r7, #8]
 793 0146 002B     		cmp	r3, #0
 794 0148 EFD1     		bne	.L53
 795              	.L50:
 796              	.LBE3:
 797              		.loc 1 388 9 discriminator 10
 798 014a 7B68     		ldr	r3, [r7, #4]
 799 014c 0022     		movs	r2, #0
 800 014e DA60     		str	r2, [r3, #12]
 801              	.L48:
 389:Middlewares/Third_Party/LwIP/src/core/tcp.c ****       }
 390:Middlewares/Third_Party/LwIP/src/core/tcp.c ****       tcp_free(pcb);
 802              		.loc 1 390 7 is_stmt 1
 803 0150 7868     		ldr	r0, [r7, #4]
 804 0152 FFF7FEFF 		bl	tcp_free
 391:Middlewares/Third_Party/LwIP/src/core/tcp.c ****       break;
 805              		.loc 1 391 7
 806 0156 1AE0     		b	.L54
 807              	.L45:
 392:Middlewares/Third_Party/LwIP/src/core/tcp.c ****     case LISTEN:
 393:Middlewares/Third_Party/LwIP/src/core/tcp.c ****       tcp_listen_closed(pcb);
 808              		.loc 1 393 7
 809 0158 7868     		ldr	r0, [r7, #4]
 810 015a FFF7FEFF 		bl	tcp_listen_closed
 394:Middlewares/Third_Party/LwIP/src/core/tcp.c ****       tcp_pcb_remove(&tcp_listen_pcbs.pcbs, pcb);
 811              		.loc 1 394 7
 812 015e 7968     		ldr	r1, [r7, #4]
 813 0160 1548     		ldr	r0, .L55+32
 814 0162 FFF7FEFF 		bl	tcp_pcb_remove
 395:Middlewares/Third_Party/LwIP/src/core/tcp.c ****       tcp_free_listen(pcb);
 815              		.loc 1 395 7
 816 0166 7868     		ldr	r0, [r7, #4]
 817 0168 FFF7FEFF 		bl	tcp_free_listen
 396:Middlewares/Third_Party/LwIP/src/core/tcp.c ****       break;
 818              		.loc 1 396 7
 819 016c 0FE0     		b	.L54
 820              	.L46:
 397:Middlewares/Third_Party/LwIP/src/core/tcp.c ****     case SYN_SENT:
 398:Middlewares/Third_Party/LwIP/src/core/tcp.c ****       TCP_PCB_REMOVE_ACTIVE(pcb);
 821              		.loc 1 398 7
 822 016e 7968     		ldr	r1, [r7, #4]
 823 0170 0D48     		ldr	r0, .L55+16
 824 0172 FFF7FEFF 		bl	tcp_pcb_remove
 825 0176 0D4B     		ldr	r3, .L55+20
 826 0178 0122     		movs	r2, #1
ARM GAS  /tmp/ccFjPNuy.s 			page 23


 827 017a 1A70     		strb	r2, [r3]
 399:Middlewares/Third_Party/LwIP/src/core/tcp.c ****       tcp_free(pcb);
 828              		.loc 1 399 7
 829 017c 7868     		ldr	r0, [r7, #4]
 830 017e FFF7FEFF 		bl	tcp_free
 400:Middlewares/Third_Party/LwIP/src/core/tcp.c ****       MIB2_STATS_INC(mib2.tcpattemptfails);
 401:Middlewares/Third_Party/LwIP/src/core/tcp.c ****       break;
 831              		.loc 1 401 7
 832 0182 04E0     		b	.L54
 833              	.L47:
 402:Middlewares/Third_Party/LwIP/src/core/tcp.c ****     default:
 403:Middlewares/Third_Party/LwIP/src/core/tcp.c ****       return tcp_close_shutdown_fin(pcb);
 834              		.loc 1 403 14
 835 0184 7868     		ldr	r0, [r7, #4]
 836 0186 FFF7FEFF 		bl	tcp_close_shutdown_fin
 837 018a 0346     		mov	r3, r0
 838 018c 00E0     		b	.L44
 839              	.L54:
 404:Middlewares/Third_Party/LwIP/src/core/tcp.c ****   }
 405:Middlewares/Third_Party/LwIP/src/core/tcp.c ****   return ERR_OK;
 840              		.loc 1 405 10
 841 018e 0023     		movs	r3, #0
 842              	.L44:
 406:Middlewares/Third_Party/LwIP/src/core/tcp.c **** }
 843              		.loc 1 406 1
 844 0190 1846     		mov	r0, r3
 845 0192 1037     		adds	r7, r7, #16
 846              	.LCFI27:
 847              		.cfi_def_cfa_offset 16
 848 0194 BD46     		mov	sp, r7
 849              	.LCFI28:
 850              		.cfi_def_cfa_register 13
 851              		@ sp needed
 852 0196 B0BD     		pop	{r4, r5, r7, pc}
 853              	.L56:
 854              		.align	2
 855              	.L55:
 856 0198 78000000 		.word	.LC11
 857 019c 48010000 		.word	.LC18
 858 01a0 B8000000 		.word	.LC13
 859 01a4 68010000 		.word	.LC19
 860 01a8 00000000 		.word	tcp_active_pcbs
 861 01ac 00000000 		.word	tcp_active_pcbs_changed
 862 01b0 00000000 		.word	tcp_input_pcb
 863 01b4 00000000 		.word	tcp_bound_pcbs
 864 01b8 00000000 		.word	tcp_listen_pcbs
 865              		.cfi_endproc
 866              	.LFE139:
 868              		.section	.text.tcp_close_shutdown_fin,"ax",%progbits
 869              		.align	1
 870              		.syntax unified
 871              		.thumb
 872              		.thumb_func
 873              		.fpu fpv4-sp-d16
 875              	tcp_close_shutdown_fin:
 876              	.LFB140:
 407:Middlewares/Third_Party/LwIP/src/core/tcp.c **** 
ARM GAS  /tmp/ccFjPNuy.s 			page 24


 408:Middlewares/Third_Party/LwIP/src/core/tcp.c **** static err_t
 409:Middlewares/Third_Party/LwIP/src/core/tcp.c **** tcp_close_shutdown_fin(struct tcp_pcb *pcb)
 410:Middlewares/Third_Party/LwIP/src/core/tcp.c **** {
 877              		.loc 1 410 1
 878              		.cfi_startproc
 879              		@ args = 0, pretend = 0, frame = 16
 880              		@ frame_needed = 1, uses_anonymous_args = 0
 881 0000 80B5     		push	{r7, lr}
 882              	.LCFI29:
 883              		.cfi_def_cfa_offset 8
 884              		.cfi_offset 7, -8
 885              		.cfi_offset 14, -4
 886 0002 84B0     		sub	sp, sp, #16
 887              	.LCFI30:
 888              		.cfi_def_cfa_offset 24
 889 0004 00AF     		add	r7, sp, #0
 890              	.LCFI31:
 891              		.cfi_def_cfa_register 7
 892 0006 7860     		str	r0, [r7, #4]
 411:Middlewares/Third_Party/LwIP/src/core/tcp.c ****   err_t err;
 412:Middlewares/Third_Party/LwIP/src/core/tcp.c ****   LWIP_ASSERT("pcb != NULL", pcb != NULL);
 893              		.loc 1 412 3
 894 0008 7B68     		ldr	r3, [r7, #4]
 895 000a 002B     		cmp	r3, #0
 896 000c 06D1     		bne	.L58
 897              		.loc 1 412 3 is_stmt 0 discriminator 1
 898 000e 2C4B     		ldr	r3, .L72
 899 0010 4FF4CE72 		mov	r2, #412
 900 0014 2B49     		ldr	r1, .L72+4
 901 0016 2C48     		ldr	r0, .L72+8
 902 0018 FFF7FEFF 		bl	printf
 903              	.L58:
 413:Middlewares/Third_Party/LwIP/src/core/tcp.c **** 
 414:Middlewares/Third_Party/LwIP/src/core/tcp.c ****   switch (pcb->state) {
 904              		.loc 1 414 14 is_stmt 1
 905 001c 7B68     		ldr	r3, [r7, #4]
 906 001e 1B7D     		ldrb	r3, [r3, #20]	@ zero_extendqisi2
 907              		.loc 1 414 3
 908 0020 042B     		cmp	r3, #4
 909 0022 10D0     		beq	.L59
 910 0024 072B     		cmp	r3, #7
 911 0026 1BD0     		beq	.L60
 912 0028 032B     		cmp	r3, #3
 913 002a 26D1     		bne	.L61
 415:Middlewares/Third_Party/LwIP/src/core/tcp.c ****     case SYN_RCVD:
 416:Middlewares/Third_Party/LwIP/src/core/tcp.c ****       err = tcp_send_fin(pcb);
 914              		.loc 1 416 13
 915 002c 7868     		ldr	r0, [r7, #4]
 916 002e FFF7FEFF 		bl	tcp_send_fin
 917 0032 0346     		mov	r3, r0
 918 0034 FB73     		strb	r3, [r7, #15]
 417:Middlewares/Third_Party/LwIP/src/core/tcp.c ****       if (err == ERR_OK) {
 919              		.loc 1 417 10
 920 0036 97F90F30 		ldrsb	r3, [r7, #15]
 921 003a 002B     		cmp	r3, #0
 922 003c 1FD1     		bne	.L69
 418:Middlewares/Third_Party/LwIP/src/core/tcp.c ****         tcp_backlog_accepted(pcb);
ARM GAS  /tmp/ccFjPNuy.s 			page 25


 419:Middlewares/Third_Party/LwIP/src/core/tcp.c ****         MIB2_STATS_INC(mib2.tcpattemptfails);
 420:Middlewares/Third_Party/LwIP/src/core/tcp.c ****         pcb->state = FIN_WAIT_1;
 923              		.loc 1 420 20
 924 003e 7B68     		ldr	r3, [r7, #4]
 925 0040 0522     		movs	r2, #5
 926 0042 1A75     		strb	r2, [r3, #20]
 421:Middlewares/Third_Party/LwIP/src/core/tcp.c ****       }
 422:Middlewares/Third_Party/LwIP/src/core/tcp.c ****       break;
 927              		.loc 1 422 7
 928 0044 1BE0     		b	.L69
 929              	.L59:
 423:Middlewares/Third_Party/LwIP/src/core/tcp.c ****     case ESTABLISHED:
 424:Middlewares/Third_Party/LwIP/src/core/tcp.c ****       err = tcp_send_fin(pcb);
 930              		.loc 1 424 13
 931 0046 7868     		ldr	r0, [r7, #4]
 932 0048 FFF7FEFF 		bl	tcp_send_fin
 933 004c 0346     		mov	r3, r0
 934 004e FB73     		strb	r3, [r7, #15]
 425:Middlewares/Third_Party/LwIP/src/core/tcp.c ****       if (err == ERR_OK) {
 935              		.loc 1 425 10
 936 0050 97F90F30 		ldrsb	r3, [r7, #15]
 937 0054 002B     		cmp	r3, #0
 938 0056 14D1     		bne	.L70
 426:Middlewares/Third_Party/LwIP/src/core/tcp.c ****         MIB2_STATS_INC(mib2.tcpestabresets);
 427:Middlewares/Third_Party/LwIP/src/core/tcp.c ****         pcb->state = FIN_WAIT_1;
 939              		.loc 1 427 20
 940 0058 7B68     		ldr	r3, [r7, #4]
 941 005a 0522     		movs	r2, #5
 942 005c 1A75     		strb	r2, [r3, #20]
 428:Middlewares/Third_Party/LwIP/src/core/tcp.c ****       }
 429:Middlewares/Third_Party/LwIP/src/core/tcp.c ****       break;
 943              		.loc 1 429 7
 944 005e 10E0     		b	.L70
 945              	.L60:
 430:Middlewares/Third_Party/LwIP/src/core/tcp.c ****     case CLOSE_WAIT:
 431:Middlewares/Third_Party/LwIP/src/core/tcp.c ****       err = tcp_send_fin(pcb);
 946              		.loc 1 431 13
 947 0060 7868     		ldr	r0, [r7, #4]
 948 0062 FFF7FEFF 		bl	tcp_send_fin
 949 0066 0346     		mov	r3, r0
 950 0068 FB73     		strb	r3, [r7, #15]
 432:Middlewares/Third_Party/LwIP/src/core/tcp.c ****       if (err == ERR_OK) {
 951              		.loc 1 432 10
 952 006a 97F90F30 		ldrsb	r3, [r7, #15]
 953 006e 002B     		cmp	r3, #0
 954 0070 09D1     		bne	.L71
 433:Middlewares/Third_Party/LwIP/src/core/tcp.c ****         MIB2_STATS_INC(mib2.tcpestabresets);
 434:Middlewares/Third_Party/LwIP/src/core/tcp.c ****         pcb->state = LAST_ACK;
 955              		.loc 1 434 20
 956 0072 7B68     		ldr	r3, [r7, #4]
 957 0074 0922     		movs	r2, #9
 958 0076 1A75     		strb	r2, [r3, #20]
 435:Middlewares/Third_Party/LwIP/src/core/tcp.c ****       }
 436:Middlewares/Third_Party/LwIP/src/core/tcp.c ****       break;
 959              		.loc 1 436 7
 960 0078 05E0     		b	.L71
 961              	.L61:
ARM GAS  /tmp/ccFjPNuy.s 			page 26


 437:Middlewares/Third_Party/LwIP/src/core/tcp.c ****     default:
 438:Middlewares/Third_Party/LwIP/src/core/tcp.c ****       /* Has already been closed, do nothing. */
 439:Middlewares/Third_Party/LwIP/src/core/tcp.c ****       return ERR_OK;
 962              		.loc 1 439 14
 963 007a 0023     		movs	r3, #0
 964 007c 1CE0     		b	.L66
 965              	.L69:
 422:Middlewares/Third_Party/LwIP/src/core/tcp.c ****     case ESTABLISHED:
 966              		.loc 1 422 7
 967 007e 00BF     		nop
 968 0080 02E0     		b	.L63
 969              	.L70:
 429:Middlewares/Third_Party/LwIP/src/core/tcp.c ****     case CLOSE_WAIT:
 970              		.loc 1 429 7
 971 0082 00BF     		nop
 972 0084 00E0     		b	.L63
 973              	.L71:
 436:Middlewares/Third_Party/LwIP/src/core/tcp.c ****     default:
 974              		.loc 1 436 7
 975 0086 00BF     		nop
 976              	.L63:
 440:Middlewares/Third_Party/LwIP/src/core/tcp.c ****   }
 441:Middlewares/Third_Party/LwIP/src/core/tcp.c **** 
 442:Middlewares/Third_Party/LwIP/src/core/tcp.c ****   if (err == ERR_OK) {
 977              		.loc 1 442 6
 978 0088 97F90F30 		ldrsb	r3, [r7, #15]
 979 008c 002B     		cmp	r3, #0
 980 008e 03D1     		bne	.L67
 443:Middlewares/Third_Party/LwIP/src/core/tcp.c ****     /* To ensure all data has been sent when tcp_close returns, we have
 444:Middlewares/Third_Party/LwIP/src/core/tcp.c ****        to make sure tcp_output doesn't fail.
 445:Middlewares/Third_Party/LwIP/src/core/tcp.c ****        Since we don't really have to ensure all data has been sent when tcp_close
 446:Middlewares/Third_Party/LwIP/src/core/tcp.c ****        returns (unsent data is sent from tcp timer functions, also), we don't care
 447:Middlewares/Third_Party/LwIP/src/core/tcp.c ****        for the return value of tcp_output for now. */
 448:Middlewares/Third_Party/LwIP/src/core/tcp.c ****     tcp_output(pcb);
 981              		.loc 1 448 5
 982 0090 7868     		ldr	r0, [r7, #4]
 983 0092 FFF7FEFF 		bl	tcp_output
 984 0096 0DE0     		b	.L68
 985              	.L67:
 449:Middlewares/Third_Party/LwIP/src/core/tcp.c ****   } else if (err == ERR_MEM) {
 986              		.loc 1 449 13
 987 0098 97F90F30 		ldrsb	r3, [r7, #15]
 988 009c B3F1FF3F 		cmp	r3, #-1
 989 00a0 08D1     		bne	.L68
 450:Middlewares/Third_Party/LwIP/src/core/tcp.c ****     /* Mark this pcb for closing. Closing is retried from tcp_tmr. */
 451:Middlewares/Third_Party/LwIP/src/core/tcp.c ****     tcp_set_flags(pcb, TF_CLOSEPEND);
 990              		.loc 1 451 5
 991 00a2 7B68     		ldr	r3, [r7, #4]
 992 00a4 5B8B     		ldrh	r3, [r3, #26]
 993 00a6 43F00803 		orr	r3, r3, #8
 994 00aa 9AB2     		uxth	r2, r3
 995 00ac 7B68     		ldr	r3, [r7, #4]
 996 00ae 5A83     		strh	r2, [r3, #26]	@ movhi
 452:Middlewares/Third_Party/LwIP/src/core/tcp.c ****     /* We have to return ERR_OK from here to indicate to the callers that this
 453:Middlewares/Third_Party/LwIP/src/core/tcp.c ****        pcb should not be used any more as it will be freed soon via tcp_tmr.
 454:Middlewares/Third_Party/LwIP/src/core/tcp.c ****        This is OK here since sending FIN does not guarantee a time frime for
 455:Middlewares/Third_Party/LwIP/src/core/tcp.c ****        actually freeing the pcb, either (it is left in closure states for
ARM GAS  /tmp/ccFjPNuy.s 			page 27


 456:Middlewares/Third_Party/LwIP/src/core/tcp.c ****        remote ACK or timeout) */
 457:Middlewares/Third_Party/LwIP/src/core/tcp.c ****     return ERR_OK;
 997              		.loc 1 457 12
 998 00b0 0023     		movs	r3, #0
 999 00b2 01E0     		b	.L66
 1000              	.L68:
 458:Middlewares/Third_Party/LwIP/src/core/tcp.c ****   }
 459:Middlewares/Third_Party/LwIP/src/core/tcp.c ****   return err;
 1001              		.loc 1 459 10
 1002 00b4 97F90F30 		ldrsb	r3, [r7, #15]
 1003              	.L66:
 460:Middlewares/Third_Party/LwIP/src/core/tcp.c **** }
 1004              		.loc 1 460 1
 1005 00b8 1846     		mov	r0, r3
 1006 00ba 1037     		adds	r7, r7, #16
 1007              	.LCFI32:
 1008              		.cfi_def_cfa_offset 8
 1009 00bc BD46     		mov	sp, r7
 1010              	.LCFI33:
 1011              		.cfi_def_cfa_register 13
 1012              		@ sp needed
 1013 00be 80BD     		pop	{r7, pc}
 1014              	.L73:
 1015              		.align	2
 1016              	.L72:
 1017 00c0 78000000 		.word	.LC11
 1018 00c4 24010000 		.word	.LC16
 1019 00c8 B8000000 		.word	.LC13
 1020              		.cfi_endproc
 1021              	.LFE140:
 1023              		.section	.rodata
 1024 0181 000000   		.align	2
 1025              	.LC20:
 1026 0184 7463705F 		.ascii	"tcp_close: invalid pcb\000"
 1026      636C6F73 
 1026      653A2069 
 1026      6E76616C 
 1026      69642070 
 1027              		.section	.text.tcp_close,"ax",%progbits
 1028              		.align	1
 1029              		.global	tcp_close
 1030              		.syntax unified
 1031              		.thumb
 1032              		.thumb_func
 1033              		.fpu fpv4-sp-d16
 1035              	tcp_close:
 1036              	.LFB141:
 461:Middlewares/Third_Party/LwIP/src/core/tcp.c **** 
 462:Middlewares/Third_Party/LwIP/src/core/tcp.c **** /**
 463:Middlewares/Third_Party/LwIP/src/core/tcp.c ****  * @ingroup tcp_raw
 464:Middlewares/Third_Party/LwIP/src/core/tcp.c ****  * Closes the connection held by the PCB.
 465:Middlewares/Third_Party/LwIP/src/core/tcp.c ****  *
 466:Middlewares/Third_Party/LwIP/src/core/tcp.c ****  * Listening pcbs are freed and may not be referenced any more.
 467:Middlewares/Third_Party/LwIP/src/core/tcp.c ****  * Connection pcbs are freed if not yet connected and may not be referenced
 468:Middlewares/Third_Party/LwIP/src/core/tcp.c ****  * any more. If a connection is established (at least SYN received or in
 469:Middlewares/Third_Party/LwIP/src/core/tcp.c ****  * a closing state), the connection is closed, and put in a closing state.
 470:Middlewares/Third_Party/LwIP/src/core/tcp.c ****  * The pcb is then automatically freed in tcp_slowtmr(). It is therefore
ARM GAS  /tmp/ccFjPNuy.s 			page 28


 471:Middlewares/Third_Party/LwIP/src/core/tcp.c ****  * unsafe to reference it (unless an error is returned).
 472:Middlewares/Third_Party/LwIP/src/core/tcp.c ****  * 
 473:Middlewares/Third_Party/LwIP/src/core/tcp.c ****  * The function may return ERR_MEM if no memory
 474:Middlewares/Third_Party/LwIP/src/core/tcp.c ****  * was available for closing the connection. If so, the application
 475:Middlewares/Third_Party/LwIP/src/core/tcp.c ****  * should wait and try again either by using the acknowledgment
 476:Middlewares/Third_Party/LwIP/src/core/tcp.c ****  * callback or the polling functionality. If the close succeeds, the
 477:Middlewares/Third_Party/LwIP/src/core/tcp.c ****  * function returns ERR_OK.
 478:Middlewares/Third_Party/LwIP/src/core/tcp.c ****  *
 479:Middlewares/Third_Party/LwIP/src/core/tcp.c ****  * @param pcb the tcp_pcb to close
 480:Middlewares/Third_Party/LwIP/src/core/tcp.c ****  * @return ERR_OK if connection has been closed
 481:Middlewares/Third_Party/LwIP/src/core/tcp.c ****  *         another err_t if closing failed and pcb is not freed
 482:Middlewares/Third_Party/LwIP/src/core/tcp.c ****  */
 483:Middlewares/Third_Party/LwIP/src/core/tcp.c **** err_t
 484:Middlewares/Third_Party/LwIP/src/core/tcp.c **** tcp_close(struct tcp_pcb *pcb)
 485:Middlewares/Third_Party/LwIP/src/core/tcp.c **** {
 1037              		.loc 1 485 1
 1038              		.cfi_startproc
 1039              		@ args = 0, pretend = 0, frame = 8
 1040              		@ frame_needed = 1, uses_anonymous_args = 0
 1041 0000 80B5     		push	{r7, lr}
 1042              	.LCFI34:
 1043              		.cfi_def_cfa_offset 8
 1044              		.cfi_offset 7, -8
 1045              		.cfi_offset 14, -4
 1046 0002 82B0     		sub	sp, sp, #8
 1047              	.LCFI35:
 1048              		.cfi_def_cfa_offset 16
 1049 0004 00AF     		add	r7, sp, #0
 1050              	.LCFI36:
 1051              		.cfi_def_cfa_register 7
 1052 0006 7860     		str	r0, [r7, #4]
 486:Middlewares/Third_Party/LwIP/src/core/tcp.c ****   LWIP_ASSERT_CORE_LOCKED();
 487:Middlewares/Third_Party/LwIP/src/core/tcp.c **** 
 488:Middlewares/Third_Party/LwIP/src/core/tcp.c ****   LWIP_ERROR("tcp_close: invalid pcb", pcb != NULL, return ERR_ARG);
 1053              		.loc 1 488 3
 1054 0008 7B68     		ldr	r3, [r7, #4]
 1055 000a 002B     		cmp	r3, #0
 1056 000c 09D1     		bne	.L75
 1057              		.loc 1 488 3 is_stmt 0 discriminator 1
 1058 000e 0F4B     		ldr	r3, .L78
 1059 0010 4FF4F472 		mov	r2, #488
 1060 0014 0E49     		ldr	r1, .L78+4
 1061 0016 0F48     		ldr	r0, .L78+8
 1062 0018 FFF7FEFF 		bl	printf
 1063 001c 6FF00F03 		mvn	r3, #15
 1064 0020 0FE0     		b	.L76
 1065              	.L75:
 489:Middlewares/Third_Party/LwIP/src/core/tcp.c ****   LWIP_DEBUGF(TCP_DEBUG, ("tcp_close: closing in "));
 490:Middlewares/Third_Party/LwIP/src/core/tcp.c **** 
 491:Middlewares/Third_Party/LwIP/src/core/tcp.c ****   tcp_debug_print_state(pcb->state);
 492:Middlewares/Third_Party/LwIP/src/core/tcp.c **** 
 493:Middlewares/Third_Party/LwIP/src/core/tcp.c ****   if (pcb->state != LISTEN) {
 1066              		.loc 1 493 10 is_stmt 1
 1067 0022 7B68     		ldr	r3, [r7, #4]
 1068 0024 1B7D     		ldrb	r3, [r3, #20]	@ zero_extendqisi2
 1069              		.loc 1 493 6
 1070 0026 012B     		cmp	r3, #1
ARM GAS  /tmp/ccFjPNuy.s 			page 29


 1071 0028 06D0     		beq	.L77
 494:Middlewares/Third_Party/LwIP/src/core/tcp.c ****     /* Set a flag not to receive any more data... */
 495:Middlewares/Third_Party/LwIP/src/core/tcp.c ****     tcp_set_flags(pcb, TF_RXCLOSED);
 1072              		.loc 1 495 5
 1073 002a 7B68     		ldr	r3, [r7, #4]
 1074 002c 5B8B     		ldrh	r3, [r3, #26]
 1075 002e 43F01003 		orr	r3, r3, #16
 1076 0032 9AB2     		uxth	r2, r3
 1077 0034 7B68     		ldr	r3, [r7, #4]
 1078 0036 5A83     		strh	r2, [r3, #26]	@ movhi
 1079              	.L77:
 496:Middlewares/Third_Party/LwIP/src/core/tcp.c ****   }
 497:Middlewares/Third_Party/LwIP/src/core/tcp.c ****   /* ... and close */
 498:Middlewares/Third_Party/LwIP/src/core/tcp.c ****   return tcp_close_shutdown(pcb, 1);
 1080              		.loc 1 498 10
 1081 0038 0121     		movs	r1, #1
 1082 003a 7868     		ldr	r0, [r7, #4]
 1083 003c FFF7FEFF 		bl	tcp_close_shutdown
 1084 0040 0346     		mov	r3, r0
 1085              	.L76:
 499:Middlewares/Third_Party/LwIP/src/core/tcp.c **** }
 1086              		.loc 1 499 1
 1087 0042 1846     		mov	r0, r3
 1088 0044 0837     		adds	r7, r7, #8
 1089              	.LCFI37:
 1090              		.cfi_def_cfa_offset 8
 1091 0046 BD46     		mov	sp, r7
 1092              	.LCFI38:
 1093              		.cfi_def_cfa_register 13
 1094              		@ sp needed
 1095 0048 80BD     		pop	{r7, pc}
 1096              	.L79:
 1097 004a 00BF     		.align	2
 1098              	.L78:
 1099 004c 78000000 		.word	.LC11
 1100 0050 84010000 		.word	.LC20
 1101 0054 B8000000 		.word	.LC13
 1102              		.cfi_endproc
 1103              	.LFE141:
 1105              		.section	.rodata
 1106 019b 00       		.align	2
 1107              	.LC21:
 1108 019c 7463705F 		.ascii	"tcp_shutdown: invalid pcb\000"
 1108      73687574 
 1108      646F776E 
 1108      3A20696E 
 1108      76616C69 
 1109              		.section	.text.tcp_shutdown,"ax",%progbits
 1110              		.align	1
 1111              		.global	tcp_shutdown
 1112              		.syntax unified
 1113              		.thumb
 1114              		.thumb_func
 1115              		.fpu fpv4-sp-d16
 1117              	tcp_shutdown:
 1118              	.LFB142:
 500:Middlewares/Third_Party/LwIP/src/core/tcp.c **** 
ARM GAS  /tmp/ccFjPNuy.s 			page 30


 501:Middlewares/Third_Party/LwIP/src/core/tcp.c **** /**
 502:Middlewares/Third_Party/LwIP/src/core/tcp.c ****  * @ingroup tcp_raw
 503:Middlewares/Third_Party/LwIP/src/core/tcp.c ****  * Causes all or part of a full-duplex connection of this PCB to be shut down.
 504:Middlewares/Third_Party/LwIP/src/core/tcp.c ****  * This doesn't deallocate the PCB unless shutting down both sides!
 505:Middlewares/Third_Party/LwIP/src/core/tcp.c ****  * Shutting down both sides is the same as calling tcp_close, so if it succeds
 506:Middlewares/Third_Party/LwIP/src/core/tcp.c ****  * (i.e. returns ER_OK), the PCB must not be referenced any more!
 507:Middlewares/Third_Party/LwIP/src/core/tcp.c ****  *
 508:Middlewares/Third_Party/LwIP/src/core/tcp.c ****  * @param pcb PCB to shutdown
 509:Middlewares/Third_Party/LwIP/src/core/tcp.c ****  * @param shut_rx shut down receive side if this is != 0
 510:Middlewares/Third_Party/LwIP/src/core/tcp.c ****  * @param shut_tx shut down send side if this is != 0
 511:Middlewares/Third_Party/LwIP/src/core/tcp.c ****  * @return ERR_OK if shutdown succeeded (or the PCB has already been shut down)
 512:Middlewares/Third_Party/LwIP/src/core/tcp.c ****  *         another err_t on error.
 513:Middlewares/Third_Party/LwIP/src/core/tcp.c ****  */
 514:Middlewares/Third_Party/LwIP/src/core/tcp.c **** err_t
 515:Middlewares/Third_Party/LwIP/src/core/tcp.c **** tcp_shutdown(struct tcp_pcb *pcb, int shut_rx, int shut_tx)
 516:Middlewares/Third_Party/LwIP/src/core/tcp.c **** {
 1119              		.loc 1 516 1
 1120              		.cfi_startproc
 1121              		@ args = 0, pretend = 0, frame = 16
 1122              		@ frame_needed = 1, uses_anonymous_args = 0
 1123 0000 80B5     		push	{r7, lr}
 1124              	.LCFI39:
 1125              		.cfi_def_cfa_offset 8
 1126              		.cfi_offset 7, -8
 1127              		.cfi_offset 14, -4
 1128 0002 84B0     		sub	sp, sp, #16
 1129              	.LCFI40:
 1130              		.cfi_def_cfa_offset 24
 1131 0004 00AF     		add	r7, sp, #0
 1132              	.LCFI41:
 1133              		.cfi_def_cfa_register 7
 1134 0006 F860     		str	r0, [r7, #12]
 1135 0008 B960     		str	r1, [r7, #8]
 1136 000a 7A60     		str	r2, [r7, #4]
 517:Middlewares/Third_Party/LwIP/src/core/tcp.c ****   LWIP_ASSERT_CORE_LOCKED();
 518:Middlewares/Third_Party/LwIP/src/core/tcp.c **** 
 519:Middlewares/Third_Party/LwIP/src/core/tcp.c ****   LWIP_ERROR("tcp_shutdown: invalid pcb", pcb != NULL, return ERR_ARG);
 1137              		.loc 1 519 3
 1138 000c FB68     		ldr	r3, [r7, #12]
 1139 000e 002B     		cmp	r3, #0
 1140 0010 09D1     		bne	.L81
 1141              		.loc 1 519 3 is_stmt 0 discriminator 1
 1142 0012 254B     		ldr	r3, .L89
 1143 0014 40F20722 		movw	r2, #519
 1144 0018 2449     		ldr	r1, .L89+4
 1145 001a 2548     		ldr	r0, .L89+8
 1146 001c FFF7FEFF 		bl	printf
 1147 0020 6FF00F03 		mvn	r3, #15
 1148 0024 3CE0     		b	.L82
 1149              	.L81:
 520:Middlewares/Third_Party/LwIP/src/core/tcp.c **** 
 521:Middlewares/Third_Party/LwIP/src/core/tcp.c ****   if (pcb->state == LISTEN) {
 1150              		.loc 1 521 10 is_stmt 1
 1151 0026 FB68     		ldr	r3, [r7, #12]
 1152 0028 1B7D     		ldrb	r3, [r3, #20]	@ zero_extendqisi2
 1153              		.loc 1 521 6
 1154 002a 012B     		cmp	r3, #1
ARM GAS  /tmp/ccFjPNuy.s 			page 31


 1155 002c 02D1     		bne	.L83
 522:Middlewares/Third_Party/LwIP/src/core/tcp.c ****     return ERR_CONN;
 1156              		.loc 1 522 12
 1157 002e 6FF00A03 		mvn	r3, #10
 1158 0032 35E0     		b	.L82
 1159              	.L83:
 523:Middlewares/Third_Party/LwIP/src/core/tcp.c ****   }
 524:Middlewares/Third_Party/LwIP/src/core/tcp.c ****   if (shut_rx) {
 1160              		.loc 1 524 6
 1161 0034 BB68     		ldr	r3, [r7, #8]
 1162 0036 002B     		cmp	r3, #0
 1163 0038 1BD0     		beq	.L84
 525:Middlewares/Third_Party/LwIP/src/core/tcp.c ****     /* shut down the receive side: set a flag not to receive any more data... */
 526:Middlewares/Third_Party/LwIP/src/core/tcp.c ****     tcp_set_flags(pcb, TF_RXCLOSED);
 1164              		.loc 1 526 5
 1165 003a FB68     		ldr	r3, [r7, #12]
 1166 003c 5B8B     		ldrh	r3, [r3, #26]
 1167 003e 43F01003 		orr	r3, r3, #16
 1168 0042 9AB2     		uxth	r2, r3
 1169 0044 FB68     		ldr	r3, [r7, #12]
 1170 0046 5A83     		strh	r2, [r3, #26]	@ movhi
 527:Middlewares/Third_Party/LwIP/src/core/tcp.c ****     if (shut_tx) {
 1171              		.loc 1 527 8
 1172 0048 7B68     		ldr	r3, [r7, #4]
 1173 004a 002B     		cmp	r3, #0
 1174 004c 05D0     		beq	.L85
 528:Middlewares/Third_Party/LwIP/src/core/tcp.c ****       /* shutting down the tx AND rx side is the same as closing for the raw API */
 529:Middlewares/Third_Party/LwIP/src/core/tcp.c ****       return tcp_close_shutdown(pcb, 1);
 1175              		.loc 1 529 14
 1176 004e 0121     		movs	r1, #1
 1177 0050 F868     		ldr	r0, [r7, #12]
 1178 0052 FFF7FEFF 		bl	tcp_close_shutdown
 1179 0056 0346     		mov	r3, r0
 1180 0058 22E0     		b	.L82
 1181              	.L85:
 530:Middlewares/Third_Party/LwIP/src/core/tcp.c ****     }
 531:Middlewares/Third_Party/LwIP/src/core/tcp.c ****     /* ... and free buffered data */
 532:Middlewares/Third_Party/LwIP/src/core/tcp.c ****     if (pcb->refused_data != NULL) {
 1182              		.loc 1 532 12
 1183 005a FB68     		ldr	r3, [r7, #12]
 1184 005c 9B6F     		ldr	r3, [r3, #120]
 1185              		.loc 1 532 8
 1186 005e 002B     		cmp	r3, #0
 1187 0060 07D0     		beq	.L84
 533:Middlewares/Third_Party/LwIP/src/core/tcp.c ****       pbuf_free(pcb->refused_data);
 1188              		.loc 1 533 7
 1189 0062 FB68     		ldr	r3, [r7, #12]
 1190 0064 9B6F     		ldr	r3, [r3, #120]
 1191 0066 1846     		mov	r0, r3
 1192 0068 FFF7FEFF 		bl	pbuf_free
 534:Middlewares/Third_Party/LwIP/src/core/tcp.c ****       pcb->refused_data = NULL;
 1193              		.loc 1 534 25
 1194 006c FB68     		ldr	r3, [r7, #12]
 1195 006e 0022     		movs	r2, #0
 1196 0070 9A67     		str	r2, [r3, #120]
 1197              	.L84:
 535:Middlewares/Third_Party/LwIP/src/core/tcp.c ****     }
ARM GAS  /tmp/ccFjPNuy.s 			page 32


 536:Middlewares/Third_Party/LwIP/src/core/tcp.c ****   }
 537:Middlewares/Third_Party/LwIP/src/core/tcp.c ****   if (shut_tx) {
 1198              		.loc 1 537 6
 1199 0072 7B68     		ldr	r3, [r7, #4]
 1200 0074 002B     		cmp	r3, #0
 1201 0076 12D0     		beq	.L86
 538:Middlewares/Third_Party/LwIP/src/core/tcp.c ****     /* This can't happen twice since if it succeeds, the pcb's state is changed.
 539:Middlewares/Third_Party/LwIP/src/core/tcp.c ****        Only close in these states as the others directly deallocate the PCB */
 540:Middlewares/Third_Party/LwIP/src/core/tcp.c ****     switch (pcb->state) {
 1202              		.loc 1 540 16
 1203 0078 FB68     		ldr	r3, [r7, #12]
 1204 007a 1B7D     		ldrb	r3, [r3, #20]	@ zero_extendqisi2
 1205              		.loc 1 540 5
 1206 007c 032B     		cmp	r3, #3
 1207 007e 0BDB     		blt	.L87
 1208 0080 042B     		cmp	r3, #4
 1209 0082 01DD     		ble	.L88
 1210 0084 072B     		cmp	r3, #7
 1211 0086 07D1     		bne	.L87
 1212              	.L88:
 541:Middlewares/Third_Party/LwIP/src/core/tcp.c ****       case SYN_RCVD:
 542:Middlewares/Third_Party/LwIP/src/core/tcp.c ****       case ESTABLISHED:
 543:Middlewares/Third_Party/LwIP/src/core/tcp.c ****       case CLOSE_WAIT:
 544:Middlewares/Third_Party/LwIP/src/core/tcp.c ****         return tcp_close_shutdown(pcb, (u8_t)shut_rx);
 1213              		.loc 1 544 16
 1214 0088 BB68     		ldr	r3, [r7, #8]
 1215 008a DBB2     		uxtb	r3, r3
 1216 008c 1946     		mov	r1, r3
 1217 008e F868     		ldr	r0, [r7, #12]
 1218 0090 FFF7FEFF 		bl	tcp_close_shutdown
 1219 0094 0346     		mov	r3, r0
 1220 0096 03E0     		b	.L82
 1221              	.L87:
 545:Middlewares/Third_Party/LwIP/src/core/tcp.c ****       default:
 546:Middlewares/Third_Party/LwIP/src/core/tcp.c ****         /* Not (yet?) connected, cannot shutdown the TX side as that would bring us
 547:Middlewares/Third_Party/LwIP/src/core/tcp.c ****           into CLOSED state, where the PCB is deallocated. */
 548:Middlewares/Third_Party/LwIP/src/core/tcp.c ****         return ERR_CONN;
 1222              		.loc 1 548 16
 1223 0098 6FF00A03 		mvn	r3, #10
 1224 009c 00E0     		b	.L82
 1225              	.L86:
 549:Middlewares/Third_Party/LwIP/src/core/tcp.c ****     }
 550:Middlewares/Third_Party/LwIP/src/core/tcp.c ****   }
 551:Middlewares/Third_Party/LwIP/src/core/tcp.c ****   return ERR_OK;
 1226              		.loc 1 551 10
 1227 009e 0023     		movs	r3, #0
 1228              	.L82:
 552:Middlewares/Third_Party/LwIP/src/core/tcp.c **** }
 1229              		.loc 1 552 1
 1230 00a0 1846     		mov	r0, r3
 1231 00a2 1037     		adds	r7, r7, #16
 1232              	.LCFI42:
 1233              		.cfi_def_cfa_offset 8
 1234 00a4 BD46     		mov	sp, r7
 1235              	.LCFI43:
 1236              		.cfi_def_cfa_register 13
 1237              		@ sp needed
ARM GAS  /tmp/ccFjPNuy.s 			page 33


 1238 00a6 80BD     		pop	{r7, pc}
 1239              	.L90:
 1240              		.align	2
 1241              	.L89:
 1242 00a8 78000000 		.word	.LC11
 1243 00ac 9C010000 		.word	.LC21
 1244 00b0 B8000000 		.word	.LC13
 1245              		.cfi_endproc
 1246              	.LFE142:
 1248              		.section	.rodata
 1249 01b6 0000     		.align	2
 1250              	.LC22:
 1251 01b8 7463705F 		.ascii	"tcp_abandon: invalid pcb\000"
 1251      6162616E 
 1251      646F6E3A 
 1251      20696E76 
 1251      616C6964 
 1252 01d1 000000   		.align	2
 1253              	.LC23:
 1254 01d4 646F6E27 		.ascii	"don't call tcp_abort/tcp_abandon for listen-pcbs\000"
 1254      74206361 
 1254      6C6C2074 
 1254      63705F61 
 1254      626F7274 
 1255              		.section	.text.tcp_abandon,"ax",%progbits
 1256              		.align	1
 1257              		.global	tcp_abandon
 1258              		.syntax unified
 1259              		.thumb
 1260              		.thumb_func
 1261              		.fpu fpv4-sp-d16
 1263              	tcp_abandon:
 1264              	.LFB143:
 553:Middlewares/Third_Party/LwIP/src/core/tcp.c **** 
 554:Middlewares/Third_Party/LwIP/src/core/tcp.c **** /**
 555:Middlewares/Third_Party/LwIP/src/core/tcp.c ****  * Abandons a connection and optionally sends a RST to the remote
 556:Middlewares/Third_Party/LwIP/src/core/tcp.c ****  * host.  Deletes the local protocol control block. This is done when
 557:Middlewares/Third_Party/LwIP/src/core/tcp.c ****  * a connection is killed because of shortage of memory.
 558:Middlewares/Third_Party/LwIP/src/core/tcp.c ****  *
 559:Middlewares/Third_Party/LwIP/src/core/tcp.c ****  * @param pcb the tcp_pcb to abort
 560:Middlewares/Third_Party/LwIP/src/core/tcp.c ****  * @param reset boolean to indicate whether a reset should be sent
 561:Middlewares/Third_Party/LwIP/src/core/tcp.c ****  */
 562:Middlewares/Third_Party/LwIP/src/core/tcp.c **** void
 563:Middlewares/Third_Party/LwIP/src/core/tcp.c **** tcp_abandon(struct tcp_pcb *pcb, int reset)
 564:Middlewares/Third_Party/LwIP/src/core/tcp.c **** {
 1265              		.loc 1 564 1
 1266              		.cfi_startproc
 1267              		@ args = 0, pretend = 0, frame = 40
 1268              		@ frame_needed = 1, uses_anonymous_args = 0
 1269 0000 80B5     		push	{r7, lr}
 1270              	.LCFI44:
 1271              		.cfi_def_cfa_offset 8
 1272              		.cfi_offset 7, -8
 1273              		.cfi_offset 14, -4
 1274 0002 8EB0     		sub	sp, sp, #56
 1275              	.LCFI45:
 1276              		.cfi_def_cfa_offset 64
ARM GAS  /tmp/ccFjPNuy.s 			page 34


 1277 0004 04AF     		add	r7, sp, #16
 1278              	.LCFI46:
 1279              		.cfi_def_cfa 7, 48
 1280 0006 7860     		str	r0, [r7, #4]
 1281 0008 3960     		str	r1, [r7]
 565:Middlewares/Third_Party/LwIP/src/core/tcp.c ****   u32_t seqno, ackno;
 566:Middlewares/Third_Party/LwIP/src/core/tcp.c **** #if LWIP_CALLBACK_API
 567:Middlewares/Third_Party/LwIP/src/core/tcp.c ****   tcp_err_fn errf;
 568:Middlewares/Third_Party/LwIP/src/core/tcp.c **** #endif /* LWIP_CALLBACK_API */
 569:Middlewares/Third_Party/LwIP/src/core/tcp.c ****   void *errf_arg;
 570:Middlewares/Third_Party/LwIP/src/core/tcp.c **** 
 571:Middlewares/Third_Party/LwIP/src/core/tcp.c ****   LWIP_ASSERT_CORE_LOCKED();
 572:Middlewares/Third_Party/LwIP/src/core/tcp.c **** 
 573:Middlewares/Third_Party/LwIP/src/core/tcp.c ****   LWIP_ERROR("tcp_abandon: invalid pcb", pcb != NULL, return);
 1282              		.loc 1 573 3
 1283 000a 7B68     		ldr	r3, [r7, #4]
 1284 000c 002B     		cmp	r3, #0
 1285 000e 07D1     		bne	.L92
 1286              		.loc 1 573 3 is_stmt 0 discriminator 1
 1287 0010 524B     		ldr	r3, .L108
 1288 0012 40F23D22 		movw	r2, #573
 1289 0016 5249     		ldr	r1, .L108+4
 1290 0018 5248     		ldr	r0, .L108+8
 1291 001a FFF7FEFF 		bl	printf
 1292 001e 99E0     		b	.L91
 1293              	.L92:
 574:Middlewares/Third_Party/LwIP/src/core/tcp.c **** 
 575:Middlewares/Third_Party/LwIP/src/core/tcp.c ****   /* pcb->state LISTEN not allowed here */
 576:Middlewares/Third_Party/LwIP/src/core/tcp.c ****   LWIP_ASSERT("don't call tcp_abort/tcp_abandon for listen-pcbs",
 1294              		.loc 1 576 3 is_stmt 1
 1295 0020 7B68     		ldr	r3, [r7, #4]
 1296 0022 1B7D     		ldrb	r3, [r3, #20]	@ zero_extendqisi2
 1297 0024 012B     		cmp	r3, #1
 1298 0026 06D1     		bne	.L94
 1299              		.loc 1 576 3 is_stmt 0 discriminator 1
 1300 0028 4C4B     		ldr	r3, .L108
 1301 002a 40F24122 		movw	r2, #577
 1302 002e 4E49     		ldr	r1, .L108+12
 1303 0030 4C48     		ldr	r0, .L108+8
 1304 0032 FFF7FEFF 		bl	printf
 1305              	.L94:
 577:Middlewares/Third_Party/LwIP/src/core/tcp.c ****               pcb->state != LISTEN);
 578:Middlewares/Third_Party/LwIP/src/core/tcp.c ****   /* Figure out on which TCP PCB list we are, and remove us. If we
 579:Middlewares/Third_Party/LwIP/src/core/tcp.c ****      are in an active state, call the receive function associated with
 580:Middlewares/Third_Party/LwIP/src/core/tcp.c ****      the PCB with a NULL argument, and send an RST to the remote end. */
 581:Middlewares/Third_Party/LwIP/src/core/tcp.c ****   if (pcb->state == TIME_WAIT) {
 1306              		.loc 1 581 10 is_stmt 1
 1307 0036 7B68     		ldr	r3, [r7, #4]
 1308 0038 1B7D     		ldrb	r3, [r3, #20]	@ zero_extendqisi2
 1309              		.loc 1 581 6
 1310 003a 0A2B     		cmp	r3, #10
 1311 003c 07D1     		bne	.L95
 582:Middlewares/Third_Party/LwIP/src/core/tcp.c ****     tcp_pcb_remove(&tcp_tw_pcbs, pcb);
 1312              		.loc 1 582 5
 1313 003e 7968     		ldr	r1, [r7, #4]
 1314 0040 4A48     		ldr	r0, .L108+16
 1315 0042 FFF7FEFF 		bl	tcp_pcb_remove
ARM GAS  /tmp/ccFjPNuy.s 			page 35


 583:Middlewares/Third_Party/LwIP/src/core/tcp.c ****     tcp_free(pcb);
 1316              		.loc 1 583 5
 1317 0046 7868     		ldr	r0, [r7, #4]
 1318 0048 FFF7FEFF 		bl	tcp_free
 1319 004c 82E0     		b	.L91
 1320              	.L95:
 1321              	.LBB4:
 584:Middlewares/Third_Party/LwIP/src/core/tcp.c ****   } else {
 585:Middlewares/Third_Party/LwIP/src/core/tcp.c ****     int send_rst = 0;
 1322              		.loc 1 585 9
 1323 004e 0023     		movs	r3, #0
 1324 0050 7B62     		str	r3, [r7, #36]
 586:Middlewares/Third_Party/LwIP/src/core/tcp.c ****     u16_t local_port = 0;
 1325              		.loc 1 586 11
 1326 0052 0023     		movs	r3, #0
 1327 0054 7B84     		strh	r3, [r7, #34]	@ movhi
 587:Middlewares/Third_Party/LwIP/src/core/tcp.c ****     enum tcp_state last_state;
 588:Middlewares/Third_Party/LwIP/src/core/tcp.c ****     seqno = pcb->snd_nxt;
 1328              		.loc 1 588 11
 1329 0056 7B68     		ldr	r3, [r7, #4]
 1330 0058 1B6D     		ldr	r3, [r3, #80]
 1331 005a BB61     		str	r3, [r7, #24]
 589:Middlewares/Third_Party/LwIP/src/core/tcp.c ****     ackno = pcb->rcv_nxt;
 1332              		.loc 1 589 11
 1333 005c 7B68     		ldr	r3, [r7, #4]
 1334 005e 5B6A     		ldr	r3, [r3, #36]
 1335 0060 7B61     		str	r3, [r7, #20]
 590:Middlewares/Third_Party/LwIP/src/core/tcp.c **** #if LWIP_CALLBACK_API
 591:Middlewares/Third_Party/LwIP/src/core/tcp.c ****     errf = pcb->errf;
 1336              		.loc 1 591 10
 1337 0062 7B68     		ldr	r3, [r7, #4]
 1338 0064 D3F89030 		ldr	r3, [r3, #144]
 1339 0068 3B61     		str	r3, [r7, #16]
 592:Middlewares/Third_Party/LwIP/src/core/tcp.c **** #endif /* LWIP_CALLBACK_API */
 593:Middlewares/Third_Party/LwIP/src/core/tcp.c ****     errf_arg = pcb->callback_arg;
 1340              		.loc 1 593 14
 1341 006a 7B68     		ldr	r3, [r7, #4]
 1342 006c 1B69     		ldr	r3, [r3, #16]
 1343 006e FB60     		str	r3, [r7, #12]
 594:Middlewares/Third_Party/LwIP/src/core/tcp.c ****     if (pcb->state == CLOSED) {
 1344              		.loc 1 594 12
 1345 0070 7B68     		ldr	r3, [r7, #4]
 1346 0072 1B7D     		ldrb	r3, [r3, #20]	@ zero_extendqisi2
 1347              		.loc 1 594 8
 1348 0074 002B     		cmp	r3, #0
 1349 0076 26D1     		bne	.L96
 595:Middlewares/Third_Party/LwIP/src/core/tcp.c ****       if (pcb->local_port != 0) {
 1350              		.loc 1 595 14
 1351 0078 7B68     		ldr	r3, [r7, #4]
 1352 007a DB8A     		ldrh	r3, [r3, #22]
 1353              		.loc 1 595 10
 1354 007c 002B     		cmp	r3, #0
 1355 007e 2ED0     		beq	.L103
 596:Middlewares/Third_Party/LwIP/src/core/tcp.c ****         /* bound, not yet opened */
 597:Middlewares/Third_Party/LwIP/src/core/tcp.c ****         TCP_RMV(&tcp_bound_pcbs, pcb);
 1356              		.loc 1 597 9
 1357 0080 3B4B     		ldr	r3, .L108+20
ARM GAS  /tmp/ccFjPNuy.s 			page 36


 1358 0082 1B68     		ldr	r3, [r3]
 1359 0084 7A68     		ldr	r2, [r7, #4]
 1360 0086 9A42     		cmp	r2, r3
 1361 0088 05D1     		bne	.L98
 1362              		.loc 1 597 9 is_stmt 0 discriminator 1
 1363 008a 394B     		ldr	r3, .L108+20
 1364 008c 1B68     		ldr	r3, [r3]
 1365 008e DB68     		ldr	r3, [r3, #12]
 1366 0090 374A     		ldr	r2, .L108+20
 1367 0092 1360     		str	r3, [r2]
 1368 0094 13E0     		b	.L99
 1369              	.L98:
 1370              	.LBB5:
 1371              		.loc 1 597 9 discriminator 2
 1372 0096 364B     		ldr	r3, .L108+20
 1373 0098 1B68     		ldr	r3, [r3]
 1374 009a FB61     		str	r3, [r7, #28]
 1375 009c 0CE0     		b	.L100
 1376              	.L102:
 1377              		.loc 1 597 9 discriminator 9
 1378 009e FB69     		ldr	r3, [r7, #28]
 1379 00a0 DB68     		ldr	r3, [r3, #12]
 1380 00a2 7A68     		ldr	r2, [r7, #4]
 1381 00a4 9A42     		cmp	r2, r3
 1382 00a6 04D1     		bne	.L101
 1383              		.loc 1 597 9 discriminator 5
 1384 00a8 7B68     		ldr	r3, [r7, #4]
 1385 00aa DA68     		ldr	r2, [r3, #12]
 1386 00ac FB69     		ldr	r3, [r7, #28]
 1387 00ae DA60     		str	r2, [r3, #12]
 1388 00b0 05E0     		b	.L99
 1389              	.L101:
 1390              		.loc 1 597 9 discriminator 6
 1391 00b2 FB69     		ldr	r3, [r7, #28]
 1392 00b4 DB68     		ldr	r3, [r3, #12]
 1393 00b6 FB61     		str	r3, [r7, #28]
 1394              	.L100:
 1395              		.loc 1 597 9 discriminator 8
 1396 00b8 FB69     		ldr	r3, [r7, #28]
 1397 00ba 002B     		cmp	r3, #0
 1398 00bc EFD1     		bne	.L102
 1399              	.L99:
 1400              	.LBE5:
 1401              		.loc 1 597 9 discriminator 10
 1402 00be 7B68     		ldr	r3, [r7, #4]
 1403 00c0 0022     		movs	r2, #0
 1404 00c2 DA60     		str	r2, [r3, #12]
 1405 00c4 0BE0     		b	.L103
 1406              	.L96:
 598:Middlewares/Third_Party/LwIP/src/core/tcp.c ****       }
 599:Middlewares/Third_Party/LwIP/src/core/tcp.c ****     } else {
 600:Middlewares/Third_Party/LwIP/src/core/tcp.c ****       send_rst = reset;
 1407              		.loc 1 600 16 is_stmt 1
 1408 00c6 3B68     		ldr	r3, [r7]
 1409 00c8 7B62     		str	r3, [r7, #36]
 601:Middlewares/Third_Party/LwIP/src/core/tcp.c ****       local_port = pcb->local_port;
 1410              		.loc 1 601 18
ARM GAS  /tmp/ccFjPNuy.s 			page 37


 1411 00ca 7B68     		ldr	r3, [r7, #4]
 1412 00cc DB8A     		ldrh	r3, [r3, #22]	@ movhi
 1413 00ce 7B84     		strh	r3, [r7, #34]	@ movhi
 602:Middlewares/Third_Party/LwIP/src/core/tcp.c ****       TCP_PCB_REMOVE_ACTIVE(pcb);
 1414              		.loc 1 602 7
 1415 00d0 7968     		ldr	r1, [r7, #4]
 1416 00d2 2848     		ldr	r0, .L108+24
 1417 00d4 FFF7FEFF 		bl	tcp_pcb_remove
 1418 00d8 274B     		ldr	r3, .L108+28
 1419 00da 0122     		movs	r2, #1
 1420 00dc 1A70     		strb	r2, [r3]
 1421              	.L103:
 603:Middlewares/Third_Party/LwIP/src/core/tcp.c ****     }
 604:Middlewares/Third_Party/LwIP/src/core/tcp.c ****     if (pcb->unacked != NULL) {
 1422              		.loc 1 604 12
 1423 00de 7B68     		ldr	r3, [r7, #4]
 1424 00e0 1B6F     		ldr	r3, [r3, #112]
 1425              		.loc 1 604 8
 1426 00e2 002B     		cmp	r3, #0
 1427 00e4 04D0     		beq	.L104
 605:Middlewares/Third_Party/LwIP/src/core/tcp.c ****       tcp_segs_free(pcb->unacked);
 1428              		.loc 1 605 7
 1429 00e6 7B68     		ldr	r3, [r7, #4]
 1430 00e8 1B6F     		ldr	r3, [r3, #112]
 1431 00ea 1846     		mov	r0, r3
 1432 00ec FFF7FEFF 		bl	tcp_segs_free
 1433              	.L104:
 606:Middlewares/Third_Party/LwIP/src/core/tcp.c ****     }
 607:Middlewares/Third_Party/LwIP/src/core/tcp.c ****     if (pcb->unsent != NULL) {
 1434              		.loc 1 607 12
 1435 00f0 7B68     		ldr	r3, [r7, #4]
 1436 00f2 DB6E     		ldr	r3, [r3, #108]
 1437              		.loc 1 607 8
 1438 00f4 002B     		cmp	r3, #0
 1439 00f6 04D0     		beq	.L105
 608:Middlewares/Third_Party/LwIP/src/core/tcp.c ****       tcp_segs_free(pcb->unsent);
 1440              		.loc 1 608 7
 1441 00f8 7B68     		ldr	r3, [r7, #4]
 1442 00fa DB6E     		ldr	r3, [r3, #108]
 1443 00fc 1846     		mov	r0, r3
 1444 00fe FFF7FEFF 		bl	tcp_segs_free
 1445              	.L105:
 609:Middlewares/Third_Party/LwIP/src/core/tcp.c ****     }
 610:Middlewares/Third_Party/LwIP/src/core/tcp.c **** #if TCP_QUEUE_OOSEQ
 611:Middlewares/Third_Party/LwIP/src/core/tcp.c ****     if (pcb->ooseq != NULL) {
 1446              		.loc 1 611 12
 1447 0102 7B68     		ldr	r3, [r7, #4]
 1448 0104 5B6F     		ldr	r3, [r3, #116]
 1449              		.loc 1 611 8
 1450 0106 002B     		cmp	r3, #0
 1451 0108 04D0     		beq	.L106
 612:Middlewares/Third_Party/LwIP/src/core/tcp.c ****       tcp_segs_free(pcb->ooseq);
 1452              		.loc 1 612 7
 1453 010a 7B68     		ldr	r3, [r7, #4]
 1454 010c 5B6F     		ldr	r3, [r3, #116]
 1455 010e 1846     		mov	r0, r3
 1456 0110 FFF7FEFF 		bl	tcp_segs_free
ARM GAS  /tmp/ccFjPNuy.s 			page 38


 1457              	.L106:
 613:Middlewares/Third_Party/LwIP/src/core/tcp.c ****     }
 614:Middlewares/Third_Party/LwIP/src/core/tcp.c **** #endif /* TCP_QUEUE_OOSEQ */
 615:Middlewares/Third_Party/LwIP/src/core/tcp.c ****     tcp_backlog_accepted(pcb);
 616:Middlewares/Third_Party/LwIP/src/core/tcp.c ****     if (send_rst) {
 1458              		.loc 1 616 8
 1459 0114 7B6A     		ldr	r3, [r7, #36]
 1460 0116 002B     		cmp	r3, #0
 1461 0118 0ED0     		beq	.L107
 617:Middlewares/Third_Party/LwIP/src/core/tcp.c ****       LWIP_DEBUGF(TCP_RST_DEBUG, ("tcp_abandon: sending RST\n"));
 618:Middlewares/Third_Party/LwIP/src/core/tcp.c ****       tcp_rst(pcb, seqno, ackno, &pcb->local_ip, &pcb->remote_ip, local_port, pcb->remote_port);
 1462              		.loc 1 618 34
 1463 011a 7968     		ldr	r1, [r7, #4]
 1464              		.loc 1 618 50
 1465 011c 7B68     		ldr	r3, [r7, #4]
 1466 011e 0433     		adds	r3, r3, #4
 1467              		.loc 1 618 7
 1468 0120 7A68     		ldr	r2, [r7, #4]
 1469 0122 128B     		ldrh	r2, [r2, #24]
 1470 0124 0292     		str	r2, [sp, #8]
 1471 0126 7A8C     		ldrh	r2, [r7, #34]
 1472 0128 0192     		str	r2, [sp, #4]
 1473 012a 0093     		str	r3, [sp]
 1474 012c 0B46     		mov	r3, r1
 1475 012e 7A69     		ldr	r2, [r7, #20]
 1476 0130 B969     		ldr	r1, [r7, #24]
 1477 0132 7868     		ldr	r0, [r7, #4]
 1478 0134 FFF7FEFF 		bl	tcp_rst
 1479              	.L107:
 619:Middlewares/Third_Party/LwIP/src/core/tcp.c ****     }
 620:Middlewares/Third_Party/LwIP/src/core/tcp.c ****     last_state = pcb->state;
 1480              		.loc 1 620 16
 1481 0138 7B68     		ldr	r3, [r7, #4]
 1482 013a 1B7D     		ldrb	r3, [r3, #20]
 1483 013c FB72     		strb	r3, [r7, #11]
 621:Middlewares/Third_Party/LwIP/src/core/tcp.c ****     tcp_free(pcb);
 1484              		.loc 1 621 5
 1485 013e 7868     		ldr	r0, [r7, #4]
 1486 0140 FFF7FEFF 		bl	tcp_free
 622:Middlewares/Third_Party/LwIP/src/core/tcp.c ****     TCP_EVENT_ERR(last_state, errf, errf_arg, ERR_ABRT);
 1487              		.loc 1 622 5
 1488 0144 3B69     		ldr	r3, [r7, #16]
 1489 0146 002B     		cmp	r3, #0
 1490 0148 04D0     		beq	.L91
 1491              		.loc 1 622 5 is_stmt 0 discriminator 1
 1492 014a 3B69     		ldr	r3, [r7, #16]
 1493 014c 6FF00C01 		mvn	r1, #12
 1494 0150 F868     		ldr	r0, [r7, #12]
 1495 0152 9847     		blx	r3
 1496              	.LVL0:
 1497              	.L91:
 1498              	.LBE4:
 623:Middlewares/Third_Party/LwIP/src/core/tcp.c ****   }
 624:Middlewares/Third_Party/LwIP/src/core/tcp.c **** }
 1499              		.loc 1 624 1 is_stmt 1
 1500 0154 2837     		adds	r7, r7, #40
 1501              	.LCFI47:
ARM GAS  /tmp/ccFjPNuy.s 			page 39


 1502              		.cfi_def_cfa_offset 8
 1503 0156 BD46     		mov	sp, r7
 1504              	.LCFI48:
 1505              		.cfi_def_cfa_register 13
 1506              		@ sp needed
 1507 0158 80BD     		pop	{r7, pc}
 1508              	.L109:
 1509 015a 00BF     		.align	2
 1510              	.L108:
 1511 015c 78000000 		.word	.LC11
 1512 0160 B8010000 		.word	.LC22
 1513 0164 B8000000 		.word	.LC13
 1514 0168 D4010000 		.word	.LC23
 1515 016c 00000000 		.word	tcp_tw_pcbs
 1516 0170 00000000 		.word	tcp_bound_pcbs
 1517 0174 00000000 		.word	tcp_active_pcbs
 1518 0178 00000000 		.word	tcp_active_pcbs_changed
 1519              		.cfi_endproc
 1520              	.LFE143:
 1522              		.section	.text.tcp_abort,"ax",%progbits
 1523              		.align	1
 1524              		.global	tcp_abort
 1525              		.syntax unified
 1526              		.thumb
 1527              		.thumb_func
 1528              		.fpu fpv4-sp-d16
 1530              	tcp_abort:
 1531              	.LFB144:
 625:Middlewares/Third_Party/LwIP/src/core/tcp.c **** 
 626:Middlewares/Third_Party/LwIP/src/core/tcp.c **** /**
 627:Middlewares/Third_Party/LwIP/src/core/tcp.c ****  * @ingroup tcp_raw
 628:Middlewares/Third_Party/LwIP/src/core/tcp.c ****  * Aborts the connection by sending a RST (reset) segment to the remote
 629:Middlewares/Third_Party/LwIP/src/core/tcp.c ****  * host. The pcb is deallocated. This function never fails.
 630:Middlewares/Third_Party/LwIP/src/core/tcp.c ****  *
 631:Middlewares/Third_Party/LwIP/src/core/tcp.c ****  * ATTENTION: When calling this from one of the TCP callbacks, make
 632:Middlewares/Third_Party/LwIP/src/core/tcp.c ****  * sure you always return ERR_ABRT (and never return ERR_ABRT otherwise
 633:Middlewares/Third_Party/LwIP/src/core/tcp.c ****  * or you will risk accessing deallocated memory or memory leaks!
 634:Middlewares/Third_Party/LwIP/src/core/tcp.c ****  *
 635:Middlewares/Third_Party/LwIP/src/core/tcp.c ****  * @param pcb the tcp pcb to abort
 636:Middlewares/Third_Party/LwIP/src/core/tcp.c ****  */
 637:Middlewares/Third_Party/LwIP/src/core/tcp.c **** void
 638:Middlewares/Third_Party/LwIP/src/core/tcp.c **** tcp_abort(struct tcp_pcb *pcb)
 639:Middlewares/Third_Party/LwIP/src/core/tcp.c **** {
 1532              		.loc 1 639 1
 1533              		.cfi_startproc
 1534              		@ args = 0, pretend = 0, frame = 8
 1535              		@ frame_needed = 1, uses_anonymous_args = 0
 1536 0000 80B5     		push	{r7, lr}
 1537              	.LCFI49:
 1538              		.cfi_def_cfa_offset 8
 1539              		.cfi_offset 7, -8
 1540              		.cfi_offset 14, -4
 1541 0002 82B0     		sub	sp, sp, #8
 1542              	.LCFI50:
 1543              		.cfi_def_cfa_offset 16
 1544 0004 00AF     		add	r7, sp, #0
 1545              	.LCFI51:
ARM GAS  /tmp/ccFjPNuy.s 			page 40


 1546              		.cfi_def_cfa_register 7
 1547 0006 7860     		str	r0, [r7, #4]
 640:Middlewares/Third_Party/LwIP/src/core/tcp.c ****   tcp_abandon(pcb, 1);
 1548              		.loc 1 640 3
 1549 0008 0121     		movs	r1, #1
 1550 000a 7868     		ldr	r0, [r7, #4]
 1551 000c FFF7FEFF 		bl	tcp_abandon
 641:Middlewares/Third_Party/LwIP/src/core/tcp.c **** }
 1552              		.loc 1 641 1
 1553 0010 00BF     		nop
 1554 0012 0837     		adds	r7, r7, #8
 1555              	.LCFI52:
 1556              		.cfi_def_cfa_offset 8
 1557 0014 BD46     		mov	sp, r7
 1558              	.LCFI53:
 1559              		.cfi_def_cfa_register 13
 1560              		@ sp needed
 1561 0016 80BD     		pop	{r7, pc}
 1562              		.cfi_endproc
 1563              	.LFE144:
 1565              		.section	.rodata
 1566 0205 000000   		.align	2
 1567              	.LC24:
 1568 0208 7463705F 		.ascii	"tcp_bind: invalid pcb\000"
 1568      62696E64 
 1568      3A20696E 
 1568      76616C69 
 1568      64207063 
 1569 021e 0000     		.align	2
 1570              	.LC25:
 1571 0220 7463705F 		.ascii	"tcp_bind: can only bind in state CLOSED\000"
 1571      62696E64 
 1571      3A206361 
 1571      6E206F6E 
 1571      6C792062 
 1572              		.section	.text.tcp_bind,"ax",%progbits
 1573              		.align	1
 1574              		.global	tcp_bind
 1575              		.syntax unified
 1576              		.thumb
 1577              		.thumb_func
 1578              		.fpu fpv4-sp-d16
 1580              	tcp_bind:
 1581              	.LFB145:
 642:Middlewares/Third_Party/LwIP/src/core/tcp.c **** 
 643:Middlewares/Third_Party/LwIP/src/core/tcp.c **** /**
 644:Middlewares/Third_Party/LwIP/src/core/tcp.c ****  * @ingroup tcp_raw
 645:Middlewares/Third_Party/LwIP/src/core/tcp.c ****  * Binds the connection to a local port number and IP address. If the
 646:Middlewares/Third_Party/LwIP/src/core/tcp.c ****  * IP address is not given (i.e., ipaddr == IP_ANY_TYPE), the connection is
 647:Middlewares/Third_Party/LwIP/src/core/tcp.c ****  * bound to all local IP addresses.
 648:Middlewares/Third_Party/LwIP/src/core/tcp.c ****  * If another connection is bound to the same port, the function will
 649:Middlewares/Third_Party/LwIP/src/core/tcp.c ****  * return ERR_USE, otherwise ERR_OK is returned.
 650:Middlewares/Third_Party/LwIP/src/core/tcp.c ****  *
 651:Middlewares/Third_Party/LwIP/src/core/tcp.c ****  * @param pcb the tcp_pcb to bind (no check is done whether this pcb is
 652:Middlewares/Third_Party/LwIP/src/core/tcp.c ****  *        already bound!)
 653:Middlewares/Third_Party/LwIP/src/core/tcp.c ****  * @param ipaddr the local ip address to bind to (use IPx_ADDR_ANY to bind
 654:Middlewares/Third_Party/LwIP/src/core/tcp.c ****  *        to any local address
ARM GAS  /tmp/ccFjPNuy.s 			page 41


 655:Middlewares/Third_Party/LwIP/src/core/tcp.c ****  * @param port the local port to bind to
 656:Middlewares/Third_Party/LwIP/src/core/tcp.c ****  * @return ERR_USE if the port is already in use
 657:Middlewares/Third_Party/LwIP/src/core/tcp.c ****  *         ERR_VAL if bind failed because the PCB is not in a valid state
 658:Middlewares/Third_Party/LwIP/src/core/tcp.c ****  *         ERR_OK if bound
 659:Middlewares/Third_Party/LwIP/src/core/tcp.c ****  */
 660:Middlewares/Third_Party/LwIP/src/core/tcp.c **** err_t
 661:Middlewares/Third_Party/LwIP/src/core/tcp.c **** tcp_bind(struct tcp_pcb *pcb, const ip_addr_t *ipaddr, u16_t port)
 662:Middlewares/Third_Party/LwIP/src/core/tcp.c **** {
 1582              		.loc 1 662 1
 1583              		.cfi_startproc
 1584              		@ args = 0, pretend = 0, frame = 32
 1585              		@ frame_needed = 1, uses_anonymous_args = 0
 1586 0000 80B5     		push	{r7, lr}
 1587              	.LCFI54:
 1588              		.cfi_def_cfa_offset 8
 1589              		.cfi_offset 7, -8
 1590              		.cfi_offset 14, -4
 1591 0002 88B0     		sub	sp, sp, #32
 1592              	.LCFI55:
 1593              		.cfi_def_cfa_offset 40
 1594 0004 00AF     		add	r7, sp, #0
 1595              	.LCFI56:
 1596              		.cfi_def_cfa_register 7
 1597 0006 F860     		str	r0, [r7, #12]
 1598 0008 B960     		str	r1, [r7, #8]
 1599 000a 1346     		mov	r3, r2
 1600 000c FB80     		strh	r3, [r7, #6]	@ movhi
 663:Middlewares/Third_Party/LwIP/src/core/tcp.c ****   int i;
 664:Middlewares/Third_Party/LwIP/src/core/tcp.c ****   int max_pcb_list = NUM_TCP_PCB_LISTS;
 1601              		.loc 1 664 7
 1602 000e 0423     		movs	r3, #4
 1603 0010 7B61     		str	r3, [r7, #20]
 665:Middlewares/Third_Party/LwIP/src/core/tcp.c ****   struct tcp_pcb *cpcb;
 666:Middlewares/Third_Party/LwIP/src/core/tcp.c **** #if LWIP_IPV6 && LWIP_IPV6_SCOPES
 667:Middlewares/Third_Party/LwIP/src/core/tcp.c ****   ip_addr_t zoned_ipaddr;
 668:Middlewares/Third_Party/LwIP/src/core/tcp.c **** #endif /* LWIP_IPV6 && LWIP_IPV6_SCOPES */
 669:Middlewares/Third_Party/LwIP/src/core/tcp.c **** 
 670:Middlewares/Third_Party/LwIP/src/core/tcp.c ****   LWIP_ASSERT_CORE_LOCKED();
 671:Middlewares/Third_Party/LwIP/src/core/tcp.c **** 
 672:Middlewares/Third_Party/LwIP/src/core/tcp.c **** #if LWIP_IPV4
 673:Middlewares/Third_Party/LwIP/src/core/tcp.c ****   /* Don't propagate NULL pointer (IPv4 ANY) to subsequent functions */
 674:Middlewares/Third_Party/LwIP/src/core/tcp.c ****   if (ipaddr == NULL) {
 1604              		.loc 1 674 6
 1605 0012 BB68     		ldr	r3, [r7, #8]
 1606 0014 002B     		cmp	r3, #0
 1607 0016 01D1     		bne	.L112
 675:Middlewares/Third_Party/LwIP/src/core/tcp.c ****     ipaddr = IP4_ADDR_ANY;
 1608              		.loc 1 675 12
 1609 0018 3E4B     		ldr	r3, .L127
 1610 001a BB60     		str	r3, [r7, #8]
 1611              	.L112:
 676:Middlewares/Third_Party/LwIP/src/core/tcp.c ****   }
 677:Middlewares/Third_Party/LwIP/src/core/tcp.c **** #else /* LWIP_IPV4 */
 678:Middlewares/Third_Party/LwIP/src/core/tcp.c ****   LWIP_ERROR("tcp_bind: invalid ipaddr", ipaddr != NULL, return ERR_ARG);
 679:Middlewares/Third_Party/LwIP/src/core/tcp.c **** #endif /* LWIP_IPV4 */
 680:Middlewares/Third_Party/LwIP/src/core/tcp.c **** 
 681:Middlewares/Third_Party/LwIP/src/core/tcp.c ****   LWIP_ERROR("tcp_bind: invalid pcb", pcb != NULL, return ERR_ARG);
ARM GAS  /tmp/ccFjPNuy.s 			page 42


 1612              		.loc 1 681 3
 1613 001c FB68     		ldr	r3, [r7, #12]
 1614 001e 002B     		cmp	r3, #0
 1615 0020 09D1     		bne	.L113
 1616              		.loc 1 681 3 is_stmt 0 discriminator 1
 1617 0022 3D4B     		ldr	r3, .L127+4
 1618 0024 40F2A922 		movw	r2, #681
 1619 0028 3C49     		ldr	r1, .L127+8
 1620 002a 3D48     		ldr	r0, .L127+12
 1621 002c FFF7FEFF 		bl	printf
 1622 0030 6FF00F03 		mvn	r3, #15
 1623 0034 6AE0     		b	.L114
 1624              	.L113:
 682:Middlewares/Third_Party/LwIP/src/core/tcp.c **** 
 683:Middlewares/Third_Party/LwIP/src/core/tcp.c ****   LWIP_ERROR("tcp_bind: can only bind in state CLOSED", pcb->state == CLOSED, return ERR_VAL);
 1625              		.loc 1 683 3 is_stmt 1
 1626 0036 FB68     		ldr	r3, [r7, #12]
 1627 0038 1B7D     		ldrb	r3, [r3, #20]	@ zero_extendqisi2
 1628 003a 002B     		cmp	r3, #0
 1629 003c 09D0     		beq	.L115
 1630              		.loc 1 683 3 is_stmt 0 discriminator 1
 1631 003e 364B     		ldr	r3, .L127+4
 1632 0040 40F2AB22 		movw	r2, #683
 1633 0044 3749     		ldr	r1, .L127+16
 1634 0046 3648     		ldr	r0, .L127+12
 1635 0048 FFF7FEFF 		bl	printf
 1636 004c 6FF00503 		mvn	r3, #5
 1637 0050 5CE0     		b	.L114
 1638              	.L115:
 684:Middlewares/Third_Party/LwIP/src/core/tcp.c **** 
 685:Middlewares/Third_Party/LwIP/src/core/tcp.c **** #if SO_REUSE
 686:Middlewares/Third_Party/LwIP/src/core/tcp.c ****   /* Unless the REUSEADDR flag is set,
 687:Middlewares/Third_Party/LwIP/src/core/tcp.c ****      we have to check the pcbs in TIME-WAIT state, also.
 688:Middlewares/Third_Party/LwIP/src/core/tcp.c ****      We do not dump TIME_WAIT pcb's; they can still be matched by incoming
 689:Middlewares/Third_Party/LwIP/src/core/tcp.c ****      packets using both local and remote IP addresses and ports to distinguish.
 690:Middlewares/Third_Party/LwIP/src/core/tcp.c ****    */
 691:Middlewares/Third_Party/LwIP/src/core/tcp.c ****   if (ip_get_option(pcb, SOF_REUSEADDR)) {
 692:Middlewares/Third_Party/LwIP/src/core/tcp.c ****     max_pcb_list = NUM_TCP_PCB_LISTS_NO_TIME_WAIT;
 693:Middlewares/Third_Party/LwIP/src/core/tcp.c ****   }
 694:Middlewares/Third_Party/LwIP/src/core/tcp.c **** #endif /* SO_REUSE */
 695:Middlewares/Third_Party/LwIP/src/core/tcp.c **** 
 696:Middlewares/Third_Party/LwIP/src/core/tcp.c **** #if LWIP_IPV6 && LWIP_IPV6_SCOPES
 697:Middlewares/Third_Party/LwIP/src/core/tcp.c ****   /* If the given IP address should have a zone but doesn't, assign one now.
 698:Middlewares/Third_Party/LwIP/src/core/tcp.c ****    * This is legacy support: scope-aware callers should always provide properly
 699:Middlewares/Third_Party/LwIP/src/core/tcp.c ****    * zoned source addresses. Do the zone selection before the address-in-use
 700:Middlewares/Third_Party/LwIP/src/core/tcp.c ****    * check below; as such we have to make a temporary copy of the address. */
 701:Middlewares/Third_Party/LwIP/src/core/tcp.c ****   if (IP_IS_V6(ipaddr) && ip6_addr_lacks_zone(ip_2_ip6(ipaddr), IP6_UNICAST)) {
 702:Middlewares/Third_Party/LwIP/src/core/tcp.c ****     ip_addr_copy(zoned_ipaddr, *ipaddr);
 703:Middlewares/Third_Party/LwIP/src/core/tcp.c ****     ip6_addr_select_zone(ip_2_ip6(&zoned_ipaddr), ip_2_ip6(&zoned_ipaddr));
 704:Middlewares/Third_Party/LwIP/src/core/tcp.c ****     ipaddr = &zoned_ipaddr;
 705:Middlewares/Third_Party/LwIP/src/core/tcp.c ****   }
 706:Middlewares/Third_Party/LwIP/src/core/tcp.c **** #endif /* LWIP_IPV6 && LWIP_IPV6_SCOPES */
 707:Middlewares/Third_Party/LwIP/src/core/tcp.c **** 
 708:Middlewares/Third_Party/LwIP/src/core/tcp.c ****   if (port == 0) {
 1639              		.loc 1 708 6 is_stmt 1
 1640 0052 FB88     		ldrh	r3, [r7, #6]
 1641 0054 002B     		cmp	r3, #0
ARM GAS  /tmp/ccFjPNuy.s 			page 43


 1642 0056 09D1     		bne	.L116
 709:Middlewares/Third_Party/LwIP/src/core/tcp.c ****     port = tcp_new_port();
 1643              		.loc 1 709 12
 1644 0058 FFF7FEFF 		bl	tcp_new_port
 1645 005c 0346     		mov	r3, r0
 1646 005e FB80     		strh	r3, [r7, #6]	@ movhi
 710:Middlewares/Third_Party/LwIP/src/core/tcp.c ****     if (port == 0) {
 1647              		.loc 1 710 8
 1648 0060 FB88     		ldrh	r3, [r7, #6]
 1649 0062 002B     		cmp	r3, #0
 1650 0064 35D1     		bne	.L117
 711:Middlewares/Third_Party/LwIP/src/core/tcp.c ****       return ERR_BUF;
 1651              		.loc 1 711 14
 1652 0066 6FF00103 		mvn	r3, #1
 1653 006a 4FE0     		b	.L114
 1654              	.L116:
 712:Middlewares/Third_Party/LwIP/src/core/tcp.c ****     }
 713:Middlewares/Third_Party/LwIP/src/core/tcp.c ****   } else {
 714:Middlewares/Third_Party/LwIP/src/core/tcp.c ****     /* Check if the address already is in use (on all lists) */
 715:Middlewares/Third_Party/LwIP/src/core/tcp.c ****     for (i = 0; i < max_pcb_list; i++) {
 1655              		.loc 1 715 12
 1656 006c 0023     		movs	r3, #0
 1657 006e FB61     		str	r3, [r7, #28]
 1658              		.loc 1 715 5
 1659 0070 2BE0     		b	.L118
 1660              	.L123:
 716:Middlewares/Third_Party/LwIP/src/core/tcp.c ****       for (cpcb = *tcp_pcb_lists[i]; cpcb != NULL; cpcb = cpcb->next) {
 1661              		.loc 1 716 33
 1662 0072 2D4A     		ldr	r2, .L127+20
 1663 0074 FB69     		ldr	r3, [r7, #28]
 1664 0076 52F82330 		ldr	r3, [r2, r3, lsl #2]
 1665              		.loc 1 716 17
 1666 007a 1B68     		ldr	r3, [r3]
 1667 007c BB61     		str	r3, [r7, #24]
 1668              		.loc 1 716 7
 1669 007e 1EE0     		b	.L119
 1670              	.L122:
 717:Middlewares/Third_Party/LwIP/src/core/tcp.c ****         if (cpcb->local_port == port) {
 1671              		.loc 1 717 17
 1672 0080 BB69     		ldr	r3, [r7, #24]
 1673 0082 DB8A     		ldrh	r3, [r3, #22]
 1674              		.loc 1 717 12
 1675 0084 FA88     		ldrh	r2, [r7, #6]
 1676 0086 9A42     		cmp	r2, r3
 1677 0088 16D1     		bne	.L120
 718:Middlewares/Third_Party/LwIP/src/core/tcp.c **** #if SO_REUSE
 719:Middlewares/Third_Party/LwIP/src/core/tcp.c ****           /* Omit checking for the same port if both pcbs have REUSEADDR set.
 720:Middlewares/Third_Party/LwIP/src/core/tcp.c ****              For SO_REUSEADDR, the duplicate-check for a 5-tuple is done in
 721:Middlewares/Third_Party/LwIP/src/core/tcp.c ****              tcp_connect. */
 722:Middlewares/Third_Party/LwIP/src/core/tcp.c ****           if (!ip_get_option(pcb, SOF_REUSEADDR) ||
 723:Middlewares/Third_Party/LwIP/src/core/tcp.c ****               !ip_get_option(cpcb, SOF_REUSEADDR))
 724:Middlewares/Third_Party/LwIP/src/core/tcp.c **** #endif /* SO_REUSE */
 725:Middlewares/Third_Party/LwIP/src/core/tcp.c ****           {
 726:Middlewares/Third_Party/LwIP/src/core/tcp.c ****             /* @todo: check accept_any_ip_version */
 727:Middlewares/Third_Party/LwIP/src/core/tcp.c ****             if ((IP_IS_V6(ipaddr) == IP_IS_V6_VAL(cpcb->local_ip)) &&
 728:Middlewares/Third_Party/LwIP/src/core/tcp.c ****                 (ip_addr_isany(&cpcb->local_ip) ||
 1678              		.loc 1 728 18
ARM GAS  /tmp/ccFjPNuy.s 			page 44


 1679 008a BB69     		ldr	r3, [r7, #24]
 727:Middlewares/Third_Party/LwIP/src/core/tcp.c ****                 (ip_addr_isany(&cpcb->local_ip) ||
 1680              		.loc 1 727 16
 1681 008c 002B     		cmp	r3, #0
 1682 008e 10D0     		beq	.L121
 1683              		.loc 1 728 18
 1684 0090 BB69     		ldr	r3, [r7, #24]
 1685 0092 1B68     		ldr	r3, [r3]
 1686 0094 002B     		cmp	r3, #0
 1687 0096 0CD0     		beq	.L121
 1688              		.loc 1 728 49 discriminator 1
 1689 0098 BB68     		ldr	r3, [r7, #8]
 1690 009a 002B     		cmp	r3, #0
 1691 009c 09D0     		beq	.L121
 729:Middlewares/Third_Party/LwIP/src/core/tcp.c ****                  ip_addr_isany(ipaddr) ||
 1692              		.loc 1 729 18
 1693 009e BB68     		ldr	r3, [r7, #8]
 1694 00a0 1B68     		ldr	r3, [r3]
 1695 00a2 002B     		cmp	r3, #0
 1696 00a4 05D0     		beq	.L121
 730:Middlewares/Third_Party/LwIP/src/core/tcp.c ****                  ip_addr_cmp(&cpcb->local_ip, ipaddr))) {
 1697              		.loc 1 730 18
 1698 00a6 BB69     		ldr	r3, [r7, #24]
 1699 00a8 1A68     		ldr	r2, [r3]
 1700 00aa BB68     		ldr	r3, [r7, #8]
 1701 00ac 1B68     		ldr	r3, [r3]
 727:Middlewares/Third_Party/LwIP/src/core/tcp.c ****                 (ip_addr_isany(&cpcb->local_ip) ||
 1702              		.loc 1 727 68
 1703 00ae 9A42     		cmp	r2, r3
 1704 00b0 02D1     		bne	.L120
 1705              	.L121:
 731:Middlewares/Third_Party/LwIP/src/core/tcp.c ****               return ERR_USE;
 1706              		.loc 1 731 22
 1707 00b2 6FF00703 		mvn	r3, #7
 1708 00b6 29E0     		b	.L114
 1709              	.L120:
 716:Middlewares/Third_Party/LwIP/src/core/tcp.c ****         if (cpcb->local_port == port) {
 1710              		.loc 1 716 57 discriminator 2
 1711 00b8 BB69     		ldr	r3, [r7, #24]
 1712 00ba DB68     		ldr	r3, [r3, #12]
 1713 00bc BB61     		str	r3, [r7, #24]
 1714              	.L119:
 716:Middlewares/Third_Party/LwIP/src/core/tcp.c ****         if (cpcb->local_port == port) {
 1715              		.loc 1 716 7 discriminator 1
 1716 00be BB69     		ldr	r3, [r7, #24]
 1717 00c0 002B     		cmp	r3, #0
 1718 00c2 DDD1     		bne	.L122
 715:Middlewares/Third_Party/LwIP/src/core/tcp.c ****       for (cpcb = *tcp_pcb_lists[i]; cpcb != NULL; cpcb = cpcb->next) {
 1719              		.loc 1 715 36 discriminator 2
 1720 00c4 FB69     		ldr	r3, [r7, #28]
 1721 00c6 0133     		adds	r3, r3, #1
 1722 00c8 FB61     		str	r3, [r7, #28]
 1723              	.L118:
 715:Middlewares/Third_Party/LwIP/src/core/tcp.c ****       for (cpcb = *tcp_pcb_lists[i]; cpcb != NULL; cpcb = cpcb->next) {
 1724              		.loc 1 715 5 discriminator 1
 1725 00ca FA69     		ldr	r2, [r7, #28]
 1726 00cc 7B69     		ldr	r3, [r7, #20]
ARM GAS  /tmp/ccFjPNuy.s 			page 45


 1727 00ce 9A42     		cmp	r2, r3
 1728 00d0 CFDB     		blt	.L123
 1729              	.L117:
 732:Middlewares/Third_Party/LwIP/src/core/tcp.c ****             }
 733:Middlewares/Third_Party/LwIP/src/core/tcp.c ****           }
 734:Middlewares/Third_Party/LwIP/src/core/tcp.c ****         }
 735:Middlewares/Third_Party/LwIP/src/core/tcp.c ****       }
 736:Middlewares/Third_Party/LwIP/src/core/tcp.c ****     }
 737:Middlewares/Third_Party/LwIP/src/core/tcp.c ****   }
 738:Middlewares/Third_Party/LwIP/src/core/tcp.c **** 
 739:Middlewares/Third_Party/LwIP/src/core/tcp.c ****   if (!ip_addr_isany(ipaddr)
 1730              		.loc 1 739 6
 1731 00d2 BB68     		ldr	r3, [r7, #8]
 1732 00d4 002B     		cmp	r3, #0
 1733 00d6 0CD0     		beq	.L124
 1734              		.loc 1 739 8 discriminator 1
 1735 00d8 BB68     		ldr	r3, [r7, #8]
 1736 00da 1B68     		ldr	r3, [r3]
 1737              		.loc 1 739 7 discriminator 1
 1738 00dc 002B     		cmp	r3, #0
 1739 00de 08D0     		beq	.L124
 740:Middlewares/Third_Party/LwIP/src/core/tcp.c **** #if LWIP_IPV4 && LWIP_IPV6
 741:Middlewares/Third_Party/LwIP/src/core/tcp.c ****       || (IP_GET_TYPE(ipaddr) != IP_GET_TYPE(&pcb->local_ip))
 742:Middlewares/Third_Party/LwIP/src/core/tcp.c **** #endif /* LWIP_IPV4 && LWIP_IPV6 */
 743:Middlewares/Third_Party/LwIP/src/core/tcp.c ****      ) {
 744:Middlewares/Third_Party/LwIP/src/core/tcp.c ****     ip_addr_set(&pcb->local_ip, ipaddr);
 1740              		.loc 1 744 5
 1741 00e0 BB68     		ldr	r3, [r7, #8]
 1742 00e2 002B     		cmp	r3, #0
 1743 00e4 02D0     		beq	.L125
 1744              		.loc 1 744 5 is_stmt 0 discriminator 1
 1745 00e6 BB68     		ldr	r3, [r7, #8]
 1746 00e8 1B68     		ldr	r3, [r3]
 1747 00ea 00E0     		b	.L126
 1748              	.L125:
 1749              		.loc 1 744 5 discriminator 2
 1750 00ec 0023     		movs	r3, #0
 1751              	.L126:
 1752              		.loc 1 744 5 discriminator 4
 1753 00ee FA68     		ldr	r2, [r7, #12]
 1754 00f0 1360     		str	r3, [r2]
 1755              	.L124:
 745:Middlewares/Third_Party/LwIP/src/core/tcp.c ****   }
 746:Middlewares/Third_Party/LwIP/src/core/tcp.c ****   pcb->local_port = port;
 1756              		.loc 1 746 19 is_stmt 1
 1757 00f2 FB68     		ldr	r3, [r7, #12]
 1758 00f4 FA88     		ldrh	r2, [r7, #6]	@ movhi
 1759 00f6 DA82     		strh	r2, [r3, #22]	@ movhi
 747:Middlewares/Third_Party/LwIP/src/core/tcp.c ****   TCP_REG(&tcp_bound_pcbs, pcb);
 1760              		.loc 1 747 3
 1761 00f8 0C4B     		ldr	r3, .L127+24
 1762 00fa 1A68     		ldr	r2, [r3]
 1763 00fc FB68     		ldr	r3, [r7, #12]
 1764 00fe DA60     		str	r2, [r3, #12]
 1765 0100 0A4A     		ldr	r2, .L127+24
 1766 0102 FB68     		ldr	r3, [r7, #12]
 1767 0104 1360     		str	r3, [r2]
ARM GAS  /tmp/ccFjPNuy.s 			page 46


 1768 0106 FFF7FEFF 		bl	tcp_timer_needed
 748:Middlewares/Third_Party/LwIP/src/core/tcp.c ****   LWIP_DEBUGF(TCP_DEBUG, ("tcp_bind: bind to port %"U16_F"\n", port));
 749:Middlewares/Third_Party/LwIP/src/core/tcp.c ****   return ERR_OK;
 1769              		.loc 1 749 10
 1770 010a 0023     		movs	r3, #0
 1771              	.L114:
 750:Middlewares/Third_Party/LwIP/src/core/tcp.c **** }
 1772              		.loc 1 750 1
 1773 010c 1846     		mov	r0, r3
 1774 010e 2037     		adds	r7, r7, #32
 1775              	.LCFI57:
 1776              		.cfi_def_cfa_offset 8
 1777 0110 BD46     		mov	sp, r7
 1778              	.LCFI58:
 1779              		.cfi_def_cfa_register 13
 1780              		@ sp needed
 1781 0112 80BD     		pop	{r7, pc}
 1782              	.L128:
 1783              		.align	2
 1784              	.L127:
 1785 0114 00000000 		.word	ip_addr_any
 1786 0118 78000000 		.word	.LC11
 1787 011c 08020000 		.word	.LC24
 1788 0120 B8000000 		.word	.LC13
 1789 0124 20020000 		.word	.LC25
 1790 0128 00000000 		.word	tcp_pcb_lists
 1791 012c 00000000 		.word	tcp_bound_pcbs
 1792              		.cfi_endproc
 1793              	.LFE145:
 1795              		.section	.text.tcp_bind_netif,"ax",%progbits
 1796              		.align	1
 1797              		.global	tcp_bind_netif
 1798              		.syntax unified
 1799              		.thumb
 1800              		.thumb_func
 1801              		.fpu fpv4-sp-d16
 1803              	tcp_bind_netif:
 1804              	.LFB146:
 751:Middlewares/Third_Party/LwIP/src/core/tcp.c **** 
 752:Middlewares/Third_Party/LwIP/src/core/tcp.c **** /**
 753:Middlewares/Third_Party/LwIP/src/core/tcp.c ****  * @ingroup tcp_raw
 754:Middlewares/Third_Party/LwIP/src/core/tcp.c ****  * Binds the connection to a netif and IP address.
 755:Middlewares/Third_Party/LwIP/src/core/tcp.c ****  * After calling this function, all packets received via this PCB
 756:Middlewares/Third_Party/LwIP/src/core/tcp.c ****  * are guaranteed to have come in via the specified netif, and all
 757:Middlewares/Third_Party/LwIP/src/core/tcp.c ****  * outgoing packets will go out via the specified netif.
 758:Middlewares/Third_Party/LwIP/src/core/tcp.c ****  *
 759:Middlewares/Third_Party/LwIP/src/core/tcp.c ****  * @param pcb the tcp_pcb to bind.
 760:Middlewares/Third_Party/LwIP/src/core/tcp.c ****  * @param netif the netif to bind to. Can be NULL.
 761:Middlewares/Third_Party/LwIP/src/core/tcp.c ****  */
 762:Middlewares/Third_Party/LwIP/src/core/tcp.c **** void
 763:Middlewares/Third_Party/LwIP/src/core/tcp.c **** tcp_bind_netif(struct tcp_pcb *pcb, const struct netif *netif)
 764:Middlewares/Third_Party/LwIP/src/core/tcp.c **** {
 1805              		.loc 1 764 1
 1806              		.cfi_startproc
 1807              		@ args = 0, pretend = 0, frame = 8
 1808              		@ frame_needed = 1, uses_anonymous_args = 0
 1809              		@ link register save eliminated.
ARM GAS  /tmp/ccFjPNuy.s 			page 47


 1810 0000 80B4     		push	{r7}
 1811              	.LCFI59:
 1812              		.cfi_def_cfa_offset 4
 1813              		.cfi_offset 7, -4
 1814 0002 83B0     		sub	sp, sp, #12
 1815              	.LCFI60:
 1816              		.cfi_def_cfa_offset 16
 1817 0004 00AF     		add	r7, sp, #0
 1818              	.LCFI61:
 1819              		.cfi_def_cfa_register 7
 1820 0006 7860     		str	r0, [r7, #4]
 1821 0008 3960     		str	r1, [r7]
 765:Middlewares/Third_Party/LwIP/src/core/tcp.c ****   LWIP_ASSERT_CORE_LOCKED();
 766:Middlewares/Third_Party/LwIP/src/core/tcp.c ****   if (netif != NULL) {
 1822              		.loc 1 766 6
 1823 000a 3B68     		ldr	r3, [r7]
 1824 000c 002B     		cmp	r3, #0
 1825 000e 07D0     		beq	.L130
 767:Middlewares/Third_Party/LwIP/src/core/tcp.c ****     pcb->netif_idx = netif_get_index(netif);
 1826              		.loc 1 767 22
 1827 0010 3B68     		ldr	r3, [r7]
 1828 0012 93F83430 		ldrb	r3, [r3, #52]	@ zero_extendqisi2
 1829 0016 0133     		adds	r3, r3, #1
 1830 0018 DAB2     		uxtb	r2, r3
 1831              		.loc 1 767 20
 1832 001a 7B68     		ldr	r3, [r7, #4]
 1833 001c 1A72     		strb	r2, [r3, #8]
 768:Middlewares/Third_Party/LwIP/src/core/tcp.c ****   } else {
 769:Middlewares/Third_Party/LwIP/src/core/tcp.c ****     pcb->netif_idx = NETIF_NO_INDEX;
 770:Middlewares/Third_Party/LwIP/src/core/tcp.c ****   }
 771:Middlewares/Third_Party/LwIP/src/core/tcp.c **** }
 1834              		.loc 1 771 1
 1835 001e 02E0     		b	.L132
 1836              	.L130:
 769:Middlewares/Third_Party/LwIP/src/core/tcp.c ****   }
 1837              		.loc 1 769 20
 1838 0020 7B68     		ldr	r3, [r7, #4]
 1839 0022 0022     		movs	r2, #0
 1840 0024 1A72     		strb	r2, [r3, #8]
 1841              	.L132:
 1842              		.loc 1 771 1
 1843 0026 00BF     		nop
 1844 0028 0C37     		adds	r7, r7, #12
 1845              	.LCFI62:
 1846              		.cfi_def_cfa_offset 4
 1847 002a BD46     		mov	sp, r7
 1848              	.LCFI63:
 1849              		.cfi_def_cfa_register 13
 1850              		@ sp needed
 1851 002c 5DF8047B 		ldr	r7, [sp], #4
 1852              	.LCFI64:
 1853              		.cfi_restore 7
 1854              		.cfi_def_cfa_offset 0
 1855 0030 7047     		bx	lr
 1856              		.cfi_endproc
 1857              	.LFE146:
 1859              		.section	.rodata
ARM GAS  /tmp/ccFjPNuy.s 			page 48


 1860              		.align	2
 1861              	.LC26:
 1862 0248 7463705F 		.ascii	"tcp_accept_null: invalid pcb\000"
 1862      61636365 
 1862      70745F6E 
 1862      756C6C3A 
 1862      20696E76 
 1863              		.section	.text.tcp_accept_null,"ax",%progbits
 1864              		.align	1
 1865              		.syntax unified
 1866              		.thumb
 1867              		.thumb_func
 1868              		.fpu fpv4-sp-d16
 1870              	tcp_accept_null:
 1871              	.LFB147:
 772:Middlewares/Third_Party/LwIP/src/core/tcp.c **** 
 773:Middlewares/Third_Party/LwIP/src/core/tcp.c **** #if LWIP_CALLBACK_API
 774:Middlewares/Third_Party/LwIP/src/core/tcp.c **** /**
 775:Middlewares/Third_Party/LwIP/src/core/tcp.c ****  * Default accept callback if no accept callback is specified by the user.
 776:Middlewares/Third_Party/LwIP/src/core/tcp.c ****  */
 777:Middlewares/Third_Party/LwIP/src/core/tcp.c **** static err_t
 778:Middlewares/Third_Party/LwIP/src/core/tcp.c **** tcp_accept_null(void *arg, struct tcp_pcb *pcb, err_t err)
 779:Middlewares/Third_Party/LwIP/src/core/tcp.c **** {
 1872              		.loc 1 779 1
 1873              		.cfi_startproc
 1874              		@ args = 0, pretend = 0, frame = 16
 1875              		@ frame_needed = 1, uses_anonymous_args = 0
 1876 0000 80B5     		push	{r7, lr}
 1877              	.LCFI65:
 1878              		.cfi_def_cfa_offset 8
 1879              		.cfi_offset 7, -8
 1880              		.cfi_offset 14, -4
 1881 0002 84B0     		sub	sp, sp, #16
 1882              	.LCFI66:
 1883              		.cfi_def_cfa_offset 24
 1884 0004 00AF     		add	r7, sp, #0
 1885              	.LCFI67:
 1886              		.cfi_def_cfa_register 7
 1887 0006 F860     		str	r0, [r7, #12]
 1888 0008 B960     		str	r1, [r7, #8]
 1889 000a 1346     		mov	r3, r2
 1890 000c FB71     		strb	r3, [r7, #7]
 780:Middlewares/Third_Party/LwIP/src/core/tcp.c ****   LWIP_UNUSED_ARG(arg);
 781:Middlewares/Third_Party/LwIP/src/core/tcp.c ****   LWIP_UNUSED_ARG(err);
 782:Middlewares/Third_Party/LwIP/src/core/tcp.c **** 
 783:Middlewares/Third_Party/LwIP/src/core/tcp.c ****   LWIP_ASSERT("tcp_accept_null: invalid pcb", pcb != NULL);
 1891              		.loc 1 783 3
 1892 000e BB68     		ldr	r3, [r7, #8]
 1893 0010 002B     		cmp	r3, #0
 1894 0012 06D1     		bne	.L134
 1895              		.loc 1 783 3 is_stmt 0 discriminator 1
 1896 0014 074B     		ldr	r3, .L136
 1897 0016 40F20F32 		movw	r2, #783
 1898 001a 0749     		ldr	r1, .L136+4
 1899 001c 0748     		ldr	r0, .L136+8
 1900 001e FFF7FEFF 		bl	printf
 1901              	.L134:
ARM GAS  /tmp/ccFjPNuy.s 			page 49


 784:Middlewares/Third_Party/LwIP/src/core/tcp.c **** 
 785:Middlewares/Third_Party/LwIP/src/core/tcp.c ****   tcp_abort(pcb);
 1902              		.loc 1 785 3 is_stmt 1
 1903 0022 B868     		ldr	r0, [r7, #8]
 1904 0024 FFF7FEFF 		bl	tcp_abort
 786:Middlewares/Third_Party/LwIP/src/core/tcp.c **** 
 787:Middlewares/Third_Party/LwIP/src/core/tcp.c ****   return ERR_ABRT;
 1905              		.loc 1 787 10
 1906 0028 6FF00C03 		mvn	r3, #12
 788:Middlewares/Third_Party/LwIP/src/core/tcp.c **** }
 1907              		.loc 1 788 1
 1908 002c 1846     		mov	r0, r3
 1909 002e 1037     		adds	r7, r7, #16
 1910              	.LCFI68:
 1911              		.cfi_def_cfa_offset 8
 1912 0030 BD46     		mov	sp, r7
 1913              	.LCFI69:
 1914              		.cfi_def_cfa_register 13
 1915              		@ sp needed
 1916 0032 80BD     		pop	{r7, pc}
 1917              	.L137:
 1918              		.align	2
 1919              	.L136:
 1920 0034 78000000 		.word	.LC11
 1921 0038 48020000 		.word	.LC26
 1922 003c B8000000 		.word	.LC13
 1923              		.cfi_endproc
 1924              	.LFE147:
 1926              		.section	.text.tcp_listen_with_backlog,"ax",%progbits
 1927              		.align	1
 1928              		.global	tcp_listen_with_backlog
 1929              		.syntax unified
 1930              		.thumb
 1931              		.thumb_func
 1932              		.fpu fpv4-sp-d16
 1934              	tcp_listen_with_backlog:
 1935              	.LFB148:
 789:Middlewares/Third_Party/LwIP/src/core/tcp.c **** #endif /* LWIP_CALLBACK_API */
 790:Middlewares/Third_Party/LwIP/src/core/tcp.c **** 
 791:Middlewares/Third_Party/LwIP/src/core/tcp.c **** /**
 792:Middlewares/Third_Party/LwIP/src/core/tcp.c ****  * @ingroup tcp_raw
 793:Middlewares/Third_Party/LwIP/src/core/tcp.c ****  * Set the state of the connection to be LISTEN, which means that it
 794:Middlewares/Third_Party/LwIP/src/core/tcp.c ****  * is able to accept incoming connections. The protocol control block
 795:Middlewares/Third_Party/LwIP/src/core/tcp.c ****  * is reallocated in order to consume less memory. Setting the
 796:Middlewares/Third_Party/LwIP/src/core/tcp.c ****  * connection to LISTEN is an irreversible process.
 797:Middlewares/Third_Party/LwIP/src/core/tcp.c ****  * When an incoming connection is accepted, the function specified with
 798:Middlewares/Third_Party/LwIP/src/core/tcp.c ****  * the tcp_accept() function will be called. The pcb has to be bound
 799:Middlewares/Third_Party/LwIP/src/core/tcp.c ****  * to a local port with the tcp_bind() function.
 800:Middlewares/Third_Party/LwIP/src/core/tcp.c ****  * 
 801:Middlewares/Third_Party/LwIP/src/core/tcp.c ****  * The tcp_listen() function returns a new connection identifier, and
 802:Middlewares/Third_Party/LwIP/src/core/tcp.c ****  * the one passed as an argument to the function will be
 803:Middlewares/Third_Party/LwIP/src/core/tcp.c ****  * deallocated. The reason for this behavior is that less memory is
 804:Middlewares/Third_Party/LwIP/src/core/tcp.c ****  * needed for a connection that is listening, so tcp_listen() will
 805:Middlewares/Third_Party/LwIP/src/core/tcp.c ****  * reclaim the memory needed for the original connection and allocate a
 806:Middlewares/Third_Party/LwIP/src/core/tcp.c ****  * new smaller memory block for the listening connection.
 807:Middlewares/Third_Party/LwIP/src/core/tcp.c ****  *
 808:Middlewares/Third_Party/LwIP/src/core/tcp.c ****  * tcp_listen() may return NULL if no memory was available for the
ARM GAS  /tmp/ccFjPNuy.s 			page 50


 809:Middlewares/Third_Party/LwIP/src/core/tcp.c ****  * listening connection. If so, the memory associated with the pcb
 810:Middlewares/Third_Party/LwIP/src/core/tcp.c ****  * passed as an argument to tcp_listen() will not be deallocated.
 811:Middlewares/Third_Party/LwIP/src/core/tcp.c ****  *
 812:Middlewares/Third_Party/LwIP/src/core/tcp.c ****  * The backlog limits the number of outstanding connections
 813:Middlewares/Third_Party/LwIP/src/core/tcp.c ****  * in the listen queue to the value specified by the backlog argument.
 814:Middlewares/Third_Party/LwIP/src/core/tcp.c ****  * To use it, your need to set TCP_LISTEN_BACKLOG=1 in your lwipopts.h.
 815:Middlewares/Third_Party/LwIP/src/core/tcp.c ****  * 
 816:Middlewares/Third_Party/LwIP/src/core/tcp.c ****  * @param pcb the original tcp_pcb
 817:Middlewares/Third_Party/LwIP/src/core/tcp.c ****  * @param backlog the incoming connections queue limit
 818:Middlewares/Third_Party/LwIP/src/core/tcp.c ****  * @return tcp_pcb used for listening, consumes less memory.
 819:Middlewares/Third_Party/LwIP/src/core/tcp.c ****  *
 820:Middlewares/Third_Party/LwIP/src/core/tcp.c ****  * @note The original tcp_pcb is freed. This function therefore has to be
 821:Middlewares/Third_Party/LwIP/src/core/tcp.c ****  *       called like this:
 822:Middlewares/Third_Party/LwIP/src/core/tcp.c ****  *             tpcb = tcp_listen_with_backlog(tpcb, backlog);
 823:Middlewares/Third_Party/LwIP/src/core/tcp.c ****  */
 824:Middlewares/Third_Party/LwIP/src/core/tcp.c **** struct tcp_pcb *
 825:Middlewares/Third_Party/LwIP/src/core/tcp.c **** tcp_listen_with_backlog(struct tcp_pcb *pcb, u8_t backlog)
 826:Middlewares/Third_Party/LwIP/src/core/tcp.c **** {
 1936              		.loc 1 826 1
 1937              		.cfi_startproc
 1938              		@ args = 0, pretend = 0, frame = 8
 1939              		@ frame_needed = 1, uses_anonymous_args = 0
 1940 0000 80B5     		push	{r7, lr}
 1941              	.LCFI70:
 1942              		.cfi_def_cfa_offset 8
 1943              		.cfi_offset 7, -8
 1944              		.cfi_offset 14, -4
 1945 0002 82B0     		sub	sp, sp, #8
 1946              	.LCFI71:
 1947              		.cfi_def_cfa_offset 16
 1948 0004 00AF     		add	r7, sp, #0
 1949              	.LCFI72:
 1950              		.cfi_def_cfa_register 7
 1951 0006 7860     		str	r0, [r7, #4]
 1952 0008 0B46     		mov	r3, r1
 1953 000a FB70     		strb	r3, [r7, #3]
 827:Middlewares/Third_Party/LwIP/src/core/tcp.c ****   LWIP_ASSERT_CORE_LOCKED();
 828:Middlewares/Third_Party/LwIP/src/core/tcp.c ****   return tcp_listen_with_backlog_and_err(pcb, backlog, NULL);
 1954              		.loc 1 828 10
 1955 000c FB78     		ldrb	r3, [r7, #3]	@ zero_extendqisi2
 1956 000e 0022     		movs	r2, #0
 1957 0010 1946     		mov	r1, r3
 1958 0012 7868     		ldr	r0, [r7, #4]
 1959 0014 FFF7FEFF 		bl	tcp_listen_with_backlog_and_err
 1960 0018 0346     		mov	r3, r0
 829:Middlewares/Third_Party/LwIP/src/core/tcp.c **** }
 1961              		.loc 1 829 1
 1962 001a 1846     		mov	r0, r3
 1963 001c 0837     		adds	r7, r7, #8
 1964              	.LCFI73:
 1965              		.cfi_def_cfa_offset 8
 1966 001e BD46     		mov	sp, r7
 1967              	.LCFI74:
 1968              		.cfi_def_cfa_register 13
 1969              		@ sp needed
 1970 0020 80BD     		pop	{r7, pc}
 1971              		.cfi_endproc
ARM GAS  /tmp/ccFjPNuy.s 			page 51


 1972              	.LFE148:
 1974              		.section	.rodata
 1975 0265 000000   		.align	2
 1976              	.LC27:
 1977 0268 7463705F 		.ascii	"tcp_listen_with_backlog_and_err: invalid pcb\000"
 1977      6C697374 
 1977      656E5F77 
 1977      6974685F 
 1977      6261636B 
 1978 0295 000000   		.align	2
 1979              	.LC28:
 1980 0298 7463705F 		.ascii	"tcp_listen_with_backlog_and_err: pcb already connec"
 1980      6C697374 
 1980      656E5F77 
 1980      6974685F 
 1980      6261636B 
 1981 02cb 74656400 		.ascii	"ted\000"
 1982              		.section	.text.tcp_listen_with_backlog_and_err,"ax",%progbits
 1983              		.align	1
 1984              		.global	tcp_listen_with_backlog_and_err
 1985              		.syntax unified
 1986              		.thumb
 1987              		.thumb_func
 1988              		.fpu fpv4-sp-d16
 1990              	tcp_listen_with_backlog_and_err:
 1991              	.LFB149:
 830:Middlewares/Third_Party/LwIP/src/core/tcp.c **** 
 831:Middlewares/Third_Party/LwIP/src/core/tcp.c **** /**
 832:Middlewares/Third_Party/LwIP/src/core/tcp.c ****  * @ingroup tcp_raw
 833:Middlewares/Third_Party/LwIP/src/core/tcp.c ****  * Set the state of the connection to be LISTEN, which means that it
 834:Middlewares/Third_Party/LwIP/src/core/tcp.c ****  * is able to accept incoming connections. The protocol control block
 835:Middlewares/Third_Party/LwIP/src/core/tcp.c ****  * is reallocated in order to consume less memory. Setting the
 836:Middlewares/Third_Party/LwIP/src/core/tcp.c ****  * connection to LISTEN is an irreversible process.
 837:Middlewares/Third_Party/LwIP/src/core/tcp.c ****  *
 838:Middlewares/Third_Party/LwIP/src/core/tcp.c ****  * @param pcb the original tcp_pcb
 839:Middlewares/Third_Party/LwIP/src/core/tcp.c ****  * @param backlog the incoming connections queue limit
 840:Middlewares/Third_Party/LwIP/src/core/tcp.c ****  * @param err when NULL is returned, this contains the error reason
 841:Middlewares/Third_Party/LwIP/src/core/tcp.c ****  * @return tcp_pcb used for listening, consumes less memory.
 842:Middlewares/Third_Party/LwIP/src/core/tcp.c ****  *
 843:Middlewares/Third_Party/LwIP/src/core/tcp.c ****  * @note The original tcp_pcb is freed. This function therefore has to be
 844:Middlewares/Third_Party/LwIP/src/core/tcp.c ****  *       called like this:
 845:Middlewares/Third_Party/LwIP/src/core/tcp.c ****  *             tpcb = tcp_listen_with_backlog_and_err(tpcb, backlog, &err);
 846:Middlewares/Third_Party/LwIP/src/core/tcp.c ****  */
 847:Middlewares/Third_Party/LwIP/src/core/tcp.c **** struct tcp_pcb *
 848:Middlewares/Third_Party/LwIP/src/core/tcp.c **** tcp_listen_with_backlog_and_err(struct tcp_pcb *pcb, u8_t backlog, err_t *err)
 849:Middlewares/Third_Party/LwIP/src/core/tcp.c **** {
 1992              		.loc 1 849 1
 1993              		.cfi_startproc
 1994              		@ args = 0, pretend = 0, frame = 32
 1995              		@ frame_needed = 1, uses_anonymous_args = 0
 1996 0000 80B5     		push	{r7, lr}
 1997              	.LCFI75:
 1998              		.cfi_def_cfa_offset 8
 1999              		.cfi_offset 7, -8
 2000              		.cfi_offset 14, -4
 2001 0002 88B0     		sub	sp, sp, #32
 2002              	.LCFI76:
ARM GAS  /tmp/ccFjPNuy.s 			page 52


 2003              		.cfi_def_cfa_offset 40
 2004 0004 00AF     		add	r7, sp, #0
 2005              	.LCFI77:
 2006              		.cfi_def_cfa_register 7
 2007 0006 F860     		str	r0, [r7, #12]
 2008 0008 0B46     		mov	r3, r1
 2009 000a 7A60     		str	r2, [r7, #4]
 2010 000c FB72     		strb	r3, [r7, #11]
 850:Middlewares/Third_Party/LwIP/src/core/tcp.c ****   struct tcp_pcb_listen *lpcb = NULL;
 2011              		.loc 1 850 26
 2012 000e 0023     		movs	r3, #0
 2013 0010 FB61     		str	r3, [r7, #28]
 851:Middlewares/Third_Party/LwIP/src/core/tcp.c ****   err_t res;
 852:Middlewares/Third_Party/LwIP/src/core/tcp.c **** 
 853:Middlewares/Third_Party/LwIP/src/core/tcp.c ****   LWIP_UNUSED_ARG(backlog);
 854:Middlewares/Third_Party/LwIP/src/core/tcp.c **** 
 855:Middlewares/Third_Party/LwIP/src/core/tcp.c ****   LWIP_ASSERT_CORE_LOCKED();
 856:Middlewares/Third_Party/LwIP/src/core/tcp.c **** 
 857:Middlewares/Third_Party/LwIP/src/core/tcp.c ****   LWIP_ERROR("tcp_listen_with_backlog_and_err: invalid pcb", pcb != NULL, res = ERR_ARG; goto done)
 2014              		.loc 1 857 3
 2015 0012 FB68     		ldr	r3, [r7, #12]
 2016 0014 002B     		cmp	r3, #0
 2017 0016 09D1     		bne	.L141
 2018              		.loc 1 857 3 is_stmt 0 discriminator 1
 2019 0018 474B     		ldr	r3, .L154
 2020 001a 40F25932 		movw	r2, #857
 2021 001e 4749     		ldr	r1, .L154+4
 2022 0020 4748     		ldr	r0, .L154+8
 2023 0022 FFF7FEFF 		bl	printf
 2024 0026 F023     		movs	r3, #240
 2025 0028 FB76     		strb	r3, [r7, #27]
 2026 002a 79E0     		b	.L142
 2027              	.L141:
 858:Middlewares/Third_Party/LwIP/src/core/tcp.c ****   LWIP_ERROR("tcp_listen_with_backlog_and_err: pcb already connected", pcb->state == CLOSED, res = 
 2028              		.loc 1 858 3 is_stmt 1
 2029 002c FB68     		ldr	r3, [r7, #12]
 2030 002e 1B7D     		ldrb	r3, [r3, #20]	@ zero_extendqisi2
 2031 0030 002B     		cmp	r3, #0
 2032 0032 09D0     		beq	.L143
 2033              		.loc 1 858 3 is_stmt 0 discriminator 1
 2034 0034 404B     		ldr	r3, .L154
 2035 0036 40F25A32 		movw	r2, #858
 2036 003a 4249     		ldr	r1, .L154+12
 2037 003c 4048     		ldr	r0, .L154+8
 2038 003e FFF7FEFF 		bl	printf
 2039 0042 F123     		movs	r3, #241
 2040 0044 FB76     		strb	r3, [r7, #27]
 2041 0046 6BE0     		b	.L142
 2042              	.L143:
 859:Middlewares/Third_Party/LwIP/src/core/tcp.c **** 
 860:Middlewares/Third_Party/LwIP/src/core/tcp.c ****   /* already listening? */
 861:Middlewares/Third_Party/LwIP/src/core/tcp.c ****   if (pcb->state == LISTEN) {
 2043              		.loc 1 861 10 is_stmt 1
 2044 0048 FB68     		ldr	r3, [r7, #12]
 2045 004a 1B7D     		ldrb	r3, [r3, #20]	@ zero_extendqisi2
 2046              		.loc 1 861 6
 2047 004c 012B     		cmp	r3, #1
ARM GAS  /tmp/ccFjPNuy.s 			page 53


 2048 004e 04D1     		bne	.L144
 862:Middlewares/Third_Party/LwIP/src/core/tcp.c ****     lpcb = (struct tcp_pcb_listen *)pcb;
 2049              		.loc 1 862 10
 2050 0050 FB68     		ldr	r3, [r7, #12]
 2051 0052 FB61     		str	r3, [r7, #28]
 863:Middlewares/Third_Party/LwIP/src/core/tcp.c ****     res = ERR_ALREADY;
 2052              		.loc 1 863 9
 2053 0054 F723     		movs	r3, #247
 2054 0056 FB76     		strb	r3, [r7, #27]
 864:Middlewares/Third_Party/LwIP/src/core/tcp.c ****     goto done;
 2055              		.loc 1 864 5
 2056 0058 62E0     		b	.L142
 2057              	.L144:
 865:Middlewares/Third_Party/LwIP/src/core/tcp.c ****   }
 866:Middlewares/Third_Party/LwIP/src/core/tcp.c **** #if SO_REUSE
 867:Middlewares/Third_Party/LwIP/src/core/tcp.c ****   if (ip_get_option(pcb, SOF_REUSEADDR)) {
 868:Middlewares/Third_Party/LwIP/src/core/tcp.c ****     /* Since SOF_REUSEADDR allows reusing a local address before the pcb's usage
 869:Middlewares/Third_Party/LwIP/src/core/tcp.c ****        is declared (listen-/connection-pcb), we have to make sure now that
 870:Middlewares/Third_Party/LwIP/src/core/tcp.c ****        this port is only used once for every local IP. */
 871:Middlewares/Third_Party/LwIP/src/core/tcp.c ****     for (lpcb = tcp_listen_pcbs.listen_pcbs; lpcb != NULL; lpcb = lpcb->next) {
 872:Middlewares/Third_Party/LwIP/src/core/tcp.c ****       if ((lpcb->local_port == pcb->local_port) &&
 873:Middlewares/Third_Party/LwIP/src/core/tcp.c ****           ip_addr_cmp(&lpcb->local_ip, &pcb->local_ip)) {
 874:Middlewares/Third_Party/LwIP/src/core/tcp.c ****         /* this address/port is already used */
 875:Middlewares/Third_Party/LwIP/src/core/tcp.c ****         lpcb = NULL;
 876:Middlewares/Third_Party/LwIP/src/core/tcp.c ****         res = ERR_USE;
 877:Middlewares/Third_Party/LwIP/src/core/tcp.c ****         goto done;
 878:Middlewares/Third_Party/LwIP/src/core/tcp.c ****       }
 879:Middlewares/Third_Party/LwIP/src/core/tcp.c ****     }
 880:Middlewares/Third_Party/LwIP/src/core/tcp.c ****   }
 881:Middlewares/Third_Party/LwIP/src/core/tcp.c **** #endif /* SO_REUSE */
 882:Middlewares/Third_Party/LwIP/src/core/tcp.c ****   lpcb = (struct tcp_pcb_listen *)memp_malloc(MEMP_TCP_PCB_LISTEN);
 2058              		.loc 1 882 35
 2059 005a 0220     		movs	r0, #2
 2060 005c FFF7FEFF 		bl	memp_malloc
 2061 0060 F861     		str	r0, [r7, #28]
 883:Middlewares/Third_Party/LwIP/src/core/tcp.c ****   if (lpcb == NULL) {
 2062              		.loc 1 883 6
 2063 0062 FB69     		ldr	r3, [r7, #28]
 2064 0064 002B     		cmp	r3, #0
 2065 0066 02D1     		bne	.L145
 884:Middlewares/Third_Party/LwIP/src/core/tcp.c ****     res = ERR_MEM;
 2066              		.loc 1 884 9
 2067 0068 FF23     		movs	r3, #255
 2068 006a FB76     		strb	r3, [r7, #27]
 885:Middlewares/Third_Party/LwIP/src/core/tcp.c ****     goto done;
 2069              		.loc 1 885 5
 2070 006c 58E0     		b	.L142
 2071              	.L145:
 886:Middlewares/Third_Party/LwIP/src/core/tcp.c ****   }
 887:Middlewares/Third_Party/LwIP/src/core/tcp.c ****   lpcb->callback_arg = pcb->callback_arg;
 2072              		.loc 1 887 27
 2073 006e FB68     		ldr	r3, [r7, #12]
 2074 0070 1A69     		ldr	r2, [r3, #16]
 2075              		.loc 1 887 22
 2076 0072 FB69     		ldr	r3, [r7, #28]
 2077 0074 1A61     		str	r2, [r3, #16]
 888:Middlewares/Third_Party/LwIP/src/core/tcp.c ****   lpcb->local_port = pcb->local_port;
ARM GAS  /tmp/ccFjPNuy.s 			page 54


 2078              		.loc 1 888 25
 2079 0076 FB68     		ldr	r3, [r7, #12]
 2080 0078 DA8A     		ldrh	r2, [r3, #22]
 2081              		.loc 1 888 20
 2082 007a FB69     		ldr	r3, [r7, #28]
 2083 007c DA82     		strh	r2, [r3, #22]	@ movhi
 889:Middlewares/Third_Party/LwIP/src/core/tcp.c ****   lpcb->state = LISTEN;
 2084              		.loc 1 889 15
 2085 007e FB69     		ldr	r3, [r7, #28]
 2086 0080 0122     		movs	r2, #1
 2087 0082 1A75     		strb	r2, [r3, #20]
 890:Middlewares/Third_Party/LwIP/src/core/tcp.c ****   lpcb->prio = pcb->prio;
 2088              		.loc 1 890 19
 2089 0084 FB68     		ldr	r3, [r7, #12]
 2090 0086 5A7D     		ldrb	r2, [r3, #21]	@ zero_extendqisi2
 2091              		.loc 1 890 14
 2092 0088 FB69     		ldr	r3, [r7, #28]
 2093 008a 5A75     		strb	r2, [r3, #21]
 891:Middlewares/Third_Party/LwIP/src/core/tcp.c ****   lpcb->so_options = pcb->so_options;
 2094              		.loc 1 891 25
 2095 008c FB68     		ldr	r3, [r7, #12]
 2096 008e 5A7A     		ldrb	r2, [r3, #9]	@ zero_extendqisi2
 2097              		.loc 1 891 20
 2098 0090 FB69     		ldr	r3, [r7, #28]
 2099 0092 5A72     		strb	r2, [r3, #9]
 892:Middlewares/Third_Party/LwIP/src/core/tcp.c ****   lpcb->netif_idx = NETIF_NO_INDEX;
 2100              		.loc 1 892 19
 2101 0094 FB69     		ldr	r3, [r7, #28]
 2102 0096 0022     		movs	r2, #0
 2103 0098 1A72     		strb	r2, [r3, #8]
 893:Middlewares/Third_Party/LwIP/src/core/tcp.c ****   lpcb->ttl = pcb->ttl;
 2104              		.loc 1 893 18
 2105 009a FB68     		ldr	r3, [r7, #12]
 2106 009c DA7A     		ldrb	r2, [r3, #11]	@ zero_extendqisi2
 2107              		.loc 1 893 13
 2108 009e FB69     		ldr	r3, [r7, #28]
 2109 00a0 DA72     		strb	r2, [r3, #11]
 894:Middlewares/Third_Party/LwIP/src/core/tcp.c ****   lpcb->tos = pcb->tos;
 2110              		.loc 1 894 18
 2111 00a2 FB68     		ldr	r3, [r7, #12]
 2112 00a4 9A7A     		ldrb	r2, [r3, #10]	@ zero_extendqisi2
 2113              		.loc 1 894 13
 2114 00a6 FB69     		ldr	r3, [r7, #28]
 2115 00a8 9A72     		strb	r2, [r3, #10]
 895:Middlewares/Third_Party/LwIP/src/core/tcp.c **** #if LWIP_IPV4 && LWIP_IPV6
 896:Middlewares/Third_Party/LwIP/src/core/tcp.c ****   IP_SET_TYPE_VAL(lpcb->remote_ip, pcb->local_ip.type);
 897:Middlewares/Third_Party/LwIP/src/core/tcp.c **** #endif /* LWIP_IPV4 && LWIP_IPV6 */
 898:Middlewares/Third_Party/LwIP/src/core/tcp.c ****   ip_addr_copy(lpcb->local_ip, pcb->local_ip);
 2116              		.loc 1 898 3
 2117 00aa FB68     		ldr	r3, [r7, #12]
 2118 00ac 1A68     		ldr	r2, [r3]
 2119 00ae FB69     		ldr	r3, [r7, #28]
 2120 00b0 1A60     		str	r2, [r3]
 899:Middlewares/Third_Party/LwIP/src/core/tcp.c ****   if (pcb->local_port != 0) {
 2121              		.loc 1 899 10
 2122 00b2 FB68     		ldr	r3, [r7, #12]
 2123 00b4 DB8A     		ldrh	r3, [r3, #22]
ARM GAS  /tmp/ccFjPNuy.s 			page 55


 2124              		.loc 1 899 6
 2125 00b6 002B     		cmp	r3, #0
 2126 00b8 21D0     		beq	.L146
 900:Middlewares/Third_Party/LwIP/src/core/tcp.c ****     TCP_RMV(&tcp_bound_pcbs, pcb);
 2127              		.loc 1 900 5
 2128 00ba 234B     		ldr	r3, .L154+16
 2129 00bc 1B68     		ldr	r3, [r3]
 2130 00be FA68     		ldr	r2, [r7, #12]
 2131 00c0 9A42     		cmp	r2, r3
 2132 00c2 05D1     		bne	.L147
 2133              		.loc 1 900 5 is_stmt 0 discriminator 1
 2134 00c4 204B     		ldr	r3, .L154+16
 2135 00c6 1B68     		ldr	r3, [r3]
 2136 00c8 DB68     		ldr	r3, [r3, #12]
 2137 00ca 1F4A     		ldr	r2, .L154+16
 2138 00cc 1360     		str	r3, [r2]
 2139 00ce 13E0     		b	.L148
 2140              	.L147:
 2141              	.LBB6:
 2142              		.loc 1 900 5 discriminator 2
 2143 00d0 1D4B     		ldr	r3, .L154+16
 2144 00d2 1B68     		ldr	r3, [r3]
 2145 00d4 7B61     		str	r3, [r7, #20]
 2146 00d6 0CE0     		b	.L149
 2147              	.L151:
 2148              		.loc 1 900 5 discriminator 9
 2149 00d8 7B69     		ldr	r3, [r7, #20]
 2150 00da DB68     		ldr	r3, [r3, #12]
 2151 00dc FA68     		ldr	r2, [r7, #12]
 2152 00de 9A42     		cmp	r2, r3
 2153 00e0 04D1     		bne	.L150
 2154              		.loc 1 900 5 discriminator 5
 2155 00e2 FB68     		ldr	r3, [r7, #12]
 2156 00e4 DA68     		ldr	r2, [r3, #12]
 2157 00e6 7B69     		ldr	r3, [r7, #20]
 2158 00e8 DA60     		str	r2, [r3, #12]
 2159 00ea 05E0     		b	.L148
 2160              	.L150:
 2161              		.loc 1 900 5 discriminator 6
 2162 00ec 7B69     		ldr	r3, [r7, #20]
 2163 00ee DB68     		ldr	r3, [r3, #12]
 2164 00f0 7B61     		str	r3, [r7, #20]
 2165              	.L149:
 2166              		.loc 1 900 5 discriminator 8
 2167 00f2 7B69     		ldr	r3, [r7, #20]
 2168 00f4 002B     		cmp	r3, #0
 2169 00f6 EFD1     		bne	.L151
 2170              	.L148:
 2171              	.LBE6:
 2172              		.loc 1 900 5 discriminator 10
 2173 00f8 FB68     		ldr	r3, [r7, #12]
 2174 00fa 0022     		movs	r2, #0
 2175 00fc DA60     		str	r2, [r3, #12]
 2176              	.L146:
 901:Middlewares/Third_Party/LwIP/src/core/tcp.c ****   }
 902:Middlewares/Third_Party/LwIP/src/core/tcp.c **** #if LWIP_TCP_PCB_NUM_EXT_ARGS
 903:Middlewares/Third_Party/LwIP/src/core/tcp.c ****   /* copy over ext_args to listening pcb  */
ARM GAS  /tmp/ccFjPNuy.s 			page 56


 904:Middlewares/Third_Party/LwIP/src/core/tcp.c ****   memcpy(&lpcb->ext_args, &pcb->ext_args, sizeof(pcb->ext_args));
 905:Middlewares/Third_Party/LwIP/src/core/tcp.c **** #endif
 906:Middlewares/Third_Party/LwIP/src/core/tcp.c ****   tcp_free(pcb);
 2177              		.loc 1 906 3 is_stmt 1
 2178 00fe F868     		ldr	r0, [r7, #12]
 2179 0100 FFF7FEFF 		bl	tcp_free
 907:Middlewares/Third_Party/LwIP/src/core/tcp.c **** #if LWIP_CALLBACK_API
 908:Middlewares/Third_Party/LwIP/src/core/tcp.c ****   lpcb->accept = tcp_accept_null;
 2180              		.loc 1 908 16
 2181 0104 FB69     		ldr	r3, [r7, #28]
 2182 0106 114A     		ldr	r2, .L154+20
 2183 0108 9A61     		str	r2, [r3, #24]
 909:Middlewares/Third_Party/LwIP/src/core/tcp.c **** #endif /* LWIP_CALLBACK_API */
 910:Middlewares/Third_Party/LwIP/src/core/tcp.c **** #if TCP_LISTEN_BACKLOG
 911:Middlewares/Third_Party/LwIP/src/core/tcp.c ****   lpcb->accepts_pending = 0;
 912:Middlewares/Third_Party/LwIP/src/core/tcp.c ****   tcp_backlog_set(lpcb, backlog);
 913:Middlewares/Third_Party/LwIP/src/core/tcp.c **** #endif /* TCP_LISTEN_BACKLOG */
 914:Middlewares/Third_Party/LwIP/src/core/tcp.c ****   TCP_REG(&tcp_listen_pcbs.pcbs, (struct tcp_pcb *)lpcb);
 2184              		.loc 1 914 3
 2185 010a 114B     		ldr	r3, .L154+24
 2186 010c 1A68     		ldr	r2, [r3]
 2187 010e FB69     		ldr	r3, [r7, #28]
 2188 0110 DA60     		str	r2, [r3, #12]
 2189 0112 0F4A     		ldr	r2, .L154+24
 2190 0114 FB69     		ldr	r3, [r7, #28]
 2191 0116 1360     		str	r3, [r2]
 2192 0118 FFF7FEFF 		bl	tcp_timer_needed
 915:Middlewares/Third_Party/LwIP/src/core/tcp.c ****   res = ERR_OK;
 2193              		.loc 1 915 7
 2194 011c 0023     		movs	r3, #0
 2195 011e FB76     		strb	r3, [r7, #27]
 2196              	.L142:
 916:Middlewares/Third_Party/LwIP/src/core/tcp.c **** done:
 917:Middlewares/Third_Party/LwIP/src/core/tcp.c ****   if (err != NULL) {
 2197              		.loc 1 917 6
 2198 0120 7B68     		ldr	r3, [r7, #4]
 2199 0122 002B     		cmp	r3, #0
 2200 0124 02D0     		beq	.L152
 918:Middlewares/Third_Party/LwIP/src/core/tcp.c ****     *err = res;
 2201              		.loc 1 918 10
 2202 0126 7B68     		ldr	r3, [r7, #4]
 2203 0128 FA7E     		ldrb	r2, [r7, #27]
 2204 012a 1A70     		strb	r2, [r3]
 2205              	.L152:
 919:Middlewares/Third_Party/LwIP/src/core/tcp.c ****   }
 920:Middlewares/Third_Party/LwIP/src/core/tcp.c ****   return (struct tcp_pcb *)lpcb;
 2206              		.loc 1 920 10
 2207 012c FB69     		ldr	r3, [r7, #28]
 921:Middlewares/Third_Party/LwIP/src/core/tcp.c **** }
 2208              		.loc 1 921 1
 2209 012e 1846     		mov	r0, r3
 2210 0130 2037     		adds	r7, r7, #32
 2211              	.LCFI78:
 2212              		.cfi_def_cfa_offset 8
 2213 0132 BD46     		mov	sp, r7
 2214              	.LCFI79:
 2215              		.cfi_def_cfa_register 13
ARM GAS  /tmp/ccFjPNuy.s 			page 57


 2216              		@ sp needed
 2217 0134 80BD     		pop	{r7, pc}
 2218              	.L155:
 2219 0136 00BF     		.align	2
 2220              	.L154:
 2221 0138 78000000 		.word	.LC11
 2222 013c 68020000 		.word	.LC27
 2223 0140 B8000000 		.word	.LC13
 2224 0144 98020000 		.word	.LC28
 2225 0148 00000000 		.word	tcp_bound_pcbs
 2226 014c 00000000 		.word	tcp_accept_null
 2227 0150 00000000 		.word	tcp_listen_pcbs
 2228              		.cfi_endproc
 2229              	.LFE149:
 2231              		.section	.rodata
 2232 02cf 00       		.align	2
 2233              	.LC29:
 2234 02d0 7463705F 		.ascii	"tcp_update_rcv_ann_wnd: invalid pcb\000"
 2234      75706461 
 2234      74655F72 
 2234      63765F61 
 2234      6E6E5F77 
 2235              		.align	2
 2236              	.LC30:
 2237 02f4 6E65775F 		.ascii	"new_rcv_ann_wnd <= 0xffff\000"
 2237      7263765F 
 2237      616E6E5F 
 2237      776E6420 
 2237      3C3D2030 
 2238              		.section	.text.tcp_update_rcv_ann_wnd,"ax",%progbits
 2239              		.align	1
 2240              		.global	tcp_update_rcv_ann_wnd
 2241              		.syntax unified
 2242              		.thumb
 2243              		.thumb_func
 2244              		.fpu fpv4-sp-d16
 2246              	tcp_update_rcv_ann_wnd:
 2247              	.LFB150:
 922:Middlewares/Third_Party/LwIP/src/core/tcp.c **** 
 923:Middlewares/Third_Party/LwIP/src/core/tcp.c **** /**
 924:Middlewares/Third_Party/LwIP/src/core/tcp.c ****  * Update the state that tracks the available window space to advertise.
 925:Middlewares/Third_Party/LwIP/src/core/tcp.c ****  *
 926:Middlewares/Third_Party/LwIP/src/core/tcp.c ****  * Returns how much extra window would be advertised if we sent an
 927:Middlewares/Third_Party/LwIP/src/core/tcp.c ****  * update now.
 928:Middlewares/Third_Party/LwIP/src/core/tcp.c ****  */
 929:Middlewares/Third_Party/LwIP/src/core/tcp.c **** u32_t
 930:Middlewares/Third_Party/LwIP/src/core/tcp.c **** tcp_update_rcv_ann_wnd(struct tcp_pcb *pcb)
 931:Middlewares/Third_Party/LwIP/src/core/tcp.c **** {
 2248              		.loc 1 931 1
 2249              		.cfi_startproc
 2250              		@ args = 0, pretend = 0, frame = 16
 2251              		@ frame_needed = 1, uses_anonymous_args = 0
 2252 0000 80B5     		push	{r7, lr}
 2253              	.LCFI80:
 2254              		.cfi_def_cfa_offset 8
 2255              		.cfi_offset 7, -8
 2256              		.cfi_offset 14, -4
ARM GAS  /tmp/ccFjPNuy.s 			page 58


 2257 0002 84B0     		sub	sp, sp, #16
 2258              	.LCFI81:
 2259              		.cfi_def_cfa_offset 24
 2260 0004 00AF     		add	r7, sp, #0
 2261              	.LCFI82:
 2262              		.cfi_def_cfa_register 7
 2263 0006 7860     		str	r0, [r7, #4]
 932:Middlewares/Third_Party/LwIP/src/core/tcp.c ****   u32_t new_right_edge;
 933:Middlewares/Third_Party/LwIP/src/core/tcp.c **** 
 934:Middlewares/Third_Party/LwIP/src/core/tcp.c ****   LWIP_ASSERT("tcp_update_rcv_ann_wnd: invalid pcb", pcb != NULL);
 2264              		.loc 1 934 3
 2265 0008 7B68     		ldr	r3, [r7, #4]
 2266 000a 002B     		cmp	r3, #0
 2267 000c 06D1     		bne	.L157
 2268              		.loc 1 934 3 is_stmt 0 discriminator 1
 2269 000e 254B     		ldr	r3, .L163
 2270 0010 40F2A632 		movw	r2, #934
 2271 0014 2449     		ldr	r1, .L163+4
 2272 0016 2548     		ldr	r0, .L163+8
 2273 0018 FFF7FEFF 		bl	printf
 2274              	.L157:
 935:Middlewares/Third_Party/LwIP/src/core/tcp.c ****   new_right_edge = pcb->rcv_nxt + pcb->rcv_wnd;
 2275              		.loc 1 935 23 is_stmt 1
 2276 001c 7B68     		ldr	r3, [r7, #4]
 2277 001e 5B6A     		ldr	r3, [r3, #36]
 2278              		.loc 1 935 38
 2279 0020 7A68     		ldr	r2, [r7, #4]
 2280 0022 128D     		ldrh	r2, [r2, #40]
 2281              		.loc 1 935 18
 2282 0024 1344     		add	r3, r3, r2
 2283 0026 FB60     		str	r3, [r7, #12]
 936:Middlewares/Third_Party/LwIP/src/core/tcp.c **** 
 937:Middlewares/Third_Party/LwIP/src/core/tcp.c ****   if (TCP_SEQ_GEQ(new_right_edge, pcb->rcv_ann_right_edge + LWIP_MIN((TCP_WND / 2), pcb->mss))) {
 2284              		.loc 1 937 7
 2285 0028 7B68     		ldr	r3, [r7, #4]
 2286 002a DB6A     		ldr	r3, [r3, #44]
 2287 002c 7A68     		ldr	r2, [r7, #4]
 2288 002e 528E     		ldrh	r2, [r2, #50]
 2289 0030 B2F5866F 		cmp	r2, #1072
 2290 0034 28BF     		it	cs
 2291 0036 4FF48662 		movcs	r2, #1072
 2292 003a 92B2     		uxth	r2, r2
 2293 003c 1344     		add	r3, r3, r2
 2294 003e FA68     		ldr	r2, [r7, #12]
 2295 0040 D31A     		subs	r3, r2, r3
 2296              		.loc 1 937 6
 2297 0042 002B     		cmp	r3, #0
 2298 0044 08DB     		blt	.L158
 938:Middlewares/Third_Party/LwIP/src/core/tcp.c ****     /* we can advertise more window */
 939:Middlewares/Third_Party/LwIP/src/core/tcp.c ****     pcb->rcv_ann_wnd = pcb->rcv_wnd;
 2299              		.loc 1 939 27
 2300 0046 7B68     		ldr	r3, [r7, #4]
 2301 0048 1A8D     		ldrh	r2, [r3, #40]
 2302              		.loc 1 939 22
 2303 004a 7B68     		ldr	r3, [r7, #4]
 2304 004c 5A85     		strh	r2, [r3, #42]	@ movhi
 940:Middlewares/Third_Party/LwIP/src/core/tcp.c ****     return new_right_edge - pcb->rcv_ann_right_edge;
ARM GAS  /tmp/ccFjPNuy.s 			page 59


 2305              		.loc 1 940 32
 2306 004e 7B68     		ldr	r3, [r7, #4]
 2307 0050 DB6A     		ldr	r3, [r3, #44]
 2308              		.loc 1 940 27
 2309 0052 FA68     		ldr	r2, [r7, #12]
 2310 0054 D31A     		subs	r3, r2, r3
 2311 0056 20E0     		b	.L159
 2312              	.L158:
 941:Middlewares/Third_Party/LwIP/src/core/tcp.c ****   } else {
 942:Middlewares/Third_Party/LwIP/src/core/tcp.c ****     if (TCP_SEQ_GT(pcb->rcv_nxt, pcb->rcv_ann_right_edge)) {
 2313              		.loc 1 942 9
 2314 0058 7B68     		ldr	r3, [r7, #4]
 2315 005a 5A6A     		ldr	r2, [r3, #36]
 2316 005c 7B68     		ldr	r3, [r7, #4]
 2317 005e DB6A     		ldr	r3, [r3, #44]
 2318 0060 D31A     		subs	r3, r2, r3
 2319              		.loc 1 942 8
 2320 0062 002B     		cmp	r3, #0
 2321 0064 03DD     		ble	.L160
 943:Middlewares/Third_Party/LwIP/src/core/tcp.c ****       /* Can happen due to other end sending out of advertised window,
 944:Middlewares/Third_Party/LwIP/src/core/tcp.c ****        * but within actual available (but not yet advertised) window */
 945:Middlewares/Third_Party/LwIP/src/core/tcp.c ****       pcb->rcv_ann_wnd = 0;
 2322              		.loc 1 945 24
 2323 0066 7B68     		ldr	r3, [r7, #4]
 2324 0068 0022     		movs	r2, #0
 2325 006a 5A85     		strh	r2, [r3, #42]	@ movhi
 2326 006c 14E0     		b	.L161
 2327              	.L160:
 2328              	.LBB7:
 946:Middlewares/Third_Party/LwIP/src/core/tcp.c ****     } else {
 947:Middlewares/Third_Party/LwIP/src/core/tcp.c ****       /* keep the right edge of window constant */
 948:Middlewares/Third_Party/LwIP/src/core/tcp.c ****       u32_t new_rcv_ann_wnd = pcb->rcv_ann_right_edge - pcb->rcv_nxt;
 2329              		.loc 1 948 34
 2330 006e 7B68     		ldr	r3, [r7, #4]
 2331 0070 DA6A     		ldr	r2, [r3, #44]
 2332              		.loc 1 948 60
 2333 0072 7B68     		ldr	r3, [r7, #4]
 2334 0074 5B6A     		ldr	r3, [r3, #36]
 2335              		.loc 1 948 13
 2336 0076 D31A     		subs	r3, r2, r3
 2337 0078 BB60     		str	r3, [r7, #8]
 949:Middlewares/Third_Party/LwIP/src/core/tcp.c **** #if !LWIP_WND_SCALE
 950:Middlewares/Third_Party/LwIP/src/core/tcp.c ****       LWIP_ASSERT("new_rcv_ann_wnd <= 0xffff", new_rcv_ann_wnd <= 0xffff);
 2338              		.loc 1 950 7
 2339 007a BB68     		ldr	r3, [r7, #8]
 2340 007c B3F5803F 		cmp	r3, #65536
 2341 0080 06D3     		bcc	.L162
 2342              		.loc 1 950 7 is_stmt 0 discriminator 1
 2343 0082 084B     		ldr	r3, .L163
 2344 0084 40F2B632 		movw	r2, #950
 2345 0088 0949     		ldr	r1, .L163+12
 2346 008a 0848     		ldr	r0, .L163+8
 2347 008c FFF7FEFF 		bl	printf
 2348              	.L162:
 951:Middlewares/Third_Party/LwIP/src/core/tcp.c **** #endif
 952:Middlewares/Third_Party/LwIP/src/core/tcp.c ****       pcb->rcv_ann_wnd = (tcpwnd_size_t)new_rcv_ann_wnd;
 2349              		.loc 1 952 26 is_stmt 1
ARM GAS  /tmp/ccFjPNuy.s 			page 60


 2350 0090 BB68     		ldr	r3, [r7, #8]
 2351 0092 9AB2     		uxth	r2, r3
 2352              		.loc 1 952 24
 2353 0094 7B68     		ldr	r3, [r7, #4]
 2354 0096 5A85     		strh	r2, [r3, #42]	@ movhi
 2355              	.L161:
 2356              	.LBE7:
 953:Middlewares/Third_Party/LwIP/src/core/tcp.c ****     }
 954:Middlewares/Third_Party/LwIP/src/core/tcp.c ****     return 0;
 2357              		.loc 1 954 12
 2358 0098 0023     		movs	r3, #0
 2359              	.L159:
 955:Middlewares/Third_Party/LwIP/src/core/tcp.c ****   }
 956:Middlewares/Third_Party/LwIP/src/core/tcp.c **** }
 2360              		.loc 1 956 1
 2361 009a 1846     		mov	r0, r3
 2362 009c 1037     		adds	r7, r7, #16
 2363              	.LCFI83:
 2364              		.cfi_def_cfa_offset 8
 2365 009e BD46     		mov	sp, r7
 2366              	.LCFI84:
 2367              		.cfi_def_cfa_register 13
 2368              		@ sp needed
 2369 00a0 80BD     		pop	{r7, pc}
 2370              	.L164:
 2371 00a2 00BF     		.align	2
 2372              	.L163:
 2373 00a4 78000000 		.word	.LC11
 2374 00a8 D0020000 		.word	.LC29
 2375 00ac B8000000 		.word	.LC13
 2376 00b0 F4020000 		.word	.LC30
 2377              		.cfi_endproc
 2378              	.LFE150:
 2380              		.section	.rodata
 2381 030e 0000     		.align	2
 2382              	.LC31:
 2383 0310 7463705F 		.ascii	"tcp_recved: invalid pcb\000"
 2383      72656376 
 2383      65643A20 
 2383      696E7661 
 2383      6C696420 
 2384              		.align	2
 2385              	.LC32:
 2386 0328 646F6E27 		.ascii	"don't call tcp_recved for listen-pcbs\000"
 2386      74206361 
 2386      6C6C2074 
 2386      63705F72 
 2386      65637665 
 2387              		.section	.text.tcp_recved,"ax",%progbits
 2388              		.align	1
 2389              		.global	tcp_recved
 2390              		.syntax unified
 2391              		.thumb
 2392              		.thumb_func
 2393              		.fpu fpv4-sp-d16
 2395              	tcp_recved:
 2396              	.LFB151:
ARM GAS  /tmp/ccFjPNuy.s 			page 61


 957:Middlewares/Third_Party/LwIP/src/core/tcp.c **** 
 958:Middlewares/Third_Party/LwIP/src/core/tcp.c **** /**
 959:Middlewares/Third_Party/LwIP/src/core/tcp.c ****  * @ingroup tcp_raw
 960:Middlewares/Third_Party/LwIP/src/core/tcp.c ****  * This function should be called by the application when it has
 961:Middlewares/Third_Party/LwIP/src/core/tcp.c ****  * processed the data. The purpose is to advertise a larger window
 962:Middlewares/Third_Party/LwIP/src/core/tcp.c ****  * when the data has been processed.
 963:Middlewares/Third_Party/LwIP/src/core/tcp.c ****  *
 964:Middlewares/Third_Party/LwIP/src/core/tcp.c ****  * @param pcb the tcp_pcb for which data is read
 965:Middlewares/Third_Party/LwIP/src/core/tcp.c ****  * @param len the amount of bytes that have been read by the application
 966:Middlewares/Third_Party/LwIP/src/core/tcp.c ****  */
 967:Middlewares/Third_Party/LwIP/src/core/tcp.c **** void
 968:Middlewares/Third_Party/LwIP/src/core/tcp.c **** tcp_recved(struct tcp_pcb *pcb, u16_t len)
 969:Middlewares/Third_Party/LwIP/src/core/tcp.c **** {
 2397              		.loc 1 969 1
 2398              		.cfi_startproc
 2399              		@ args = 0, pretend = 0, frame = 16
 2400              		@ frame_needed = 1, uses_anonymous_args = 0
 2401 0000 80B5     		push	{r7, lr}
 2402              	.LCFI85:
 2403              		.cfi_def_cfa_offset 8
 2404              		.cfi_offset 7, -8
 2405              		.cfi_offset 14, -4
 2406 0002 84B0     		sub	sp, sp, #16
 2407              	.LCFI86:
 2408              		.cfi_def_cfa_offset 24
 2409 0004 00AF     		add	r7, sp, #0
 2410              	.LCFI87:
 2411              		.cfi_def_cfa_register 7
 2412 0006 7860     		str	r0, [r7, #4]
 2413 0008 0B46     		mov	r3, r1
 2414 000a 7B80     		strh	r3, [r7, #2]	@ movhi
 970:Middlewares/Third_Party/LwIP/src/core/tcp.c ****   u32_t wnd_inflation;
 971:Middlewares/Third_Party/LwIP/src/core/tcp.c ****   tcpwnd_size_t rcv_wnd;
 972:Middlewares/Third_Party/LwIP/src/core/tcp.c **** 
 973:Middlewares/Third_Party/LwIP/src/core/tcp.c ****   LWIP_ASSERT_CORE_LOCKED();
 974:Middlewares/Third_Party/LwIP/src/core/tcp.c **** 
 975:Middlewares/Third_Party/LwIP/src/core/tcp.c ****   LWIP_ERROR("tcp_recved: invalid pcb", pcb != NULL, return);
 2415              		.loc 1 975 3
 2416 000c 7B68     		ldr	r3, [r7, #4]
 2417 000e 002B     		cmp	r3, #0
 2418 0010 07D1     		bne	.L166
 2419              		.loc 1 975 3 is_stmt 0 discriminator 1
 2420 0012 1F4B     		ldr	r3, .L172
 2421 0014 40F2CF32 		movw	r2, #975
 2422 0018 1E49     		ldr	r1, .L172+4
 2423 001a 1F48     		ldr	r0, .L172+8
 2424 001c FFF7FEFF 		bl	printf
 2425 0020 32E0     		b	.L165
 2426              	.L166:
 976:Middlewares/Third_Party/LwIP/src/core/tcp.c **** 
 977:Middlewares/Third_Party/LwIP/src/core/tcp.c ****   /* pcb->state LISTEN not allowed here */
 978:Middlewares/Third_Party/LwIP/src/core/tcp.c ****   LWIP_ASSERT("don't call tcp_recved for listen-pcbs",
 2427              		.loc 1 978 3 is_stmt 1
 2428 0022 7B68     		ldr	r3, [r7, #4]
 2429 0024 1B7D     		ldrb	r3, [r3, #20]	@ zero_extendqisi2
 2430 0026 012B     		cmp	r3, #1
 2431 0028 06D1     		bne	.L168
ARM GAS  /tmp/ccFjPNuy.s 			page 62


 2432              		.loc 1 978 3 is_stmt 0 discriminator 1
 2433 002a 194B     		ldr	r3, .L172
 2434 002c 40F2D332 		movw	r2, #979
 2435 0030 1A49     		ldr	r1, .L172+12
 2436 0032 1948     		ldr	r0, .L172+8
 2437 0034 FFF7FEFF 		bl	printf
 2438              	.L168:
 979:Middlewares/Third_Party/LwIP/src/core/tcp.c ****               pcb->state != LISTEN);
 980:Middlewares/Third_Party/LwIP/src/core/tcp.c **** 
 981:Middlewares/Third_Party/LwIP/src/core/tcp.c ****   rcv_wnd = (tcpwnd_size_t)(pcb->rcv_wnd + len);
 2439              		.loc 1 981 32 is_stmt 1
 2440 0038 7B68     		ldr	r3, [r7, #4]
 2441 003a 1A8D     		ldrh	r2, [r3, #40]
 2442              		.loc 1 981 11
 2443 003c 7B88     		ldrh	r3, [r7, #2]	@ movhi
 2444 003e 1344     		add	r3, r3, r2
 2445 0040 FB81     		strh	r3, [r7, #14]	@ movhi
 982:Middlewares/Third_Party/LwIP/src/core/tcp.c ****   if ((rcv_wnd > TCP_WND_MAX(pcb)) || (rcv_wnd < pcb->rcv_wnd)) {
 2446              		.loc 1 982 6
 2447 0042 FB89     		ldrh	r3, [r7, #14]
 2448 0044 B3F5066F 		cmp	r3, #2144
 2449 0048 04D8     		bhi	.L169
 2450              		.loc 1 982 53 discriminator 1
 2451 004a 7B68     		ldr	r3, [r7, #4]
 2452 004c 1B8D     		ldrh	r3, [r3, #40]
 2453              		.loc 1 982 36 discriminator 1
 2454 004e FA89     		ldrh	r2, [r7, #14]
 2455 0050 9A42     		cmp	r2, r3
 2456 0052 04D2     		bcs	.L170
 2457              	.L169:
 983:Middlewares/Third_Party/LwIP/src/core/tcp.c ****     /* window got too big or tcpwnd_size_t overflow */
 984:Middlewares/Third_Party/LwIP/src/core/tcp.c ****     LWIP_DEBUGF(TCP_DEBUG, ("tcp_recved: window got too big or tcpwnd_size_t overflow\n"));
 985:Middlewares/Third_Party/LwIP/src/core/tcp.c ****     pcb->rcv_wnd = TCP_WND_MAX(pcb);
 2458              		.loc 1 985 18
 2459 0054 7B68     		ldr	r3, [r7, #4]
 2460 0056 4FF40662 		mov	r2, #2144
 2461 005a 1A85     		strh	r2, [r3, #40]	@ movhi
 2462 005c 02E0     		b	.L171
 2463              	.L170:
 986:Middlewares/Third_Party/LwIP/src/core/tcp.c ****   } else  {
 987:Middlewares/Third_Party/LwIP/src/core/tcp.c ****     pcb->rcv_wnd = rcv_wnd;
 2464              		.loc 1 987 18
 2465 005e 7B68     		ldr	r3, [r7, #4]
 2466 0060 FA89     		ldrh	r2, [r7, #14]	@ movhi
 2467 0062 1A85     		strh	r2, [r3, #40]	@ movhi
 2468              	.L171:
 988:Middlewares/Third_Party/LwIP/src/core/tcp.c ****   }
 989:Middlewares/Third_Party/LwIP/src/core/tcp.c **** 
 990:Middlewares/Third_Party/LwIP/src/core/tcp.c ****   wnd_inflation = tcp_update_rcv_ann_wnd(pcb);
 2469              		.loc 1 990 19
 2470 0064 7868     		ldr	r0, [r7, #4]
 2471 0066 FFF7FEFF 		bl	tcp_update_rcv_ann_wnd
 2472 006a B860     		str	r0, [r7, #8]
 991:Middlewares/Third_Party/LwIP/src/core/tcp.c **** 
 992:Middlewares/Third_Party/LwIP/src/core/tcp.c ****   /* If the change in the right edge of window is significant (default
 993:Middlewares/Third_Party/LwIP/src/core/tcp.c ****    * watermark is TCP_WND/4), then send an explicit update now.
 994:Middlewares/Third_Party/LwIP/src/core/tcp.c ****    * Otherwise wait for a packet to be sent in the normal course of
ARM GAS  /tmp/ccFjPNuy.s 			page 63


 995:Middlewares/Third_Party/LwIP/src/core/tcp.c ****    * events (or more window to be available later) */
 996:Middlewares/Third_Party/LwIP/src/core/tcp.c ****   if (wnd_inflation >= TCP_WND_UPDATE_THRESHOLD) {
 2473              		.loc 1 996 6
 2474 006c BB68     		ldr	r3, [r7, #8]
 2475 006e B3F5067F 		cmp	r3, #536
 2476 0072 09D3     		bcc	.L165
 997:Middlewares/Third_Party/LwIP/src/core/tcp.c ****     tcp_ack_now(pcb);
 2477              		.loc 1 997 5
 2478 0074 7B68     		ldr	r3, [r7, #4]
 2479 0076 5B8B     		ldrh	r3, [r3, #26]
 2480 0078 43F00203 		orr	r3, r3, #2
 2481 007c 9AB2     		uxth	r2, r3
 2482 007e 7B68     		ldr	r3, [r7, #4]
 2483 0080 5A83     		strh	r2, [r3, #26]	@ movhi
 998:Middlewares/Third_Party/LwIP/src/core/tcp.c ****     tcp_output(pcb);
 2484              		.loc 1 998 5
 2485 0082 7868     		ldr	r0, [r7, #4]
 2486 0084 FFF7FEFF 		bl	tcp_output
 2487              	.L165:
 999:Middlewares/Third_Party/LwIP/src/core/tcp.c ****   }
1000:Middlewares/Third_Party/LwIP/src/core/tcp.c **** 
1001:Middlewares/Third_Party/LwIP/src/core/tcp.c ****   LWIP_DEBUGF(TCP_DEBUG, ("tcp_recved: received %"U16_F" bytes, wnd %"TCPWNDSIZE_F" (%"TCPWNDSIZE_F
1002:Middlewares/Third_Party/LwIP/src/core/tcp.c ****                           len, pcb->rcv_wnd, (u16_t)(TCP_WND_MAX(pcb) - pcb->rcv_wnd)));
1003:Middlewares/Third_Party/LwIP/src/core/tcp.c **** }
 2488              		.loc 1 1003 1
 2489 0088 1037     		adds	r7, r7, #16
 2490              	.LCFI88:
 2491              		.cfi_def_cfa_offset 8
 2492 008a BD46     		mov	sp, r7
 2493              	.LCFI89:
 2494              		.cfi_def_cfa_register 13
 2495              		@ sp needed
 2496 008c 80BD     		pop	{r7, pc}
 2497              	.L173:
 2498 008e 00BF     		.align	2
 2499              	.L172:
 2500 0090 78000000 		.word	.LC11
 2501 0094 10030000 		.word	.LC31
 2502 0098 B8000000 		.word	.LC13
 2503 009c 28030000 		.word	.LC32
 2504              		.cfi_endproc
 2505              	.LFE151:
 2507              		.section	.text.tcp_new_port,"ax",%progbits
 2508              		.align	1
 2509              		.syntax unified
 2510              		.thumb
 2511              		.thumb_func
 2512              		.fpu fpv4-sp-d16
 2514              	tcp_new_port:
 2515              	.LFB152:
1004:Middlewares/Third_Party/LwIP/src/core/tcp.c **** 
1005:Middlewares/Third_Party/LwIP/src/core/tcp.c **** /**
1006:Middlewares/Third_Party/LwIP/src/core/tcp.c ****  * Allocate a new local TCP port.
1007:Middlewares/Third_Party/LwIP/src/core/tcp.c ****  *
1008:Middlewares/Third_Party/LwIP/src/core/tcp.c ****  * @return a new (free) local TCP port number
1009:Middlewares/Third_Party/LwIP/src/core/tcp.c ****  */
1010:Middlewares/Third_Party/LwIP/src/core/tcp.c **** static u16_t
ARM GAS  /tmp/ccFjPNuy.s 			page 64


1011:Middlewares/Third_Party/LwIP/src/core/tcp.c **** tcp_new_port(void)
1012:Middlewares/Third_Party/LwIP/src/core/tcp.c **** {
 2516              		.loc 1 1012 1
 2517              		.cfi_startproc
 2518              		@ args = 0, pretend = 0, frame = 8
 2519              		@ frame_needed = 1, uses_anonymous_args = 0
 2520              		@ link register save eliminated.
 2521 0000 80B4     		push	{r7}
 2522              	.LCFI90:
 2523              		.cfi_def_cfa_offset 4
 2524              		.cfi_offset 7, -4
 2525 0002 83B0     		sub	sp, sp, #12
 2526              	.LCFI91:
 2527              		.cfi_def_cfa_offset 16
 2528 0004 00AF     		add	r7, sp, #0
 2529              	.LCFI92:
 2530              		.cfi_def_cfa_register 7
1013:Middlewares/Third_Party/LwIP/src/core/tcp.c ****   u8_t i;
1014:Middlewares/Third_Party/LwIP/src/core/tcp.c ****   u16_t n = 0;
 2531              		.loc 1 1014 9
 2532 0006 0023     		movs	r3, #0
 2533 0008 BB80     		strh	r3, [r7, #4]	@ movhi
 2534              	.L175:
1015:Middlewares/Third_Party/LwIP/src/core/tcp.c ****   struct tcp_pcb *pcb;
1016:Middlewares/Third_Party/LwIP/src/core/tcp.c **** 
1017:Middlewares/Third_Party/LwIP/src/core/tcp.c **** again:
1018:Middlewares/Third_Party/LwIP/src/core/tcp.c ****   tcp_port++;
 2535              		.loc 1 1018 11
 2536 000a 1E4B     		ldr	r3, .L184
 2537 000c 1B88     		ldrh	r3, [r3]
 2538 000e 0133     		adds	r3, r3, #1
 2539 0010 9AB2     		uxth	r2, r3
 2540 0012 1C4B     		ldr	r3, .L184
 2541 0014 1A80     		strh	r2, [r3]	@ movhi
1019:Middlewares/Third_Party/LwIP/src/core/tcp.c ****   if (tcp_port == TCP_LOCAL_PORT_RANGE_END) {
 2542              		.loc 1 1019 16
 2543 0016 1B4B     		ldr	r3, .L184
 2544 0018 1B88     		ldrh	r3, [r3]
 2545              		.loc 1 1019 6
 2546 001a 4FF6FF72 		movw	r2, #65535
 2547 001e 9342     		cmp	r3, r2
 2548 0020 03D1     		bne	.L176
1020:Middlewares/Third_Party/LwIP/src/core/tcp.c ****     tcp_port = TCP_LOCAL_PORT_RANGE_START;
 2549              		.loc 1 1020 14
 2550 0022 184B     		ldr	r3, .L184
 2551 0024 4FF44042 		mov	r2, #49152
 2552 0028 1A80     		strh	r2, [r3]	@ movhi
 2553              	.L176:
1021:Middlewares/Third_Party/LwIP/src/core/tcp.c ****   }
1022:Middlewares/Third_Party/LwIP/src/core/tcp.c ****   /* Check all PCB lists. */
1023:Middlewares/Third_Party/LwIP/src/core/tcp.c ****   for (i = 0; i < NUM_TCP_PCB_LISTS; i++) {
 2554              		.loc 1 1023 10
 2555 002a 0023     		movs	r3, #0
 2556 002c FB71     		strb	r3, [r7, #7]
 2557              		.loc 1 1023 3
 2558 002e 1EE0     		b	.L177
 2559              	.L183:
ARM GAS  /tmp/ccFjPNuy.s 			page 65


1024:Middlewares/Third_Party/LwIP/src/core/tcp.c ****     for (pcb = *tcp_pcb_lists[i]; pcb != NULL; pcb = pcb->next) {
 2560              		.loc 1 1024 30
 2561 0030 FB79     		ldrb	r3, [r7, #7]	@ zero_extendqisi2
 2562 0032 154A     		ldr	r2, .L184+4
 2563 0034 52F82330 		ldr	r3, [r2, r3, lsl #2]
 2564              		.loc 1 1024 14
 2565 0038 1B68     		ldr	r3, [r3]
 2566 003a 3B60     		str	r3, [r7]
 2567              		.loc 1 1024 5
 2568 003c 11E0     		b	.L178
 2569              	.L182:
1025:Middlewares/Third_Party/LwIP/src/core/tcp.c ****       if (pcb->local_port == tcp_port) {
 2570              		.loc 1 1025 14
 2571 003e 3B68     		ldr	r3, [r7]
 2572 0040 DA8A     		ldrh	r2, [r3, #22]
 2573              		.loc 1 1025 27
 2574 0042 104B     		ldr	r3, .L184
 2575 0044 1B88     		ldrh	r3, [r3]
 2576              		.loc 1 1025 10
 2577 0046 9A42     		cmp	r2, r3
 2578 0048 08D1     		bne	.L179
1026:Middlewares/Third_Party/LwIP/src/core/tcp.c ****         n++;
 2579              		.loc 1 1026 10
 2580 004a BB88     		ldrh	r3, [r7, #4]
 2581 004c 0133     		adds	r3, r3, #1
 2582 004e BB80     		strh	r3, [r7, #4]	@ movhi
1027:Middlewares/Third_Party/LwIP/src/core/tcp.c ****         if (n > (TCP_LOCAL_PORT_RANGE_END - TCP_LOCAL_PORT_RANGE_START)) {
 2583              		.loc 1 1027 12
 2584 0050 BB88     		ldrh	r3, [r7, #4]
 2585 0052 B3F5804F 		cmp	r3, #16384
 2586 0056 D8D3     		bcc	.L175
1028:Middlewares/Third_Party/LwIP/src/core/tcp.c ****           return 0;
 2587              		.loc 1 1028 18
 2588 0058 0023     		movs	r3, #0
 2589 005a 0DE0     		b	.L181
 2590              	.L179:
1024:Middlewares/Third_Party/LwIP/src/core/tcp.c ****       if (pcb->local_port == tcp_port) {
 2591              		.loc 1 1024 52 discriminator 2
 2592 005c 3B68     		ldr	r3, [r7]
 2593 005e DB68     		ldr	r3, [r3, #12]
 2594 0060 3B60     		str	r3, [r7]
 2595              	.L178:
1024:Middlewares/Third_Party/LwIP/src/core/tcp.c ****       if (pcb->local_port == tcp_port) {
 2596              		.loc 1 1024 5 discriminator 1
 2597 0062 3B68     		ldr	r3, [r7]
 2598 0064 002B     		cmp	r3, #0
 2599 0066 EAD1     		bne	.L182
1023:Middlewares/Third_Party/LwIP/src/core/tcp.c ****     for (pcb = *tcp_pcb_lists[i]; pcb != NULL; pcb = pcb->next) {
 2600              		.loc 1 1023 39 discriminator 2
 2601 0068 FB79     		ldrb	r3, [r7, #7]	@ zero_extendqisi2
 2602 006a 0133     		adds	r3, r3, #1
 2603 006c FB71     		strb	r3, [r7, #7]
 2604              	.L177:
1023:Middlewares/Third_Party/LwIP/src/core/tcp.c ****     for (pcb = *tcp_pcb_lists[i]; pcb != NULL; pcb = pcb->next) {
 2605              		.loc 1 1023 3 discriminator 1
 2606 006e FB79     		ldrb	r3, [r7, #7]	@ zero_extendqisi2
 2607 0070 032B     		cmp	r3, #3
ARM GAS  /tmp/ccFjPNuy.s 			page 66


 2608 0072 DDD9     		bls	.L183
1029:Middlewares/Third_Party/LwIP/src/core/tcp.c ****         }
1030:Middlewares/Third_Party/LwIP/src/core/tcp.c ****         goto again;
1031:Middlewares/Third_Party/LwIP/src/core/tcp.c ****       }
1032:Middlewares/Third_Party/LwIP/src/core/tcp.c ****     }
1033:Middlewares/Third_Party/LwIP/src/core/tcp.c ****   }
1034:Middlewares/Third_Party/LwIP/src/core/tcp.c ****   return tcp_port;
 2609              		.loc 1 1034 10
 2610 0074 034B     		ldr	r3, .L184
 2611 0076 1B88     		ldrh	r3, [r3]
 2612              	.L181:
1035:Middlewares/Third_Party/LwIP/src/core/tcp.c **** }
 2613              		.loc 1 1035 1
 2614 0078 1846     		mov	r0, r3
 2615 007a 0C37     		adds	r7, r7, #12
 2616              	.LCFI93:
 2617              		.cfi_def_cfa_offset 4
 2618 007c BD46     		mov	sp, r7
 2619              	.LCFI94:
 2620              		.cfi_def_cfa_register 13
 2621              		@ sp needed
 2622 007e 5DF8047B 		ldr	r7, [sp], #4
 2623              	.LCFI95:
 2624              		.cfi_restore 7
 2625              		.cfi_def_cfa_offset 0
 2626 0082 7047     		bx	lr
 2627              	.L185:
 2628              		.align	2
 2629              	.L184:
 2630 0084 00000000 		.word	tcp_port
 2631 0088 00000000 		.word	tcp_pcb_lists
 2632              		.cfi_endproc
 2633              	.LFE152:
 2635              		.section	.rodata
 2636 034e 0000     		.align	2
 2637              	.LC33:
 2638 0350 7463705F 		.ascii	"tcp_connect: invalid pcb\000"
 2638      636F6E6E 
 2638      6563743A 
 2638      20696E76 
 2638      616C6964 
 2639 0369 000000   		.align	2
 2640              	.LC34:
 2641 036c 7463705F 		.ascii	"tcp_connect: invalid ipaddr\000"
 2641      636F6E6E 
 2641      6563743A 
 2641      20696E76 
 2641      616C6964 
 2642              		.align	2
 2643              	.LC35:
 2644 0388 7463705F 		.ascii	"tcp_connect: can only connect from state CLOSED\000"
 2644      636F6E6E 
 2644      6563743A 
 2644      2063616E 
 2644      206F6E6C 
 2645              		.section	.text.tcp_connect,"ax",%progbits
 2646              		.align	1
ARM GAS  /tmp/ccFjPNuy.s 			page 67


 2647              		.global	tcp_connect
 2648              		.syntax unified
 2649              		.thumb
 2650              		.thumb_func
 2651              		.fpu fpv4-sp-d16
 2653              	tcp_connect:
 2654              	.LFB153:
1036:Middlewares/Third_Party/LwIP/src/core/tcp.c **** 
1037:Middlewares/Third_Party/LwIP/src/core/tcp.c **** /**
1038:Middlewares/Third_Party/LwIP/src/core/tcp.c ****  * @ingroup tcp_raw
1039:Middlewares/Third_Party/LwIP/src/core/tcp.c ****  * Connects to another host. The function given as the "connected"
1040:Middlewares/Third_Party/LwIP/src/core/tcp.c ****  * argument will be called when the connection has been established.
1041:Middlewares/Third_Party/LwIP/src/core/tcp.c ****  *  Sets up the pcb to connect to the remote host and sends the
1042:Middlewares/Third_Party/LwIP/src/core/tcp.c ****  * initial SYN segment which opens the connection. 
1043:Middlewares/Third_Party/LwIP/src/core/tcp.c ****  *
1044:Middlewares/Third_Party/LwIP/src/core/tcp.c ****  * The tcp_connect() function returns immediately; it does not wait for
1045:Middlewares/Third_Party/LwIP/src/core/tcp.c ****  * the connection to be properly setup. Instead, it will call the
1046:Middlewares/Third_Party/LwIP/src/core/tcp.c ****  * function specified as the fourth argument (the "connected" argument)
1047:Middlewares/Third_Party/LwIP/src/core/tcp.c ****  * when the connection is established. If the connection could not be
1048:Middlewares/Third_Party/LwIP/src/core/tcp.c ****  * properly established, either because the other host refused the
1049:Middlewares/Third_Party/LwIP/src/core/tcp.c ****  * connection or because the other host didn't answer, the "err"
1050:Middlewares/Third_Party/LwIP/src/core/tcp.c ****  * callback function of this pcb (registered with tcp_err, see below)
1051:Middlewares/Third_Party/LwIP/src/core/tcp.c ****  * will be called.
1052:Middlewares/Third_Party/LwIP/src/core/tcp.c ****  *
1053:Middlewares/Third_Party/LwIP/src/core/tcp.c ****  * The tcp_connect() function can return ERR_MEM if no memory is
1054:Middlewares/Third_Party/LwIP/src/core/tcp.c ****  * available for enqueueing the SYN segment. If the SYN indeed was
1055:Middlewares/Third_Party/LwIP/src/core/tcp.c ****  * enqueued successfully, the tcp_connect() function returns ERR_OK.
1056:Middlewares/Third_Party/LwIP/src/core/tcp.c ****  *
1057:Middlewares/Third_Party/LwIP/src/core/tcp.c ****  * @param pcb the tcp_pcb used to establish the connection
1058:Middlewares/Third_Party/LwIP/src/core/tcp.c ****  * @param ipaddr the remote ip address to connect to
1059:Middlewares/Third_Party/LwIP/src/core/tcp.c ****  * @param port the remote tcp port to connect to
1060:Middlewares/Third_Party/LwIP/src/core/tcp.c ****  * @param connected callback function to call when connected (on error,
1061:Middlewares/Third_Party/LwIP/src/core/tcp.c ****                     the err calback will be called)
1062:Middlewares/Third_Party/LwIP/src/core/tcp.c ****  * @return ERR_VAL if invalid arguments are given
1063:Middlewares/Third_Party/LwIP/src/core/tcp.c ****  *         ERR_OK if connect request has been sent
1064:Middlewares/Third_Party/LwIP/src/core/tcp.c ****  *         other err_t values if connect request couldn't be sent
1065:Middlewares/Third_Party/LwIP/src/core/tcp.c ****  */
1066:Middlewares/Third_Party/LwIP/src/core/tcp.c **** err_t
1067:Middlewares/Third_Party/LwIP/src/core/tcp.c **** tcp_connect(struct tcp_pcb *pcb, const ip_addr_t *ipaddr, u16_t port,
1068:Middlewares/Third_Party/LwIP/src/core/tcp.c ****             tcp_connected_fn connected)
1069:Middlewares/Third_Party/LwIP/src/core/tcp.c **** {
 2655              		.loc 1 1069 1
 2656              		.cfi_startproc
 2657              		@ args = 0, pretend = 0, frame = 40
 2658              		@ frame_needed = 1, uses_anonymous_args = 0
 2659 0000 80B5     		push	{r7, lr}
 2660              	.LCFI96:
 2661              		.cfi_def_cfa_offset 8
 2662              		.cfi_offset 7, -8
 2663              		.cfi_offset 14, -4
 2664 0002 8AB0     		sub	sp, sp, #40
 2665              	.LCFI97:
 2666              		.cfi_def_cfa_offset 48
 2667 0004 00AF     		add	r7, sp, #0
 2668              	.LCFI98:
 2669              		.cfi_def_cfa_register 7
 2670 0006 F860     		str	r0, [r7, #12]
ARM GAS  /tmp/ccFjPNuy.s 			page 68


 2671 0008 B960     		str	r1, [r7, #8]
 2672 000a 3B60     		str	r3, [r7]
 2673 000c 1346     		mov	r3, r2	@ movhi
 2674 000e FB80     		strh	r3, [r7, #6]	@ movhi
1070:Middlewares/Third_Party/LwIP/src/core/tcp.c ****   struct netif *netif = NULL;
 2675              		.loc 1 1070 17
 2676 0010 0023     		movs	r3, #0
 2677 0012 7B62     		str	r3, [r7, #36]
1071:Middlewares/Third_Party/LwIP/src/core/tcp.c ****   err_t ret;
1072:Middlewares/Third_Party/LwIP/src/core/tcp.c ****   u32_t iss;
1073:Middlewares/Third_Party/LwIP/src/core/tcp.c ****   u16_t old_local_port;
1074:Middlewares/Third_Party/LwIP/src/core/tcp.c **** 
1075:Middlewares/Third_Party/LwIP/src/core/tcp.c ****   LWIP_ASSERT_CORE_LOCKED();
1076:Middlewares/Third_Party/LwIP/src/core/tcp.c **** 
1077:Middlewares/Third_Party/LwIP/src/core/tcp.c ****   LWIP_ERROR("tcp_connect: invalid pcb", pcb != NULL, return ERR_ARG);
 2678              		.loc 1 1077 3
 2679 0014 FB68     		ldr	r3, [r7, #12]
 2680 0016 002B     		cmp	r3, #0
 2681 0018 09D1     		bne	.L187
 2682              		.loc 1 1077 3 is_stmt 0 discriminator 1
 2683 001a 7D4B     		ldr	r3, .L209
 2684 001c 40F23542 		movw	r2, #1077
 2685 0020 7C49     		ldr	r1, .L209+4
 2686 0022 7D48     		ldr	r0, .L209+8
 2687 0024 FFF7FEFF 		bl	printf
 2688 0028 6FF00F03 		mvn	r3, #15
 2689 002c ECE0     		b	.L188
 2690              	.L187:
1078:Middlewares/Third_Party/LwIP/src/core/tcp.c ****   LWIP_ERROR("tcp_connect: invalid ipaddr", ipaddr != NULL, return ERR_ARG);
 2691              		.loc 1 1078 3 is_stmt 1
 2692 002e BB68     		ldr	r3, [r7, #8]
 2693 0030 002B     		cmp	r3, #0
 2694 0032 09D1     		bne	.L189
 2695              		.loc 1 1078 3 is_stmt 0 discriminator 1
 2696 0034 764B     		ldr	r3, .L209
 2697 0036 40F23642 		movw	r2, #1078
 2698 003a 7849     		ldr	r1, .L209+12
 2699 003c 7648     		ldr	r0, .L209+8
 2700 003e FFF7FEFF 		bl	printf
 2701 0042 6FF00F03 		mvn	r3, #15
 2702 0046 DFE0     		b	.L188
 2703              	.L189:
1079:Middlewares/Third_Party/LwIP/src/core/tcp.c **** 
1080:Middlewares/Third_Party/LwIP/src/core/tcp.c ****   LWIP_ERROR("tcp_connect: can only connect from state CLOSED", pcb->state == CLOSED, return ERR_IS
 2704              		.loc 1 1080 3 is_stmt 1
 2705 0048 FB68     		ldr	r3, [r7, #12]
 2706 004a 1B7D     		ldrb	r3, [r3, #20]	@ zero_extendqisi2
 2707 004c 002B     		cmp	r3, #0
 2708 004e 09D0     		beq	.L190
 2709              		.loc 1 1080 3 is_stmt 0 discriminator 1
 2710 0050 6F4B     		ldr	r3, .L209
 2711 0052 4FF48762 		mov	r2, #1080
 2712 0056 7249     		ldr	r1, .L209+16
 2713 0058 6F48     		ldr	r0, .L209+8
 2714 005a FFF7FEFF 		bl	printf
 2715 005e 6FF00903 		mvn	r3, #9
 2716 0062 D1E0     		b	.L188
ARM GAS  /tmp/ccFjPNuy.s 			page 69


 2717              	.L190:
1081:Middlewares/Third_Party/LwIP/src/core/tcp.c **** 
1082:Middlewares/Third_Party/LwIP/src/core/tcp.c ****   LWIP_DEBUGF(TCP_DEBUG, ("tcp_connect to port %"U16_F"\n", port));
1083:Middlewares/Third_Party/LwIP/src/core/tcp.c ****   ip_addr_set(&pcb->remote_ip, ipaddr);
 2718              		.loc 1 1083 3 is_stmt 1
 2719 0064 BB68     		ldr	r3, [r7, #8]
 2720 0066 002B     		cmp	r3, #0
 2721 0068 02D0     		beq	.L191
 2722              		.loc 1 1083 3 is_stmt 0 discriminator 1
 2723 006a BB68     		ldr	r3, [r7, #8]
 2724 006c 1B68     		ldr	r3, [r3]
 2725 006e 00E0     		b	.L192
 2726              	.L191:
 2727              		.loc 1 1083 3 discriminator 2
 2728 0070 0023     		movs	r3, #0
 2729              	.L192:
 2730              		.loc 1 1083 3 discriminator 4
 2731 0072 FA68     		ldr	r2, [r7, #12]
 2732 0074 5360     		str	r3, [r2, #4]
1084:Middlewares/Third_Party/LwIP/src/core/tcp.c ****   pcb->remote_port = port;
 2733              		.loc 1 1084 20 is_stmt 1 discriminator 4
 2734 0076 FB68     		ldr	r3, [r7, #12]
 2735 0078 FA88     		ldrh	r2, [r7, #6]	@ movhi
 2736 007a 1A83     		strh	r2, [r3, #24]	@ movhi
1085:Middlewares/Third_Party/LwIP/src/core/tcp.c **** 
1086:Middlewares/Third_Party/LwIP/src/core/tcp.c ****   if (pcb->netif_idx != NETIF_NO_INDEX) {
 2737              		.loc 1 1086 10 discriminator 4
 2738 007c FB68     		ldr	r3, [r7, #12]
 2739 007e 1B7A     		ldrb	r3, [r3, #8]	@ zero_extendqisi2
 2740              		.loc 1 1086 6 discriminator 4
 2741 0080 002B     		cmp	r3, #0
 2742 0082 06D0     		beq	.L193
1087:Middlewares/Third_Party/LwIP/src/core/tcp.c ****     netif = netif_get_by_index(pcb->netif_idx);
 2743              		.loc 1 1087 13
 2744 0084 FB68     		ldr	r3, [r7, #12]
 2745 0086 1B7A     		ldrb	r3, [r3, #8]	@ zero_extendqisi2
 2746 0088 1846     		mov	r0, r3
 2747 008a FFF7FEFF 		bl	netif_get_by_index
 2748 008e 7862     		str	r0, [r7, #36]
 2749 0090 05E0     		b	.L194
 2750              	.L193:
1088:Middlewares/Third_Party/LwIP/src/core/tcp.c ****   } else {
1089:Middlewares/Third_Party/LwIP/src/core/tcp.c ****     /* check if we have a route to the remote host */
1090:Middlewares/Third_Party/LwIP/src/core/tcp.c ****     netif = ip_route(&pcb->local_ip, &pcb->remote_ip);
 2751              		.loc 1 1090 13
 2752 0092 FB68     		ldr	r3, [r7, #12]
 2753 0094 0433     		adds	r3, r3, #4
 2754 0096 1846     		mov	r0, r3
 2755 0098 FFF7FEFF 		bl	ip4_route
 2756 009c 7862     		str	r0, [r7, #36]
 2757              	.L194:
1091:Middlewares/Third_Party/LwIP/src/core/tcp.c ****   }
1092:Middlewares/Third_Party/LwIP/src/core/tcp.c ****   if (netif == NULL) {
 2758              		.loc 1 1092 6
 2759 009e 7B6A     		ldr	r3, [r7, #36]
 2760 00a0 002B     		cmp	r3, #0
 2761 00a2 02D1     		bne	.L195
ARM GAS  /tmp/ccFjPNuy.s 			page 70


1093:Middlewares/Third_Party/LwIP/src/core/tcp.c ****     /* Don't even try to send a SYN packet if we have no route since that will fail. */
1094:Middlewares/Third_Party/LwIP/src/core/tcp.c ****     return ERR_RTE;
 2762              		.loc 1 1094 12
 2763 00a4 6FF00303 		mvn	r3, #3
 2764 00a8 AEE0     		b	.L188
 2765              	.L195:
1095:Middlewares/Third_Party/LwIP/src/core/tcp.c ****   }
1096:Middlewares/Third_Party/LwIP/src/core/tcp.c **** 
1097:Middlewares/Third_Party/LwIP/src/core/tcp.c ****   /* check if local IP has been assigned to pcb, if not, get one */
1098:Middlewares/Third_Party/LwIP/src/core/tcp.c ****   if (ip_addr_isany(&pcb->local_ip)) {
 2766              		.loc 1 1098 7
 2767 00aa FB68     		ldr	r3, [r7, #12]
 2768              		.loc 1 1098 6
 2769 00ac 002B     		cmp	r3, #0
 2770 00ae 03D0     		beq	.L196
 2771              		.loc 1 1098 7 discriminator 1
 2772 00b0 FB68     		ldr	r3, [r7, #12]
 2773 00b2 1B68     		ldr	r3, [r3]
 2774 00b4 002B     		cmp	r3, #0
 2775 00b6 11D1     		bne	.L197
 2776              	.L196:
 2777              	.LBB8:
1099:Middlewares/Third_Party/LwIP/src/core/tcp.c ****     const ip_addr_t *local_ip = ip_netif_get_local_ip(netif, ipaddr);
 2778              		.loc 1 1099 33
 2779 00b8 7B6A     		ldr	r3, [r7, #36]
 2780 00ba 002B     		cmp	r3, #0
 2781 00bc 02D0     		beq	.L198
 2782              		.loc 1 1099 33 is_stmt 0 discriminator 1
 2783 00be 7B6A     		ldr	r3, [r7, #36]
 2784 00c0 0433     		adds	r3, r3, #4
 2785 00c2 00E0     		b	.L199
 2786              	.L198:
 2787              		.loc 1 1099 33 discriminator 2
 2788 00c4 0023     		movs	r3, #0
 2789              	.L199:
 2790              		.loc 1 1099 22 is_stmt 1 discriminator 4
 2791 00c6 FB61     		str	r3, [r7, #28]
1100:Middlewares/Third_Party/LwIP/src/core/tcp.c ****     if (local_ip == NULL) {
 2792              		.loc 1 1100 8 discriminator 4
 2793 00c8 FB69     		ldr	r3, [r7, #28]
 2794 00ca 002B     		cmp	r3, #0
 2795 00cc 02D1     		bne	.L200
1101:Middlewares/Third_Party/LwIP/src/core/tcp.c ****       return ERR_RTE;
 2796              		.loc 1 1101 14
 2797 00ce 6FF00303 		mvn	r3, #3
 2798 00d2 99E0     		b	.L188
 2799              	.L200:
1102:Middlewares/Third_Party/LwIP/src/core/tcp.c ****     }
1103:Middlewares/Third_Party/LwIP/src/core/tcp.c ****     ip_addr_copy(pcb->local_ip, *local_ip);
 2800              		.loc 1 1103 5
 2801 00d4 FB69     		ldr	r3, [r7, #28]
 2802 00d6 1A68     		ldr	r2, [r3]
 2803 00d8 FB68     		ldr	r3, [r7, #12]
 2804 00da 1A60     		str	r2, [r3]
 2805              	.L197:
 2806              	.LBE8:
1104:Middlewares/Third_Party/LwIP/src/core/tcp.c ****   }
ARM GAS  /tmp/ccFjPNuy.s 			page 71


1105:Middlewares/Third_Party/LwIP/src/core/tcp.c **** 
1106:Middlewares/Third_Party/LwIP/src/core/tcp.c **** #if LWIP_IPV6 && LWIP_IPV6_SCOPES
1107:Middlewares/Third_Party/LwIP/src/core/tcp.c ****   /* If the given IP address should have a zone but doesn't, assign one now.
1108:Middlewares/Third_Party/LwIP/src/core/tcp.c ****    * Given that we already have the target netif, this is easy and cheap. */
1109:Middlewares/Third_Party/LwIP/src/core/tcp.c ****   if (IP_IS_V6(&pcb->remote_ip) &&
1110:Middlewares/Third_Party/LwIP/src/core/tcp.c ****       ip6_addr_lacks_zone(ip_2_ip6(&pcb->remote_ip), IP6_UNICAST)) {
1111:Middlewares/Third_Party/LwIP/src/core/tcp.c ****     ip6_addr_assign_zone(ip_2_ip6(&pcb->remote_ip), IP6_UNICAST, netif);
1112:Middlewares/Third_Party/LwIP/src/core/tcp.c ****   }
1113:Middlewares/Third_Party/LwIP/src/core/tcp.c **** #endif /* LWIP_IPV6 && LWIP_IPV6_SCOPES */
1114:Middlewares/Third_Party/LwIP/src/core/tcp.c **** 
1115:Middlewares/Third_Party/LwIP/src/core/tcp.c ****   old_local_port = pcb->local_port;
 2807              		.loc 1 1115 18
 2808 00dc FB68     		ldr	r3, [r7, #12]
 2809 00de DB8A     		ldrh	r3, [r3, #22]	@ movhi
 2810 00e0 7B83     		strh	r3, [r7, #26]	@ movhi
1116:Middlewares/Third_Party/LwIP/src/core/tcp.c ****   if (pcb->local_port == 0) {
 2811              		.loc 1 1116 10
 2812 00e2 FB68     		ldr	r3, [r7, #12]
 2813 00e4 DB8A     		ldrh	r3, [r3, #22]
 2814              		.loc 1 1116 6
 2815 00e6 002B     		cmp	r3, #0
 2816 00e8 0CD1     		bne	.L201
1117:Middlewares/Third_Party/LwIP/src/core/tcp.c ****     pcb->local_port = tcp_new_port();
 2817              		.loc 1 1117 23
 2818 00ea FFF7FEFF 		bl	tcp_new_port
 2819 00ee 0346     		mov	r3, r0
 2820 00f0 1A46     		mov	r2, r3
 2821              		.loc 1 1117 21
 2822 00f2 FB68     		ldr	r3, [r7, #12]
 2823 00f4 DA82     		strh	r2, [r3, #22]	@ movhi
1118:Middlewares/Third_Party/LwIP/src/core/tcp.c ****     if (pcb->local_port == 0) {
 2824              		.loc 1 1118 12
 2825 00f6 FB68     		ldr	r3, [r7, #12]
 2826 00f8 DB8A     		ldrh	r3, [r3, #22]
 2827              		.loc 1 1118 8
 2828 00fa 002B     		cmp	r3, #0
 2829 00fc 02D1     		bne	.L201
1119:Middlewares/Third_Party/LwIP/src/core/tcp.c ****       return ERR_BUF;
 2830              		.loc 1 1119 14
 2831 00fe 6FF00103 		mvn	r3, #1
 2832 0102 81E0     		b	.L188
 2833              	.L201:
1120:Middlewares/Third_Party/LwIP/src/core/tcp.c ****     }
1121:Middlewares/Third_Party/LwIP/src/core/tcp.c ****   } else {
1122:Middlewares/Third_Party/LwIP/src/core/tcp.c **** #if SO_REUSE
1123:Middlewares/Third_Party/LwIP/src/core/tcp.c ****     if (ip_get_option(pcb, SOF_REUSEADDR)) {
1124:Middlewares/Third_Party/LwIP/src/core/tcp.c ****       /* Since SOF_REUSEADDR allows reusing a local address, we have to make sure
1125:Middlewares/Third_Party/LwIP/src/core/tcp.c ****          now that the 5-tuple is unique. */
1126:Middlewares/Third_Party/LwIP/src/core/tcp.c ****       struct tcp_pcb *cpcb;
1127:Middlewares/Third_Party/LwIP/src/core/tcp.c ****       int i;
1128:Middlewares/Third_Party/LwIP/src/core/tcp.c ****       /* Don't check listen- and bound-PCBs, check active- and TIME-WAIT PCBs. */
1129:Middlewares/Third_Party/LwIP/src/core/tcp.c ****       for (i = 2; i < NUM_TCP_PCB_LISTS; i++) {
1130:Middlewares/Third_Party/LwIP/src/core/tcp.c ****         for (cpcb = *tcp_pcb_lists[i]; cpcb != NULL; cpcb = cpcb->next) {
1131:Middlewares/Third_Party/LwIP/src/core/tcp.c ****           if ((cpcb->local_port == pcb->local_port) &&
1132:Middlewares/Third_Party/LwIP/src/core/tcp.c ****               (cpcb->remote_port == port) &&
1133:Middlewares/Third_Party/LwIP/src/core/tcp.c ****               ip_addr_cmp(&cpcb->local_ip, &pcb->local_ip) &&
1134:Middlewares/Third_Party/LwIP/src/core/tcp.c ****               ip_addr_cmp(&cpcb->remote_ip, ipaddr)) {
ARM GAS  /tmp/ccFjPNuy.s 			page 72


1135:Middlewares/Third_Party/LwIP/src/core/tcp.c ****             /* linux returns EISCONN here, but ERR_USE should be OK for us */
1136:Middlewares/Third_Party/LwIP/src/core/tcp.c ****             return ERR_USE;
1137:Middlewares/Third_Party/LwIP/src/core/tcp.c ****           }
1138:Middlewares/Third_Party/LwIP/src/core/tcp.c ****         }
1139:Middlewares/Third_Party/LwIP/src/core/tcp.c ****       }
1140:Middlewares/Third_Party/LwIP/src/core/tcp.c ****     }
1141:Middlewares/Third_Party/LwIP/src/core/tcp.c **** #endif /* SO_REUSE */
1142:Middlewares/Third_Party/LwIP/src/core/tcp.c ****   }
1143:Middlewares/Third_Party/LwIP/src/core/tcp.c **** 
1144:Middlewares/Third_Party/LwIP/src/core/tcp.c ****   iss = tcp_next_iss(pcb);
 2834              		.loc 1 1144 9
 2835 0104 F868     		ldr	r0, [r7, #12]
 2836 0106 FFF7FEFF 		bl	tcp_next_iss
 2837 010a 7861     		str	r0, [r7, #20]
1145:Middlewares/Third_Party/LwIP/src/core/tcp.c ****   pcb->rcv_nxt = 0;
 2838              		.loc 1 1145 16
 2839 010c FB68     		ldr	r3, [r7, #12]
 2840 010e 0022     		movs	r2, #0
 2841 0110 5A62     		str	r2, [r3, #36]
1146:Middlewares/Third_Party/LwIP/src/core/tcp.c ****   pcb->snd_nxt = iss;
 2842              		.loc 1 1146 16
 2843 0112 FB68     		ldr	r3, [r7, #12]
 2844 0114 7A69     		ldr	r2, [r7, #20]
 2845 0116 1A65     		str	r2, [r3, #80]
1147:Middlewares/Third_Party/LwIP/src/core/tcp.c ****   pcb->lastack = iss - 1;
 2846              		.loc 1 1147 22
 2847 0118 7B69     		ldr	r3, [r7, #20]
 2848 011a 5A1E     		subs	r2, r3, #1
 2849              		.loc 1 1147 16
 2850 011c FB68     		ldr	r3, [r7, #12]
 2851 011e 5A64     		str	r2, [r3, #68]
1148:Middlewares/Third_Party/LwIP/src/core/tcp.c ****   pcb->snd_wl2 = iss - 1;
 2852              		.loc 1 1148 22
 2853 0120 7B69     		ldr	r3, [r7, #20]
 2854 0122 5A1E     		subs	r2, r3, #1
 2855              		.loc 1 1148 16
 2856 0124 FB68     		ldr	r3, [r7, #12]
 2857 0126 9A65     		str	r2, [r3, #88]
1149:Middlewares/Third_Party/LwIP/src/core/tcp.c ****   pcb->snd_lbb = iss - 1;
 2858              		.loc 1 1149 22
 2859 0128 7B69     		ldr	r3, [r7, #20]
 2860 012a 5A1E     		subs	r2, r3, #1
 2861              		.loc 1 1149 16
 2862 012c FB68     		ldr	r3, [r7, #12]
 2863 012e DA65     		str	r2, [r3, #92]
1150:Middlewares/Third_Party/LwIP/src/core/tcp.c ****   /* Start with a window that does not need scaling. When window scaling is
1151:Middlewares/Third_Party/LwIP/src/core/tcp.c ****      enabled and used, the window is enlarged when both sides agree on scaling. */
1152:Middlewares/Third_Party/LwIP/src/core/tcp.c ****   pcb->rcv_wnd = pcb->rcv_ann_wnd = TCPWND_MIN16(TCP_WND);
 2864              		.loc 1 1152 35
 2865 0130 FB68     		ldr	r3, [r7, #12]
 2866 0132 4FF40662 		mov	r2, #2144
 2867 0136 5A85     		strh	r2, [r3, #42]	@ movhi
 2868              		.loc 1 1152 21
 2869 0138 FB68     		ldr	r3, [r7, #12]
 2870 013a 5A8D     		ldrh	r2, [r3, #42]
 2871              		.loc 1 1152 16
 2872 013c FB68     		ldr	r3, [r7, #12]
ARM GAS  /tmp/ccFjPNuy.s 			page 73


 2873 013e 1A85     		strh	r2, [r3, #40]	@ movhi
1153:Middlewares/Third_Party/LwIP/src/core/tcp.c ****   pcb->rcv_ann_right_edge = pcb->rcv_nxt;
 2874              		.loc 1 1153 32
 2875 0140 FB68     		ldr	r3, [r7, #12]
 2876 0142 5A6A     		ldr	r2, [r3, #36]
 2877              		.loc 1 1153 27
 2878 0144 FB68     		ldr	r3, [r7, #12]
 2879 0146 DA62     		str	r2, [r3, #44]
1154:Middlewares/Third_Party/LwIP/src/core/tcp.c ****   pcb->snd_wnd = TCP_WND;
 2880              		.loc 1 1154 16
 2881 0148 FB68     		ldr	r3, [r7, #12]
 2882 014a 4FF40662 		mov	r2, #2144
 2883 014e A3F86020 		strh	r2, [r3, #96]	@ movhi
1155:Middlewares/Third_Party/LwIP/src/core/tcp.c ****   /* As initial send MSS, we use TCP_MSS but limit it to 536.
1156:Middlewares/Third_Party/LwIP/src/core/tcp.c ****      The send MSS is updated when an MSS option is received. */
1157:Middlewares/Third_Party/LwIP/src/core/tcp.c ****   pcb->mss = INITIAL_MSS;
 2884              		.loc 1 1157 12
 2885 0152 FB68     		ldr	r3, [r7, #12]
 2886 0154 4FF40672 		mov	r2, #536
 2887 0158 5A86     		strh	r2, [r3, #50]	@ movhi
1158:Middlewares/Third_Party/LwIP/src/core/tcp.c **** #if TCP_CALCULATE_EFF_SEND_MSS
1159:Middlewares/Third_Party/LwIP/src/core/tcp.c ****   pcb->mss = tcp_eff_send_mss_netif(pcb->mss, netif, &pcb->remote_ip);
 2888              		.loc 1 1159 14
 2889 015a FB68     		ldr	r3, [r7, #12]
 2890 015c 588E     		ldrh	r0, [r3, #50]
 2891              		.loc 1 1159 54
 2892 015e FB68     		ldr	r3, [r7, #12]
 2893 0160 0433     		adds	r3, r3, #4
 2894              		.loc 1 1159 14
 2895 0162 1A46     		mov	r2, r3
 2896 0164 796A     		ldr	r1, [r7, #36]
 2897 0166 FFF7FEFF 		bl	tcp_eff_send_mss_netif
 2898 016a 0346     		mov	r3, r0
 2899 016c 1A46     		mov	r2, r3
 2900              		.loc 1 1159 12
 2901 016e FB68     		ldr	r3, [r7, #12]
 2902 0170 5A86     		strh	r2, [r3, #50]	@ movhi
1160:Middlewares/Third_Party/LwIP/src/core/tcp.c **** #endif /* TCP_CALCULATE_EFF_SEND_MSS */
1161:Middlewares/Third_Party/LwIP/src/core/tcp.c ****   pcb->cwnd = 1;
 2903              		.loc 1 1161 13
 2904 0172 FB68     		ldr	r3, [r7, #12]
 2905 0174 0122     		movs	r2, #1
 2906 0176 A3F84820 		strh	r2, [r3, #72]	@ movhi
1162:Middlewares/Third_Party/LwIP/src/core/tcp.c **** #if LWIP_CALLBACK_API
1163:Middlewares/Third_Party/LwIP/src/core/tcp.c ****   pcb->connected = connected;
 2907              		.loc 1 1163 18
 2908 017a FB68     		ldr	r3, [r7, #12]
 2909 017c 3A68     		ldr	r2, [r7]
 2910 017e C3F88820 		str	r2, [r3, #136]
1164:Middlewares/Third_Party/LwIP/src/core/tcp.c **** #else /* LWIP_CALLBACK_API */
1165:Middlewares/Third_Party/LwIP/src/core/tcp.c ****   LWIP_UNUSED_ARG(connected);
1166:Middlewares/Third_Party/LwIP/src/core/tcp.c **** #endif /* LWIP_CALLBACK_API */
1167:Middlewares/Third_Party/LwIP/src/core/tcp.c **** 
1168:Middlewares/Third_Party/LwIP/src/core/tcp.c ****   /* Send a SYN together with the MSS option. */
1169:Middlewares/Third_Party/LwIP/src/core/tcp.c ****   ret = tcp_enqueue_flags(pcb, TCP_SYN);
 2911              		.loc 1 1169 9
 2912 0182 0221     		movs	r1, #2
ARM GAS  /tmp/ccFjPNuy.s 			page 74


 2913 0184 F868     		ldr	r0, [r7, #12]
 2914 0186 FFF7FEFF 		bl	tcp_enqueue_flags
 2915 018a 0346     		mov	r3, r0
 2916 018c FB74     		strb	r3, [r7, #19]
1170:Middlewares/Third_Party/LwIP/src/core/tcp.c ****   if (ret == ERR_OK) {
 2917              		.loc 1 1170 6
 2918 018e 97F91330 		ldrsb	r3, [r7, #19]
 2919 0192 002B     		cmp	r3, #0
 2920 0194 36D1     		bne	.L202
1171:Middlewares/Third_Party/LwIP/src/core/tcp.c ****     /* SYN segment was enqueued, changed the pcbs state now */
1172:Middlewares/Third_Party/LwIP/src/core/tcp.c ****     pcb->state = SYN_SENT;
 2921              		.loc 1 1172 16
 2922 0196 FB68     		ldr	r3, [r7, #12]
 2923 0198 0222     		movs	r2, #2
 2924 019a 1A75     		strb	r2, [r3, #20]
1173:Middlewares/Third_Party/LwIP/src/core/tcp.c ****     if (old_local_port != 0) {
 2925              		.loc 1 1173 8
 2926 019c 7B8B     		ldrh	r3, [r7, #26]
 2927 019e 002B     		cmp	r3, #0
 2928 01a0 21D0     		beq	.L203
1174:Middlewares/Third_Party/LwIP/src/core/tcp.c ****       TCP_RMV(&tcp_bound_pcbs, pcb);
 2929              		.loc 1 1174 7
 2930 01a2 204B     		ldr	r3, .L209+20
 2931 01a4 1B68     		ldr	r3, [r3]
 2932 01a6 FA68     		ldr	r2, [r7, #12]
 2933 01a8 9A42     		cmp	r2, r3
 2934 01aa 05D1     		bne	.L204
 2935              		.loc 1 1174 7 is_stmt 0 discriminator 1
 2936 01ac 1D4B     		ldr	r3, .L209+20
 2937 01ae 1B68     		ldr	r3, [r3]
 2938 01b0 DB68     		ldr	r3, [r3, #12]
 2939 01b2 1C4A     		ldr	r2, .L209+20
 2940 01b4 1360     		str	r3, [r2]
 2941 01b6 13E0     		b	.L205
 2942              	.L204:
 2943              	.LBB9:
 2944              		.loc 1 1174 7 discriminator 2
 2945 01b8 1A4B     		ldr	r3, .L209+20
 2946 01ba 1B68     		ldr	r3, [r3]
 2947 01bc 3B62     		str	r3, [r7, #32]
 2948 01be 0CE0     		b	.L206
 2949              	.L208:
 2950              		.loc 1 1174 7 discriminator 9
 2951 01c0 3B6A     		ldr	r3, [r7, #32]
 2952 01c2 DB68     		ldr	r3, [r3, #12]
 2953 01c4 FA68     		ldr	r2, [r7, #12]
 2954 01c6 9A42     		cmp	r2, r3
 2955 01c8 04D1     		bne	.L207
 2956              		.loc 1 1174 7 discriminator 5
 2957 01ca FB68     		ldr	r3, [r7, #12]
 2958 01cc DA68     		ldr	r2, [r3, #12]
 2959 01ce 3B6A     		ldr	r3, [r7, #32]
 2960 01d0 DA60     		str	r2, [r3, #12]
 2961 01d2 05E0     		b	.L205
 2962              	.L207:
 2963              		.loc 1 1174 7 discriminator 6
 2964 01d4 3B6A     		ldr	r3, [r7, #32]
ARM GAS  /tmp/ccFjPNuy.s 			page 75


 2965 01d6 DB68     		ldr	r3, [r3, #12]
 2966 01d8 3B62     		str	r3, [r7, #32]
 2967              	.L206:
 2968              		.loc 1 1174 7 discriminator 8
 2969 01da 3B6A     		ldr	r3, [r7, #32]
 2970 01dc 002B     		cmp	r3, #0
 2971 01de EFD1     		bne	.L208
 2972              	.L205:
 2973              	.LBE9:
 2974              		.loc 1 1174 7 discriminator 10
 2975 01e0 FB68     		ldr	r3, [r7, #12]
 2976 01e2 0022     		movs	r2, #0
 2977 01e4 DA60     		str	r2, [r3, #12]
 2978              	.L203:
1175:Middlewares/Third_Party/LwIP/src/core/tcp.c ****     }
1176:Middlewares/Third_Party/LwIP/src/core/tcp.c ****     TCP_REG_ACTIVE(pcb);
 2979              		.loc 1 1176 5 is_stmt 1
 2980 01e6 104B     		ldr	r3, .L209+24
 2981 01e8 1A68     		ldr	r2, [r3]
 2982 01ea FB68     		ldr	r3, [r7, #12]
 2983 01ec DA60     		str	r2, [r3, #12]
 2984 01ee 0E4A     		ldr	r2, .L209+24
 2985 01f0 FB68     		ldr	r3, [r7, #12]
 2986 01f2 1360     		str	r3, [r2]
 2987 01f4 FFF7FEFF 		bl	tcp_timer_needed
 2988 01f8 0C4B     		ldr	r3, .L209+28
 2989 01fa 0122     		movs	r2, #1
 2990 01fc 1A70     		strb	r2, [r3]
1177:Middlewares/Third_Party/LwIP/src/core/tcp.c ****     MIB2_STATS_INC(mib2.tcpactiveopens);
1178:Middlewares/Third_Party/LwIP/src/core/tcp.c **** 
1179:Middlewares/Third_Party/LwIP/src/core/tcp.c ****     tcp_output(pcb);
 2991              		.loc 1 1179 5
 2992 01fe F868     		ldr	r0, [r7, #12]
 2993 0200 FFF7FEFF 		bl	tcp_output
 2994              	.L202:
1180:Middlewares/Third_Party/LwIP/src/core/tcp.c ****   }
1181:Middlewares/Third_Party/LwIP/src/core/tcp.c ****   return ret;
 2995              		.loc 1 1181 10
 2996 0204 97F91330 		ldrsb	r3, [r7, #19]
 2997              	.L188:
1182:Middlewares/Third_Party/LwIP/src/core/tcp.c **** }
 2998              		.loc 1 1182 1
 2999 0208 1846     		mov	r0, r3
 3000 020a 2837     		adds	r7, r7, #40
 3001              	.LCFI99:
 3002              		.cfi_def_cfa_offset 8
 3003 020c BD46     		mov	sp, r7
 3004              	.LCFI100:
 3005              		.cfi_def_cfa_register 13
 3006              		@ sp needed
 3007 020e 80BD     		pop	{r7, pc}
 3008              	.L210:
 3009              		.align	2
 3010              	.L209:
 3011 0210 78000000 		.word	.LC11
 3012 0214 50030000 		.word	.LC33
 3013 0218 B8000000 		.word	.LC13
ARM GAS  /tmp/ccFjPNuy.s 			page 76


 3014 021c 6C030000 		.word	.LC34
 3015 0220 88030000 		.word	.LC35
 3016 0224 00000000 		.word	tcp_bound_pcbs
 3017 0228 00000000 		.word	tcp_active_pcbs
 3018 022c 00000000 		.word	tcp_active_pcbs_changed
 3019              		.cfi_endproc
 3020              	.LFE153:
 3022              		.section	.rodata
 3023              		.align	2
 3024              	.LC36:
 3025 03b8 7463705F 		.ascii	"tcp_slowtmr: active pcb->state != CLOSED\012\000"
 3025      736C6F77 
 3025      746D723A 
 3025      20616374 
 3025      69766520 
 3026 03e2 0000     		.align	2
 3027              	.LC37:
 3028 03e4 7463705F 		.ascii	"tcp_slowtmr: active pcb->state != LISTEN\012\000"
 3028      736C6F77 
 3028      746D723A 
 3028      20616374 
 3028      69766520 
 3029 040e 0000     		.align	2
 3030              	.LC38:
 3031 0410 7463705F 		.ascii	"tcp_slowtmr: active pcb->state != TIME-WAIT\012\000"
 3031      736C6F77 
 3031      746D723A 
 3031      20616374 
 3031      69766520 
 3032 043d 000000   		.align	2
 3033              	.LC39:
 3034 0440 7463705F 		.ascii	"tcp_slowtimr: persist ticking with in-flight data\000"
 3034      736C6F77 
 3034      74696D72 
 3034      3A207065 
 3034      72736973 
 3035 0472 0000     		.align	2
 3036              	.LC40:
 3037 0474 7463705F 		.ascii	"tcp_slowtimr: persist ticking with empty send buffe"
 3037      736C6F77 
 3037      74696D72 
 3037      3A207065 
 3037      72736973 
 3038 04a7 7200     		.ascii	"r\000"
 3039 04a9 000000   		.align	2
 3040              	.LC41:
 3041 04ac 7463705F 		.ascii	"tcp_slowtmr: middle tcp != tcp_active_pcbs\000"
 3041      736C6F77 
 3041      746D723A 
 3041      206D6964 
 3041      646C6520 
 3042 04d7 00       		.align	2
 3043              	.LC42:
 3044 04d8 7463705F 		.ascii	"tcp_slowtmr: first pcb == tcp_active_pcbs\000"
 3044      736C6F77 
 3044      746D723A 
 3044      20666972 
ARM GAS  /tmp/ccFjPNuy.s 			page 77


 3044      73742070 
 3045 0502 0000     		.align	2
 3046              	.LC43:
 3047 0504 7463705F 		.ascii	"tcp_slowtmr: TIME-WAIT pcb->state == TIME-WAIT\000"
 3047      736C6F77 
 3047      746D723A 
 3047      2054494D 
 3047      452D5741 
 3048 0533 00       		.align	2
 3049              	.LC44:
 3050 0534 7463705F 		.ascii	"tcp_slowtmr: middle tcp != tcp_tw_pcbs\000"
 3050      736C6F77 
 3050      746D723A 
 3050      206D6964 
 3050      646C6520 
 3051 055b 00       		.align	2
 3052              	.LC45:
 3053 055c 7463705F 		.ascii	"tcp_slowtmr: first pcb == tcp_tw_pcbs\000"
 3053      736C6F77 
 3053      746D723A 
 3053      20666972 
 3053      73742070 
 3054              		.section	.text.tcp_slowtmr,"ax",%progbits
 3055              		.align	1
 3056              		.global	tcp_slowtmr
 3057              		.syntax unified
 3058              		.thumb
 3059              		.thumb_func
 3060              		.fpu fpv4-sp-d16
 3062              	tcp_slowtmr:
 3063              	.LFB154:
1183:Middlewares/Third_Party/LwIP/src/core/tcp.c **** 
1184:Middlewares/Third_Party/LwIP/src/core/tcp.c **** /**
1185:Middlewares/Third_Party/LwIP/src/core/tcp.c ****  * Called every 500 ms and implements the retransmission timer and the timer that
1186:Middlewares/Third_Party/LwIP/src/core/tcp.c ****  * removes PCBs that have been in TIME-WAIT for enough time. It also increments
1187:Middlewares/Third_Party/LwIP/src/core/tcp.c ****  * various timers such as the inactivity timer in each PCB.
1188:Middlewares/Third_Party/LwIP/src/core/tcp.c ****  *
1189:Middlewares/Third_Party/LwIP/src/core/tcp.c ****  * Automatically called from tcp_tmr().
1190:Middlewares/Third_Party/LwIP/src/core/tcp.c ****  */
1191:Middlewares/Third_Party/LwIP/src/core/tcp.c **** void
1192:Middlewares/Third_Party/LwIP/src/core/tcp.c **** tcp_slowtmr(void)
1193:Middlewares/Third_Party/LwIP/src/core/tcp.c **** {
 3064              		.loc 1 1193 1
 3065              		.cfi_startproc
 3066              		@ args = 0, pretend = 0, frame = 48
 3067              		@ frame_needed = 1, uses_anonymous_args = 0
 3068 0000 B0B5     		push	{r4, r5, r7, lr}
 3069              	.LCFI101:
 3070              		.cfi_def_cfa_offset 16
 3071              		.cfi_offset 4, -16
 3072              		.cfi_offset 5, -12
 3073              		.cfi_offset 7, -8
 3074              		.cfi_offset 14, -4
 3075 0002 90B0     		sub	sp, sp, #64
 3076              	.LCFI102:
 3077              		.cfi_def_cfa_offset 80
 3078 0004 04AF     		add	r7, sp, #16
ARM GAS  /tmp/ccFjPNuy.s 			page 78


 3079              	.LCFI103:
 3080              		.cfi_def_cfa 7, 64
1194:Middlewares/Third_Party/LwIP/src/core/tcp.c ****   struct tcp_pcb *pcb, *prev;
1195:Middlewares/Third_Party/LwIP/src/core/tcp.c ****   tcpwnd_size_t eff_wnd;
1196:Middlewares/Third_Party/LwIP/src/core/tcp.c ****   u8_t pcb_remove;      /* flag if a PCB should be removed */
1197:Middlewares/Third_Party/LwIP/src/core/tcp.c ****   u8_t pcb_reset;       /* flag if a RST should be sent when removing */
1198:Middlewares/Third_Party/LwIP/src/core/tcp.c ****   err_t err;
1199:Middlewares/Third_Party/LwIP/src/core/tcp.c **** 
1200:Middlewares/Third_Party/LwIP/src/core/tcp.c ****   err = ERR_OK;
 3081              		.loc 1 1200 7
 3082 0006 0023     		movs	r3, #0
 3083 0008 87F82530 		strb	r3, [r7, #37]
1201:Middlewares/Third_Party/LwIP/src/core/tcp.c **** 
1202:Middlewares/Third_Party/LwIP/src/core/tcp.c ****   ++tcp_ticks;
 3084              		.loc 1 1202 3
 3085 000c 944B     		ldr	r3, .L264
 3086 000e 1B68     		ldr	r3, [r3]
 3087 0010 0133     		adds	r3, r3, #1
 3088 0012 934A     		ldr	r2, .L264
 3089 0014 1360     		str	r3, [r2]
1203:Middlewares/Third_Party/LwIP/src/core/tcp.c ****   ++tcp_timer_ctr;
 3090              		.loc 1 1203 3
 3091 0016 934B     		ldr	r3, .L264+4
 3092 0018 1B78     		ldrb	r3, [r3]	@ zero_extendqisi2
 3093 001a 0133     		adds	r3, r3, #1
 3094 001c DAB2     		uxtb	r2, r3
 3095 001e 914B     		ldr	r3, .L264+4
 3096 0020 1A70     		strb	r2, [r3]
 3097              	.L212:
1204:Middlewares/Third_Party/LwIP/src/core/tcp.c **** 
1205:Middlewares/Third_Party/LwIP/src/core/tcp.c **** tcp_slowtmr_start:
1206:Middlewares/Third_Party/LwIP/src/core/tcp.c ****   /* Steps through all of the active PCBs. */
1207:Middlewares/Third_Party/LwIP/src/core/tcp.c ****   prev = NULL;
 3098              		.loc 1 1207 8
 3099 0022 0023     		movs	r3, #0
 3100 0024 BB62     		str	r3, [r7, #40]
1208:Middlewares/Third_Party/LwIP/src/core/tcp.c ****   pcb = tcp_active_pcbs;
 3101              		.loc 1 1208 7
 3102 0026 904B     		ldr	r3, .L264+8
 3103 0028 1B68     		ldr	r3, [r3]
 3104 002a FB62     		str	r3, [r7, #44]
1209:Middlewares/Third_Party/LwIP/src/core/tcp.c ****   if (pcb == NULL) {
1210:Middlewares/Third_Party/LwIP/src/core/tcp.c ****     LWIP_DEBUGF(TCP_DEBUG, ("tcp_slowtmr: no active pcbs\n"));
1211:Middlewares/Third_Party/LwIP/src/core/tcp.c ****   }
1212:Middlewares/Third_Party/LwIP/src/core/tcp.c ****   while (pcb != NULL) {
 3105              		.loc 1 1212 9
 3106 002c 9FE2     		b	.L213
 3107              	.L254:
1213:Middlewares/Third_Party/LwIP/src/core/tcp.c ****     LWIP_DEBUGF(TCP_DEBUG, ("tcp_slowtmr: processing active pcb\n"));
1214:Middlewares/Third_Party/LwIP/src/core/tcp.c ****     LWIP_ASSERT("tcp_slowtmr: active pcb->state != CLOSED\n", pcb->state != CLOSED);
 3108              		.loc 1 1214 5
 3109 002e FB6A     		ldr	r3, [r7, #44]
 3110 0030 1B7D     		ldrb	r3, [r3, #20]	@ zero_extendqisi2
 3111 0032 002B     		cmp	r3, #0
 3112 0034 06D1     		bne	.L214
 3113              		.loc 1 1214 5 is_stmt 0 discriminator 1
 3114 0036 8D4B     		ldr	r3, .L264+12
ARM GAS  /tmp/ccFjPNuy.s 			page 79


 3115 0038 40F2BE42 		movw	r2, #1214
 3116 003c 8C49     		ldr	r1, .L264+16
 3117 003e 8D48     		ldr	r0, .L264+20
 3118 0040 FFF7FEFF 		bl	printf
 3119              	.L214:
1215:Middlewares/Third_Party/LwIP/src/core/tcp.c ****     LWIP_ASSERT("tcp_slowtmr: active pcb->state != LISTEN\n", pcb->state != LISTEN);
 3120              		.loc 1 1215 5 is_stmt 1
 3121 0044 FB6A     		ldr	r3, [r7, #44]
 3122 0046 1B7D     		ldrb	r3, [r3, #20]	@ zero_extendqisi2
 3123 0048 012B     		cmp	r3, #1
 3124 004a 06D1     		bne	.L215
 3125              		.loc 1 1215 5 is_stmt 0 discriminator 1
 3126 004c 874B     		ldr	r3, .L264+12
 3127 004e 40F2BF42 		movw	r2, #1215
 3128 0052 8949     		ldr	r1, .L264+24
 3129 0054 8748     		ldr	r0, .L264+20
 3130 0056 FFF7FEFF 		bl	printf
 3131              	.L215:
1216:Middlewares/Third_Party/LwIP/src/core/tcp.c ****     LWIP_ASSERT("tcp_slowtmr: active pcb->state != TIME-WAIT\n", pcb->state != TIME_WAIT);
 3132              		.loc 1 1216 5 is_stmt 1
 3133 005a FB6A     		ldr	r3, [r7, #44]
 3134 005c 1B7D     		ldrb	r3, [r3, #20]	@ zero_extendqisi2
 3135 005e 0A2B     		cmp	r3, #10
 3136 0060 06D1     		bne	.L216
 3137              		.loc 1 1216 5 is_stmt 0 discriminator 1
 3138 0062 824B     		ldr	r3, .L264+12
 3139 0064 4FF49862 		mov	r2, #1216
 3140 0068 8449     		ldr	r1, .L264+28
 3141 006a 8248     		ldr	r0, .L264+20
 3142 006c FFF7FEFF 		bl	printf
 3143              	.L216:
1217:Middlewares/Third_Party/LwIP/src/core/tcp.c ****     if (pcb->last_timer == tcp_timer_ctr) {
 3144              		.loc 1 1217 12 is_stmt 1
 3145 0070 FB6A     		ldr	r3, [r7, #44]
 3146 0072 9A7F     		ldrb	r2, [r3, #30]	@ zero_extendqisi2
 3147              		.loc 1 1217 25
 3148 0074 7B4B     		ldr	r3, .L264+4
 3149 0076 1B78     		ldrb	r3, [r3]	@ zero_extendqisi2
 3150              		.loc 1 1217 8
 3151 0078 9A42     		cmp	r2, r3
 3152 007a 05D1     		bne	.L217
1218:Middlewares/Third_Party/LwIP/src/core/tcp.c ****       /* skip this pcb, we have already processed it */
1219:Middlewares/Third_Party/LwIP/src/core/tcp.c ****       prev = pcb;
 3153              		.loc 1 1219 12
 3154 007c FB6A     		ldr	r3, [r7, #44]
 3155 007e BB62     		str	r3, [r7, #40]
1220:Middlewares/Third_Party/LwIP/src/core/tcp.c ****       pcb = pcb->next;
 3156              		.loc 1 1220 11
 3157 0080 FB6A     		ldr	r3, [r7, #44]
 3158 0082 DB68     		ldr	r3, [r3, #12]
 3159 0084 FB62     		str	r3, [r7, #44]
1221:Middlewares/Third_Party/LwIP/src/core/tcp.c ****       continue;
 3160              		.loc 1 1221 7
 3161 0086 72E2     		b	.L213
 3162              	.L217:
1222:Middlewares/Third_Party/LwIP/src/core/tcp.c ****     }
1223:Middlewares/Third_Party/LwIP/src/core/tcp.c ****     pcb->last_timer = tcp_timer_ctr;
ARM GAS  /tmp/ccFjPNuy.s 			page 80


 3163              		.loc 1 1223 21
 3164 0088 764B     		ldr	r3, .L264+4
 3165 008a 1A78     		ldrb	r2, [r3]	@ zero_extendqisi2
 3166 008c FB6A     		ldr	r3, [r7, #44]
 3167 008e 9A77     		strb	r2, [r3, #30]
1224:Middlewares/Third_Party/LwIP/src/core/tcp.c **** 
1225:Middlewares/Third_Party/LwIP/src/core/tcp.c ****     pcb_remove = 0;
 3168              		.loc 1 1225 16
 3169 0090 0023     		movs	r3, #0
 3170 0092 87F82730 		strb	r3, [r7, #39]
1226:Middlewares/Third_Party/LwIP/src/core/tcp.c ****     pcb_reset = 0;
 3171              		.loc 1 1226 15
 3172 0096 0023     		movs	r3, #0
 3173 0098 87F82630 		strb	r3, [r7, #38]
1227:Middlewares/Third_Party/LwIP/src/core/tcp.c **** 
1228:Middlewares/Third_Party/LwIP/src/core/tcp.c ****     if (pcb->state == SYN_SENT && pcb->nrtx >= TCP_SYNMAXRTX) {
 3174              		.loc 1 1228 12
 3175 009c FB6A     		ldr	r3, [r7, #44]
 3176 009e 1B7D     		ldrb	r3, [r3, #20]	@ zero_extendqisi2
 3177              		.loc 1 1228 8
 3178 00a0 022B     		cmp	r3, #2
 3179 00a2 0AD1     		bne	.L218
 3180              		.loc 1 1228 38 discriminator 1
 3181 00a4 FB6A     		ldr	r3, [r7, #44]
 3182 00a6 93F84230 		ldrb	r3, [r3, #66]	@ zero_extendqisi2
 3183              		.loc 1 1228 32 discriminator 1
 3184 00aa 052B     		cmp	r3, #5
 3185 00ac 05D9     		bls	.L218
1229:Middlewares/Third_Party/LwIP/src/core/tcp.c ****       ++pcb_remove;
 3186              		.loc 1 1229 7
 3187 00ae 97F82730 		ldrb	r3, [r7, #39]
 3188 00b2 0133     		adds	r3, r3, #1
 3189 00b4 87F82730 		strb	r3, [r7, #39]
 3190 00b8 1EE1     		b	.L219
 3191              	.L218:
1230:Middlewares/Third_Party/LwIP/src/core/tcp.c ****       LWIP_DEBUGF(TCP_DEBUG, ("tcp_slowtmr: max SYN retries reached\n"));
1231:Middlewares/Third_Party/LwIP/src/core/tcp.c ****     } else if (pcb->nrtx >= TCP_MAXRTX) {
 3192              		.loc 1 1231 19
 3193 00ba FB6A     		ldr	r3, [r7, #44]
 3194 00bc 93F84230 		ldrb	r3, [r3, #66]	@ zero_extendqisi2
 3195              		.loc 1 1231 15
 3196 00c0 0B2B     		cmp	r3, #11
 3197 00c2 05D9     		bls	.L220
1232:Middlewares/Third_Party/LwIP/src/core/tcp.c ****       ++pcb_remove;
 3198              		.loc 1 1232 7
 3199 00c4 97F82730 		ldrb	r3, [r7, #39]
 3200 00c8 0133     		adds	r3, r3, #1
 3201 00ca 87F82730 		strb	r3, [r7, #39]
 3202 00ce 13E1     		b	.L219
 3203              	.L220:
1233:Middlewares/Third_Party/LwIP/src/core/tcp.c ****       LWIP_DEBUGF(TCP_DEBUG, ("tcp_slowtmr: max DATA retries reached\n"));
1234:Middlewares/Third_Party/LwIP/src/core/tcp.c ****     } else {
1235:Middlewares/Third_Party/LwIP/src/core/tcp.c ****       if (pcb->persist_backoff > 0) {
 3204              		.loc 1 1235 14
 3205 00d0 FB6A     		ldr	r3, [r7, #44]
 3206 00d2 93F89930 		ldrb	r3, [r3, #153]	@ zero_extendqisi2
 3207              		.loc 1 1235 10
ARM GAS  /tmp/ccFjPNuy.s 			page 81


 3208 00d6 002B     		cmp	r3, #0
 3209 00d8 75D0     		beq	.L221
1236:Middlewares/Third_Party/LwIP/src/core/tcp.c ****         LWIP_ASSERT("tcp_slowtimr: persist ticking with in-flight data", pcb->unacked == NULL);
 3210              		.loc 1 1236 9
 3211 00da FB6A     		ldr	r3, [r7, #44]
 3212 00dc 1B6F     		ldr	r3, [r3, #112]
 3213 00de 002B     		cmp	r3, #0
 3214 00e0 06D0     		beq	.L222
 3215              		.loc 1 1236 9 is_stmt 0 discriminator 1
 3216 00e2 624B     		ldr	r3, .L264+12
 3217 00e4 40F2D442 		movw	r2, #1236
 3218 00e8 6549     		ldr	r1, .L264+32
 3219 00ea 6248     		ldr	r0, .L264+20
 3220 00ec FFF7FEFF 		bl	printf
 3221              	.L222:
1237:Middlewares/Third_Party/LwIP/src/core/tcp.c ****         LWIP_ASSERT("tcp_slowtimr: persist ticking with empty send buffer", pcb->unsent != NULL);
 3222              		.loc 1 1237 9 is_stmt 1
 3223 00f0 FB6A     		ldr	r3, [r7, #44]
 3224 00f2 DB6E     		ldr	r3, [r3, #108]
 3225 00f4 002B     		cmp	r3, #0
 3226 00f6 06D1     		bne	.L223
 3227              		.loc 1 1237 9 is_stmt 0 discriminator 1
 3228 00f8 5C4B     		ldr	r3, .L264+12
 3229 00fa 40F2D542 		movw	r2, #1237
 3230 00fe 6149     		ldr	r1, .L264+36
 3231 0100 5C48     		ldr	r0, .L264+20
 3232 0102 FFF7FEFF 		bl	printf
 3233              	.L223:
1238:Middlewares/Third_Party/LwIP/src/core/tcp.c ****         if (pcb->persist_probe >= TCP_MAXRTX) {
 3234              		.loc 1 1238 16 is_stmt 1
 3235 0106 FB6A     		ldr	r3, [r7, #44]
 3236 0108 93F89A30 		ldrb	r3, [r3, #154]	@ zero_extendqisi2
 3237              		.loc 1 1238 12
 3238 010c 0B2B     		cmp	r3, #11
 3239 010e 05D9     		bls	.L224
1239:Middlewares/Third_Party/LwIP/src/core/tcp.c ****           ++pcb_remove; /* max probes reached */
 3240              		.loc 1 1239 11
 3241 0110 97F82730 		ldrb	r3, [r7, #39]
 3242 0114 0133     		adds	r3, r3, #1
 3243 0116 87F82730 		strb	r3, [r7, #39]
 3244 011a EDE0     		b	.L219
 3245              	.L224:
 3246              	.LBB10:
1240:Middlewares/Third_Party/LwIP/src/core/tcp.c ****         } else {
1241:Middlewares/Third_Party/LwIP/src/core/tcp.c ****           u8_t backoff_cnt = tcp_persist_backoff[pcb->persist_backoff - 1];
 3247              		.loc 1 1241 53
 3248 011c FB6A     		ldr	r3, [r7, #44]
 3249 011e 93F89930 		ldrb	r3, [r3, #153]	@ zero_extendqisi2
 3250              		.loc 1 1241 71
 3251 0122 013B     		subs	r3, r3, #1
 3252              		.loc 1 1241 16
 3253 0124 584A     		ldr	r2, .L264+40
 3254 0126 D35C     		ldrb	r3, [r2, r3]
 3255 0128 FB77     		strb	r3, [r7, #31]
1242:Middlewares/Third_Party/LwIP/src/core/tcp.c ****           if (pcb->persist_cnt < backoff_cnt) {
 3256              		.loc 1 1242 18
 3257 012a FB6A     		ldr	r3, [r7, #44]
ARM GAS  /tmp/ccFjPNuy.s 			page 82


 3258 012c 93F89830 		ldrb	r3, [r3, #152]	@ zero_extendqisi2
 3259              		.loc 1 1242 14
 3260 0130 FA7F     		ldrb	r2, [r7, #31]	@ zero_extendqisi2
 3261 0132 9A42     		cmp	r2, r3
 3262 0134 07D9     		bls	.L226
1243:Middlewares/Third_Party/LwIP/src/core/tcp.c ****             pcb->persist_cnt++;
 3263              		.loc 1 1243 16
 3264 0136 FB6A     		ldr	r3, [r7, #44]
 3265 0138 93F89830 		ldrb	r3, [r3, #152]	@ zero_extendqisi2
 3266              		.loc 1 1243 29
 3267 013c 0133     		adds	r3, r3, #1
 3268 013e DAB2     		uxtb	r2, r3
 3269 0140 FB6A     		ldr	r3, [r7, #44]
 3270 0142 83F89820 		strb	r2, [r3, #152]
 3271              	.L226:
1244:Middlewares/Third_Party/LwIP/src/core/tcp.c ****           }
1245:Middlewares/Third_Party/LwIP/src/core/tcp.c ****           if (pcb->persist_cnt >= backoff_cnt) {
 3272              		.loc 1 1245 18
 3273 0146 FB6A     		ldr	r3, [r7, #44]
 3274 0148 93F89830 		ldrb	r3, [r3, #152]	@ zero_extendqisi2
 3275              		.loc 1 1245 14
 3276 014c FA7F     		ldrb	r2, [r7, #31]	@ zero_extendqisi2
 3277 014e 9A42     		cmp	r2, r3
 3278 0150 00F2D280 		bhi	.L219
 3279              	.LBB11:
1246:Middlewares/Third_Party/LwIP/src/core/tcp.c ****             int next_slot = 1; /* increment timer to next slot */
 3280              		.loc 1 1246 17
 3281 0154 0123     		movs	r3, #1
 3282 0156 3B62     		str	r3, [r7, #32]
1247:Middlewares/Third_Party/LwIP/src/core/tcp.c ****             /* If snd_wnd is zero, send 1 byte probes */
1248:Middlewares/Third_Party/LwIP/src/core/tcp.c ****             if (pcb->snd_wnd == 0) {
 3283              		.loc 1 1248 20
 3284 0158 FB6A     		ldr	r3, [r7, #44]
 3285 015a B3F86030 		ldrh	r3, [r3, #96]
 3286              		.loc 1 1248 16
 3287 015e 002B     		cmp	r3, #0
 3288 0160 08D1     		bne	.L227
1249:Middlewares/Third_Party/LwIP/src/core/tcp.c ****               if (tcp_zero_window_probe(pcb) != ERR_OK) {
 3289              		.loc 1 1249 19
 3290 0162 F86A     		ldr	r0, [r7, #44]
 3291 0164 FFF7FEFF 		bl	tcp_zero_window_probe
 3292 0168 0346     		mov	r3, r0
 3293              		.loc 1 1249 18
 3294 016a 002B     		cmp	r3, #0
 3295 016c 14D0     		beq	.L229
1250:Middlewares/Third_Party/LwIP/src/core/tcp.c ****                 next_slot = 0; /* try probe again with current slot */
 3296              		.loc 1 1250 27
 3297 016e 0023     		movs	r3, #0
 3298 0170 3B62     		str	r3, [r7, #32]
 3299 0172 11E0     		b	.L229
 3300              	.L227:
1251:Middlewares/Third_Party/LwIP/src/core/tcp.c ****               }
1252:Middlewares/Third_Party/LwIP/src/core/tcp.c ****               /* snd_wnd not fully closed, split unsent head and fill window */
1253:Middlewares/Third_Party/LwIP/src/core/tcp.c ****             } else {
1254:Middlewares/Third_Party/LwIP/src/core/tcp.c ****               if (tcp_split_unsent_seg(pcb, (u16_t)pcb->snd_wnd) == ERR_OK) {
 3301              		.loc 1 1254 55
 3302 0174 FB6A     		ldr	r3, [r7, #44]
ARM GAS  /tmp/ccFjPNuy.s 			page 83


 3303 0176 B3F86030 		ldrh	r3, [r3, #96]
 3304              		.loc 1 1254 19
 3305 017a 1946     		mov	r1, r3
 3306 017c F86A     		ldr	r0, [r7, #44]
 3307 017e FFF7FEFF 		bl	tcp_split_unsent_seg
 3308 0182 0346     		mov	r3, r0
 3309              		.loc 1 1254 18
 3310 0184 002B     		cmp	r3, #0
 3311 0186 07D1     		bne	.L229
1255:Middlewares/Third_Party/LwIP/src/core/tcp.c ****                 if (tcp_output(pcb) == ERR_OK) {
 3312              		.loc 1 1255 21
 3313 0188 F86A     		ldr	r0, [r7, #44]
 3314 018a FFF7FEFF 		bl	tcp_output
 3315 018e 0346     		mov	r3, r0
 3316              		.loc 1 1255 20
 3317 0190 002B     		cmp	r3, #0
 3318 0192 01D1     		bne	.L229
1256:Middlewares/Third_Party/LwIP/src/core/tcp.c ****                   /* sending will cancel persist timer, else retry with current slot */
1257:Middlewares/Third_Party/LwIP/src/core/tcp.c ****                   next_slot = 0;
 3319              		.loc 1 1257 29
 3320 0194 0023     		movs	r3, #0
 3321 0196 3B62     		str	r3, [r7, #32]
 3322              	.L229:
1258:Middlewares/Third_Party/LwIP/src/core/tcp.c ****                 }
1259:Middlewares/Third_Party/LwIP/src/core/tcp.c ****               }
1260:Middlewares/Third_Party/LwIP/src/core/tcp.c ****             }
1261:Middlewares/Third_Party/LwIP/src/core/tcp.c ****             if (next_slot) {
 3323              		.loc 1 1261 16
 3324 0198 3B6A     		ldr	r3, [r7, #32]
 3325 019a 002B     		cmp	r3, #0
 3326 019c 00F0AC80 		beq	.L219
1262:Middlewares/Third_Party/LwIP/src/core/tcp.c ****               pcb->persist_cnt = 0;
 3327              		.loc 1 1262 32
 3328 01a0 FB6A     		ldr	r3, [r7, #44]
 3329 01a2 0022     		movs	r2, #0
 3330 01a4 83F89820 		strb	r2, [r3, #152]
1263:Middlewares/Third_Party/LwIP/src/core/tcp.c ****               if (pcb->persist_backoff < sizeof(tcp_persist_backoff)) {
 3331              		.loc 1 1263 22
 3332 01a8 FB6A     		ldr	r3, [r7, #44]
 3333 01aa 93F89930 		ldrb	r3, [r3, #153]	@ zero_extendqisi2
 3334              		.loc 1 1263 18
 3335 01ae 062B     		cmp	r3, #6
 3336 01b0 00F2A280 		bhi	.L219
1264:Middlewares/Third_Party/LwIP/src/core/tcp.c ****                 pcb->persist_backoff++;
 3337              		.loc 1 1264 20
 3338 01b4 FB6A     		ldr	r3, [r7, #44]
 3339 01b6 93F89930 		ldrb	r3, [r3, #153]	@ zero_extendqisi2
 3340              		.loc 1 1264 37
 3341 01ba 0133     		adds	r3, r3, #1
 3342 01bc DAB2     		uxtb	r2, r3
 3343 01be FB6A     		ldr	r3, [r7, #44]
 3344 01c0 83F89920 		strb	r2, [r3, #153]
 3345 01c4 98E0     		b	.L219
 3346              	.L221:
 3347              	.LBE11:
 3348              	.LBE10:
1265:Middlewares/Third_Party/LwIP/src/core/tcp.c ****               }
ARM GAS  /tmp/ccFjPNuy.s 			page 84


1266:Middlewares/Third_Party/LwIP/src/core/tcp.c ****             }
1267:Middlewares/Third_Party/LwIP/src/core/tcp.c ****           }
1268:Middlewares/Third_Party/LwIP/src/core/tcp.c ****         }
1269:Middlewares/Third_Party/LwIP/src/core/tcp.c ****       } else {
1270:Middlewares/Third_Party/LwIP/src/core/tcp.c ****         /* Increase the retransmission timer if it is running */
1271:Middlewares/Third_Party/LwIP/src/core/tcp.c ****         if ((pcb->rtime >= 0) && (pcb->rtime < 0x7FFF)) {
 3349              		.loc 1 1271 17
 3350 01c6 FB6A     		ldr	r3, [r7, #44]
 3351 01c8 B3F93030 		ldrsh	r3, [r3, #48]
 3352              		.loc 1 1271 12
 3353 01cc 002B     		cmp	r3, #0
 3354 01ce 0FDB     		blt	.L230
 3355              		.loc 1 1271 38 discriminator 1
 3356 01d0 FB6A     		ldr	r3, [r7, #44]
 3357 01d2 B3F93030 		ldrsh	r3, [r3, #48]
 3358              		.loc 1 1271 31 discriminator 1
 3359 01d6 47F6FF72 		movw	r2, #32767
 3360 01da 9342     		cmp	r3, r2
 3361 01dc 08D0     		beq	.L230
1272:Middlewares/Third_Party/LwIP/src/core/tcp.c ****           ++pcb->rtime;
 3362              		.loc 1 1272 16
 3363 01de FB6A     		ldr	r3, [r7, #44]
 3364 01e0 B3F93030 		ldrsh	r3, [r3, #48]
 3365              		.loc 1 1272 11
 3366 01e4 9BB2     		uxth	r3, r3
 3367 01e6 0133     		adds	r3, r3, #1
 3368 01e8 9BB2     		uxth	r3, r3
 3369 01ea 1AB2     		sxth	r2, r3
 3370 01ec FB6A     		ldr	r3, [r7, #44]
 3371 01ee 1A86     		strh	r2, [r3, #48]	@ movhi
 3372              	.L230:
1273:Middlewares/Third_Party/LwIP/src/core/tcp.c ****         }
1274:Middlewares/Third_Party/LwIP/src/core/tcp.c **** 
1275:Middlewares/Third_Party/LwIP/src/core/tcp.c ****         if (pcb->rtime >= pcb->rto) {
 3373              		.loc 1 1275 16
 3374 01f0 FB6A     		ldr	r3, [r7, #44]
 3375 01f2 B3F93020 		ldrsh	r2, [r3, #48]
 3376              		.loc 1 1275 30
 3377 01f6 FB6A     		ldr	r3, [r7, #44]
 3378 01f8 B3F94030 		ldrsh	r3, [r3, #64]
 3379              		.loc 1 1275 12
 3380 01fc 9A42     		cmp	r2, r3
 3381 01fe 7BDB     		blt	.L219
1276:Middlewares/Third_Party/LwIP/src/core/tcp.c ****           /* Time for a retransmission. */
1277:Middlewares/Third_Party/LwIP/src/core/tcp.c ****           LWIP_DEBUGF(TCP_RTO_DEBUG, ("tcp_slowtmr: rtime %"S16_F
1278:Middlewares/Third_Party/LwIP/src/core/tcp.c ****                                       " pcb->rto %"S16_F"\n",
1279:Middlewares/Third_Party/LwIP/src/core/tcp.c ****                                       pcb->rtime, pcb->rto));
1280:Middlewares/Third_Party/LwIP/src/core/tcp.c ****           /* If prepare phase fails but we have unsent data but no unacked data,
1281:Middlewares/Third_Party/LwIP/src/core/tcp.c ****              still execute the backoff calculations below, as this means we somehow
1282:Middlewares/Third_Party/LwIP/src/core/tcp.c ****              failed to send segment. */
1283:Middlewares/Third_Party/LwIP/src/core/tcp.c ****           if ((tcp_rexmit_rto_prepare(pcb) == ERR_OK) || ((pcb->unacked == NULL) && (pcb->unsent !=
 3382              		.loc 1 1283 16
 3383 0200 F86A     		ldr	r0, [r7, #44]
 3384 0202 FFF7FEFF 		bl	tcp_rexmit_rto_prepare
 3385 0206 0346     		mov	r3, r0
 3386              		.loc 1 1283 14
 3387 0208 002B     		cmp	r3, #0
ARM GAS  /tmp/ccFjPNuy.s 			page 85


 3388 020a 07D0     		beq	.L231
 3389              		.loc 1 1283 63 discriminator 1
 3390 020c FB6A     		ldr	r3, [r7, #44]
 3391 020e 1B6F     		ldr	r3, [r3, #112]
 3392              		.loc 1 1283 55 discriminator 1
 3393 0210 002B     		cmp	r3, #0
 3394 0212 71D1     		bne	.L219
 3395              		.loc 1 1283 89 discriminator 2
 3396 0214 FB6A     		ldr	r3, [r7, #44]
 3397 0216 DB6E     		ldr	r3, [r3, #108]
 3398              		.loc 1 1283 82 discriminator 2
 3399 0218 002B     		cmp	r3, #0
 3400 021a 6DD0     		beq	.L219
 3401              	.L231:
1284:Middlewares/Third_Party/LwIP/src/core/tcp.c ****             /* Double retransmission time-out unless we are trying to
1285:Middlewares/Third_Party/LwIP/src/core/tcp.c ****              * connect to somebody (i.e., we are in SYN_SENT). */
1286:Middlewares/Third_Party/LwIP/src/core/tcp.c ****             if (pcb->state != SYN_SENT) {
 3402              		.loc 1 1286 20
 3403 021c FB6A     		ldr	r3, [r7, #44]
 3404 021e 1B7D     		ldrb	r3, [r3, #20]	@ zero_extendqisi2
 3405              		.loc 1 1286 16
 3406 0220 022B     		cmp	r3, #2
 3407 0222 3AD0     		beq	.L232
 3408              	.LBB12:
1287:Middlewares/Third_Party/LwIP/src/core/tcp.c ****               u8_t backoff_idx = LWIP_MIN(pcb->nrtx, sizeof(tcp_backoff) - 1);
 3409              		.loc 1 1287 34
 3410 0224 FB6A     		ldr	r3, [r7, #44]
 3411 0226 93F84230 		ldrb	r3, [r3, #66]	@ zero_extendqisi2
 3412              		.loc 1 1287 20
 3413 022a 0C2B     		cmp	r3, #12
 3414 022c 28BF     		it	cs
 3415 022e 0C23     		movcs	r3, #12
 3416 0230 BB77     		strb	r3, [r7, #30]
1288:Middlewares/Third_Party/LwIP/src/core/tcp.c ****               int calc_rto = ((pcb->sa >> 3) + pcb->sv) << tcp_backoff[backoff_idx];
 3417              		.loc 1 1288 35
 3418 0232 FB6A     		ldr	r3, [r7, #44]
 3419 0234 B3F93C30 		ldrsh	r3, [r3, #60]
 3420              		.loc 1 1288 40
 3421 0238 DB10     		asrs	r3, r3, #3
 3422 023a 1BB2     		sxth	r3, r3
 3423 023c 1A46     		mov	r2, r3
 3424              		.loc 1 1288 51
 3425 023e FB6A     		ldr	r3, [r7, #44]
 3426 0240 B3F93E30 		ldrsh	r3, [r3, #62]
 3427              		.loc 1 1288 46
 3428 0244 1344     		add	r3, r3, r2
 3429              		.loc 1 1288 71
 3430 0246 BA7F     		ldrb	r2, [r7, #30]	@ zero_extendqisi2
 3431 0248 1049     		ldr	r1, .L264+44
 3432 024a 8A5C     		ldrb	r2, [r1, r2]	@ zero_extendqisi2
 3433              		.loc 1 1288 19
 3434 024c 9340     		lsls	r3, r3, r2
 3435 024e BB61     		str	r3, [r7, #24]
1289:Middlewares/Third_Party/LwIP/src/core/tcp.c ****               pcb->rto = (s16_t)LWIP_MIN(calc_rto, 0x7FFF);
 3436              		.loc 1 1289 26
 3437 0250 BB69     		ldr	r3, [r7, #24]
 3438 0252 47F6FE72 		movw	r2, #32766
ARM GAS  /tmp/ccFjPNuy.s 			page 86


 3439 0256 9342     		cmp	r3, r2
 3440 0258 1ADC     		bgt	.L233
 3441              		.loc 1 1289 26 is_stmt 0 discriminator 1
 3442 025a BB69     		ldr	r3, [r7, #24]
 3443 025c 1AB2     		sxth	r2, r3
 3444 025e 19E0     		b	.L234
 3445              	.L265:
 3446              		.align	2
 3447              	.L264:
 3448 0260 00000000 		.word	tcp_ticks
 3449 0264 00000000 		.word	tcp_timer_ctr
 3450 0268 00000000 		.word	tcp_active_pcbs
 3451 026c 78000000 		.word	.LC11
 3452 0270 B8030000 		.word	.LC36
 3453 0274 B8000000 		.word	.LC13
 3454 0278 E4030000 		.word	.LC37
 3455 027c 10040000 		.word	.LC38
 3456 0280 40040000 		.word	.LC39
 3457 0284 74040000 		.word	.LC40
 3458 0288 00000000 		.word	tcp_persist_backoff
 3459 028c 00000000 		.word	tcp_backoff
 3460              	.L233:
 3461              		.loc 1 1289 26 discriminator 2
 3462 0290 47F6FF72 		movw	r2, #32767
 3463              	.L234:
 3464              		.loc 1 1289 24 is_stmt 1 discriminator 4
 3465 0294 FB6A     		ldr	r3, [r7, #44]
 3466 0296 A3F84020 		strh	r2, [r3, #64]	@ movhi
 3467              	.L232:
 3468              	.LBE12:
1290:Middlewares/Third_Party/LwIP/src/core/tcp.c ****             }
1291:Middlewares/Third_Party/LwIP/src/core/tcp.c **** 
1292:Middlewares/Third_Party/LwIP/src/core/tcp.c ****             /* Reset the retransmission timer. */
1293:Middlewares/Third_Party/LwIP/src/core/tcp.c ****             pcb->rtime = 0;
 3469              		.loc 1 1293 24
 3470 029a FB6A     		ldr	r3, [r7, #44]
 3471 029c 0022     		movs	r2, #0
 3472 029e 1A86     		strh	r2, [r3, #48]	@ movhi
1294:Middlewares/Third_Party/LwIP/src/core/tcp.c **** 
1295:Middlewares/Third_Party/LwIP/src/core/tcp.c ****             /* Reduce congestion window and ssthresh. */
1296:Middlewares/Third_Party/LwIP/src/core/tcp.c ****             eff_wnd = LWIP_MIN(pcb->cwnd, pcb->snd_wnd);
 3473              		.loc 1 1296 23
 3474 02a0 FB6A     		ldr	r3, [r7, #44]
 3475 02a2 B3F86020 		ldrh	r2, [r3, #96]
 3476 02a6 FB6A     		ldr	r3, [r7, #44]
 3477 02a8 B3F84830 		ldrh	r3, [r3, #72]
 3478              		.loc 1 1296 21
 3479 02ac 9342     		cmp	r3, r2
 3480 02ae 28BF     		it	cs
 3481 02b0 1346     		movcs	r3, r2
 3482 02b2 FB82     		strh	r3, [r7, #22]	@ movhi
1297:Middlewares/Third_Party/LwIP/src/core/tcp.c ****             pcb->ssthresh = eff_wnd >> 1;
 3483              		.loc 1 1297 27
 3484 02b4 FB8A     		ldrh	r3, [r7, #22]
 3485 02b6 5B08     		lsrs	r3, r3, #1
 3486 02b8 9AB2     		uxth	r2, r3
 3487 02ba FB6A     		ldr	r3, [r7, #44]
ARM GAS  /tmp/ccFjPNuy.s 			page 87


 3488 02bc A3F84A20 		strh	r2, [r3, #74]	@ movhi
1298:Middlewares/Third_Party/LwIP/src/core/tcp.c ****             if (pcb->ssthresh < (tcpwnd_size_t)(pcb->mss << 1)) {
 3489              		.loc 1 1298 20
 3490 02c0 FB6A     		ldr	r3, [r7, #44]
 3491 02c2 B3F84A20 		ldrh	r2, [r3, #74]
 3492              		.loc 1 1298 52
 3493 02c6 FB6A     		ldr	r3, [r7, #44]
 3494 02c8 5B8E     		ldrh	r3, [r3, #50]
 3495              		.loc 1 1298 33
 3496 02ca 5B00     		lsls	r3, r3, #1
 3497 02cc 9BB2     		uxth	r3, r3
 3498              		.loc 1 1298 16
 3499 02ce 9A42     		cmp	r2, r3
 3500 02d0 06D2     		bcs	.L235
1299:Middlewares/Third_Party/LwIP/src/core/tcp.c ****               pcb->ssthresh = (tcpwnd_size_t)(pcb->mss << 1);
 3501              		.loc 1 1299 50
 3502 02d2 FB6A     		ldr	r3, [r7, #44]
 3503 02d4 5B8E     		ldrh	r3, [r3, #50]
 3504              		.loc 1 1299 31
