ARM GAS  /tmp/ccWqLOXK.s 			page 1


   1              		.cpu cortex-m4
   2              		.eabi_attribute 27, 1
   3              		.eabi_attribute 28, 1
   4              		.eabi_attribute 20, 1
   5              		.eabi_attribute 21, 1
   6              		.eabi_attribute 23, 3
   7              		.eabi_attribute 24, 1
   8              		.eabi_attribute 25, 1
   9              		.eabi_attribute 26, 1
  10              		.eabi_attribute 30, 6
  11              		.eabi_attribute 34, 1
  12              		.eabi_attribute 18, 4
  13              		.file	"tcp_in.c"
  14              		.text
  15              	.Ltext0:
  16              		.cfi_sections	.debug_frame
  17              		.section	.bss.inseg,"aw",%nobits
  18              		.align	2
  21              	inseg:
  22 0000 00000000 		.space	16
  22      00000000 
  22      00000000 
  22      00000000 
  23              		.section	.bss.tcphdr,"aw",%nobits
  24              		.align	2
  27              	tcphdr:
  28 0000 00000000 		.space	4
  29              		.section	.bss.tcphdr_optlen,"aw",%nobits
  30              		.align	1
  33              	tcphdr_optlen:
  34 0000 0000     		.space	2
  35              		.section	.bss.tcphdr_opt1len,"aw",%nobits
  36              		.align	1
  39              	tcphdr_opt1len:
  40 0000 0000     		.space	2
  41              		.section	.bss.tcphdr_opt2,"aw",%nobits
  42              		.align	2
  45              	tcphdr_opt2:
  46 0000 00000000 		.space	4
  47              		.section	.bss.tcp_optidx,"aw",%nobits
  48              		.align	1
  51              	tcp_optidx:
  52 0000 0000     		.space	2
  53              		.section	.bss.seqno,"aw",%nobits
  54              		.align	2
  57              	seqno:
  58 0000 00000000 		.space	4
  59              		.section	.bss.ackno,"aw",%nobits
  60              		.align	2
  63              	ackno:
  64 0000 00000000 		.space	4
  65              		.section	.bss.recv_acked,"aw",%nobits
  66              		.align	1
  69              	recv_acked:
  70 0000 0000     		.space	2
  71              		.section	.bss.tcplen,"aw",%nobits
  72              		.align	1
ARM GAS  /tmp/ccWqLOXK.s 			page 2


  75              	tcplen:
  76 0000 0000     		.space	2
  77              		.section	.bss.flags,"aw",%nobits
  80              	flags:
  81 0000 00       		.space	1
  82              		.section	.bss.recv_flags,"aw",%nobits
  85              	recv_flags:
  86 0000 00       		.space	1
  87              		.section	.bss.recv_data,"aw",%nobits
  88              		.align	2
  91              	recv_data:
  92 0000 00000000 		.space	4
  93              		.comm	tcp_input_pcb,4,4
  94              		.section	.rodata
  95              		.align	2
  96              	.LC0:
  97 0000 4D696464 		.ascii	"Middlewares/Third_Party/LwIP/src/core/tcp_in.c\000"
  97      6C657761 
  97      7265732F 
  97      54686972 
  97      645F5061 
  98 002f 00       		.align	2
  99              	.LC1:
 100 0030 7463705F 		.ascii	"tcp_input: invalid pbuf\000"
 100      696E7075 
 100      743A2069 
 100      6E76616C 
 100      69642070 
 101              		.align	2
 102              	.LC2:
 103 0048 41737365 		.ascii	"Assertion \"%s\" failed at line %d in %s\012\000"
 103      7274696F 
 103      6E202225 
 103      73222066 
 103      61696C65 
 104              		.align	2
 105              	.LC3:
 106 0070 702D3E6E 		.ascii	"p->next != NULL\000"
 106      65787420 
 106      213D204E 
 106      554C4C00 
 107              		.align	2
 108              	.LC4:
 109 0080 702D3E6C 		.ascii	"p->len == 0\000"
 109      656E203D 
 109      3D203000 
 110              		.align	2
 111              	.LC5:
 112 008c 702D3E74 		.ascii	"p->tot_len == p->next->tot_len\000"
 112      6F745F6C 
 112      656E203D 
 112      3D20702D 
 112      3E6E6578 
 113 00ab 00       		.align	2
 114              	.LC6:
 115 00ac 7463705F 		.ascii	"tcp_input: active pcb->state != CLOSED\000"
 115      696E7075 
ARM GAS  /tmp/ccWqLOXK.s 			page 3


 115      743A2061 
 115      63746976 
 115      65207063 
 116 00d3 00       		.align	2
 117              	.LC7:
 118 00d4 7463705F 		.ascii	"tcp_input: active pcb->state != TIME-WAIT\000"
 118      696E7075 
 118      743A2061 
 118      63746976 
 118      65207063 
 119 00fe 0000     		.align	2
 120              	.LC8:
 121 0100 7463705F 		.ascii	"tcp_input: active pcb->state != LISTEN\000"
 121      696E7075 
 121      743A2061 
 121      63746976 
 121      65207063 
 122 0127 00       		.align	2
 123              	.LC9:
 124 0128 7463705F 		.ascii	"tcp_input: pcb->next != pcb (before cache)\000"
 124      696E7075 
 124      743A2070 
 124      63622D3E 
 124      6E657874 
 125 0153 00       		.align	2
 126              	.LC10:
 127 0154 7463705F 		.ascii	"tcp_input: pcb->next != pcb (after cache)\000"
 127      696E7075 
 127      743A2070 
 127      63622D3E 
 127      6E657874 
 128 017e 0000     		.align	2
 129              	.LC11:
 130 0180 7463705F 		.ascii	"tcp_input: TIME-WAIT pcb->state == TIME-WAIT\000"
 130      696E7075 
 130      743A2054 
 130      494D452D 
 130      57414954 
 131 01ad 000000   		.align	2
 132              	.LC12:
 133 01b0 7063622D 		.ascii	"pcb->refused_data == NULL\000"
 133      3E726566 
 133      75736564 
 133      5F646174 
 133      61203D3D 
 134              		.section	.text.tcp_input,"ax",%progbits
 135              		.align	1
 136              		.global	tcp_input
 137              		.arch armv7e-m
 138              		.syntax unified
 139              		.thumb
 140              		.thumb_func
 141              		.fpu fpv4-sp-d16
 143              	tcp_input:
 144              	.LFB133:
 145              		.file 1 "Middlewares/Third_Party/LwIP/src/core/tcp_in.c"
   1:Middlewares/Third_Party/LwIP/src/core/tcp_in.c **** /**
ARM GAS  /tmp/ccWqLOXK.s 			page 4


   2:Middlewares/Third_Party/LwIP/src/core/tcp_in.c ****  * @file
   3:Middlewares/Third_Party/LwIP/src/core/tcp_in.c ****  * Transmission Control Protocol, incoming traffic
   4:Middlewares/Third_Party/LwIP/src/core/tcp_in.c ****  *
   5:Middlewares/Third_Party/LwIP/src/core/tcp_in.c ****  * The input processing functions of the TCP layer.
   6:Middlewares/Third_Party/LwIP/src/core/tcp_in.c ****  *
   7:Middlewares/Third_Party/LwIP/src/core/tcp_in.c ****  * These functions are generally called in the order (ip_input() ->)
   8:Middlewares/Third_Party/LwIP/src/core/tcp_in.c ****  * tcp_input() -> * tcp_process() -> tcp_receive() (-> application).
   9:Middlewares/Third_Party/LwIP/src/core/tcp_in.c ****  *
  10:Middlewares/Third_Party/LwIP/src/core/tcp_in.c ****  */
  11:Middlewares/Third_Party/LwIP/src/core/tcp_in.c **** 
  12:Middlewares/Third_Party/LwIP/src/core/tcp_in.c **** /*
  13:Middlewares/Third_Party/LwIP/src/core/tcp_in.c ****  * Copyright (c) 2001-2004 Swedish Institute of Computer Science.
  14:Middlewares/Third_Party/LwIP/src/core/tcp_in.c ****  * All rights reserved.
  15:Middlewares/Third_Party/LwIP/src/core/tcp_in.c ****  *
  16:Middlewares/Third_Party/LwIP/src/core/tcp_in.c ****  * Redistribution and use in source and binary forms, with or without modification,
  17:Middlewares/Third_Party/LwIP/src/core/tcp_in.c ****  * are permitted provided that the following conditions are met:
  18:Middlewares/Third_Party/LwIP/src/core/tcp_in.c ****  *
  19:Middlewares/Third_Party/LwIP/src/core/tcp_in.c ****  * 1. Redistributions of source code must retain the above copyright notice,
  20:Middlewares/Third_Party/LwIP/src/core/tcp_in.c ****  *    this list of conditions and the following disclaimer.
  21:Middlewares/Third_Party/LwIP/src/core/tcp_in.c ****  * 2. Redistributions in binary form must reproduce the above copyright notice,
  22:Middlewares/Third_Party/LwIP/src/core/tcp_in.c ****  *    this list of conditions and the following disclaimer in the documentation
  23:Middlewares/Third_Party/LwIP/src/core/tcp_in.c ****  *    and/or other materials provided with the distribution.
  24:Middlewares/Third_Party/LwIP/src/core/tcp_in.c ****  * 3. The name of the author may not be used to endorse or promote products
  25:Middlewares/Third_Party/LwIP/src/core/tcp_in.c ****  *    derived from this software without specific prior written permission.
  26:Middlewares/Third_Party/LwIP/src/core/tcp_in.c ****  *
  27:Middlewares/Third_Party/LwIP/src/core/tcp_in.c ****  * THIS SOFTWARE IS PROVIDED BY THE AUTHOR ``AS IS'' AND ANY EXPRESS OR IMPLIED
  28:Middlewares/Third_Party/LwIP/src/core/tcp_in.c ****  * WARRANTIES, INCLUDING, BUT NOT LIMITED TO, THE IMPLIED WARRANTIES OF
  29:Middlewares/Third_Party/LwIP/src/core/tcp_in.c ****  * MERCHANTABILITY AND FITNESS FOR A PARTICULAR PURPOSE ARE DISCLAIMED. IN NO EVENT
  30:Middlewares/Third_Party/LwIP/src/core/tcp_in.c ****  * SHALL THE AUTHOR BE LIABLE FOR ANY DIRECT, INDIRECT, INCIDENTAL, SPECIAL,
  31:Middlewares/Third_Party/LwIP/src/core/tcp_in.c ****  * EXEMPLARY, OR CONSEQUENTIAL DAMAGES (INCLUDING, BUT NOT LIMITED TO, PROCUREMENT
  32:Middlewares/Third_Party/LwIP/src/core/tcp_in.c ****  * OF SUBSTITUTE GOODS OR SERVICES; LOSS OF USE, DATA, OR PROFITS; OR BUSINESS
  33:Middlewares/Third_Party/LwIP/src/core/tcp_in.c ****  * INTERRUPTION) HOWEVER CAUSED AND ON ANY THEORY OF LIABILITY, WHETHER IN
  34:Middlewares/Third_Party/LwIP/src/core/tcp_in.c ****  * CONTRACT, STRICT LIABILITY, OR TORT (INCLUDING NEGLIGENCE OR OTHERWISE) ARISING
  35:Middlewares/Third_Party/LwIP/src/core/tcp_in.c ****  * IN ANY WAY OUT OF THE USE OF THIS SOFTWARE, EVEN IF ADVISED OF THE POSSIBILITY
  36:Middlewares/Third_Party/LwIP/src/core/tcp_in.c ****  * OF SUCH DAMAGE.
  37:Middlewares/Third_Party/LwIP/src/core/tcp_in.c ****  *
  38:Middlewares/Third_Party/LwIP/src/core/tcp_in.c ****  * This file is part of the lwIP TCP/IP stack.
  39:Middlewares/Third_Party/LwIP/src/core/tcp_in.c ****  *
  40:Middlewares/Third_Party/LwIP/src/core/tcp_in.c ****  * Author: Adam Dunkels <adam@sics.se>
  41:Middlewares/Third_Party/LwIP/src/core/tcp_in.c ****  *
  42:Middlewares/Third_Party/LwIP/src/core/tcp_in.c ****  */
  43:Middlewares/Third_Party/LwIP/src/core/tcp_in.c **** 
  44:Middlewares/Third_Party/LwIP/src/core/tcp_in.c **** #include "lwip/opt.h"
  45:Middlewares/Third_Party/LwIP/src/core/tcp_in.c **** 
  46:Middlewares/Third_Party/LwIP/src/core/tcp_in.c **** #if LWIP_TCP /* don't build if not configured for use in lwipopts.h */
  47:Middlewares/Third_Party/LwIP/src/core/tcp_in.c **** 
  48:Middlewares/Third_Party/LwIP/src/core/tcp_in.c **** #include "lwip/priv/tcp_priv.h"
  49:Middlewares/Third_Party/LwIP/src/core/tcp_in.c **** #include "lwip/def.h"
  50:Middlewares/Third_Party/LwIP/src/core/tcp_in.c **** #include "lwip/ip_addr.h"
  51:Middlewares/Third_Party/LwIP/src/core/tcp_in.c **** #include "lwip/netif.h"
  52:Middlewares/Third_Party/LwIP/src/core/tcp_in.c **** #include "lwip/mem.h"
  53:Middlewares/Third_Party/LwIP/src/core/tcp_in.c **** #include "lwip/memp.h"
  54:Middlewares/Third_Party/LwIP/src/core/tcp_in.c **** #include "lwip/inet_chksum.h"
  55:Middlewares/Third_Party/LwIP/src/core/tcp_in.c **** #include "lwip/stats.h"
  56:Middlewares/Third_Party/LwIP/src/core/tcp_in.c **** #include "lwip/ip6.h"
  57:Middlewares/Third_Party/LwIP/src/core/tcp_in.c **** #include "lwip/ip6_addr.h"
  58:Middlewares/Third_Party/LwIP/src/core/tcp_in.c **** #if LWIP_ND6_TCP_REACHABILITY_HINTS
ARM GAS  /tmp/ccWqLOXK.s 			page 5


  59:Middlewares/Third_Party/LwIP/src/core/tcp_in.c **** #include "lwip/nd6.h"
  60:Middlewares/Third_Party/LwIP/src/core/tcp_in.c **** #endif /* LWIP_ND6_TCP_REACHABILITY_HINTS */
  61:Middlewares/Third_Party/LwIP/src/core/tcp_in.c **** 
  62:Middlewares/Third_Party/LwIP/src/core/tcp_in.c **** #include <string.h>
  63:Middlewares/Third_Party/LwIP/src/core/tcp_in.c **** 
  64:Middlewares/Third_Party/LwIP/src/core/tcp_in.c **** #ifdef LWIP_HOOK_FILENAME
  65:Middlewares/Third_Party/LwIP/src/core/tcp_in.c **** #include LWIP_HOOK_FILENAME
  66:Middlewares/Third_Party/LwIP/src/core/tcp_in.c **** #endif
  67:Middlewares/Third_Party/LwIP/src/core/tcp_in.c **** 
  68:Middlewares/Third_Party/LwIP/src/core/tcp_in.c **** /** Initial CWND calculation as defined RFC 2581 */
  69:Middlewares/Third_Party/LwIP/src/core/tcp_in.c **** #define LWIP_TCP_CALC_INITIAL_CWND(mss) ((tcpwnd_size_t)LWIP_MIN((4U * (mss)), LWIP_MAX((2U * (mss)
  70:Middlewares/Third_Party/LwIP/src/core/tcp_in.c **** 
  71:Middlewares/Third_Party/LwIP/src/core/tcp_in.c **** /* These variables are global to all functions involved in the input
  72:Middlewares/Third_Party/LwIP/src/core/tcp_in.c ****    processing of TCP segments. They are set by the tcp_input()
  73:Middlewares/Third_Party/LwIP/src/core/tcp_in.c ****    function. */
  74:Middlewares/Third_Party/LwIP/src/core/tcp_in.c **** static struct tcp_seg inseg;
  75:Middlewares/Third_Party/LwIP/src/core/tcp_in.c **** static struct tcp_hdr *tcphdr;
  76:Middlewares/Third_Party/LwIP/src/core/tcp_in.c **** static u16_t tcphdr_optlen;
  77:Middlewares/Third_Party/LwIP/src/core/tcp_in.c **** static u16_t tcphdr_opt1len;
  78:Middlewares/Third_Party/LwIP/src/core/tcp_in.c **** static u8_t *tcphdr_opt2;
  79:Middlewares/Third_Party/LwIP/src/core/tcp_in.c **** static u16_t tcp_optidx;
  80:Middlewares/Third_Party/LwIP/src/core/tcp_in.c **** static u32_t seqno, ackno;
  81:Middlewares/Third_Party/LwIP/src/core/tcp_in.c **** static tcpwnd_size_t recv_acked;
  82:Middlewares/Third_Party/LwIP/src/core/tcp_in.c **** static u16_t tcplen;
  83:Middlewares/Third_Party/LwIP/src/core/tcp_in.c **** static u8_t flags;
  84:Middlewares/Third_Party/LwIP/src/core/tcp_in.c **** 
  85:Middlewares/Third_Party/LwIP/src/core/tcp_in.c **** static u8_t recv_flags;
  86:Middlewares/Third_Party/LwIP/src/core/tcp_in.c **** static struct pbuf *recv_data;
  87:Middlewares/Third_Party/LwIP/src/core/tcp_in.c **** 
  88:Middlewares/Third_Party/LwIP/src/core/tcp_in.c **** struct tcp_pcb *tcp_input_pcb;
  89:Middlewares/Third_Party/LwIP/src/core/tcp_in.c **** 
  90:Middlewares/Third_Party/LwIP/src/core/tcp_in.c **** /* Forward declarations. */
  91:Middlewares/Third_Party/LwIP/src/core/tcp_in.c **** static err_t tcp_process(struct tcp_pcb *pcb);
  92:Middlewares/Third_Party/LwIP/src/core/tcp_in.c **** static void tcp_receive(struct tcp_pcb *pcb);
  93:Middlewares/Third_Party/LwIP/src/core/tcp_in.c **** static void tcp_parseopt(struct tcp_pcb *pcb);
  94:Middlewares/Third_Party/LwIP/src/core/tcp_in.c **** 
  95:Middlewares/Third_Party/LwIP/src/core/tcp_in.c **** static void tcp_listen_input(struct tcp_pcb_listen *pcb);
  96:Middlewares/Third_Party/LwIP/src/core/tcp_in.c **** static void tcp_timewait_input(struct tcp_pcb *pcb);
  97:Middlewares/Third_Party/LwIP/src/core/tcp_in.c **** 
  98:Middlewares/Third_Party/LwIP/src/core/tcp_in.c **** static int tcp_input_delayed_close(struct tcp_pcb *pcb);
  99:Middlewares/Third_Party/LwIP/src/core/tcp_in.c **** 
 100:Middlewares/Third_Party/LwIP/src/core/tcp_in.c **** #if LWIP_TCP_SACK_OUT
 101:Middlewares/Third_Party/LwIP/src/core/tcp_in.c **** static void tcp_add_sack(struct tcp_pcb *pcb, u32_t left, u32_t right);
 102:Middlewares/Third_Party/LwIP/src/core/tcp_in.c **** static void tcp_remove_sacks_lt(struct tcp_pcb *pcb, u32_t seq);
 103:Middlewares/Third_Party/LwIP/src/core/tcp_in.c **** #if defined(TCP_OOSEQ_BYTES_LIMIT) || defined(TCP_OOSEQ_PBUFS_LIMIT)
 104:Middlewares/Third_Party/LwIP/src/core/tcp_in.c **** static void tcp_remove_sacks_gt(struct tcp_pcb *pcb, u32_t seq);
 105:Middlewares/Third_Party/LwIP/src/core/tcp_in.c **** #endif /* TCP_OOSEQ_BYTES_LIMIT || TCP_OOSEQ_PBUFS_LIMIT */
 106:Middlewares/Third_Party/LwIP/src/core/tcp_in.c **** #endif /* LWIP_TCP_SACK_OUT */
 107:Middlewares/Third_Party/LwIP/src/core/tcp_in.c **** 
 108:Middlewares/Third_Party/LwIP/src/core/tcp_in.c **** /**
 109:Middlewares/Third_Party/LwIP/src/core/tcp_in.c ****  * The initial input processing of TCP. It verifies the TCP header, demultiplexes
 110:Middlewares/Third_Party/LwIP/src/core/tcp_in.c ****  * the segment between the PCBs and passes it on to tcp_process(), which implements
 111:Middlewares/Third_Party/LwIP/src/core/tcp_in.c ****  * the TCP finite state machine. This function is called by the IP layer (in
 112:Middlewares/Third_Party/LwIP/src/core/tcp_in.c ****  * ip_input()).
 113:Middlewares/Third_Party/LwIP/src/core/tcp_in.c ****  *
 114:Middlewares/Third_Party/LwIP/src/core/tcp_in.c ****  * @param p received TCP segment to process (p->payload pointing to the TCP header)
 115:Middlewares/Third_Party/LwIP/src/core/tcp_in.c ****  * @param inp network interface on which this segment was received
ARM GAS  /tmp/ccWqLOXK.s 			page 6


 116:Middlewares/Third_Party/LwIP/src/core/tcp_in.c ****  */
 117:Middlewares/Third_Party/LwIP/src/core/tcp_in.c **** void
 118:Middlewares/Third_Party/LwIP/src/core/tcp_in.c **** tcp_input(struct pbuf *p, struct netif *inp)
 119:Middlewares/Third_Party/LwIP/src/core/tcp_in.c **** {
 146              		.loc 1 119 1
 147              		.cfi_startproc
 148              		@ args = 0, pretend = 0, frame = 32
 149              		@ frame_needed = 1, uses_anonymous_args = 0
 150 0000 90B5     		push	{r4, r7, lr}
 151              	.LCFI0:
 152              		.cfi_def_cfa_offset 12
 153              		.cfi_offset 4, -12
 154              		.cfi_offset 7, -8
 155              		.cfi_offset 14, -4
 156 0002 8DB0     		sub	sp, sp, #52
 157              	.LCFI1:
 158              		.cfi_def_cfa_offset 64
 159 0004 04AF     		add	r7, sp, #16
 160              	.LCFI2:
 161              		.cfi_def_cfa 7, 48
 162 0006 7860     		str	r0, [r7, #4]
 163 0008 3960     		str	r1, [r7]
 120:Middlewares/Third_Party/LwIP/src/core/tcp_in.c ****   struct tcp_pcb *pcb, *prev;
 121:Middlewares/Third_Party/LwIP/src/core/tcp_in.c ****   struct tcp_pcb_listen *lpcb;
 122:Middlewares/Third_Party/LwIP/src/core/tcp_in.c **** #if SO_REUSE
 123:Middlewares/Third_Party/LwIP/src/core/tcp_in.c ****   struct tcp_pcb *lpcb_prev = NULL;
 124:Middlewares/Third_Party/LwIP/src/core/tcp_in.c ****   struct tcp_pcb_listen *lpcb_any = NULL;
 125:Middlewares/Third_Party/LwIP/src/core/tcp_in.c **** #endif /* SO_REUSE */
 126:Middlewares/Third_Party/LwIP/src/core/tcp_in.c ****   u8_t hdrlen_bytes;
 127:Middlewares/Third_Party/LwIP/src/core/tcp_in.c ****   err_t err;
 128:Middlewares/Third_Party/LwIP/src/core/tcp_in.c **** 
 129:Middlewares/Third_Party/LwIP/src/core/tcp_in.c ****   LWIP_UNUSED_ARG(inp);
 130:Middlewares/Third_Party/LwIP/src/core/tcp_in.c ****   LWIP_ASSERT_CORE_LOCKED();
 131:Middlewares/Third_Party/LwIP/src/core/tcp_in.c ****   LWIP_ASSERT("tcp_input: invalid pbuf", p != NULL);
 164              		.loc 1 131 3
 165 000a 7B68     		ldr	r3, [r7, #4]
 166 000c 002B     		cmp	r3, #0
 167 000e 05D1     		bne	.L2
 168              		.loc 1 131 3 is_stmt 0 discriminator 1
 169 0010 9B4B     		ldr	r3, .L86
 170 0012 8322     		movs	r2, #131
 171 0014 9B49     		ldr	r1, .L86+4
 172 0016 9C48     		ldr	r0, .L86+8
 173 0018 FFF7FEFF 		bl	printf
 174              	.L2:
 132:Middlewares/Third_Party/LwIP/src/core/tcp_in.c **** 
 133:Middlewares/Third_Party/LwIP/src/core/tcp_in.c ****   PERF_START;
 134:Middlewares/Third_Party/LwIP/src/core/tcp_in.c **** 
 135:Middlewares/Third_Party/LwIP/src/core/tcp_in.c ****   TCP_STATS_INC(tcp.recv);
 136:Middlewares/Third_Party/LwIP/src/core/tcp_in.c ****   MIB2_STATS_INC(mib2.tcpinsegs);
 137:Middlewares/Third_Party/LwIP/src/core/tcp_in.c **** 
 138:Middlewares/Third_Party/LwIP/src/core/tcp_in.c ****   tcphdr = (struct tcp_hdr *)p->payload;
 175              		.loc 1 138 31 is_stmt 1
 176 001c 7B68     		ldr	r3, [r7, #4]
 177 001e 5B68     		ldr	r3, [r3, #4]
 178              		.loc 1 138 10
 179 0020 9A4A     		ldr	r2, .L86+12
ARM GAS  /tmp/ccWqLOXK.s 			page 7


 180 0022 1360     		str	r3, [r2]
 139:Middlewares/Third_Party/LwIP/src/core/tcp_in.c **** 
 140:Middlewares/Third_Party/LwIP/src/core/tcp_in.c **** #if TCP_INPUT_DEBUG
 141:Middlewares/Third_Party/LwIP/src/core/tcp_in.c ****   tcp_debug_print(tcphdr);
 142:Middlewares/Third_Party/LwIP/src/core/tcp_in.c **** #endif
 143:Middlewares/Third_Party/LwIP/src/core/tcp_in.c **** 
 144:Middlewares/Third_Party/LwIP/src/core/tcp_in.c ****   /* Check that TCP header fits in payload */
 145:Middlewares/Third_Party/LwIP/src/core/tcp_in.c ****   if (p->len < TCP_HLEN) {
 181              		.loc 1 145 8
 182 0024 7B68     		ldr	r3, [r7, #4]
 183 0026 5B89     		ldrh	r3, [r3, #10]
 184              		.loc 1 145 6
 185 0028 132B     		cmp	r3, #19
 186 002a 40F2C483 		bls	.L70
 146:Middlewares/Third_Party/LwIP/src/core/tcp_in.c ****     /* drop short packets */
 147:Middlewares/Third_Party/LwIP/src/core/tcp_in.c ****     LWIP_DEBUGF(TCP_INPUT_DEBUG, ("tcp_input: short packet (%"U16_F" bytes) discarded\n", p->tot_le
 148:Middlewares/Third_Party/LwIP/src/core/tcp_in.c ****     TCP_STATS_INC(tcp.lenerr);
 149:Middlewares/Third_Party/LwIP/src/core/tcp_in.c ****     goto dropped;
 150:Middlewares/Third_Party/LwIP/src/core/tcp_in.c ****   }
 151:Middlewares/Third_Party/LwIP/src/core/tcp_in.c **** 
 152:Middlewares/Third_Party/LwIP/src/core/tcp_in.c ****   /* Don't even process incoming broadcasts/multicasts. */
 153:Middlewares/Third_Party/LwIP/src/core/tcp_in.c ****   if (ip_addr_isbroadcast(ip_current_dest_addr(), ip_current_netif()) ||
 187              		.loc 1 153 7
 188 002e 984B     		ldr	r3, .L86+16
 189 0030 5A69     		ldr	r2, [r3, #20]
 190 0032 974B     		ldr	r3, .L86+16
 191 0034 1B68     		ldr	r3, [r3]
 192 0036 1946     		mov	r1, r3
 193 0038 1046     		mov	r0, r2
 194 003a FFF7FEFF 		bl	ip4_addr_isbroadcast_u32
 195 003e 0346     		mov	r3, r0
 196              		.loc 1 153 6
 197 0040 002B     		cmp	r3, #0
 198 0042 40F0BA83 		bne	.L71
 154:Middlewares/Third_Party/LwIP/src/core/tcp_in.c ****       ip_addr_ismulticast(ip_current_dest_addr())) {
 199              		.loc 1 154 7 discriminator 1
 200 0046 924B     		ldr	r3, .L86+16
 201 0048 5B69     		ldr	r3, [r3, #20]
 202 004a 03F0F003 		and	r3, r3, #240
 153:Middlewares/Third_Party/LwIP/src/core/tcp_in.c ****       ip_addr_ismulticast(ip_current_dest_addr())) {
 203              		.loc 1 153 71 discriminator 1
 204 004e E02B     		cmp	r3, #224
 205 0050 00F0B383 		beq	.L71
 155:Middlewares/Third_Party/LwIP/src/core/tcp_in.c ****     TCP_STATS_INC(tcp.proterr);
 156:Middlewares/Third_Party/LwIP/src/core/tcp_in.c ****     goto dropped;
 157:Middlewares/Third_Party/LwIP/src/core/tcp_in.c ****   }
 158:Middlewares/Third_Party/LwIP/src/core/tcp_in.c **** 
 159:Middlewares/Third_Party/LwIP/src/core/tcp_in.c **** #if CHECKSUM_CHECK_TCP
 160:Middlewares/Third_Party/LwIP/src/core/tcp_in.c ****   IF__NETIF_CHECKSUM_ENABLED(inp, NETIF_CHECKSUM_CHECK_TCP) {
 161:Middlewares/Third_Party/LwIP/src/core/tcp_in.c ****     /* Verify TCP checksum. */
 162:Middlewares/Third_Party/LwIP/src/core/tcp_in.c ****     u16_t chksum = ip_chksum_pseudo(p, IP_PROTO_TCP, p->tot_len,
 163:Middlewares/Third_Party/LwIP/src/core/tcp_in.c ****                                     ip_current_src_addr(), ip_current_dest_addr());
 164:Middlewares/Third_Party/LwIP/src/core/tcp_in.c ****     if (chksum != 0) {
 165:Middlewares/Third_Party/LwIP/src/core/tcp_in.c ****       LWIP_DEBUGF(TCP_INPUT_DEBUG, ("tcp_input: packet discarded due to failing checksum 0x%04"X16_
 166:Middlewares/Third_Party/LwIP/src/core/tcp_in.c ****                                     chksum));
 167:Middlewares/Third_Party/LwIP/src/core/tcp_in.c ****       tcp_debug_print(tcphdr);
 168:Middlewares/Third_Party/LwIP/src/core/tcp_in.c ****       TCP_STATS_INC(tcp.chkerr);
ARM GAS  /tmp/ccWqLOXK.s 			page 8


 169:Middlewares/Third_Party/LwIP/src/core/tcp_in.c ****       goto dropped;
 170:Middlewares/Third_Party/LwIP/src/core/tcp_in.c ****     }
 171:Middlewares/Third_Party/LwIP/src/core/tcp_in.c ****   }
 172:Middlewares/Third_Party/LwIP/src/core/tcp_in.c **** #endif /* CHECKSUM_CHECK_TCP */
 173:Middlewares/Third_Party/LwIP/src/core/tcp_in.c **** 
 174:Middlewares/Third_Party/LwIP/src/core/tcp_in.c ****   /* sanity-check header length */
 175:Middlewares/Third_Party/LwIP/src/core/tcp_in.c ****   hdrlen_bytes = TCPH_HDRLEN_BYTES(tcphdr);
 206              		.loc 1 175 18
 207 0054 8D4B     		ldr	r3, .L86+12
 208 0056 1B68     		ldr	r3, [r3]
 209 0058 9B89     		ldrh	r3, [r3, #12]	@ unaligned
 210 005a 9BB2     		uxth	r3, r3
 211 005c 1846     		mov	r0, r3
 212 005e FFF7FEFF 		bl	lwip_htons
 213 0062 0346     		mov	r3, r0
 214 0064 1B0B     		lsrs	r3, r3, #12
 215 0066 9BB2     		uxth	r3, r3
 216 0068 DBB2     		uxtb	r3, r3
 217              		.loc 1 175 16
 218 006a 9B00     		lsls	r3, r3, #2
 219 006c BB74     		strb	r3, [r7, #18]
 176:Middlewares/Third_Party/LwIP/src/core/tcp_in.c ****   if ((hdrlen_bytes < TCP_HLEN) || (hdrlen_bytes > p->tot_len)) {
 220              		.loc 1 176 6
 221 006e BB7C     		ldrb	r3, [r7, #18]	@ zero_extendqisi2
 222 0070 132B     		cmp	r3, #19
 223 0072 40F2A483 		bls	.L72
 224              		.loc 1 176 50 discriminator 1
 225 0076 BB7C     		ldrb	r3, [r7, #18]	@ zero_extendqisi2
 226 0078 9AB2     		uxth	r2, r3
 227              		.loc 1 176 53 discriminator 1
 228 007a 7B68     		ldr	r3, [r7, #4]
 229 007c 1B89     		ldrh	r3, [r3, #8]
 230              		.loc 1 176 33 discriminator 1
 231 007e 9A42     		cmp	r2, r3
 232 0080 00F29D83 		bhi	.L72
 177:Middlewares/Third_Party/LwIP/src/core/tcp_in.c ****     LWIP_DEBUGF(TCP_INPUT_DEBUG, ("tcp_input: invalid header length (%"U16_F")\n", (u16_t)hdrlen_by
 178:Middlewares/Third_Party/LwIP/src/core/tcp_in.c ****     TCP_STATS_INC(tcp.lenerr);
 179:Middlewares/Third_Party/LwIP/src/core/tcp_in.c ****     goto dropped;
 180:Middlewares/Third_Party/LwIP/src/core/tcp_in.c ****   }
 181:Middlewares/Third_Party/LwIP/src/core/tcp_in.c **** 
 182:Middlewares/Third_Party/LwIP/src/core/tcp_in.c ****   /* Move the payload pointer in the pbuf so that it points to the
 183:Middlewares/Third_Party/LwIP/src/core/tcp_in.c ****      TCP data instead of the TCP header. */
 184:Middlewares/Third_Party/LwIP/src/core/tcp_in.c ****   tcphdr_optlen = (u16_t)(hdrlen_bytes - TCP_HLEN);
 233              		.loc 1 184 19
 234 0084 BB7C     		ldrb	r3, [r7, #18]	@ zero_extendqisi2
 235 0086 9BB2     		uxth	r3, r3
 236 0088 143B     		subs	r3, r3, #20
 237 008a 9AB2     		uxth	r2, r3
 238              		.loc 1 184 17
 239 008c 814B     		ldr	r3, .L86+20
 240 008e 1A80     		strh	r2, [r3]	@ movhi
 185:Middlewares/Third_Party/LwIP/src/core/tcp_in.c ****   tcphdr_opt2 = NULL;
 241              		.loc 1 185 15
 242 0090 814B     		ldr	r3, .L86+24
 243 0092 0022     		movs	r2, #0
 244 0094 1A60     		str	r2, [r3]
 186:Middlewares/Third_Party/LwIP/src/core/tcp_in.c ****   if (p->len >= hdrlen_bytes) {
ARM GAS  /tmp/ccWqLOXK.s 			page 9


 245              		.loc 1 186 8
 246 0096 7B68     		ldr	r3, [r7, #4]
 247 0098 5A89     		ldrh	r2, [r3, #10]
 248              		.loc 1 186 14
 249 009a BB7C     		ldrb	r3, [r7, #18]	@ zero_extendqisi2
 250 009c 9BB2     		uxth	r3, r3
 251              		.loc 1 186 6
 252 009e 9A42     		cmp	r2, r3
 253 00a0 09D3     		bcc	.L9
 187:Middlewares/Third_Party/LwIP/src/core/tcp_in.c ****     /* all options are in the first pbuf */
 188:Middlewares/Third_Party/LwIP/src/core/tcp_in.c ****     tcphdr_opt1len = tcphdr_optlen;
 254              		.loc 1 188 20
 255 00a2 7C4B     		ldr	r3, .L86+20
 256 00a4 1A88     		ldrh	r2, [r3]
 257 00a6 7D4B     		ldr	r3, .L86+28
 258 00a8 1A80     		strh	r2, [r3]	@ movhi
 189:Middlewares/Third_Party/LwIP/src/core/tcp_in.c ****     pbuf_remove_header(p, hdrlen_bytes); /* cannot fail */
 259              		.loc 1 189 5
 260 00aa BB7C     		ldrb	r3, [r7, #18]	@ zero_extendqisi2
 261 00ac 1946     		mov	r1, r3
 262 00ae 7868     		ldr	r0, [r7, #4]
 263 00b0 FFF7FEFF 		bl	pbuf_remove_header
 264 00b4 4EE0     		b	.L10
 265              	.L9:
 266              	.LBB2:
 190:Middlewares/Third_Party/LwIP/src/core/tcp_in.c ****   } else {
 191:Middlewares/Third_Party/LwIP/src/core/tcp_in.c ****     u16_t opt2len;
 192:Middlewares/Third_Party/LwIP/src/core/tcp_in.c ****     /* TCP header fits into first pbuf, options don't - data is in the next pbuf */
 193:Middlewares/Third_Party/LwIP/src/core/tcp_in.c ****     /* there must be a next pbuf, due to hdrlen_bytes sanity check above */
 194:Middlewares/Third_Party/LwIP/src/core/tcp_in.c ****     LWIP_ASSERT("p->next != NULL", p->next != NULL);
 267              		.loc 1 194 5
 268 00b6 7B68     		ldr	r3, [r7, #4]
 269 00b8 1B68     		ldr	r3, [r3]
 270 00ba 002B     		cmp	r3, #0
 271 00bc 05D1     		bne	.L11
 272              		.loc 1 194 5 is_stmt 0 discriminator 1
 273 00be 704B     		ldr	r3, .L86
 274 00c0 C222     		movs	r2, #194
 275 00c2 7749     		ldr	r1, .L86+32
 276 00c4 7048     		ldr	r0, .L86+8
 277 00c6 FFF7FEFF 		bl	printf
 278              	.L11:
 195:Middlewares/Third_Party/LwIP/src/core/tcp_in.c **** 
 196:Middlewares/Third_Party/LwIP/src/core/tcp_in.c ****     /* advance over the TCP header (cannot fail) */
 197:Middlewares/Third_Party/LwIP/src/core/tcp_in.c ****     pbuf_remove_header(p, TCP_HLEN);
 279              		.loc 1 197 5 is_stmt 1
 280 00ca 1421     		movs	r1, #20
 281 00cc 7868     		ldr	r0, [r7, #4]
 282 00ce FFF7FEFF 		bl	pbuf_remove_header
 198:Middlewares/Third_Party/LwIP/src/core/tcp_in.c **** 
 199:Middlewares/Third_Party/LwIP/src/core/tcp_in.c ****     /* determine how long the first and second parts of the options are */
 200:Middlewares/Third_Party/LwIP/src/core/tcp_in.c ****     tcphdr_opt1len = p->len;
 283              		.loc 1 200 23
 284 00d2 7B68     		ldr	r3, [r7, #4]
 285 00d4 5A89     		ldrh	r2, [r3, #10]
 286              		.loc 1 200 20
 287 00d6 714B     		ldr	r3, .L86+28
ARM GAS  /tmp/ccWqLOXK.s 			page 10


 288 00d8 1A80     		strh	r2, [r3]	@ movhi
 201:Middlewares/Third_Party/LwIP/src/core/tcp_in.c ****     opt2len = (u16_t)(tcphdr_optlen - tcphdr_opt1len);
 289              		.loc 1 201 15
 290 00da 6E4B     		ldr	r3, .L86+20
 291 00dc 1A88     		ldrh	r2, [r3]
 292 00de 6F4B     		ldr	r3, .L86+28
 293 00e0 1B88     		ldrh	r3, [r3]
 294              		.loc 1 201 13
 295 00e2 D31A     		subs	r3, r2, r3
 296 00e4 3B82     		strh	r3, [r7, #16]	@ movhi
 202:Middlewares/Third_Party/LwIP/src/core/tcp_in.c **** 
 203:Middlewares/Third_Party/LwIP/src/core/tcp_in.c ****     /* options continue in the next pbuf: set p to zero length and hide the
 204:Middlewares/Third_Party/LwIP/src/core/tcp_in.c ****         options in the next pbuf (adjusting p->tot_len) */
 205:Middlewares/Third_Party/LwIP/src/core/tcp_in.c ****     pbuf_remove_header(p, tcphdr_opt1len);
 297              		.loc 1 205 5
 298 00e6 6D4B     		ldr	r3, .L86+28
 299 00e8 1B88     		ldrh	r3, [r3]
 300 00ea 1946     		mov	r1, r3
 301 00ec 7868     		ldr	r0, [r7, #4]
 302 00ee FFF7FEFF 		bl	pbuf_remove_header
 206:Middlewares/Third_Party/LwIP/src/core/tcp_in.c **** 
 207:Middlewares/Third_Party/LwIP/src/core/tcp_in.c ****     /* check that the options fit in the second pbuf */
 208:Middlewares/Third_Party/LwIP/src/core/tcp_in.c ****     if (opt2len > p->next->len) {
 303              		.loc 1 208 20
 304 00f2 7B68     		ldr	r3, [r7, #4]
 305 00f4 1B68     		ldr	r3, [r3]
 306              		.loc 1 208 26
 307 00f6 5B89     		ldrh	r3, [r3, #10]
 308              		.loc 1 208 8
 309 00f8 3A8A     		ldrh	r2, [r7, #16]
 310 00fa 9A42     		cmp	r2, r3
 311 00fc 00F26183 		bhi	.L73
 209:Middlewares/Third_Party/LwIP/src/core/tcp_in.c ****       /* drop short packets */
 210:Middlewares/Third_Party/LwIP/src/core/tcp_in.c ****       LWIP_DEBUGF(TCP_INPUT_DEBUG, ("tcp_input: options overflow second pbuf (%"U16_F" bytes)\n", p
 211:Middlewares/Third_Party/LwIP/src/core/tcp_in.c ****       TCP_STATS_INC(tcp.lenerr);
 212:Middlewares/Third_Party/LwIP/src/core/tcp_in.c ****       goto dropped;
 213:Middlewares/Third_Party/LwIP/src/core/tcp_in.c ****     }
 214:Middlewares/Third_Party/LwIP/src/core/tcp_in.c **** 
 215:Middlewares/Third_Party/LwIP/src/core/tcp_in.c ****     /* remember the pointer to the second part of the options */
 216:Middlewares/Third_Party/LwIP/src/core/tcp_in.c ****     tcphdr_opt2 = (u8_t *)p->next->payload;
 312              		.loc 1 216 28
 313 0100 7B68     		ldr	r3, [r7, #4]
 314 0102 1B68     		ldr	r3, [r3]
 315              		.loc 1 216 34
 316 0104 5B68     		ldr	r3, [r3, #4]
 317              		.loc 1 216 17
 318 0106 644A     		ldr	r2, .L86+24
 319 0108 1360     		str	r3, [r2]
 217:Middlewares/Third_Party/LwIP/src/core/tcp_in.c **** 
 218:Middlewares/Third_Party/LwIP/src/core/tcp_in.c ****     /* advance p->next to point after the options, and manually
 219:Middlewares/Third_Party/LwIP/src/core/tcp_in.c ****         adjust p->tot_len to keep it consistent with the changed p->next */
 220:Middlewares/Third_Party/LwIP/src/core/tcp_in.c ****     pbuf_remove_header(p->next, opt2len);
 320              		.loc 1 220 5
 321 010a 7B68     		ldr	r3, [r7, #4]
 322 010c 1B68     		ldr	r3, [r3]
 323 010e 3A8A     		ldrh	r2, [r7, #16]
 324 0110 1146     		mov	r1, r2
ARM GAS  /tmp/ccWqLOXK.s 			page 11


 325 0112 1846     		mov	r0, r3
 326 0114 FFF7FEFF 		bl	pbuf_remove_header
 221:Middlewares/Third_Party/LwIP/src/core/tcp_in.c ****     p->tot_len = (u16_t)(p->tot_len - opt2len);
 327              		.loc 1 221 27
 328 0118 7B68     		ldr	r3, [r7, #4]
 329 011a 1A89     		ldrh	r2, [r3, #8]
 330              		.loc 1 221 18
 331 011c 3B8A     		ldrh	r3, [r7, #16]	@ movhi
 332 011e D31A     		subs	r3, r2, r3
 333 0120 9AB2     		uxth	r2, r3
 334              		.loc 1 221 16
 335 0122 7B68     		ldr	r3, [r7, #4]
 336 0124 1A81     		strh	r2, [r3, #8]	@ movhi
 222:Middlewares/Third_Party/LwIP/src/core/tcp_in.c **** 
 223:Middlewares/Third_Party/LwIP/src/core/tcp_in.c ****     LWIP_ASSERT("p->len == 0", p->len == 0);
 337              		.loc 1 223 5
 338 0126 7B68     		ldr	r3, [r7, #4]
 339 0128 5B89     		ldrh	r3, [r3, #10]
 340 012a 002B     		cmp	r3, #0
 341 012c 05D0     		beq	.L13
 342              		.loc 1 223 5 is_stmt 0 discriminator 1
 343 012e 544B     		ldr	r3, .L86
 344 0130 DF22     		movs	r2, #223
 345 0132 5C49     		ldr	r1, .L86+36
 346 0134 5448     		ldr	r0, .L86+8
 347 0136 FFF7FEFF 		bl	printf
 348              	.L13:
 224:Middlewares/Third_Party/LwIP/src/core/tcp_in.c ****     LWIP_ASSERT("p->tot_len == p->next->tot_len", p->tot_len == p->next->tot_len);
 349              		.loc 1 224 5 is_stmt 1
 350 013a 7B68     		ldr	r3, [r7, #4]
 351 013c 1A89     		ldrh	r2, [r3, #8]
 352 013e 7B68     		ldr	r3, [r7, #4]
 353 0140 1B68     		ldr	r3, [r3]
 354 0142 1B89     		ldrh	r3, [r3, #8]
 355 0144 9A42     		cmp	r2, r3
 356 0146 05D0     		beq	.L10
 357              		.loc 1 224 5 is_stmt 0 discriminator 1
 358 0148 4D4B     		ldr	r3, .L86
 359 014a E022     		movs	r2, #224
 360 014c 5649     		ldr	r1, .L86+40
 361 014e 4E48     		ldr	r0, .L86+8
 362 0150 FFF7FEFF 		bl	printf
 363              	.L10:
 364              	.LBE2:
 225:Middlewares/Third_Party/LwIP/src/core/tcp_in.c ****   }
 226:Middlewares/Third_Party/LwIP/src/core/tcp_in.c **** 
 227:Middlewares/Third_Party/LwIP/src/core/tcp_in.c ****   /* Convert fields in TCP header to host byte order. */
 228:Middlewares/Third_Party/LwIP/src/core/tcp_in.c ****   tcphdr->src = lwip_ntohs(tcphdr->src);
 365              		.loc 1 228 17 is_stmt 1
 366 0154 4D4B     		ldr	r3, .L86+12
 367 0156 1B68     		ldr	r3, [r3]
 368 0158 1B88     		ldrh	r3, [r3]	@ unaligned
 369 015a 9AB2     		uxth	r2, r3
 370              		.loc 1 228 9
 371 015c 4B4B     		ldr	r3, .L86+12
 372 015e 1C68     		ldr	r4, [r3]
 373              		.loc 1 228 17
ARM GAS  /tmp/ccWqLOXK.s 			page 12


 374 0160 1046     		mov	r0, r2
 375 0162 FFF7FEFF 		bl	lwip_htons
 376 0166 0346     		mov	r3, r0
 377              		.loc 1 228 15
 378 0168 2380     		strh	r3, [r4]	@ unaligned
 229:Middlewares/Third_Party/LwIP/src/core/tcp_in.c ****   tcphdr->dest = lwip_ntohs(tcphdr->dest);
 379              		.loc 1 229 18
 380 016a 484B     		ldr	r3, .L86+12
 381 016c 1B68     		ldr	r3, [r3]
 382 016e 5B88     		ldrh	r3, [r3, #2]	@ unaligned
 383 0170 9AB2     		uxth	r2, r3
 384              		.loc 1 229 9
 385 0172 464B     		ldr	r3, .L86+12
 386 0174 1C68     		ldr	r4, [r3]
 387              		.loc 1 229 18
 388 0176 1046     		mov	r0, r2
 389 0178 FFF7FEFF 		bl	lwip_htons
 390 017c 0346     		mov	r3, r0
 391              		.loc 1 229 16
 392 017e 6380     		strh	r3, [r4, #2]	@ unaligned
 230:Middlewares/Third_Party/LwIP/src/core/tcp_in.c ****   seqno = tcphdr->seqno = lwip_ntohl(tcphdr->seqno);
 393              		.loc 1 230 27
 394 0180 424B     		ldr	r3, .L86+12
 395 0182 1B68     		ldr	r3, [r3]
 396 0184 5A68     		ldr	r2, [r3, #4]	@ unaligned
 397              		.loc 1 230 17
 398 0186 414B     		ldr	r3, .L86+12
 399 0188 1C68     		ldr	r4, [r3]
 400              		.loc 1 230 27
 401 018a 1046     		mov	r0, r2
 402 018c FFF7FEFF 		bl	lwip_htonl
 403 0190 0346     		mov	r3, r0
 404              		.loc 1 230 25
 405 0192 6360     		str	r3, [r4, #4]	@ unaligned
 406              		.loc 1 230 17
 407 0194 6368     		ldr	r3, [r4, #4]	@ unaligned
 408              		.loc 1 230 9
 409 0196 454A     		ldr	r2, .L86+44
 410 0198 1360     		str	r3, [r2]
 231:Middlewares/Third_Party/LwIP/src/core/tcp_in.c ****   ackno = tcphdr->ackno = lwip_ntohl(tcphdr->ackno);
 411              		.loc 1 231 27
 412 019a 3C4B     		ldr	r3, .L86+12
 413 019c 1B68     		ldr	r3, [r3]
 414 019e 9A68     		ldr	r2, [r3, #8]	@ unaligned
 415              		.loc 1 231 17
 416 01a0 3A4B     		ldr	r3, .L86+12
 417 01a2 1C68     		ldr	r4, [r3]
 418              		.loc 1 231 27
 419 01a4 1046     		mov	r0, r2
 420 01a6 FFF7FEFF 		bl	lwip_htonl
 421 01aa 0346     		mov	r3, r0
 422              		.loc 1 231 25
 423 01ac A360     		str	r3, [r4, #8]	@ unaligned
 424              		.loc 1 231 17
 425 01ae A368     		ldr	r3, [r4, #8]	@ unaligned
 426              		.loc 1 231 9
 427 01b0 3F4A     		ldr	r2, .L86+48
ARM GAS  /tmp/ccWqLOXK.s 			page 13


 428 01b2 1360     		str	r3, [r2]
 232:Middlewares/Third_Party/LwIP/src/core/tcp_in.c ****   tcphdr->wnd = lwip_ntohs(tcphdr->wnd);
 429              		.loc 1 232 17
 430 01b4 354B     		ldr	r3, .L86+12
 431 01b6 1B68     		ldr	r3, [r3]
 432 01b8 DB89     		ldrh	r3, [r3, #14]	@ unaligned
 433 01ba 9AB2     		uxth	r2, r3
 434              		.loc 1 232 9
 435 01bc 334B     		ldr	r3, .L86+12
 436 01be 1C68     		ldr	r4, [r3]
 437              		.loc 1 232 17
 438 01c0 1046     		mov	r0, r2
 439 01c2 FFF7FEFF 		bl	lwip_htons
 440 01c6 0346     		mov	r3, r0
 441              		.loc 1 232 15
 442 01c8 E381     		strh	r3, [r4, #14]	@ unaligned
 233:Middlewares/Third_Party/LwIP/src/core/tcp_in.c **** 
 234:Middlewares/Third_Party/LwIP/src/core/tcp_in.c ****   flags = TCPH_FLAGS(tcphdr);
 443              		.loc 1 234 11
 444 01ca 304B     		ldr	r3, .L86+12
 445 01cc 1B68     		ldr	r3, [r3]
 446 01ce 9B89     		ldrh	r3, [r3, #12]	@ unaligned
 447 01d0 9BB2     		uxth	r3, r3
 448 01d2 1846     		mov	r0, r3
 449 01d4 FFF7FEFF 		bl	lwip_htons
 450 01d8 0346     		mov	r3, r0
 451 01da DBB2     		uxtb	r3, r3
 452 01dc 03F03F03 		and	r3, r3, #63
 453 01e0 DAB2     		uxtb	r2, r3
 454              		.loc 1 234 9
 455 01e2 344B     		ldr	r3, .L86+52
 456 01e4 1A70     		strb	r2, [r3]
 235:Middlewares/Third_Party/LwIP/src/core/tcp_in.c ****   tcplen = p->tot_len;
 457              		.loc 1 235 13
 458 01e6 7B68     		ldr	r3, [r7, #4]
 459 01e8 1A89     		ldrh	r2, [r3, #8]
 460              		.loc 1 235 10
 461 01ea 334B     		ldr	r3, .L86+56
 462 01ec 1A80     		strh	r2, [r3]	@ movhi
 236:Middlewares/Third_Party/LwIP/src/core/tcp_in.c ****   if (flags & (TCP_FIN | TCP_SYN)) {
 463              		.loc 1 236 13
 464 01ee 314B     		ldr	r3, .L86+52
 465 01f0 1B78     		ldrb	r3, [r3]	@ zero_extendqisi2
 466 01f2 03F00303 		and	r3, r3, #3
 467              		.loc 1 236 6
 468 01f6 002B     		cmp	r3, #0
 469 01f8 0CD0     		beq	.L14
 237:Middlewares/Third_Party/LwIP/src/core/tcp_in.c ****     tcplen++;
 470              		.loc 1 237 11
 471 01fa 2F4B     		ldr	r3, .L86+56
 472 01fc 1B88     		ldrh	r3, [r3]
 473 01fe 0133     		adds	r3, r3, #1
 474 0200 9AB2     		uxth	r2, r3
 475 0202 2D4B     		ldr	r3, .L86+56
 476 0204 1A80     		strh	r2, [r3]	@ movhi
 238:Middlewares/Third_Party/LwIP/src/core/tcp_in.c ****     if (tcplen < p->tot_len) {
 477              		.loc 1 238 19
ARM GAS  /tmp/ccWqLOXK.s 			page 14


 478 0206 7B68     		ldr	r3, [r7, #4]
 479 0208 1A89     		ldrh	r2, [r3, #8]
 480              		.loc 1 238 16
 481 020a 2B4B     		ldr	r3, .L86+56
 482 020c 1B88     		ldrh	r3, [r3]
 483              		.loc 1 238 8
 484 020e 9A42     		cmp	r2, r3
 485 0210 00F2D982 		bhi	.L74
 486              	.L14:
 239:Middlewares/Third_Party/LwIP/src/core/tcp_in.c ****       /* u16_t overflow, cannot handle this */
 240:Middlewares/Third_Party/LwIP/src/core/tcp_in.c ****       LWIP_DEBUGF(TCP_INPUT_DEBUG, ("tcp_input: length u16_t overflow, cannot handle this\n"));
 241:Middlewares/Third_Party/LwIP/src/core/tcp_in.c ****       TCP_STATS_INC(tcp.lenerr);
 242:Middlewares/Third_Party/LwIP/src/core/tcp_in.c ****       goto dropped;
 243:Middlewares/Third_Party/LwIP/src/core/tcp_in.c ****     }
 244:Middlewares/Third_Party/LwIP/src/core/tcp_in.c ****   }
 245:Middlewares/Third_Party/LwIP/src/core/tcp_in.c **** 
 246:Middlewares/Third_Party/LwIP/src/core/tcp_in.c ****   /* Demultiplex an incoming segment. First, we check if it is destined
 247:Middlewares/Third_Party/LwIP/src/core/tcp_in.c ****      for an active connection. */
 248:Middlewares/Third_Party/LwIP/src/core/tcp_in.c ****   prev = NULL;
 487              		.loc 1 248 8
 488 0214 0023     		movs	r3, #0
 489 0216 BB61     		str	r3, [r7, #24]
 249:Middlewares/Third_Party/LwIP/src/core/tcp_in.c **** 
 250:Middlewares/Third_Party/LwIP/src/core/tcp_in.c ****   for (pcb = tcp_active_pcbs; pcb != NULL; pcb = pcb->next) {
 490              		.loc 1 250 12
 491 0218 284B     		ldr	r3, .L86+60
 492 021a 1B68     		ldr	r3, [r3]
 493 021c FB61     		str	r3, [r7, #28]
 494              		.loc 1 250 3
 495 021e 9DE0     		b	.L15
 496              	.L26:
 251:Middlewares/Third_Party/LwIP/src/core/tcp_in.c ****     LWIP_ASSERT("tcp_input: active pcb->state != CLOSED", pcb->state != CLOSED);
 497              		.loc 1 251 5
 498 0220 FB69     		ldr	r3, [r7, #28]
 499 0222 1B7D     		ldrb	r3, [r3, #20]	@ zero_extendqisi2
 500 0224 002B     		cmp	r3, #0
 501 0226 05D1     		bne	.L16
 502              		.loc 1 251 5 is_stmt 0 discriminator 1
 503 0228 154B     		ldr	r3, .L86
 504 022a FB22     		movs	r2, #251
 505 022c 2449     		ldr	r1, .L86+64
 506 022e 1648     		ldr	r0, .L86+8
 507 0230 FFF7FEFF 		bl	printf
 508              	.L16:
 252:Middlewares/Third_Party/LwIP/src/core/tcp_in.c ****     LWIP_ASSERT("tcp_input: active pcb->state != TIME-WAIT", pcb->state != TIME_WAIT);
 509              		.loc 1 252 5 is_stmt 1
 510 0234 FB69     		ldr	r3, [r7, #28]
 511 0236 1B7D     		ldrb	r3, [r3, #20]	@ zero_extendqisi2
 512 0238 0A2B     		cmp	r3, #10
 513 023a 05D1     		bne	.L17
 514              		.loc 1 252 5 is_stmt 0 discriminator 1
 515 023c 104B     		ldr	r3, .L86
 516 023e FC22     		movs	r2, #252
 517 0240 2049     		ldr	r1, .L86+68
 518 0242 1148     		ldr	r0, .L86+8
 519 0244 FFF7FEFF 		bl	printf
 520              	.L17:
ARM GAS  /tmp/ccWqLOXK.s 			page 15


 253:Middlewares/Third_Party/LwIP/src/core/tcp_in.c ****     LWIP_ASSERT("tcp_input: active pcb->state != LISTEN", pcb->state != LISTEN);
 521              		.loc 1 253 5 is_stmt 1
 522 0248 FB69     		ldr	r3, [r7, #28]
 523 024a 1B7D     		ldrb	r3, [r3, #20]	@ zero_extendqisi2
 524 024c 012B     		cmp	r3, #1
 525 024e 05D1     		bne	.L18
 526              		.loc 1 253 5 is_stmt 0 discriminator 1
 527 0250 0B4B     		ldr	r3, .L86
 528 0252 FD22     		movs	r2, #253
 529 0254 1C49     		ldr	r1, .L86+72
 530 0256 0C48     		ldr	r0, .L86+8
 531 0258 FFF7FEFF 		bl	printf
 532              	.L18:
 254:Middlewares/Third_Party/LwIP/src/core/tcp_in.c **** 
 255:Middlewares/Third_Party/LwIP/src/core/tcp_in.c ****     /* check if PCB is bound to specific netif */
 256:Middlewares/Third_Party/LwIP/src/core/tcp_in.c ****     if ((pcb->netif_idx != NETIF_NO_INDEX) &&
 533              		.loc 1 256 13 is_stmt 1
 534 025c FB69     		ldr	r3, [r7, #28]
 535 025e 1B7A     		ldrb	r3, [r3, #8]	@ zero_extendqisi2
 536              		.loc 1 256 8
 537 0260 002B     		cmp	r3, #0
 538 0262 33D0     		beq	.L19
 257:Middlewares/Third_Party/LwIP/src/core/tcp_in.c ****         (pcb->netif_idx != netif_get_index(ip_data.current_input_netif))) {
 539              		.loc 1 257 13 discriminator 1
 540 0264 FB69     		ldr	r3, [r7, #28]
 541 0266 1A7A     		ldrb	r2, [r3, #8]	@ zero_extendqisi2
 542              		.loc 1 257 28 discriminator 1
 543 0268 094B     		ldr	r3, .L86+16
 544 026a 5B68     		ldr	r3, [r3, #4]
 545 026c 93F83430 		ldrb	r3, [r3, #52]	@ zero_extendqisi2
 546 0270 0133     		adds	r3, r3, #1
 547 0272 DBB2     		uxtb	r3, r3
 256:Middlewares/Third_Party/LwIP/src/core/tcp_in.c ****         (pcb->netif_idx != netif_get_index(ip_data.current_input_netif))) {
 548              		.loc 1 256 44 discriminator 1
 549 0274 9A42     		cmp	r2, r3
 550 0276 29D0     		beq	.L19
 258:Middlewares/Third_Party/LwIP/src/core/tcp_in.c ****       prev = pcb;
 551              		.loc 1 258 12
 552 0278 FB69     		ldr	r3, [r7, #28]
 553 027a BB61     		str	r3, [r7, #24]
 259:Middlewares/Third_Party/LwIP/src/core/tcp_in.c ****       continue;
 554              		.loc 1 259 7
 555 027c 6BE0     		b	.L20
 556              	.L87:
 557 027e 00BF     		.align	2
 558              	.L86:
 559 0280 00000000 		.word	.LC0
 560 0284 30000000 		.word	.LC1
 561 0288 48000000 		.word	.LC2
 562 028c 00000000 		.word	tcphdr
 563 0290 00000000 		.word	ip_data
 564 0294 00000000 		.word	tcphdr_optlen
 565 0298 00000000 		.word	tcphdr_opt2
 566 029c 00000000 		.word	tcphdr_opt1len
 567 02a0 70000000 		.word	.LC3
 568 02a4 80000000 		.word	.LC4
 569 02a8 8C000000 		.word	.LC5
ARM GAS  /tmp/ccWqLOXK.s 			page 16


 570 02ac 00000000 		.word	seqno
 571 02b0 00000000 		.word	ackno
 572 02b4 00000000 		.word	flags
 573 02b8 00000000 		.word	tcplen
 574 02bc 00000000 		.word	tcp_active_pcbs
 575 02c0 AC000000 		.word	.LC6
 576 02c4 D4000000 		.word	.LC7
 577 02c8 00010000 		.word	.LC8
 578              	.L19:
 260:Middlewares/Third_Party/LwIP/src/core/tcp_in.c ****     }
 261:Middlewares/Third_Party/LwIP/src/core/tcp_in.c **** 
 262:Middlewares/Third_Party/LwIP/src/core/tcp_in.c ****     if (pcb->remote_port == tcphdr->src &&
 579              		.loc 1 262 12
 580 02cc FB69     		ldr	r3, [r7, #28]
 581 02ce 1A8B     		ldrh	r2, [r3, #24]
 582              		.loc 1 262 35
 583 02d0 944B     		ldr	r3, .L88
 584 02d2 1B68     		ldr	r3, [r3]
 585 02d4 1B88     		ldrh	r3, [r3]	@ unaligned
 586 02d6 9BB2     		uxth	r3, r3
 587              		.loc 1 262 8
 588 02d8 9A42     		cmp	r2, r3
 589 02da 3AD1     		bne	.L21
 263:Middlewares/Third_Party/LwIP/src/core/tcp_in.c ****         pcb->local_port == tcphdr->dest &&
 590              		.loc 1 263 12 discriminator 1
 591 02dc FB69     		ldr	r3, [r7, #28]
 592 02de DA8A     		ldrh	r2, [r3, #22]
 593              		.loc 1 263 34 discriminator 1
 594 02e0 904B     		ldr	r3, .L88
 595 02e2 1B68     		ldr	r3, [r3]
 596 02e4 5B88     		ldrh	r3, [r3, #2]	@ unaligned
 597 02e6 9BB2     		uxth	r3, r3
 262:Middlewares/Third_Party/LwIP/src/core/tcp_in.c ****         pcb->local_port == tcphdr->dest &&
 598              		.loc 1 262 41 discriminator 1
 599 02e8 9A42     		cmp	r2, r3
 600 02ea 32D1     		bne	.L21
 264:Middlewares/Third_Party/LwIP/src/core/tcp_in.c ****         ip_addr_cmp(&pcb->remote_ip, ip_current_src_addr()) &&
 601              		.loc 1 264 9
 602 02ec FB69     		ldr	r3, [r7, #28]
 603 02ee 5A68     		ldr	r2, [r3, #4]
 604 02f0 8D4B     		ldr	r3, .L88+4
 605 02f2 1B69     		ldr	r3, [r3, #16]
 263:Middlewares/Third_Party/LwIP/src/core/tcp_in.c ****         pcb->local_port == tcphdr->dest &&
 606              		.loc 1 263 41
 607 02f4 9A42     		cmp	r2, r3
 608 02f6 2CD1     		bne	.L21
 265:Middlewares/Third_Party/LwIP/src/core/tcp_in.c ****         ip_addr_cmp(&pcb->local_ip, ip_current_dest_addr())) {
 609              		.loc 1 265 9
 610 02f8 FB69     		ldr	r3, [r7, #28]
 611 02fa 1A68     		ldr	r2, [r3]
 612 02fc 8A4B     		ldr	r3, .L88+4
 613 02fe 5B69     		ldr	r3, [r3, #20]
 264:Middlewares/Third_Party/LwIP/src/core/tcp_in.c ****         ip_addr_cmp(&pcb->remote_ip, ip_current_src_addr()) &&
 614              		.loc 1 264 61
 615 0300 9A42     		cmp	r2, r3
 616 0302 26D1     		bne	.L21
 266:Middlewares/Third_Party/LwIP/src/core/tcp_in.c ****       /* Move this PCB to the front of the list so that subsequent
ARM GAS  /tmp/ccWqLOXK.s 			page 17


 267:Middlewares/Third_Party/LwIP/src/core/tcp_in.c ****          lookups will be faster (we exploit locality in TCP segment
 268:Middlewares/Third_Party/LwIP/src/core/tcp_in.c ****          arrivals). */
 269:Middlewares/Third_Party/LwIP/src/core/tcp_in.c ****       LWIP_ASSERT("tcp_input: pcb->next != pcb (before cache)", pcb->next != pcb);
 617              		.loc 1 269 7
 618 0304 FB69     		ldr	r3, [r7, #28]
 619 0306 DB68     		ldr	r3, [r3, #12]
 620 0308 FA69     		ldr	r2, [r7, #28]
 621 030a 9A42     		cmp	r2, r3
 622 030c 06D1     		bne	.L22
 623              		.loc 1 269 7 is_stmt 0 discriminator 1
 624 030e 874B     		ldr	r3, .L88+8
 625 0310 40F20D12 		movw	r2, #269
 626 0314 8649     		ldr	r1, .L88+12
 627 0316 8748     		ldr	r0, .L88+16
 628 0318 FFF7FEFF 		bl	printf
 629              	.L22:
 270:Middlewares/Third_Party/LwIP/src/core/tcp_in.c ****       if (prev != NULL) {
 630              		.loc 1 270 10 is_stmt 1
 631 031c BB69     		ldr	r3, [r7, #24]
 632 031e 002B     		cmp	r3, #0
 633 0320 0AD0     		beq	.L23
 271:Middlewares/Third_Party/LwIP/src/core/tcp_in.c ****         prev->next = pcb->next;
 634              		.loc 1 271 25
 635 0322 FB69     		ldr	r3, [r7, #28]
 636 0324 DA68     		ldr	r2, [r3, #12]
 637              		.loc 1 271 20
 638 0326 BB69     		ldr	r3, [r7, #24]
 639 0328 DA60     		str	r2, [r3, #12]
 272:Middlewares/Third_Party/LwIP/src/core/tcp_in.c ****         pcb->next = tcp_active_pcbs;
 640              		.loc 1 272 19
 641 032a 834B     		ldr	r3, .L88+20
 642 032c 1A68     		ldr	r2, [r3]
 643 032e FB69     		ldr	r3, [r7, #28]
 644 0330 DA60     		str	r2, [r3, #12]
 273:Middlewares/Third_Party/LwIP/src/core/tcp_in.c ****         tcp_active_pcbs = pcb;
 645              		.loc 1 273 25
 646 0332 814A     		ldr	r2, .L88+20
 647 0334 FB69     		ldr	r3, [r7, #28]
 648 0336 1360     		str	r3, [r2]
 649              	.L23:
 274:Middlewares/Third_Party/LwIP/src/core/tcp_in.c ****       } else {
 275:Middlewares/Third_Party/LwIP/src/core/tcp_in.c ****         TCP_STATS_INC(tcp.cachehit);
 276:Middlewares/Third_Party/LwIP/src/core/tcp_in.c ****       }
 277:Middlewares/Third_Party/LwIP/src/core/tcp_in.c ****       LWIP_ASSERT("tcp_input: pcb->next != pcb (after cache)", pcb->next != pcb);
 650              		.loc 1 277 7
 651 0338 FB69     		ldr	r3, [r7, #28]
 652 033a DB68     		ldr	r3, [r3, #12]
 653 033c FA69     		ldr	r2, [r7, #28]
 654 033e 9A42     		cmp	r2, r3
 655 0340 11D1     		bne	.L75
 656              		.loc 1 277 7 is_stmt 0 discriminator 1
 657 0342 7A4B     		ldr	r3, .L88+8
 658 0344 40F21512 		movw	r2, #277
 659 0348 7C49     		ldr	r1, .L88+24
 660 034a 7A48     		ldr	r0, .L88+16
 661 034c FFF7FEFF 		bl	printf
 278:Middlewares/Third_Party/LwIP/src/core/tcp_in.c ****       break;
ARM GAS  /tmp/ccWqLOXK.s 			page 18


 662              		.loc 1 278 7 is_stmt 1 discriminator 1
 663 0350 09E0     		b	.L75
 664              	.L21:
 279:Middlewares/Third_Party/LwIP/src/core/tcp_in.c ****     }
 280:Middlewares/Third_Party/LwIP/src/core/tcp_in.c ****     prev = pcb;
 665              		.loc 1 280 10
 666 0352 FB69     		ldr	r3, [r7, #28]
 667 0354 BB61     		str	r3, [r7, #24]
 668              	.L20:
 250:Middlewares/Third_Party/LwIP/src/core/tcp_in.c ****     LWIP_ASSERT("tcp_input: active pcb->state != CLOSED", pcb->state != CLOSED);
 669              		.loc 1 250 48 discriminator 2
 670 0356 FB69     		ldr	r3, [r7, #28]
 671 0358 DB68     		ldr	r3, [r3, #12]
 672 035a FB61     		str	r3, [r7, #28]
 673              	.L15:
 250:Middlewares/Third_Party/LwIP/src/core/tcp_in.c ****     LWIP_ASSERT("tcp_input: active pcb->state != CLOSED", pcb->state != CLOSED);
 674              		.loc 1 250 3 discriminator 1
 675 035c FB69     		ldr	r3, [r7, #28]
 676 035e 002B     		cmp	r3, #0
 677 0360 7FF45EAF 		bne	.L26
 678 0364 00E0     		b	.L25
 679              	.L75:
 278:Middlewares/Third_Party/LwIP/src/core/tcp_in.c ****       break;
 680              		.loc 1 278 7
 681 0366 00BF     		nop
 682              	.L25:
 281:Middlewares/Third_Party/LwIP/src/core/tcp_in.c ****   }
 282:Middlewares/Third_Party/LwIP/src/core/tcp_in.c **** 
 283:Middlewares/Third_Party/LwIP/src/core/tcp_in.c ****   if (pcb == NULL) {
 683              		.loc 1 283 6
 684 0368 FB69     		ldr	r3, [r7, #28]
 685 036a 002B     		cmp	r3, #0
 686 036c 40F09580 		bne	.L27
 284:Middlewares/Third_Party/LwIP/src/core/tcp_in.c ****     /* If it did not go to an active connection, we check the connections
 285:Middlewares/Third_Party/LwIP/src/core/tcp_in.c ****        in the TIME-WAIT state. */
 286:Middlewares/Third_Party/LwIP/src/core/tcp_in.c ****     for (pcb = tcp_tw_pcbs; pcb != NULL; pcb = pcb->next) {
 687              		.loc 1 286 14
 688 0370 734B     		ldr	r3, .L88+28
 689 0372 1B68     		ldr	r3, [r3]
 690 0374 FB61     		str	r3, [r7, #28]
 691              		.loc 1 286 5
 692 0376 3FE0     		b	.L28
 693              	.L33:
 287:Middlewares/Third_Party/LwIP/src/core/tcp_in.c ****       LWIP_ASSERT("tcp_input: TIME-WAIT pcb->state == TIME-WAIT", pcb->state == TIME_WAIT);
 694              		.loc 1 287 7
 695 0378 FB69     		ldr	r3, [r7, #28]
 696 037a 1B7D     		ldrb	r3, [r3, #20]	@ zero_extendqisi2
 697 037c 0A2B     		cmp	r3, #10
 698 037e 06D0     		beq	.L29
 699              		.loc 1 287 7 is_stmt 0 discriminator 1
 700 0380 6A4B     		ldr	r3, .L88+8
 701 0382 40F21F12 		movw	r2, #287
 702 0386 6F49     		ldr	r1, .L88+32
 703 0388 6A48     		ldr	r0, .L88+16
 704 038a FFF7FEFF 		bl	printf
 705              	.L29:
 288:Middlewares/Third_Party/LwIP/src/core/tcp_in.c **** 
ARM GAS  /tmp/ccWqLOXK.s 			page 19


 289:Middlewares/Third_Party/LwIP/src/core/tcp_in.c ****       /* check if PCB is bound to specific netif */
 290:Middlewares/Third_Party/LwIP/src/core/tcp_in.c ****       if ((pcb->netif_idx != NETIF_NO_INDEX) &&
 706              		.loc 1 290 15 is_stmt 1
 707 038e FB69     		ldr	r3, [r7, #28]
 708 0390 1B7A     		ldrb	r3, [r3, #8]	@ zero_extendqisi2
 709              		.loc 1 290 10
 710 0392 002B     		cmp	r3, #0
 711 0394 09D0     		beq	.L30
 291:Middlewares/Third_Party/LwIP/src/core/tcp_in.c ****           (pcb->netif_idx != netif_get_index(ip_data.current_input_netif))) {
 712              		.loc 1 291 15 discriminator 1
 713 0396 FB69     		ldr	r3, [r7, #28]
 714 0398 1A7A     		ldrb	r2, [r3, #8]	@ zero_extendqisi2
 715              		.loc 1 291 30 discriminator 1
 716 039a 634B     		ldr	r3, .L88+4
 717 039c 5B68     		ldr	r3, [r3, #4]
 718 039e 93F83430 		ldrb	r3, [r3, #52]	@ zero_extendqisi2
 719 03a2 0133     		adds	r3, r3, #1
 720 03a4 DBB2     		uxtb	r3, r3
 290:Middlewares/Third_Party/LwIP/src/core/tcp_in.c ****           (pcb->netif_idx != netif_get_index(ip_data.current_input_netif))) {
 721              		.loc 1 290 46 discriminator 1
 722 03a6 9A42     		cmp	r2, r3
 723 03a8 22D1     		bne	.L76
 724              	.L30:
 292:Middlewares/Third_Party/LwIP/src/core/tcp_in.c ****         continue;
 293:Middlewares/Third_Party/LwIP/src/core/tcp_in.c ****       }
 294:Middlewares/Third_Party/LwIP/src/core/tcp_in.c **** 
 295:Middlewares/Third_Party/LwIP/src/core/tcp_in.c ****       if (pcb->remote_port == tcphdr->src &&
 725              		.loc 1 295 14
 726 03aa FB69     		ldr	r3, [r7, #28]
 727 03ac 1A8B     		ldrh	r2, [r3, #24]
 728              		.loc 1 295 37
 729 03ae 5D4B     		ldr	r3, .L88
 730 03b0 1B68     		ldr	r3, [r3]
 731 03b2 1B88     		ldrh	r3, [r3]	@ unaligned
 732 03b4 9BB2     		uxth	r3, r3
 733              		.loc 1 295 10
 734 03b6 9A42     		cmp	r2, r3
 735 03b8 1BD1     		bne	.L31
 296:Middlewares/Third_Party/LwIP/src/core/tcp_in.c ****           pcb->local_port == tcphdr->dest &&
 736              		.loc 1 296 14 discriminator 1
 737 03ba FB69     		ldr	r3, [r7, #28]
 738 03bc DA8A     		ldrh	r2, [r3, #22]
 739              		.loc 1 296 36 discriminator 1
 740 03be 594B     		ldr	r3, .L88
 741 03c0 1B68     		ldr	r3, [r3]
 742 03c2 5B88     		ldrh	r3, [r3, #2]	@ unaligned
 743 03c4 9BB2     		uxth	r3, r3
 295:Middlewares/Third_Party/LwIP/src/core/tcp_in.c ****           pcb->local_port == tcphdr->dest &&
 744              		.loc 1 295 43 discriminator 1
 745 03c6 9A42     		cmp	r2, r3
 746 03c8 13D1     		bne	.L31
 297:Middlewares/Third_Party/LwIP/src/core/tcp_in.c ****           ip_addr_cmp(&pcb->remote_ip, ip_current_src_addr()) &&
 747              		.loc 1 297 11
 748 03ca FB69     		ldr	r3, [r7, #28]
 749 03cc 5A68     		ldr	r2, [r3, #4]
 750 03ce 564B     		ldr	r3, .L88+4
 751 03d0 1B69     		ldr	r3, [r3, #16]
ARM GAS  /tmp/ccWqLOXK.s 			page 20


 296:Middlewares/Third_Party/LwIP/src/core/tcp_in.c ****           pcb->local_port == tcphdr->dest &&
 752              		.loc 1 296 43
 753 03d2 9A42     		cmp	r2, r3
 754 03d4 0DD1     		bne	.L31
 298:Middlewares/Third_Party/LwIP/src/core/tcp_in.c ****           ip_addr_cmp(&pcb->local_ip, ip_current_dest_addr())) {
 755              		.loc 1 298 11
 756 03d6 FB69     		ldr	r3, [r7, #28]
 757 03d8 1A68     		ldr	r2, [r3]
 758 03da 534B     		ldr	r3, .L88+4
 759 03dc 5B69     		ldr	r3, [r3, #20]
 297:Middlewares/Third_Party/LwIP/src/core/tcp_in.c ****           ip_addr_cmp(&pcb->remote_ip, ip_current_src_addr()) &&
 760              		.loc 1 297 63
 761 03de 9A42     		cmp	r2, r3
 762 03e0 07D1     		bne	.L31
 299:Middlewares/Third_Party/LwIP/src/core/tcp_in.c ****         /* We don't really care enough to move this PCB to the front
 300:Middlewares/Third_Party/LwIP/src/core/tcp_in.c ****            of the list since we are not very likely to receive that
 301:Middlewares/Third_Party/LwIP/src/core/tcp_in.c ****            many segments for connections in TIME-WAIT. */
 302:Middlewares/Third_Party/LwIP/src/core/tcp_in.c ****         LWIP_DEBUGF(TCP_INPUT_DEBUG, ("tcp_input: packed for TIME_WAITing connection.\n"));
 303:Middlewares/Third_Party/LwIP/src/core/tcp_in.c **** #ifdef LWIP_HOOK_TCP_INPACKET_PCB
 304:Middlewares/Third_Party/LwIP/src/core/tcp_in.c ****         if (LWIP_HOOK_TCP_INPACKET_PCB(pcb, tcphdr, tcphdr_optlen, tcphdr_opt1len,
 305:Middlewares/Third_Party/LwIP/src/core/tcp_in.c ****                                        tcphdr_opt2, p) == ERR_OK)
 306:Middlewares/Third_Party/LwIP/src/core/tcp_in.c **** #endif
 307:Middlewares/Third_Party/LwIP/src/core/tcp_in.c ****         {
 308:Middlewares/Third_Party/LwIP/src/core/tcp_in.c ****           tcp_timewait_input(pcb);
 763              		.loc 1 308 11
 764 03e2 F869     		ldr	r0, [r7, #28]
 765 03e4 FFF7FEFF 		bl	tcp_timewait_input
 309:Middlewares/Third_Party/LwIP/src/core/tcp_in.c ****         }
 310:Middlewares/Third_Party/LwIP/src/core/tcp_in.c ****         pbuf_free(p);
 766              		.loc 1 310 9
 767 03e8 7868     		ldr	r0, [r7, #4]
 768 03ea FFF7FEFF 		bl	pbuf_free
 311:Middlewares/Third_Party/LwIP/src/core/tcp_in.c ****         return;
 769              		.loc 1 311 9
 770 03ee F0E1     		b	.L1
 771              	.L76:
 292:Middlewares/Third_Party/LwIP/src/core/tcp_in.c ****       }
 772              		.loc 1 292 9
 773 03f0 00BF     		nop
 774              	.L31:
 286:Middlewares/Third_Party/LwIP/src/core/tcp_in.c ****       LWIP_ASSERT("tcp_input: TIME-WAIT pcb->state == TIME-WAIT", pcb->state == TIME_WAIT);
 775              		.loc 1 286 46 discriminator 2
 776 03f2 FB69     		ldr	r3, [r7, #28]
 777 03f4 DB68     		ldr	r3, [r3, #12]
 778 03f6 FB61     		str	r3, [r7, #28]
 779              	.L28:
 286:Middlewares/Third_Party/LwIP/src/core/tcp_in.c ****       LWIP_ASSERT("tcp_input: TIME-WAIT pcb->state == TIME-WAIT", pcb->state == TIME_WAIT);
 780              		.loc 1 286 5 discriminator 1
 781 03f8 FB69     		ldr	r3, [r7, #28]
 782 03fa 002B     		cmp	r3, #0
 783 03fc BCD1     		bne	.L33
 312:Middlewares/Third_Party/LwIP/src/core/tcp_in.c ****       }
 313:Middlewares/Third_Party/LwIP/src/core/tcp_in.c ****     }
 314:Middlewares/Third_Party/LwIP/src/core/tcp_in.c **** 
 315:Middlewares/Third_Party/LwIP/src/core/tcp_in.c ****     /* Finally, if we still did not get a match, we check all PCBs that
 316:Middlewares/Third_Party/LwIP/src/core/tcp_in.c ****        are LISTENing for incoming connections. */
 317:Middlewares/Third_Party/LwIP/src/core/tcp_in.c ****     prev = NULL;
ARM GAS  /tmp/ccWqLOXK.s 			page 21


 784              		.loc 1 317 10
 785 03fe 0023     		movs	r3, #0
 786 0400 BB61     		str	r3, [r7, #24]
 318:Middlewares/Third_Party/LwIP/src/core/tcp_in.c ****     for (lpcb = tcp_listen_pcbs.listen_pcbs; lpcb != NULL; lpcb = lpcb->next) {
 787              		.loc 1 318 15
 788 0402 514B     		ldr	r3, .L88+36
 789 0404 1B68     		ldr	r3, [r3]
 790 0406 7B61     		str	r3, [r7, #20]
 791              		.loc 1 318 5
 792 0408 2AE0     		b	.L34
 793              	.L40:
 319:Middlewares/Third_Party/LwIP/src/core/tcp_in.c ****       /* check if PCB is bound to specific netif */
 320:Middlewares/Third_Party/LwIP/src/core/tcp_in.c ****       if ((lpcb->netif_idx != NETIF_NO_INDEX) &&
 794              		.loc 1 320 16
 795 040a 7B69     		ldr	r3, [r7, #20]
 796 040c 1B7A     		ldrb	r3, [r3, #8]	@ zero_extendqisi2
 797              		.loc 1 320 10
 798 040e 002B     		cmp	r3, #0
 799 0410 0CD0     		beq	.L35
 321:Middlewares/Third_Party/LwIP/src/core/tcp_in.c ****           (lpcb->netif_idx != netif_get_index(ip_data.current_input_netif))) {
 800              		.loc 1 321 16 discriminator 1
 801 0412 7B69     		ldr	r3, [r7, #20]
 802 0414 1A7A     		ldrb	r2, [r3, #8]	@ zero_extendqisi2
 803              		.loc 1 321 31 discriminator 1
 804 0416 444B     		ldr	r3, .L88+4
 805 0418 5B68     		ldr	r3, [r3, #4]
 806 041a 93F83430 		ldrb	r3, [r3, #52]	@ zero_extendqisi2
 807 041e 0133     		adds	r3, r3, #1
 808 0420 DBB2     		uxtb	r3, r3
 320:Middlewares/Third_Party/LwIP/src/core/tcp_in.c ****           (lpcb->netif_idx != netif_get_index(ip_data.current_input_netif))) {
 809              		.loc 1 320 47 discriminator 1
 810 0422 9A42     		cmp	r2, r3
 811 0424 02D0     		beq	.L35
 322:Middlewares/Third_Party/LwIP/src/core/tcp_in.c ****         prev = (struct tcp_pcb *)lpcb;
 812              		.loc 1 322 14
 813 0426 7B69     		ldr	r3, [r7, #20]
 814 0428 BB61     		str	r3, [r7, #24]
 323:Middlewares/Third_Party/LwIP/src/core/tcp_in.c ****         continue;
 815              		.loc 1 323 9
 816 042a 16E0     		b	.L36
 817              	.L35:
 324:Middlewares/Third_Party/LwIP/src/core/tcp_in.c ****       }
 325:Middlewares/Third_Party/LwIP/src/core/tcp_in.c **** 
 326:Middlewares/Third_Party/LwIP/src/core/tcp_in.c ****       if (lpcb->local_port == tcphdr->dest) {
 818              		.loc 1 326 15
 819 042c 7B69     		ldr	r3, [r7, #20]
 820 042e DA8A     		ldrh	r2, [r3, #22]
 821              		.loc 1 326 37
 822 0430 3C4B     		ldr	r3, .L88
 823 0432 1B68     		ldr	r3, [r3]
 824 0434 5B88     		ldrh	r3, [r3, #2]	@ unaligned
 825 0436 9BB2     		uxth	r3, r3
 826              		.loc 1 326 10
 827 0438 9A42     		cmp	r2, r3
 828 043a 0CD1     		bne	.L37
 327:Middlewares/Third_Party/LwIP/src/core/tcp_in.c ****         if (IP_IS_ANY_TYPE_VAL(lpcb->local_ip)) {
 328:Middlewares/Third_Party/LwIP/src/core/tcp_in.c ****           /* found an ANY TYPE (IPv4/IPv6) match */
ARM GAS  /tmp/ccWqLOXK.s 			page 22


 329:Middlewares/Third_Party/LwIP/src/core/tcp_in.c **** #if SO_REUSE
 330:Middlewares/Third_Party/LwIP/src/core/tcp_in.c ****           lpcb_any = lpcb;
 331:Middlewares/Third_Party/LwIP/src/core/tcp_in.c ****           lpcb_prev = prev;
 332:Middlewares/Third_Party/LwIP/src/core/tcp_in.c **** #else /* SO_REUSE */
 333:Middlewares/Third_Party/LwIP/src/core/tcp_in.c ****           break;
 334:Middlewares/Third_Party/LwIP/src/core/tcp_in.c **** #endif /* SO_REUSE */
 335:Middlewares/Third_Party/LwIP/src/core/tcp_in.c ****         } else if (IP_ADDR_PCB_VERSION_MATCH_EXACT(lpcb, ip_current_dest_addr())) {
 336:Middlewares/Third_Party/LwIP/src/core/tcp_in.c ****           if (ip_addr_cmp(&lpcb->local_ip, ip_current_dest_addr())) {
 829              		.loc 1 336 15
 830 043c 7B69     		ldr	r3, [r7, #20]
 831 043e 1A68     		ldr	r2, [r3]
 832 0440 394B     		ldr	r3, .L88+4
 833 0442 5B69     		ldr	r3, [r3, #20]
 834              		.loc 1 336 14
 835 0444 9A42     		cmp	r2, r3
 836 0446 0FD0     		beq	.L77
 337:Middlewares/Third_Party/LwIP/src/core/tcp_in.c ****             /* found an exact match */
 338:Middlewares/Third_Party/LwIP/src/core/tcp_in.c ****             break;
 339:Middlewares/Third_Party/LwIP/src/core/tcp_in.c ****           } else if (ip_addr_isany(&lpcb->local_ip)) {
 837              		.loc 1 339 22
 838 0448 7B69     		ldr	r3, [r7, #20]
 839              		.loc 1 339 21
 840 044a 002B     		cmp	r3, #0
 841 044c 0DD0     		beq	.L39
 842              		.loc 1 339 22 discriminator 1
 843 044e 7B69     		ldr	r3, [r7, #20]
 844 0450 1B68     		ldr	r3, [r3]
 845 0452 002B     		cmp	r3, #0
 846 0454 09D0     		beq	.L39
 847              	.L37:
 340:Middlewares/Third_Party/LwIP/src/core/tcp_in.c ****             /* found an ANY-match */
 341:Middlewares/Third_Party/LwIP/src/core/tcp_in.c **** #if SO_REUSE
 342:Middlewares/Third_Party/LwIP/src/core/tcp_in.c ****             lpcb_any = lpcb;
 343:Middlewares/Third_Party/LwIP/src/core/tcp_in.c ****             lpcb_prev = prev;
 344:Middlewares/Third_Party/LwIP/src/core/tcp_in.c **** #else /* SO_REUSE */
 345:Middlewares/Third_Party/LwIP/src/core/tcp_in.c ****             break;
 346:Middlewares/Third_Party/LwIP/src/core/tcp_in.c **** #endif /* SO_REUSE */
 347:Middlewares/Third_Party/LwIP/src/core/tcp_in.c ****           }
 348:Middlewares/Third_Party/LwIP/src/core/tcp_in.c ****         }
 349:Middlewares/Third_Party/LwIP/src/core/tcp_in.c ****       }
 350:Middlewares/Third_Party/LwIP/src/core/tcp_in.c ****       prev = (struct tcp_pcb *)lpcb;
 848              		.loc 1 350 12
 849 0456 7B69     		ldr	r3, [r7, #20]
 850 0458 BB61     		str	r3, [r7, #24]
 851              	.L36:
 318:Middlewares/Third_Party/LwIP/src/core/tcp_in.c ****       /* check if PCB is bound to specific netif */
 852              		.loc 1 318 65 discriminator 2
 853 045a 7B69     		ldr	r3, [r7, #20]
 854 045c DB68     		ldr	r3, [r3, #12]
 855 045e 7B61     		str	r3, [r7, #20]
 856              	.L34:
 318:Middlewares/Third_Party/LwIP/src/core/tcp_in.c ****       /* check if PCB is bound to specific netif */
 857              		.loc 1 318 5 discriminator 1
 858 0460 7B69     		ldr	r3, [r7, #20]
 859 0462 002B     		cmp	r3, #0
 860 0464 D1D1     		bne	.L40
 861 0466 00E0     		b	.L39
ARM GAS  /tmp/ccWqLOXK.s 			page 23


 862              	.L77:
 338:Middlewares/Third_Party/LwIP/src/core/tcp_in.c ****           } else if (ip_addr_isany(&lpcb->local_ip)) {
 863              		.loc 1 338 13
 864 0468 00BF     		nop
 865              	.L39:
 351:Middlewares/Third_Party/LwIP/src/core/tcp_in.c ****     }
 352:Middlewares/Third_Party/LwIP/src/core/tcp_in.c **** #if SO_REUSE
 353:Middlewares/Third_Party/LwIP/src/core/tcp_in.c ****     /* first try specific local IP */
 354:Middlewares/Third_Party/LwIP/src/core/tcp_in.c ****     if (lpcb == NULL) {
 355:Middlewares/Third_Party/LwIP/src/core/tcp_in.c ****       /* only pass to ANY if no specific local IP has been found */
 356:Middlewares/Third_Party/LwIP/src/core/tcp_in.c ****       lpcb = lpcb_any;
 357:Middlewares/Third_Party/LwIP/src/core/tcp_in.c ****       prev = lpcb_prev;
 358:Middlewares/Third_Party/LwIP/src/core/tcp_in.c ****     }
 359:Middlewares/Third_Party/LwIP/src/core/tcp_in.c **** #endif /* SO_REUSE */
 360:Middlewares/Third_Party/LwIP/src/core/tcp_in.c ****     if (lpcb != NULL) {
 866              		.loc 1 360 8
 867 046a 7B69     		ldr	r3, [r7, #20]
 868 046c 002B     		cmp	r3, #0
 869 046e 14D0     		beq	.L27
 361:Middlewares/Third_Party/LwIP/src/core/tcp_in.c ****       /* Move this PCB to the front of the list so that subsequent
 362:Middlewares/Third_Party/LwIP/src/core/tcp_in.c ****          lookups will be faster (we exploit locality in TCP segment
 363:Middlewares/Third_Party/LwIP/src/core/tcp_in.c ****          arrivals). */
 364:Middlewares/Third_Party/LwIP/src/core/tcp_in.c ****       if (prev != NULL) {
 870              		.loc 1 364 10
 871 0470 BB69     		ldr	r3, [r7, #24]
 872 0472 002B     		cmp	r3, #0
 873 0474 0AD0     		beq	.L41
 365:Middlewares/Third_Party/LwIP/src/core/tcp_in.c ****         ((struct tcp_pcb_listen *)prev)->next = lpcb->next;
 874              		.loc 1 365 53
 875 0476 7B69     		ldr	r3, [r7, #20]
 876 0478 DA68     		ldr	r2, [r3, #12]
 877              		.loc 1 365 47
 878 047a BB69     		ldr	r3, [r7, #24]
 879 047c DA60     		str	r2, [r3, #12]
 366:Middlewares/Third_Party/LwIP/src/core/tcp_in.c ****         /* our successor is the remainder of the listening list */
 367:Middlewares/Third_Party/LwIP/src/core/tcp_in.c ****         lpcb->next = tcp_listen_pcbs.listen_pcbs;
 880              		.loc 1 367 37
 881 047e 324B     		ldr	r3, .L88+36
 882 0480 1A68     		ldr	r2, [r3]
 883              		.loc 1 367 20
 884 0482 7B69     		ldr	r3, [r7, #20]
 885 0484 DA60     		str	r2, [r3, #12]
 368:Middlewares/Third_Party/LwIP/src/core/tcp_in.c ****         /* put this listening pcb at the head of the listening list */
 369:Middlewares/Third_Party/LwIP/src/core/tcp_in.c ****         tcp_listen_pcbs.listen_pcbs = lpcb;
 886              		.loc 1 369 37
 887 0486 304A     		ldr	r2, .L88+36
 888 0488 7B69     		ldr	r3, [r7, #20]
 889 048a 1360     		str	r3, [r2]
 890              	.L41:
 370:Middlewares/Third_Party/LwIP/src/core/tcp_in.c ****       } else {
 371:Middlewares/Third_Party/LwIP/src/core/tcp_in.c ****         TCP_STATS_INC(tcp.cachehit);
 372:Middlewares/Third_Party/LwIP/src/core/tcp_in.c ****       }
 373:Middlewares/Third_Party/LwIP/src/core/tcp_in.c **** 
 374:Middlewares/Third_Party/LwIP/src/core/tcp_in.c ****       LWIP_DEBUGF(TCP_INPUT_DEBUG, ("tcp_input: packed for LISTENing connection.\n"));
 375:Middlewares/Third_Party/LwIP/src/core/tcp_in.c **** #ifdef LWIP_HOOK_TCP_INPACKET_PCB
 376:Middlewares/Third_Party/LwIP/src/core/tcp_in.c ****       if (LWIP_HOOK_TCP_INPACKET_PCB((struct tcp_pcb *)lpcb, tcphdr, tcphdr_optlen,
 377:Middlewares/Third_Party/LwIP/src/core/tcp_in.c ****                                      tcphdr_opt1len, tcphdr_opt2, p) == ERR_OK)
ARM GAS  /tmp/ccWqLOXK.s 			page 24


 378:Middlewares/Third_Party/LwIP/src/core/tcp_in.c **** #endif
 379:Middlewares/Third_Party/LwIP/src/core/tcp_in.c ****       {
 380:Middlewares/Third_Party/LwIP/src/core/tcp_in.c ****         tcp_listen_input(lpcb);
 891              		.loc 1 380 9
 892 048c 7869     		ldr	r0, [r7, #20]
 893 048e FFF7FEFF 		bl	tcp_listen_input
 381:Middlewares/Third_Party/LwIP/src/core/tcp_in.c ****       }
 382:Middlewares/Third_Party/LwIP/src/core/tcp_in.c ****       pbuf_free(p);
 894              		.loc 1 382 7
 895 0492 7868     		ldr	r0, [r7, #4]
 896 0494 FFF7FEFF 		bl	pbuf_free
 383:Middlewares/Third_Party/LwIP/src/core/tcp_in.c ****       return;
 897              		.loc 1 383 7
 898 0498 9BE1     		b	.L1
 899              	.L27:
 384:Middlewares/Third_Party/LwIP/src/core/tcp_in.c ****     }
 385:Middlewares/Third_Party/LwIP/src/core/tcp_in.c ****   }
 386:Middlewares/Third_Party/LwIP/src/core/tcp_in.c **** 
 387:Middlewares/Third_Party/LwIP/src/core/tcp_in.c **** #if TCP_INPUT_DEBUG
 388:Middlewares/Third_Party/LwIP/src/core/tcp_in.c ****   LWIP_DEBUGF(TCP_INPUT_DEBUG, ("+-+-+-+-+-+-+-+-+-+-+-+-+-+- tcp_input: flags "));
 389:Middlewares/Third_Party/LwIP/src/core/tcp_in.c ****   tcp_debug_print_flags(TCPH_FLAGS(tcphdr));
 390:Middlewares/Third_Party/LwIP/src/core/tcp_in.c ****   LWIP_DEBUGF(TCP_INPUT_DEBUG, ("-+-+-+-+-+-+-+-+-+-+-+-+-+-+\n"));
 391:Middlewares/Third_Party/LwIP/src/core/tcp_in.c **** #endif /* TCP_INPUT_DEBUG */
 392:Middlewares/Third_Party/LwIP/src/core/tcp_in.c **** 
 393:Middlewares/Third_Party/LwIP/src/core/tcp_in.c **** 
 394:Middlewares/Third_Party/LwIP/src/core/tcp_in.c **** #ifdef LWIP_HOOK_TCP_INPACKET_PCB
 395:Middlewares/Third_Party/LwIP/src/core/tcp_in.c ****   if ((pcb != NULL) && LWIP_HOOK_TCP_INPACKET_PCB(pcb, tcphdr, tcphdr_optlen,
 396:Middlewares/Third_Party/LwIP/src/core/tcp_in.c ****       tcphdr_opt1len, tcphdr_opt2, p) != ERR_OK) {
 397:Middlewares/Third_Party/LwIP/src/core/tcp_in.c ****     pbuf_free(p);
 398:Middlewares/Third_Party/LwIP/src/core/tcp_in.c ****     return;
 399:Middlewares/Third_Party/LwIP/src/core/tcp_in.c ****   }
 400:Middlewares/Third_Party/LwIP/src/core/tcp_in.c **** #endif
 401:Middlewares/Third_Party/LwIP/src/core/tcp_in.c ****   if (pcb != NULL) {
 900              		.loc 1 401 6
 901 049a FB69     		ldr	r3, [r7, #28]
 902 049c 002B     		cmp	r3, #0
 903 049e 00F06081 		beq	.L42
 402:Middlewares/Third_Party/LwIP/src/core/tcp_in.c ****     /* The incoming segment belongs to a connection. */
 403:Middlewares/Third_Party/LwIP/src/core/tcp_in.c **** #if TCP_INPUT_DEBUG
 404:Middlewares/Third_Party/LwIP/src/core/tcp_in.c ****     tcp_debug_print_state(pcb->state);
 405:Middlewares/Third_Party/LwIP/src/core/tcp_in.c **** #endif /* TCP_INPUT_DEBUG */
 406:Middlewares/Third_Party/LwIP/src/core/tcp_in.c **** 
 407:Middlewares/Third_Party/LwIP/src/core/tcp_in.c ****     /* Set up a tcp_seg structure. */
 408:Middlewares/Third_Party/LwIP/src/core/tcp_in.c ****     inseg.next = NULL;
 904              		.loc 1 408 16
 905 04a2 2A4B     		ldr	r3, .L88+40
 906 04a4 0022     		movs	r2, #0
 907 04a6 1A60     		str	r2, [r3]
 409:Middlewares/Third_Party/LwIP/src/core/tcp_in.c ****     inseg.len = p->tot_len;
 908              		.loc 1 409 18
 909 04a8 7B68     		ldr	r3, [r7, #4]
 910 04aa 1A89     		ldrh	r2, [r3, #8]
 911              		.loc 1 409 15
 912 04ac 274B     		ldr	r3, .L88+40
 913 04ae 1A81     		strh	r2, [r3, #8]	@ movhi
 410:Middlewares/Third_Party/LwIP/src/core/tcp_in.c ****     inseg.p = p;
 914              		.loc 1 410 13
ARM GAS  /tmp/ccWqLOXK.s 			page 25


 915 04b0 264A     		ldr	r2, .L88+40
 916 04b2 7B68     		ldr	r3, [r7, #4]
 917 04b4 5360     		str	r3, [r2, #4]
 411:Middlewares/Third_Party/LwIP/src/core/tcp_in.c ****     inseg.tcphdr = tcphdr;
 918              		.loc 1 411 18
 919 04b6 1B4B     		ldr	r3, .L88
 920 04b8 1B68     		ldr	r3, [r3]
 921 04ba 244A     		ldr	r2, .L88+40
 922 04bc D360     		str	r3, [r2, #12]
 412:Middlewares/Third_Party/LwIP/src/core/tcp_in.c **** 
 413:Middlewares/Third_Party/LwIP/src/core/tcp_in.c ****     recv_data = NULL;
 923              		.loc 1 413 15
 924 04be 244B     		ldr	r3, .L88+44
 925 04c0 0022     		movs	r2, #0
 926 04c2 1A60     		str	r2, [r3]
 414:Middlewares/Third_Party/LwIP/src/core/tcp_in.c ****     recv_flags = 0;
 927              		.loc 1 414 16
 928 04c4 234B     		ldr	r3, .L88+48
 929 04c6 0022     		movs	r2, #0
 930 04c8 1A70     		strb	r2, [r3]
 415:Middlewares/Third_Party/LwIP/src/core/tcp_in.c ****     recv_acked = 0;
 931              		.loc 1 415 16
 932 04ca 234B     		ldr	r3, .L88+52
 933 04cc 0022     		movs	r2, #0
 934 04ce 1A80     		strh	r2, [r3]	@ movhi
 416:Middlewares/Third_Party/LwIP/src/core/tcp_in.c **** 
 417:Middlewares/Third_Party/LwIP/src/core/tcp_in.c ****     if (flags & TCP_PSH) {
 935              		.loc 1 417 15
 936 04d0 224B     		ldr	r3, .L88+56
 937 04d2 1B78     		ldrb	r3, [r3]	@ zero_extendqisi2
 938 04d4 03F00803 		and	r3, r3, #8
 939              		.loc 1 417 8
 940 04d8 002B     		cmp	r3, #0
 941 04da 06D0     		beq	.L43
 418:Middlewares/Third_Party/LwIP/src/core/tcp_in.c ****       p->flags |= PBUF_FLAG_PUSH;
 942              		.loc 1 418 16
 943 04dc 7B68     		ldr	r3, [r7, #4]
 944 04de 5B7B     		ldrb	r3, [r3, #13]	@ zero_extendqisi2
 945 04e0 43F00103 		orr	r3, r3, #1
 946 04e4 DAB2     		uxtb	r2, r3
 947 04e6 7B68     		ldr	r3, [r7, #4]
 948 04e8 5A73     		strb	r2, [r3, #13]
 949              	.L43:
 419:Middlewares/Third_Party/LwIP/src/core/tcp_in.c ****     }
 420:Middlewares/Third_Party/LwIP/src/core/tcp_in.c **** 
 421:Middlewares/Third_Party/LwIP/src/core/tcp_in.c ****     /* If there is data which was previously "refused" by upper layer */
 422:Middlewares/Third_Party/LwIP/src/core/tcp_in.c ****     if (pcb->refused_data != NULL) {
 950              		.loc 1 422 12
 951 04ea FB69     		ldr	r3, [r7, #28]
 952 04ec 9B6F     		ldr	r3, [r3, #120]
 953              		.loc 1 422 8
 954 04ee 002B     		cmp	r3, #0
 955 04f0 38D0     		beq	.L44
 423:Middlewares/Third_Party/LwIP/src/core/tcp_in.c ****       if ((tcp_process_refused_data(pcb) == ERR_ABRT) ||
 956              		.loc 1 423 12
 957 04f2 F869     		ldr	r0, [r7, #28]
 958 04f4 FFF7FEFF 		bl	tcp_process_refused_data
ARM GAS  /tmp/ccWqLOXK.s 			page 26


 959 04f8 0346     		mov	r3, r0
 960              		.loc 1 423 10
 961 04fa 13F10D0F 		cmn	r3, #13
 962 04fe 07D0     		beq	.L45
 424:Middlewares/Third_Party/LwIP/src/core/tcp_in.c ****           ((pcb->refused_data != NULL) && (tcplen > 0))) {
 963              		.loc 1 424 16 discriminator 1
 964 0500 FB69     		ldr	r3, [r7, #28]
 965 0502 9B6F     		ldr	r3, [r3, #120]
 423:Middlewares/Third_Party/LwIP/src/core/tcp_in.c ****       if ((tcp_process_refused_data(pcb) == ERR_ABRT) ||
 966              		.loc 1 423 55 discriminator 1
 967 0504 002B     		cmp	r3, #0
 968 0506 2DD0     		beq	.L44
 969              		.loc 1 424 51
 970 0508 154B     		ldr	r3, .L88+60
 971 050a 1B88     		ldrh	r3, [r3]
 972              		.loc 1 424 40
 973 050c 002B     		cmp	r3, #0
 974 050e 29D0     		beq	.L44
 975              	.L45:
 425:Middlewares/Third_Party/LwIP/src/core/tcp_in.c ****         /* pcb has been aborted or refused data is still refused and the new
 426:Middlewares/Third_Party/LwIP/src/core/tcp_in.c ****            segment contains data */
 427:Middlewares/Third_Party/LwIP/src/core/tcp_in.c ****         if (pcb->rcv_ann_wnd == 0) {
 976              		.loc 1 427 16
 977 0510 FB69     		ldr	r3, [r7, #28]
 978 0512 5B8D     		ldrh	r3, [r3, #42]
 979              		.loc 1 427 12
 980 0514 002B     		cmp	r3, #0
 981 0516 40F00481 		bne	.L78
 428:Middlewares/Third_Party/LwIP/src/core/tcp_in.c ****           /* this is a zero-window probe, we respond to it with current RCV.NXT
 429:Middlewares/Third_Party/LwIP/src/core/tcp_in.c ****           and drop the data segment */
 430:Middlewares/Third_Party/LwIP/src/core/tcp_in.c ****           tcp_send_empty_ack(pcb);
 982              		.loc 1 430 11
 983 051a F869     		ldr	r0, [r7, #28]
 984 051c FFF7FEFF 		bl	tcp_send_empty_ack
 431:Middlewares/Third_Party/LwIP/src/core/tcp_in.c ****         }
 432:Middlewares/Third_Party/LwIP/src/core/tcp_in.c ****         TCP_STATS_INC(tcp.drop);
 433:Middlewares/Third_Party/LwIP/src/core/tcp_in.c ****         MIB2_STATS_INC(mib2.tcpinerrs);
 434:Middlewares/Third_Party/LwIP/src/core/tcp_in.c ****         goto aborted;
 985              		.loc 1 434 9
 986 0520 FFE0     		b	.L78
 987              	.L89:
 988 0522 00BF     		.align	2
 989              	.L88:
 990 0524 00000000 		.word	tcphdr
 991 0528 00000000 		.word	ip_data
 992 052c 00000000 		.word	.LC0
 993 0530 28010000 		.word	.LC9
 994 0534 48000000 		.word	.LC2
 995 0538 00000000 		.word	tcp_active_pcbs
 996 053c 54010000 		.word	.LC10
 997 0540 00000000 		.word	tcp_tw_pcbs
 998 0544 80010000 		.word	.LC11
 999 0548 00000000 		.word	tcp_listen_pcbs
 1000 054c 00000000 		.word	inseg
 1001 0550 00000000 		.word	recv_data
 1002 0554 00000000 		.word	recv_flags
 1003 0558 00000000 		.word	recv_acked
ARM GAS  /tmp/ccWqLOXK.s 			page 27


 1004 055c 00000000 		.word	flags
 1005 0560 00000000 		.word	tcplen
 1006              	.L44:
 435:Middlewares/Third_Party/LwIP/src/core/tcp_in.c ****       }
 436:Middlewares/Third_Party/LwIP/src/core/tcp_in.c ****     }
 437:Middlewares/Third_Party/LwIP/src/core/tcp_in.c ****     tcp_input_pcb = pcb;
 1007              		.loc 1 437 19
 1008 0564 9C4A     		ldr	r2, .L90
 1009 0566 FB69     		ldr	r3, [r7, #28]
 1010 0568 1360     		str	r3, [r2]
 438:Middlewares/Third_Party/LwIP/src/core/tcp_in.c ****     err = tcp_process(pcb);
 1011              		.loc 1 438 11
 1012 056a F869     		ldr	r0, [r7, #28]
 1013 056c FFF7FEFF 		bl	tcp_process
 1014 0570 0346     		mov	r3, r0
 1015 0572 FB74     		strb	r3, [r7, #19]
 439:Middlewares/Third_Party/LwIP/src/core/tcp_in.c ****     /* A return value of ERR_ABRT means that tcp_abort() was called
 440:Middlewares/Third_Party/LwIP/src/core/tcp_in.c ****        and that the pcb has been freed. If so, we don't do anything. */
 441:Middlewares/Third_Party/LwIP/src/core/tcp_in.c ****     if (err != ERR_ABRT) {
 1016              		.loc 1 441 8
 1017 0574 97F91330 		ldrsb	r3, [r7, #19]
 1018 0578 13F10D0F 		cmn	r3, #13
 1019 057c 00F0D380 		beq	.L79
 442:Middlewares/Third_Party/LwIP/src/core/tcp_in.c ****       if (recv_flags & TF_RESET) {
 1020              		.loc 1 442 22
 1021 0580 964B     		ldr	r3, .L90+4
 1022 0582 1B78     		ldrb	r3, [r3]	@ zero_extendqisi2
 1023 0584 03F00803 		and	r3, r3, #8
 1024              		.loc 1 442 10
 1025 0588 002B     		cmp	r3, #0
 1026 058a 15D0     		beq	.L48
 443:Middlewares/Third_Party/LwIP/src/core/tcp_in.c ****         /* TF_RESET means that the connection was reset by the other
 444:Middlewares/Third_Party/LwIP/src/core/tcp_in.c ****            end. We then call the error callback to inform the
 445:Middlewares/Third_Party/LwIP/src/core/tcp_in.c ****            application that the connection is dead before we
 446:Middlewares/Third_Party/LwIP/src/core/tcp_in.c ****            deallocate the PCB. */
 447:Middlewares/Third_Party/LwIP/src/core/tcp_in.c ****         TCP_EVENT_ERR(pcb->state, pcb->errf, pcb->callback_arg, ERR_RST);
 1027              		.loc 1 447 9
 1028 058c FB69     		ldr	r3, [r7, #28]
 1029 058e D3F89030 		ldr	r3, [r3, #144]
 1030 0592 002B     		cmp	r3, #0
 1031 0594 08D0     		beq	.L49
 1032              		.loc 1 447 9 is_stmt 0 discriminator 1
 1033 0596 FB69     		ldr	r3, [r7, #28]
 1034 0598 D3F89030 		ldr	r3, [r3, #144]
 1035 059c FA69     		ldr	r2, [r7, #28]
 1036 059e 1269     		ldr	r2, [r2, #16]
 1037 05a0 6FF00D01 		mvn	r1, #13
 1038 05a4 1046     		mov	r0, r2
 1039 05a6 9847     		blx	r3
 1040              	.LVL0:
 1041              	.L49:
 448:Middlewares/Third_Party/LwIP/src/core/tcp_in.c ****         tcp_pcb_remove(&tcp_active_pcbs, pcb);
 1042              		.loc 1 448 9 is_stmt 1
 1043 05a8 F969     		ldr	r1, [r7, #28]
 1044 05aa 8D48     		ldr	r0, .L90+8
 1045 05ac FFF7FEFF 		bl	tcp_pcb_remove
 449:Middlewares/Third_Party/LwIP/src/core/tcp_in.c ****         tcp_free(pcb);
ARM GAS  /tmp/ccWqLOXK.s 			page 28


 1046              		.loc 1 449 9
 1047 05b0 F869     		ldr	r0, [r7, #28]
 1048 05b2 FFF7FEFF 		bl	tcp_free
 1049 05b6 C1E0     		b	.L47
 1050              	.L48:
 450:Middlewares/Third_Party/LwIP/src/core/tcp_in.c ****       } else {
 451:Middlewares/Third_Party/LwIP/src/core/tcp_in.c ****         err = ERR_OK;
 1051              		.loc 1 451 13
 1052 05b8 0023     		movs	r3, #0
 1053 05ba FB74     		strb	r3, [r7, #19]
 452:Middlewares/Third_Party/LwIP/src/core/tcp_in.c ****         /* If the application has registered a "sent" function to be
 453:Middlewares/Third_Party/LwIP/src/core/tcp_in.c ****            called when new send buffer space is available, we call it
 454:Middlewares/Third_Party/LwIP/src/core/tcp_in.c ****            now. */
 455:Middlewares/Third_Party/LwIP/src/core/tcp_in.c ****         if (recv_acked > 0) {
 1054              		.loc 1 455 24
 1055 05bc 894B     		ldr	r3, .L90+12
 1056 05be 1B88     		ldrh	r3, [r3]
 1057              		.loc 1 455 12
 1058 05c0 002B     		cmp	r3, #0
 1059 05c2 1DD0     		beq	.L50
 1060              	.LBB3:
 456:Middlewares/Third_Party/LwIP/src/core/tcp_in.c ****           u16_t acked16;
 457:Middlewares/Third_Party/LwIP/src/core/tcp_in.c **** #if LWIP_WND_SCALE
 458:Middlewares/Third_Party/LwIP/src/core/tcp_in.c ****           /* recv_acked is u32_t but the sent callback only takes a u16_t,
 459:Middlewares/Third_Party/LwIP/src/core/tcp_in.c ****              so we might have to call it multiple times. */
 460:Middlewares/Third_Party/LwIP/src/core/tcp_in.c ****           u32_t acked = recv_acked;
 461:Middlewares/Third_Party/LwIP/src/core/tcp_in.c ****           while (acked > 0) {
 462:Middlewares/Third_Party/LwIP/src/core/tcp_in.c ****             acked16 = (u16_t)LWIP_MIN(acked, 0xffffu);
 463:Middlewares/Third_Party/LwIP/src/core/tcp_in.c ****             acked -= acked16;
 464:Middlewares/Third_Party/LwIP/src/core/tcp_in.c **** #else
 465:Middlewares/Third_Party/LwIP/src/core/tcp_in.c ****           {
 466:Middlewares/Third_Party/LwIP/src/core/tcp_in.c ****             acked16 = recv_acked;
 1061              		.loc 1 466 21
 1062 05c4 874B     		ldr	r3, .L90+12
 1063 05c6 1B88     		ldrh	r3, [r3]	@ movhi
 1064 05c8 FB81     		strh	r3, [r7, #14]	@ movhi
 467:Middlewares/Third_Party/LwIP/src/core/tcp_in.c **** #endif
 468:Middlewares/Third_Party/LwIP/src/core/tcp_in.c ****             TCP_EVENT_SENT(pcb, (u16_t)acked16, err);
 1065              		.loc 1 468 13
 1066 05ca FB69     		ldr	r3, [r7, #28]
 1067 05cc D3F88030 		ldr	r3, [r3, #128]
 1068 05d0 002B     		cmp	r3, #0
 1069 05d2 0AD0     		beq	.L51
 1070              		.loc 1 468 13 is_stmt 0 discriminator 1
 1071 05d4 FB69     		ldr	r3, [r7, #28]
 1072 05d6 D3F88030 		ldr	r3, [r3, #128]
 1073 05da FA69     		ldr	r2, [r7, #28]
 1074 05dc 1069     		ldr	r0, [r2, #16]
 1075 05de FA89     		ldrh	r2, [r7, #14]
 1076 05e0 F969     		ldr	r1, [r7, #28]
 1077 05e2 9847     		blx	r3
 1078              	.LVL1:
 1079 05e4 0346     		mov	r3, r0
 1080 05e6 FB74     		strb	r3, [r7, #19]
 1081 05e8 01E0     		b	.L52
 1082              	.L51:
 1083              		.loc 1 468 13 discriminator 2
ARM GAS  /tmp/ccWqLOXK.s 			page 29


 1084 05ea 0023     		movs	r3, #0
 1085 05ec FB74     		strb	r3, [r7, #19]
 1086              	.L52:
 469:Middlewares/Third_Party/LwIP/src/core/tcp_in.c ****             if (err == ERR_ABRT) {
 1087              		.loc 1 469 16 is_stmt 1
 1088 05ee 97F91330 		ldrsb	r3, [r7, #19]
 1089 05f2 13F10D0F 		cmn	r3, #13
 1090 05f6 00F09880 		beq	.L80
 470:Middlewares/Third_Party/LwIP/src/core/tcp_in.c ****               goto aborted;
 471:Middlewares/Third_Party/LwIP/src/core/tcp_in.c ****             }
 472:Middlewares/Third_Party/LwIP/src/core/tcp_in.c ****           }
 473:Middlewares/Third_Party/LwIP/src/core/tcp_in.c ****           recv_acked = 0;
 1091              		.loc 1 473 22
 1092 05fa 7A4B     		ldr	r3, .L90+12
 1093 05fc 0022     		movs	r2, #0
 1094 05fe 1A80     		strh	r2, [r3]	@ movhi
 1095              	.L50:
 1096              	.LBE3:
 474:Middlewares/Third_Party/LwIP/src/core/tcp_in.c ****         }
 475:Middlewares/Third_Party/LwIP/src/core/tcp_in.c ****         if (tcp_input_delayed_close(pcb)) {
 1097              		.loc 1 475 13
 1098 0600 F869     		ldr	r0, [r7, #28]
 1099 0602 FFF7FEFF 		bl	tcp_input_delayed_close
 1100 0606 0346     		mov	r3, r0
 1101              		.loc 1 475 12
 1102 0608 002B     		cmp	r3, #0
 1103 060a 40F09080 		bne	.L81
 476:Middlewares/Third_Party/LwIP/src/core/tcp_in.c ****           goto aborted;
 477:Middlewares/Third_Party/LwIP/src/core/tcp_in.c ****         }
 478:Middlewares/Third_Party/LwIP/src/core/tcp_in.c **** #if TCP_QUEUE_OOSEQ && LWIP_WND_SCALE
 479:Middlewares/Third_Party/LwIP/src/core/tcp_in.c ****         while (recv_data != NULL) {
 480:Middlewares/Third_Party/LwIP/src/core/tcp_in.c ****           struct pbuf *rest = NULL;
 481:Middlewares/Third_Party/LwIP/src/core/tcp_in.c ****           pbuf_split_64k(recv_data, &rest);
 482:Middlewares/Third_Party/LwIP/src/core/tcp_in.c **** #else /* TCP_QUEUE_OOSEQ && LWIP_WND_SCALE */
 483:Middlewares/Third_Party/LwIP/src/core/tcp_in.c ****         if (recv_data != NULL) {
 1104              		.loc 1 483 23
 1105 060e 764B     		ldr	r3, .L90+16
 1106 0610 1B68     		ldr	r3, [r3]
 1107              		.loc 1 483 12
 1108 0612 002B     		cmp	r3, #0
 1109 0614 41D0     		beq	.L55
 484:Middlewares/Third_Party/LwIP/src/core/tcp_in.c **** #endif /* TCP_QUEUE_OOSEQ && LWIP_WND_SCALE */
 485:Middlewares/Third_Party/LwIP/src/core/tcp_in.c **** 
 486:Middlewares/Third_Party/LwIP/src/core/tcp_in.c ****           LWIP_ASSERT("pcb->refused_data == NULL", pcb->refused_data == NULL);
 1110              		.loc 1 486 11
 1111 0616 FB69     		ldr	r3, [r7, #28]
 1112 0618 9B6F     		ldr	r3, [r3, #120]
 1113 061a 002B     		cmp	r3, #0
 1114 061c 06D0     		beq	.L56
 1115              		.loc 1 486 11 is_stmt 0 discriminator 1
 1116 061e 734B     		ldr	r3, .L90+20
 1117 0620 4FF4F372 		mov	r2, #486
 1118 0624 7249     		ldr	r1, .L90+24
 1119 0626 7348     		ldr	r0, .L90+28
 1120 0628 FFF7FEFF 		bl	printf
 1121              	.L56:
 487:Middlewares/Third_Party/LwIP/src/core/tcp_in.c ****           if (pcb->flags & TF_RXCLOSED) {
ARM GAS  /tmp/ccWqLOXK.s 			page 30


 1122              		.loc 1 487 18 is_stmt 1
 1123 062c FB69     		ldr	r3, [r7, #28]
 1124 062e 5B8B     		ldrh	r3, [r3, #26]
 1125              		.loc 1 487 26
 1126 0630 03F01003 		and	r3, r3, #16
 1127              		.loc 1 487 14
 1128 0634 002B     		cmp	r3, #0
 1129 0636 08D0     		beq	.L57
 488:Middlewares/Third_Party/LwIP/src/core/tcp_in.c ****             /* received data although already closed -> abort (send RST) to
 489:Middlewares/Third_Party/LwIP/src/core/tcp_in.c ****                notify the remote host that not all data has been processed */
 490:Middlewares/Third_Party/LwIP/src/core/tcp_in.c ****             pbuf_free(recv_data);
 1130              		.loc 1 490 13
 1131 0638 6B4B     		ldr	r3, .L90+16
 1132 063a 1B68     		ldr	r3, [r3]
 1133 063c 1846     		mov	r0, r3
 1134 063e FFF7FEFF 		bl	pbuf_free
 491:Middlewares/Third_Party/LwIP/src/core/tcp_in.c **** #if TCP_QUEUE_OOSEQ && LWIP_WND_SCALE
 492:Middlewares/Third_Party/LwIP/src/core/tcp_in.c ****             if (rest != NULL) {
 493:Middlewares/Third_Party/LwIP/src/core/tcp_in.c ****               pbuf_free(rest);
 494:Middlewares/Third_Party/LwIP/src/core/tcp_in.c ****             }
 495:Middlewares/Third_Party/LwIP/src/core/tcp_in.c **** #endif /* TCP_QUEUE_OOSEQ && LWIP_WND_SCALE */
 496:Middlewares/Third_Party/LwIP/src/core/tcp_in.c ****             tcp_abort(pcb);
 1135              		.loc 1 496 13
 1136 0642 F869     		ldr	r0, [r7, #28]
 1137 0644 FFF7FEFF 		bl	tcp_abort
 497:Middlewares/Third_Party/LwIP/src/core/tcp_in.c ****             goto aborted;
 1138              		.loc 1 497 13
 1139 0648 78E0     		b	.L47
 1140              	.L57:
 498:Middlewares/Third_Party/LwIP/src/core/tcp_in.c ****           }
 499:Middlewares/Third_Party/LwIP/src/core/tcp_in.c **** 
 500:Middlewares/Third_Party/LwIP/src/core/tcp_in.c ****           /* Notify application that data has been received. */
 501:Middlewares/Third_Party/LwIP/src/core/tcp_in.c ****           TCP_EVENT_RECV(pcb, recv_data, ERR_OK, err);
 1141              		.loc 1 501 11
 1142 064a FB69     		ldr	r3, [r7, #28]
 1143 064c D3F88430 		ldr	r3, [r3, #132]
 1144 0650 002B     		cmp	r3, #0
 1145 0652 0CD0     		beq	.L58
 1146              		.loc 1 501 11 is_stmt 0 discriminator 1
 1147 0654 FB69     		ldr	r3, [r7, #28]
 1148 0656 D3F88440 		ldr	r4, [r3, #132]
 1149 065a FB69     		ldr	r3, [r7, #28]
 1150 065c 1869     		ldr	r0, [r3, #16]
 1151 065e 624B     		ldr	r3, .L90+16
 1152 0660 1A68     		ldr	r2, [r3]
 1153 0662 0023     		movs	r3, #0
 1154 0664 F969     		ldr	r1, [r7, #28]
 1155 0666 A047     		blx	r4
 1156              	.LVL2:
 1157 0668 0346     		mov	r3, r0
 1158 066a FB74     		strb	r3, [r7, #19]
 1159 066c 08E0     		b	.L59
 1160              	.L58:
 1161              		.loc 1 501 11 discriminator 2
 1162 066e 5E4B     		ldr	r3, .L90+16
 1163 0670 1A68     		ldr	r2, [r3]
 1164 0672 0023     		movs	r3, #0
ARM GAS  /tmp/ccWqLOXK.s 			page 31


 1165 0674 F969     		ldr	r1, [r7, #28]
 1166 0676 0020     		movs	r0, #0
 1167 0678 FFF7FEFF 		bl	tcp_recv_null
 1168 067c 0346     		mov	r3, r0
 1169 067e FB74     		strb	r3, [r7, #19]
 1170              	.L59:
 502:Middlewares/Third_Party/LwIP/src/core/tcp_in.c ****           if (err == ERR_ABRT) {
 1171              		.loc 1 502 14 is_stmt 1
 1172 0680 97F91330 		ldrsb	r3, [r7, #19]
 1173 0684 13F10D0F 		cmn	r3, #13
 1174 0688 53D0     		beq	.L82
 503:Middlewares/Third_Party/LwIP/src/core/tcp_in.c **** #if TCP_QUEUE_OOSEQ && LWIP_WND_SCALE
 504:Middlewares/Third_Party/LwIP/src/core/tcp_in.c ****             if (rest != NULL) {
 505:Middlewares/Third_Party/LwIP/src/core/tcp_in.c ****               pbuf_free(rest);
 506:Middlewares/Third_Party/LwIP/src/core/tcp_in.c ****             }
 507:Middlewares/Third_Party/LwIP/src/core/tcp_in.c **** #endif /* TCP_QUEUE_OOSEQ && LWIP_WND_SCALE */
 508:Middlewares/Third_Party/LwIP/src/core/tcp_in.c ****             goto aborted;
 509:Middlewares/Third_Party/LwIP/src/core/tcp_in.c ****           }
 510:Middlewares/Third_Party/LwIP/src/core/tcp_in.c **** 
 511:Middlewares/Third_Party/LwIP/src/core/tcp_in.c ****           /* If the upper layer can't receive this data, store it */
 512:Middlewares/Third_Party/LwIP/src/core/tcp_in.c ****           if (err != ERR_OK) {
 1175              		.loc 1 512 14
 1176 068a 97F91330 		ldrsb	r3, [r7, #19]
 1177 068e 002B     		cmp	r3, #0
 1178 0690 03D0     		beq	.L55
 513:Middlewares/Third_Party/LwIP/src/core/tcp_in.c **** #if TCP_QUEUE_OOSEQ && LWIP_WND_SCALE
 514:Middlewares/Third_Party/LwIP/src/core/tcp_in.c ****             if (rest != NULL) {
 515:Middlewares/Third_Party/LwIP/src/core/tcp_in.c ****               pbuf_cat(recv_data, rest);
 516:Middlewares/Third_Party/LwIP/src/core/tcp_in.c ****             }
 517:Middlewares/Third_Party/LwIP/src/core/tcp_in.c **** #endif /* TCP_QUEUE_OOSEQ && LWIP_WND_SCALE */
 518:Middlewares/Third_Party/LwIP/src/core/tcp_in.c ****             pcb->refused_data = recv_data;
 1179              		.loc 1 518 31
 1180 0692 554B     		ldr	r3, .L90+16
 1181 0694 1A68     		ldr	r2, [r3]
 1182 0696 FB69     		ldr	r3, [r7, #28]
 1183 0698 9A67     		str	r2, [r3, #120]
 1184              	.L55:
 519:Middlewares/Third_Party/LwIP/src/core/tcp_in.c ****             LWIP_DEBUGF(TCP_INPUT_DEBUG, ("tcp_input: keep incoming packet, because pcb is \"full\"
 520:Middlewares/Third_Party/LwIP/src/core/tcp_in.c **** #if TCP_QUEUE_OOSEQ && LWIP_WND_SCALE
 521:Middlewares/Third_Party/LwIP/src/core/tcp_in.c ****             break;
 522:Middlewares/Third_Party/LwIP/src/core/tcp_in.c ****           } else {
 523:Middlewares/Third_Party/LwIP/src/core/tcp_in.c ****             /* Upper layer received the data, go on with the rest if > 64K */
 524:Middlewares/Third_Party/LwIP/src/core/tcp_in.c ****             recv_data = rest;
 525:Middlewares/Third_Party/LwIP/src/core/tcp_in.c **** #endif /* TCP_QUEUE_OOSEQ && LWIP_WND_SCALE */
 526:Middlewares/Third_Party/LwIP/src/core/tcp_in.c ****           }
 527:Middlewares/Third_Party/LwIP/src/core/tcp_in.c ****         }
 528:Middlewares/Third_Party/LwIP/src/core/tcp_in.c **** 
 529:Middlewares/Third_Party/LwIP/src/core/tcp_in.c ****         /* If a FIN segment was received, we call the callback
 530:Middlewares/Third_Party/LwIP/src/core/tcp_in.c ****            function with a NULL buffer to indicate EOF. */
 531:Middlewares/Third_Party/LwIP/src/core/tcp_in.c ****         if (recv_flags & TF_GOT_FIN) {
 1185              		.loc 1 531 24
 1186 069a 504B     		ldr	r3, .L90+4
 1187 069c 1B78     		ldrb	r3, [r3]	@ zero_extendqisi2
 1188 069e 03F02003 		and	r3, r3, #32
 1189              		.loc 1 531 12
 1190 06a2 002B     		cmp	r3, #0
 1191 06a4 30D0     		beq	.L61
ARM GAS  /tmp/ccWqLOXK.s 			page 32


 532:Middlewares/Third_Party/LwIP/src/core/tcp_in.c ****           if (pcb->refused_data != NULL) {
 1192              		.loc 1 532 18
 1193 06a6 FB69     		ldr	r3, [r7, #28]
 1194 06a8 9B6F     		ldr	r3, [r3, #120]
 1195              		.loc 1 532 14
 1196 06aa 002B     		cmp	r3, #0
 1197 06ac 09D0     		beq	.L62
 533:Middlewares/Third_Party/LwIP/src/core/tcp_in.c ****             /* Delay this if we have refused data. */
 534:Middlewares/Third_Party/LwIP/src/core/tcp_in.c ****             pcb->refused_data->flags |= PBUF_FLAG_TCP_FIN;
 1198              		.loc 1 534 16
 1199 06ae FB69     		ldr	r3, [r7, #28]
 1200 06b0 9B6F     		ldr	r3, [r3, #120]
 1201              		.loc 1 534 38
 1202 06b2 5A7B     		ldrb	r2, [r3, #13]	@ zero_extendqisi2
 1203              		.loc 1 534 16
 1204 06b4 FB69     		ldr	r3, [r7, #28]
 1205 06b6 9B6F     		ldr	r3, [r3, #120]
 1206              		.loc 1 534 38
 1207 06b8 42F02002 		orr	r2, r2, #32
 1208 06bc D2B2     		uxtb	r2, r2
 1209 06be 5A73     		strb	r2, [r3, #13]
 1210 06c0 22E0     		b	.L61
 1211              	.L62:
 535:Middlewares/Third_Party/LwIP/src/core/tcp_in.c ****           } else {
 536:Middlewares/Third_Party/LwIP/src/core/tcp_in.c ****             /* correct rcv_wnd as the application won't call tcp_recved()
 537:Middlewares/Third_Party/LwIP/src/core/tcp_in.c ****                for the FIN's seqno */
 538:Middlewares/Third_Party/LwIP/src/core/tcp_in.c ****             if (pcb->rcv_wnd != TCP_WND_MAX(pcb)) {
 1212              		.loc 1 538 20
 1213 06c2 FB69     		ldr	r3, [r7, #28]
 1214 06c4 1B8D     		ldrh	r3, [r3, #40]
 1215              		.loc 1 538 16
 1216 06c6 B3F5066F 		cmp	r3, #2144
 1217 06ca 05D0     		beq	.L63
 539:Middlewares/Third_Party/LwIP/src/core/tcp_in.c ****               pcb->rcv_wnd++;
 1218              		.loc 1 539 18
 1219 06cc FB69     		ldr	r3, [r7, #28]
 1220 06ce 1B8D     		ldrh	r3, [r3, #40]
 1221              		.loc 1 539 27
 1222 06d0 0133     		adds	r3, r3, #1
 1223 06d2 9AB2     		uxth	r2, r3
 1224 06d4 FB69     		ldr	r3, [r7, #28]
 1225 06d6 1A85     		strh	r2, [r3, #40]	@ movhi
 1226              	.L63:
 540:Middlewares/Third_Party/LwIP/src/core/tcp_in.c ****             }
 541:Middlewares/Third_Party/LwIP/src/core/tcp_in.c ****             TCP_EVENT_CLOSED(pcb, err);
 1227              		.loc 1 541 13
 1228 06d8 FB69     		ldr	r3, [r7, #28]
 1229 06da D3F88430 		ldr	r3, [r3, #132]
 1230 06de 002B     		cmp	r3, #0
 1231 06e0 0BD0     		beq	.L64
 1232              		.loc 1 541 13 is_stmt 0 discriminator 1
 1233 06e2 FB69     		ldr	r3, [r7, #28]
 1234 06e4 D3F88440 		ldr	r4, [r3, #132]
 1235 06e8 FB69     		ldr	r3, [r7, #28]
 1236 06ea 1869     		ldr	r0, [r3, #16]
 1237 06ec 0023     		movs	r3, #0
 1238 06ee 0022     		movs	r2, #0
ARM GAS  /tmp/ccWqLOXK.s 			page 33


 1239 06f0 F969     		ldr	r1, [r7, #28]
 1240 06f2 A047     		blx	r4
 1241              	.LVL3:
 1242 06f4 0346     		mov	r3, r0
 1243 06f6 FB74     		strb	r3, [r7, #19]
 1244 06f8 01E0     		b	.L65
 1245              	.L64:
 1246              		.loc 1 541 13 discriminator 2
 1247 06fa 0023     		movs	r3, #0
 1248 06fc FB74     		strb	r3, [r7, #19]
 1249              	.L65:
 542:Middlewares/Third_Party/LwIP/src/core/tcp_in.c ****             if (err == ERR_ABRT) {
 1250              		.loc 1 542 16 is_stmt 1
 1251 06fe 97F91330 		ldrsb	r3, [r7, #19]
 1252 0702 13F10D0F 		cmn	r3, #13
 1253 0706 16D0     		beq	.L83
 1254              	.L61:
 543:Middlewares/Third_Party/LwIP/src/core/tcp_in.c ****               goto aborted;
 544:Middlewares/Third_Party/LwIP/src/core/tcp_in.c ****             }
 545:Middlewares/Third_Party/LwIP/src/core/tcp_in.c ****           }
 546:Middlewares/Third_Party/LwIP/src/core/tcp_in.c ****         }
 547:Middlewares/Third_Party/LwIP/src/core/tcp_in.c **** 
 548:Middlewares/Third_Party/LwIP/src/core/tcp_in.c ****         tcp_input_pcb = NULL;
 1255              		.loc 1 548 23
 1256 0708 334B     		ldr	r3, .L90
 1257 070a 0022     		movs	r2, #0
 1258 070c 1A60     		str	r2, [r3]
 549:Middlewares/Third_Party/LwIP/src/core/tcp_in.c ****         if (tcp_input_delayed_close(pcb)) {
 1259              		.loc 1 549 13
 1260 070e F869     		ldr	r0, [r7, #28]
 1261 0710 FFF7FEFF 		bl	tcp_input_delayed_close
 1262 0714 0346     		mov	r3, r0
 1263              		.loc 1 549 12
 1264 0716 002B     		cmp	r3, #0
 1265 0718 0FD1     		bne	.L84
 550:Middlewares/Third_Party/LwIP/src/core/tcp_in.c ****           goto aborted;
 551:Middlewares/Third_Party/LwIP/src/core/tcp_in.c ****         }
 552:Middlewares/Third_Party/LwIP/src/core/tcp_in.c ****         /* Try to send something out. */
 553:Middlewares/Third_Party/LwIP/src/core/tcp_in.c ****         tcp_output(pcb);
 1266              		.loc 1 553 9
 1267 071a F869     		ldr	r0, [r7, #28]
 1268 071c FFF7FEFF 		bl	tcp_output
 1269 0720 0CE0     		b	.L47
 1270              	.L78:
 434:Middlewares/Third_Party/LwIP/src/core/tcp_in.c ****       }
 1271              		.loc 1 434 9
 1272 0722 00BF     		nop
 1273 0724 0AE0     		b	.L47
 1274              	.L79:
 554:Middlewares/Third_Party/LwIP/src/core/tcp_in.c **** #if TCP_INPUT_DEBUG
 555:Middlewares/Third_Party/LwIP/src/core/tcp_in.c **** #if TCP_DEBUG
 556:Middlewares/Third_Party/LwIP/src/core/tcp_in.c ****         tcp_debug_print_state(pcb->state);
 557:Middlewares/Third_Party/LwIP/src/core/tcp_in.c **** #endif /* TCP_DEBUG */
 558:Middlewares/Third_Party/LwIP/src/core/tcp_in.c **** #endif /* TCP_INPUT_DEBUG */
 559:Middlewares/Third_Party/LwIP/src/core/tcp_in.c ****       }
 560:Middlewares/Third_Party/LwIP/src/core/tcp_in.c ****     }
 561:Middlewares/Third_Party/LwIP/src/core/tcp_in.c ****     /* Jump target if pcb has been aborted in a callback (by calling tcp_abort()).
ARM GAS  /tmp/ccWqLOXK.s 			page 34


 562:Middlewares/Third_Party/LwIP/src/core/tcp_in.c ****        Below this line, 'pcb' may not be dereferenced! */
 563:Middlewares/Third_Party/LwIP/src/core/tcp_in.c **** aborted:
 1275              		.loc 1 563 1
 1276 0726 00BF     		nop
 1277 0728 08E0     		b	.L47
 1278              	.L80:
 1279              	.LBB4:
 470:Middlewares/Third_Party/LwIP/src/core/tcp_in.c ****             }
 1280              		.loc 1 470 15
 1281 072a 00BF     		nop
 1282 072c 06E0     		b	.L47
 1283              	.L81:
 1284              	.LBE4:
 476:Middlewares/Third_Party/LwIP/src/core/tcp_in.c ****         }
 1285              		.loc 1 476 11
 1286 072e 00BF     		nop
 1287 0730 04E0     		b	.L47
 1288              	.L82:
 508:Middlewares/Third_Party/LwIP/src/core/tcp_in.c ****           }
 1289              		.loc 1 508 13
 1290 0732 00BF     		nop
 1291 0734 02E0     		b	.L47
 1292              	.L83:
 543:Middlewares/Third_Party/LwIP/src/core/tcp_in.c ****             }
 1293              		.loc 1 543 15
 1294 0736 00BF     		nop
 1295 0738 00E0     		b	.L47
 1296              	.L84:
 550:Middlewares/Third_Party/LwIP/src/core/tcp_in.c ****         }
 1297              		.loc 1 550 11
 1298 073a 00BF     		nop
 1299              	.L47:
 564:Middlewares/Third_Party/LwIP/src/core/tcp_in.c ****     tcp_input_pcb = NULL;
 1300              		.loc 1 564 19
 1301 073c 264B     		ldr	r3, .L90
 1302 073e 0022     		movs	r2, #0
 1303 0740 1A60     		str	r2, [r3]
 565:Middlewares/Third_Party/LwIP/src/core/tcp_in.c ****     recv_data = NULL;
 1304              		.loc 1 565 15
 1305 0742 294B     		ldr	r3, .L90+16
 1306 0744 0022     		movs	r2, #0
 1307 0746 1A60     		str	r2, [r3]
 566:Middlewares/Third_Party/LwIP/src/core/tcp_in.c **** 
 567:Middlewares/Third_Party/LwIP/src/core/tcp_in.c ****     /* give up our reference to inseg.p */
 568:Middlewares/Third_Party/LwIP/src/core/tcp_in.c ****     if (inseg.p != NULL) {
 1308              		.loc 1 568 14
 1309 0748 2B4B     		ldr	r3, .L90+32
 1310 074a 5B68     		ldr	r3, [r3, #4]
 1311              		.loc 1 568 8
 1312 074c 002B     		cmp	r3, #0
 1313 074e 3FD0     		beq	.L85
 569:Middlewares/Third_Party/LwIP/src/core/tcp_in.c ****       pbuf_free(inseg.p);
 1314              		.loc 1 569 7
 1315 0750 294B     		ldr	r3, .L90+32
 1316 0752 5B68     		ldr	r3, [r3, #4]
 1317 0754 1846     		mov	r0, r3
 1318 0756 FFF7FEFF 		bl	pbuf_free
ARM GAS  /tmp/ccWqLOXK.s 			page 35


 570:Middlewares/Third_Party/LwIP/src/core/tcp_in.c ****       inseg.p = NULL;
 1319              		.loc 1 570 15
 1320 075a 274B     		ldr	r3, .L90+32
 1321 075c 0022     		movs	r2, #0
 1322 075e 5A60     		str	r2, [r3, #4]
 571:Middlewares/Third_Party/LwIP/src/core/tcp_in.c ****     }
 572:Middlewares/Third_Party/LwIP/src/core/tcp_in.c ****   } else {
 573:Middlewares/Third_Party/LwIP/src/core/tcp_in.c ****     /* If no matching PCB was found, send a TCP RST (reset) to the
 574:Middlewares/Third_Party/LwIP/src/core/tcp_in.c ****        sender. */
 575:Middlewares/Third_Party/LwIP/src/core/tcp_in.c ****     LWIP_DEBUGF(TCP_RST_DEBUG, ("tcp_input: no PCB match found, resetting.\n"));
 576:Middlewares/Third_Party/LwIP/src/core/tcp_in.c ****     if (!(TCPH_FLAGS(tcphdr) & TCP_RST)) {
 577:Middlewares/Third_Party/LwIP/src/core/tcp_in.c ****       TCP_STATS_INC(tcp.proterr);
 578:Middlewares/Third_Party/LwIP/src/core/tcp_in.c ****       TCP_STATS_INC(tcp.drop);
 579:Middlewares/Third_Party/LwIP/src/core/tcp_in.c ****       tcp_rst(NULL, ackno, seqno + tcplen, ip_current_dest_addr(),
 580:Middlewares/Third_Party/LwIP/src/core/tcp_in.c ****               ip_current_src_addr(), tcphdr->dest, tcphdr->src);
 581:Middlewares/Third_Party/LwIP/src/core/tcp_in.c ****     }
 582:Middlewares/Third_Party/LwIP/src/core/tcp_in.c ****     pbuf_free(p);
 583:Middlewares/Third_Party/LwIP/src/core/tcp_in.c ****   }
 584:Middlewares/Third_Party/LwIP/src/core/tcp_in.c **** 
 585:Middlewares/Third_Party/LwIP/src/core/tcp_in.c ****   LWIP_ASSERT("tcp_input: tcp_pcbs_sane()", tcp_pcbs_sane());
 586:Middlewares/Third_Party/LwIP/src/core/tcp_in.c ****   PERF_STOP("tcp_input");
 587:Middlewares/Third_Party/LwIP/src/core/tcp_in.c ****   return;
 1323              		.loc 1 587 3
 1324 0760 36E0     		b	.L85
 1325              	.L42:
 576:Middlewares/Third_Party/LwIP/src/core/tcp_in.c ****       TCP_STATS_INC(tcp.proterr);
 1326              		.loc 1 576 11
 1327 0762 264B     		ldr	r3, .L90+36
 1328 0764 1B68     		ldr	r3, [r3]
 1329 0766 9B89     		ldrh	r3, [r3, #12]	@ unaligned
 1330 0768 9BB2     		uxth	r3, r3
 1331 076a 1846     		mov	r0, r3
 1332 076c FFF7FEFF 		bl	lwip_htons
 1333 0770 0346     		mov	r3, r0
 1334 0772 DBB2     		uxtb	r3, r3
 576:Middlewares/Third_Party/LwIP/src/core/tcp_in.c ****       TCP_STATS_INC(tcp.proterr);
 1335              		.loc 1 576 30
 1336 0774 03F00403 		and	r3, r3, #4
 576:Middlewares/Third_Party/LwIP/src/core/tcp_in.c ****       TCP_STATS_INC(tcp.proterr);
 1337              		.loc 1 576 8
 1338 0778 002B     		cmp	r3, #0
 1339 077a 18D1     		bne	.L69
 579:Middlewares/Third_Party/LwIP/src/core/tcp_in.c ****               ip_current_src_addr(), tcphdr->dest, tcphdr->src);
 1340              		.loc 1 579 7
 1341 077c 204B     		ldr	r3, .L90+40
 1342 077e 1968     		ldr	r1, [r3]
 1343 0780 204B     		ldr	r3, .L90+44
 1344 0782 1B88     		ldrh	r3, [r3]
 1345 0784 1A46     		mov	r2, r3
 1346 0786 204B     		ldr	r3, .L90+48
 1347 0788 1B68     		ldr	r3, [r3]
 1348 078a D018     		adds	r0, r2, r3
 580:Middlewares/Third_Party/LwIP/src/core/tcp_in.c ****     }
 1349              		.loc 1 580 44
 1350 078c 1B4B     		ldr	r3, .L90+36
 1351 078e 1B68     		ldr	r3, [r3]
 579:Middlewares/Third_Party/LwIP/src/core/tcp_in.c ****               ip_current_src_addr(), tcphdr->dest, tcphdr->src);
ARM GAS  /tmp/ccWqLOXK.s 			page 36


 1352              		.loc 1 579 7
 1353 0790 5B88     		ldrh	r3, [r3, #2]	@ unaligned
 1354 0792 9BB2     		uxth	r3, r3
 580:Middlewares/Third_Party/LwIP/src/core/tcp_in.c ****     }
 1355              		.loc 1 580 58
 1356 0794 194A     		ldr	r2, .L90+36
 1357 0796 1268     		ldr	r2, [r2]
 579:Middlewares/Third_Party/LwIP/src/core/tcp_in.c ****               ip_current_src_addr(), tcphdr->dest, tcphdr->src);
 1358              		.loc 1 579 7
 1359 0798 1288     		ldrh	r2, [r2]	@ unaligned
 1360 079a 92B2     		uxth	r2, r2
 1361 079c 0292     		str	r2, [sp, #8]
 1362 079e 0193     		str	r3, [sp, #4]
 1363 07a0 1A4B     		ldr	r3, .L90+52
 1364 07a2 0093     		str	r3, [sp]
 1365 07a4 1A4B     		ldr	r3, .L90+56
 1366 07a6 0246     		mov	r2, r0
 1367 07a8 0020     		movs	r0, #0
 1368 07aa FFF7FEFF 		bl	tcp_rst
 1369              	.L69:
 582:Middlewares/Third_Party/LwIP/src/core/tcp_in.c ****   }
 1370              		.loc 1 582 5
 1371 07ae 7868     		ldr	r0, [r7, #4]
 1372 07b0 FFF7FEFF 		bl	pbuf_free
 1373              		.loc 1 587 3
 1374 07b4 0CE0     		b	.L85
 1375              	.L70:
 149:Middlewares/Third_Party/LwIP/src/core/tcp_in.c ****   }
 1376              		.loc 1 149 5
 1377 07b6 00BF     		nop
 1378 07b8 06E0     		b	.L4
 1379              	.L71:
 156:Middlewares/Third_Party/LwIP/src/core/tcp_in.c ****   }
 1380              		.loc 1 156 5
 1381 07ba 00BF     		nop
 1382 07bc 04E0     		b	.L4
 1383              	.L72:
 179:Middlewares/Third_Party/LwIP/src/core/tcp_in.c ****   }
 1384              		.loc 1 179 5
 1385 07be 00BF     		nop
 1386 07c0 02E0     		b	.L4
 1387              	.L73:
 1388              	.LBB5:
 212:Middlewares/Third_Party/LwIP/src/core/tcp_in.c ****     }
 1389              		.loc 1 212 7
 1390 07c2 00BF     		nop
 1391 07c4 00E0     		b	.L4
 1392              	.L74:
 1393              	.LBE5:
 242:Middlewares/Third_Party/LwIP/src/core/tcp_in.c ****     }
 1394              		.loc 1 242 7
 1395 07c6 00BF     		nop
 1396              	.L4:
 588:Middlewares/Third_Party/LwIP/src/core/tcp_in.c **** dropped:
 589:Middlewares/Third_Party/LwIP/src/core/tcp_in.c ****   TCP_STATS_INC(tcp.drop);
 590:Middlewares/Third_Party/LwIP/src/core/tcp_in.c ****   MIB2_STATS_INC(mib2.tcpinerrs);
 591:Middlewares/Third_Party/LwIP/src/core/tcp_in.c ****   pbuf_free(p);
ARM GAS  /tmp/ccWqLOXK.s 			page 37


 1397              		.loc 1 591 3
 1398 07c8 7868     		ldr	r0, [r7, #4]
 1399 07ca FFF7FEFF 		bl	pbuf_free
 1400 07ce 00E0     		b	.L1
 1401              	.L85:
 587:Middlewares/Third_Party/LwIP/src/core/tcp_in.c **** dropped:
 1402              		.loc 1 587 3
 1403 07d0 00BF     		nop
 1404              	.L1:
 592:Middlewares/Third_Party/LwIP/src/core/tcp_in.c **** }
 1405              		.loc 1 592 1
 1406 07d2 2437     		adds	r7, r7, #36
 1407              	.LCFI3:
 1408              		.cfi_def_cfa_offset 12
 1409 07d4 BD46     		mov	sp, r7
 1410              	.LCFI4:
 1411              		.cfi_def_cfa_register 13
 1412              		@ sp needed
 1413 07d6 90BD     		pop	{r4, r7, pc}
 1414              	.L91:
 1415              		.align	2
 1416              	.L90:
 1417 07d8 00000000 		.word	tcp_input_pcb
 1418 07dc 00000000 		.word	recv_flags
 1419 07e0 00000000 		.word	tcp_active_pcbs
 1420 07e4 00000000 		.word	recv_acked
 1421 07e8 00000000 		.word	recv_data
 1422 07ec 00000000 		.word	.LC0
 1423 07f0 B0010000 		.word	.LC12
 1424 07f4 48000000 		.word	.LC2
 1425 07f8 00000000 		.word	inseg
 1426 07fc 00000000 		.word	tcphdr
 1427 0800 00000000 		.word	ackno
 1428 0804 00000000 		.word	tcplen
 1429 0808 00000000 		.word	seqno
 1430 080c 10000000 		.word	ip_data+16
 1431 0810 14000000 		.word	ip_data+20
 1432              		.cfi_endproc
 1433              	.LFE133:
 1435              		.section	.rodata
 1436 01ca 0000     		.align	2
 1437              	.LC13:
 1438 01cc 7463705F 		.ascii	"tcp_input_delayed_close: invalid pcb\000"
 1438      696E7075 
 1438      745F6465 
 1438      6C617965 
 1438      645F636C 
 1439              		.section	.text.tcp_input_delayed_close,"ax",%progbits
 1440              		.align	1
 1441              		.syntax unified
 1442              		.thumb
 1443              		.thumb_func
 1444              		.fpu fpv4-sp-d16
 1446              	tcp_input_delayed_close:
 1447              	.LFB134:
 593:Middlewares/Third_Party/LwIP/src/core/tcp_in.c **** 
 594:Middlewares/Third_Party/LwIP/src/core/tcp_in.c **** /** Called from tcp_input to check for TF_CLOSED flag. This results in closing
ARM GAS  /tmp/ccWqLOXK.s 			page 38


 595:Middlewares/Third_Party/LwIP/src/core/tcp_in.c ****  * and deallocating a pcb at the correct place to ensure noone references it
 596:Middlewares/Third_Party/LwIP/src/core/tcp_in.c ****  * any more.
 597:Middlewares/Third_Party/LwIP/src/core/tcp_in.c ****  * @returns 1 if the pcb has been closed and deallocated, 0 otherwise
 598:Middlewares/Third_Party/LwIP/src/core/tcp_in.c ****  */
 599:Middlewares/Third_Party/LwIP/src/core/tcp_in.c **** static int
 600:Middlewares/Third_Party/LwIP/src/core/tcp_in.c **** tcp_input_delayed_close(struct tcp_pcb *pcb)
 601:Middlewares/Third_Party/LwIP/src/core/tcp_in.c **** {
 1448              		.loc 1 601 1
 1449              		.cfi_startproc
 1450              		@ args = 0, pretend = 0, frame = 8
 1451              		@ frame_needed = 1, uses_anonymous_args = 0
 1452 0000 80B5     		push	{r7, lr}
 1453              	.LCFI5:
 1454              		.cfi_def_cfa_offset 8
 1455              		.cfi_offset 7, -8
 1456              		.cfi_offset 14, -4
 1457 0002 82B0     		sub	sp, sp, #8
 1458              	.LCFI6:
 1459              		.cfi_def_cfa_offset 16
 1460 0004 00AF     		add	r7, sp, #0
 1461              	.LCFI7:
 1462              		.cfi_def_cfa_register 7
 1463 0006 7860     		str	r0, [r7, #4]
 602:Middlewares/Third_Party/LwIP/src/core/tcp_in.c ****   LWIP_ASSERT("tcp_input_delayed_close: invalid pcb", pcb != NULL);
 1464              		.loc 1 602 3
 1465 0008 7B68     		ldr	r3, [r7, #4]
 1466 000a 002B     		cmp	r3, #0
 1467 000c 06D1     		bne	.L93
 1468              		.loc 1 602 3 is_stmt 0 discriminator 1
 1469 000e 174B     		ldr	r3, .L97
 1470 0010 40F25A22 		movw	r2, #602
 1471 0014 1649     		ldr	r1, .L97+4
 1472 0016 1748     		ldr	r0, .L97+8
 1473 0018 FFF7FEFF 		bl	printf
 1474              	.L93:
 603:Middlewares/Third_Party/LwIP/src/core/tcp_in.c **** 
 604:Middlewares/Third_Party/LwIP/src/core/tcp_in.c ****   if (recv_flags & TF_CLOSED) {
 1475              		.loc 1 604 18 is_stmt 1
 1476 001c 164B     		ldr	r3, .L97+12
 1477 001e 1B78     		ldrb	r3, [r3]	@ zero_extendqisi2
 1478 0020 03F01003 		and	r3, r3, #16
 1479              		.loc 1 604 6
 1480 0024 002B     		cmp	r3, #0
 1481 0026 1CD0     		beq	.L94
 605:Middlewares/Third_Party/LwIP/src/core/tcp_in.c ****     /* The connection has been closed and we will deallocate the
 606:Middlewares/Third_Party/LwIP/src/core/tcp_in.c ****         PCB. */
 607:Middlewares/Third_Party/LwIP/src/core/tcp_in.c ****     if (!(pcb->flags & TF_RXCLOSED)) {
 1482              		.loc 1 607 14
 1483 0028 7B68     		ldr	r3, [r7, #4]
 1484 002a 5B8B     		ldrh	r3, [r3, #26]
 1485              		.loc 1 607 22
 1486 002c 03F01003 		and	r3, r3, #16
 1487              		.loc 1 607 8
 1488 0030 002B     		cmp	r3, #0
 1489 0032 0DD1     		bne	.L95
 608:Middlewares/Third_Party/LwIP/src/core/tcp_in.c ****       /* Connection closed although the application has only shut down the
 609:Middlewares/Third_Party/LwIP/src/core/tcp_in.c ****           tx side: call the PCB's err callback and indicate the closure to
ARM GAS  /tmp/ccWqLOXK.s 			page 39


 610:Middlewares/Third_Party/LwIP/src/core/tcp_in.c ****           ensure the application doesn't continue using the PCB. */
 611:Middlewares/Third_Party/LwIP/src/core/tcp_in.c ****       TCP_EVENT_ERR(pcb->state, pcb->errf, pcb->callback_arg, ERR_CLSD);
 1490              		.loc 1 611 7
 1491 0034 7B68     		ldr	r3, [r7, #4]
 1492 0036 D3F89030 		ldr	r3, [r3, #144]
 1493 003a 002B     		cmp	r3, #0
 1494 003c 08D0     		beq	.L95
 1495              		.loc 1 611 7 is_stmt 0 discriminator 1
 1496 003e 7B68     		ldr	r3, [r7, #4]
 1497 0040 D3F89030 		ldr	r3, [r3, #144]
 1498 0044 7A68     		ldr	r2, [r7, #4]
 1499 0046 1269     		ldr	r2, [r2, #16]
 1500 0048 6FF00E01 		mvn	r1, #14
 1501 004c 1046     		mov	r0, r2
 1502 004e 9847     		blx	r3
 1503              	.LVL4:
 1504              	.L95:
 612:Middlewares/Third_Party/LwIP/src/core/tcp_in.c ****     }
 613:Middlewares/Third_Party/LwIP/src/core/tcp_in.c ****     tcp_pcb_remove(&tcp_active_pcbs, pcb);
 1505              		.loc 1 613 5 is_stmt 1
 1506 0050 7968     		ldr	r1, [r7, #4]
 1507 0052 0A48     		ldr	r0, .L97+16
 1508 0054 FFF7FEFF 		bl	tcp_pcb_remove
 614:Middlewares/Third_Party/LwIP/src/core/tcp_in.c ****     tcp_free(pcb);
 1509              		.loc 1 614 5
 1510 0058 7868     		ldr	r0, [r7, #4]
 1511 005a FFF7FEFF 		bl	tcp_free
 615:Middlewares/Third_Party/LwIP/src/core/tcp_in.c ****     return 1;
 1512              		.loc 1 615 12
 1513 005e 0123     		movs	r3, #1
 1514 0060 00E0     		b	.L96
 1515              	.L94:
 616:Middlewares/Third_Party/LwIP/src/core/tcp_in.c ****   }
 617:Middlewares/Third_Party/LwIP/src/core/tcp_in.c ****   return 0;
 1516              		.loc 1 617 10
 1517 0062 0023     		movs	r3, #0
 1518              	.L96:
 618:Middlewares/Third_Party/LwIP/src/core/tcp_in.c **** }
 1519              		.loc 1 618 1
 1520 0064 1846     		mov	r0, r3
 1521 0066 0837     		adds	r7, r7, #8
 1522              	.LCFI8:
 1523              		.cfi_def_cfa_offset 8
 1524 0068 BD46     		mov	sp, r7
 1525              	.LCFI9:
 1526              		.cfi_def_cfa_register 13
 1527              		@ sp needed
 1528 006a 80BD     		pop	{r7, pc}
 1529              	.L98:
 1530              		.align	2
 1531              	.L97:
 1532 006c 00000000 		.word	.LC0
 1533 0070 CC010000 		.word	.LC13
 1534 0074 48000000 		.word	.LC2
 1535 0078 00000000 		.word	recv_flags
 1536 007c 00000000 		.word	tcp_active_pcbs
 1537              		.cfi_endproc
ARM GAS  /tmp/ccWqLOXK.s 			page 40


 1538              	.LFE134:
 1540              		.section	.rodata
 1541 01f1 000000   		.align	2
 1542              	.LC14:
 1543 01f4 7463705F 		.ascii	"tcp_listen_input: invalid pcb\000"
 1543      6C697374 
 1543      656E5F69 
 1543      6E707574 
 1543      3A20696E 
 1544              		.section	.text.tcp_listen_input,"ax",%progbits
 1545              		.align	1
 1546              		.syntax unified
 1547              		.thumb
 1548              		.thumb_func
 1549              		.fpu fpv4-sp-d16
 1551              	tcp_listen_input:
 1552              	.LFB135:
 619:Middlewares/Third_Party/LwIP/src/core/tcp_in.c **** 
 620:Middlewares/Third_Party/LwIP/src/core/tcp_in.c **** /**
 621:Middlewares/Third_Party/LwIP/src/core/tcp_in.c ****  * Called by tcp_input() when a segment arrives for a listening
 622:Middlewares/Third_Party/LwIP/src/core/tcp_in.c ****  * connection (from tcp_input()).
 623:Middlewares/Third_Party/LwIP/src/core/tcp_in.c ****  *
 624:Middlewares/Third_Party/LwIP/src/core/tcp_in.c ****  * @param pcb the tcp_pcb_listen for which a segment arrived
 625:Middlewares/Third_Party/LwIP/src/core/tcp_in.c ****  *
 626:Middlewares/Third_Party/LwIP/src/core/tcp_in.c ****  * @note the segment which arrived is saved in global variables, therefore only the pcb
 627:Middlewares/Third_Party/LwIP/src/core/tcp_in.c ****  *       involved is passed as a parameter to this function
 628:Middlewares/Third_Party/LwIP/src/core/tcp_in.c ****  */
 629:Middlewares/Third_Party/LwIP/src/core/tcp_in.c **** static void
 630:Middlewares/Third_Party/LwIP/src/core/tcp_in.c **** tcp_listen_input(struct tcp_pcb_listen *pcb)
 631:Middlewares/Third_Party/LwIP/src/core/tcp_in.c **** {
 1553              		.loc 1 631 1
 1554              		.cfi_startproc
 1555              		@ args = 0, pretend = 0, frame = 24
 1556              		@ frame_needed = 1, uses_anonymous_args = 0
 1557 0000 90B5     		push	{r4, r7, lr}
 1558              	.LCFI10:
 1559              		.cfi_def_cfa_offset 12
 1560              		.cfi_offset 4, -12
 1561              		.cfi_offset 7, -8
 1562              		.cfi_offset 14, -4
 1563 0002 8BB0     		sub	sp, sp, #44
 1564              	.LCFI11:
 1565              		.cfi_def_cfa_offset 56
 1566 0004 04AF     		add	r7, sp, #16
 1567              	.LCFI12:
 1568              		.cfi_def_cfa 7, 40
 1569 0006 7860     		str	r0, [r7, #4]
 632:Middlewares/Third_Party/LwIP/src/core/tcp_in.c ****   struct tcp_pcb *npcb;
 633:Middlewares/Third_Party/LwIP/src/core/tcp_in.c ****   u32_t iss;
 634:Middlewares/Third_Party/LwIP/src/core/tcp_in.c ****   err_t rc;
 635:Middlewares/Third_Party/LwIP/src/core/tcp_in.c **** 
 636:Middlewares/Third_Party/LwIP/src/core/tcp_in.c ****   if (flags & TCP_RST) {
 1570              		.loc 1 636 13
 1571 0008 6F4B     		ldr	r3, .L111
 1572 000a 1B78     		ldrb	r3, [r3]	@ zero_extendqisi2
 1573 000c 03F00403 		and	r3, r3, #4
 1574              		.loc 1 636 6
ARM GAS  /tmp/ccWqLOXK.s 			page 41


 1575 0010 002B     		cmp	r3, #0
 1576 0012 40F0D380 		bne	.L109
 637:Middlewares/Third_Party/LwIP/src/core/tcp_in.c ****     /* An incoming RST should be ignored. Return. */
 638:Middlewares/Third_Party/LwIP/src/core/tcp_in.c ****     return;
 639:Middlewares/Third_Party/LwIP/src/core/tcp_in.c ****   }
 640:Middlewares/Third_Party/LwIP/src/core/tcp_in.c **** 
 641:Middlewares/Third_Party/LwIP/src/core/tcp_in.c ****   LWIP_ASSERT("tcp_listen_input: invalid pcb", pcb != NULL);
 1577              		.loc 1 641 3
 1578 0016 7B68     		ldr	r3, [r7, #4]
 1579 0018 002B     		cmp	r3, #0
 1580 001a 06D1     		bne	.L102
 1581              		.loc 1 641 3 is_stmt 0 discriminator 1
 1582 001c 6B4B     		ldr	r3, .L111+4
 1583 001e 40F28122 		movw	r2, #641
 1584 0022 6B49     		ldr	r1, .L111+8
 1585 0024 6B48     		ldr	r0, .L111+12
 1586 0026 FFF7FEFF 		bl	printf
 1587              	.L102:
 642:Middlewares/Third_Party/LwIP/src/core/tcp_in.c **** 
 643:Middlewares/Third_Party/LwIP/src/core/tcp_in.c ****   /* In the LISTEN state, we check for incoming SYN segments,
 644:Middlewares/Third_Party/LwIP/src/core/tcp_in.c ****      creates a new PCB, and responds with a SYN|ACK. */
 645:Middlewares/Third_Party/LwIP/src/core/tcp_in.c ****   if (flags & TCP_ACK) {
 1588              		.loc 1 645 13 is_stmt 1
 1589 002a 674B     		ldr	r3, .L111
 1590 002c 1B78     		ldrb	r3, [r3]	@ zero_extendqisi2
 1591 002e 03F01003 		and	r3, r3, #16
 1592              		.loc 1 645 6
 1593 0032 002B     		cmp	r3, #0
 1594 0034 19D0     		beq	.L103
 646:Middlewares/Third_Party/LwIP/src/core/tcp_in.c ****     /* For incoming segments with the ACK flag set, respond with a
 647:Middlewares/Third_Party/LwIP/src/core/tcp_in.c ****        RST. */
 648:Middlewares/Third_Party/LwIP/src/core/tcp_in.c ****     LWIP_DEBUGF(TCP_RST_DEBUG, ("tcp_listen_input: ACK in LISTEN, sending reset\n"));
 649:Middlewares/Third_Party/LwIP/src/core/tcp_in.c ****     tcp_rst((const struct tcp_pcb *)pcb, ackno, seqno + tcplen, ip_current_dest_addr(),
 1595              		.loc 1 649 5
 1596 0036 684B     		ldr	r3, .L111+16
 1597 0038 1968     		ldr	r1, [r3]
 1598 003a 684B     		ldr	r3, .L111+20
 1599 003c 1B88     		ldrh	r3, [r3]
 1600 003e 1A46     		mov	r2, r3
 1601 0040 674B     		ldr	r3, .L111+24
 1602 0042 1B68     		ldr	r3, [r3]
 1603 0044 D018     		adds	r0, r2, r3
 650:Middlewares/Third_Party/LwIP/src/core/tcp_in.c ****             ip_current_src_addr(), tcphdr->dest, tcphdr->src);
 1604              		.loc 1 650 42
 1605 0046 674B     		ldr	r3, .L111+28
 1606 0048 1B68     		ldr	r3, [r3]
 649:Middlewares/Third_Party/LwIP/src/core/tcp_in.c ****             ip_current_src_addr(), tcphdr->dest, tcphdr->src);
 1607              		.loc 1 649 5
 1608 004a 5B88     		ldrh	r3, [r3, #2]	@ unaligned
 1609 004c 9BB2     		uxth	r3, r3
 1610              		.loc 1 650 56
 1611 004e 654A     		ldr	r2, .L111+28
 1612 0050 1268     		ldr	r2, [r2]
 649:Middlewares/Third_Party/LwIP/src/core/tcp_in.c ****             ip_current_src_addr(), tcphdr->dest, tcphdr->src);
 1613              		.loc 1 649 5
 1614 0052 1288     		ldrh	r2, [r2]	@ unaligned
 1615 0054 92B2     		uxth	r2, r2
ARM GAS  /tmp/ccWqLOXK.s 			page 42


 1616 0056 0292     		str	r2, [sp, #8]
 1617 0058 0193     		str	r3, [sp, #4]
 1618 005a 634B     		ldr	r3, .L111+32
 1619 005c 0093     		str	r3, [sp]
 1620 005e 634B     		ldr	r3, .L111+36
 1621 0060 0246     		mov	r2, r0
 1622 0062 7868     		ldr	r0, [r7, #4]
 1623 0064 FFF7FEFF 		bl	tcp_rst
 651:Middlewares/Third_Party/LwIP/src/core/tcp_in.c ****   } else if (flags & TCP_SYN) {
 652:Middlewares/Third_Party/LwIP/src/core/tcp_in.c ****     LWIP_DEBUGF(TCP_DEBUG, ("TCP connection request %"U16_F" -> %"U16_F".\n", tcphdr->src, tcphdr->
 653:Middlewares/Third_Party/LwIP/src/core/tcp_in.c **** #if TCP_LISTEN_BACKLOG
 654:Middlewares/Third_Party/LwIP/src/core/tcp_in.c ****     if (pcb->accepts_pending >= pcb->backlog) {
 655:Middlewares/Third_Party/LwIP/src/core/tcp_in.c ****       LWIP_DEBUGF(TCP_DEBUG, ("tcp_listen_input: listen backlog exceeded for port %"U16_F"\n", tcph
 656:Middlewares/Third_Party/LwIP/src/core/tcp_in.c ****       return;
 657:Middlewares/Third_Party/LwIP/src/core/tcp_in.c ****     }
 658:Middlewares/Third_Party/LwIP/src/core/tcp_in.c **** #endif /* TCP_LISTEN_BACKLOG */
 659:Middlewares/Third_Party/LwIP/src/core/tcp_in.c ****     npcb = tcp_alloc(pcb->prio);
 660:Middlewares/Third_Party/LwIP/src/core/tcp_in.c ****     /* If a new PCB could not be created (probably due to lack of memory),
 661:Middlewares/Third_Party/LwIP/src/core/tcp_in.c ****        we don't do anything, but rely on the sender will retransmit the
 662:Middlewares/Third_Party/LwIP/src/core/tcp_in.c ****        SYN at a time when we have more memory available. */
 663:Middlewares/Third_Party/LwIP/src/core/tcp_in.c ****     if (npcb == NULL) {
 664:Middlewares/Third_Party/LwIP/src/core/tcp_in.c ****       err_t err;
 665:Middlewares/Third_Party/LwIP/src/core/tcp_in.c ****       LWIP_DEBUGF(TCP_DEBUG, ("tcp_listen_input: could not allocate PCB\n"));
 666:Middlewares/Third_Party/LwIP/src/core/tcp_in.c ****       TCP_STATS_INC(tcp.memerr);
 667:Middlewares/Third_Party/LwIP/src/core/tcp_in.c ****       TCP_EVENT_ACCEPT(pcb, NULL, pcb->callback_arg, ERR_MEM, err);
 668:Middlewares/Third_Party/LwIP/src/core/tcp_in.c ****       LWIP_UNUSED_ARG(err); /* err not useful here */
 669:Middlewares/Third_Party/LwIP/src/core/tcp_in.c ****       return;
 670:Middlewares/Third_Party/LwIP/src/core/tcp_in.c ****     }
 671:Middlewares/Third_Party/LwIP/src/core/tcp_in.c **** #if TCP_LISTEN_BACKLOG
 672:Middlewares/Third_Party/LwIP/src/core/tcp_in.c ****     pcb->accepts_pending++;
 673:Middlewares/Third_Party/LwIP/src/core/tcp_in.c ****     tcp_set_flags(npcb, TF_BACKLOGPEND);
 674:Middlewares/Third_Party/LwIP/src/core/tcp_in.c **** #endif /* TCP_LISTEN_BACKLOG */
 675:Middlewares/Third_Party/LwIP/src/core/tcp_in.c ****     /* Set up the new PCB. */
 676:Middlewares/Third_Party/LwIP/src/core/tcp_in.c ****     ip_addr_copy(npcb->local_ip, *ip_current_dest_addr());
 677:Middlewares/Third_Party/LwIP/src/core/tcp_in.c ****     ip_addr_copy(npcb->remote_ip, *ip_current_src_addr());
 678:Middlewares/Third_Party/LwIP/src/core/tcp_in.c ****     npcb->local_port = pcb->local_port;
 679:Middlewares/Third_Party/LwIP/src/core/tcp_in.c ****     npcb->remote_port = tcphdr->src;
 680:Middlewares/Third_Party/LwIP/src/core/tcp_in.c ****     npcb->state = SYN_RCVD;
 681:Middlewares/Third_Party/LwIP/src/core/tcp_in.c ****     npcb->rcv_nxt = seqno + 1;
 682:Middlewares/Third_Party/LwIP/src/core/tcp_in.c ****     npcb->rcv_ann_right_edge = npcb->rcv_nxt;
 683:Middlewares/Third_Party/LwIP/src/core/tcp_in.c ****     iss = tcp_next_iss(npcb);
 684:Middlewares/Third_Party/LwIP/src/core/tcp_in.c ****     npcb->snd_wl2 = iss;
 685:Middlewares/Third_Party/LwIP/src/core/tcp_in.c ****     npcb->snd_nxt = iss;
 686:Middlewares/Third_Party/LwIP/src/core/tcp_in.c ****     npcb->lastack = iss;
 687:Middlewares/Third_Party/LwIP/src/core/tcp_in.c ****     npcb->snd_lbb = iss;
 688:Middlewares/Third_Party/LwIP/src/core/tcp_in.c ****     npcb->snd_wl1 = seqno - 1;/* initialise to seqno-1 to force window update */
 689:Middlewares/Third_Party/LwIP/src/core/tcp_in.c ****     npcb->callback_arg = pcb->callback_arg;
 690:Middlewares/Third_Party/LwIP/src/core/tcp_in.c **** #if LWIP_CALLBACK_API || TCP_LISTEN_BACKLOG
 691:Middlewares/Third_Party/LwIP/src/core/tcp_in.c ****     npcb->listener = pcb;
 692:Middlewares/Third_Party/LwIP/src/core/tcp_in.c **** #endif /* LWIP_CALLBACK_API || TCP_LISTEN_BACKLOG */
 693:Middlewares/Third_Party/LwIP/src/core/tcp_in.c ****     /* inherit socket options */
 694:Middlewares/Third_Party/LwIP/src/core/tcp_in.c ****     npcb->so_options = pcb->so_options & SOF_INHERITED;
 695:Middlewares/Third_Party/LwIP/src/core/tcp_in.c ****     npcb->netif_idx = pcb->netif_idx;
 696:Middlewares/Third_Party/LwIP/src/core/tcp_in.c ****     /* Register the new PCB so that we can begin receiving segments
 697:Middlewares/Third_Party/LwIP/src/core/tcp_in.c ****        for it. */
 698:Middlewares/Third_Party/LwIP/src/core/tcp_in.c ****     TCP_REG_ACTIVE(npcb);
 699:Middlewares/Third_Party/LwIP/src/core/tcp_in.c **** 
ARM GAS  /tmp/ccWqLOXK.s 			page 43


 700:Middlewares/Third_Party/LwIP/src/core/tcp_in.c ****     /* Parse any options in the SYN. */
 701:Middlewares/Third_Party/LwIP/src/core/tcp_in.c ****     tcp_parseopt(npcb);
 702:Middlewares/Third_Party/LwIP/src/core/tcp_in.c ****     npcb->snd_wnd = tcphdr->wnd;
 703:Middlewares/Third_Party/LwIP/src/core/tcp_in.c ****     npcb->snd_wnd_max = npcb->snd_wnd;
 704:Middlewares/Third_Party/LwIP/src/core/tcp_in.c **** 
 705:Middlewares/Third_Party/LwIP/src/core/tcp_in.c **** #if TCP_CALCULATE_EFF_SEND_MSS
 706:Middlewares/Third_Party/LwIP/src/core/tcp_in.c ****     npcb->mss = tcp_eff_send_mss(npcb->mss, &npcb->local_ip, &npcb->remote_ip);
 707:Middlewares/Third_Party/LwIP/src/core/tcp_in.c **** #endif /* TCP_CALCULATE_EFF_SEND_MSS */
 708:Middlewares/Third_Party/LwIP/src/core/tcp_in.c **** 
 709:Middlewares/Third_Party/LwIP/src/core/tcp_in.c ****     MIB2_STATS_INC(mib2.tcppassiveopens);
 710:Middlewares/Third_Party/LwIP/src/core/tcp_in.c **** 
 711:Middlewares/Third_Party/LwIP/src/core/tcp_in.c **** #if LWIP_TCP_PCB_NUM_EXT_ARGS
 712:Middlewares/Third_Party/LwIP/src/core/tcp_in.c ****     if (tcp_ext_arg_invoke_callbacks_passive_open(pcb, npcb) != ERR_OK) {
 713:Middlewares/Third_Party/LwIP/src/core/tcp_in.c ****       tcp_abandon(npcb, 0);
 714:Middlewares/Third_Party/LwIP/src/core/tcp_in.c ****       return;
 715:Middlewares/Third_Party/LwIP/src/core/tcp_in.c ****     }
 716:Middlewares/Third_Party/LwIP/src/core/tcp_in.c **** #endif
 717:Middlewares/Third_Party/LwIP/src/core/tcp_in.c **** 
 718:Middlewares/Third_Party/LwIP/src/core/tcp_in.c ****     /* Send a SYN|ACK together with the MSS option. */
 719:Middlewares/Third_Party/LwIP/src/core/tcp_in.c ****     rc = tcp_enqueue_flags(npcb, TCP_SYN | TCP_ACK);
 720:Middlewares/Third_Party/LwIP/src/core/tcp_in.c ****     if (rc != ERR_OK) {
 721:Middlewares/Third_Party/LwIP/src/core/tcp_in.c ****       tcp_abandon(npcb, 0);
 722:Middlewares/Third_Party/LwIP/src/core/tcp_in.c ****       return;
 723:Middlewares/Third_Party/LwIP/src/core/tcp_in.c ****     }
 724:Middlewares/Third_Party/LwIP/src/core/tcp_in.c ****     tcp_output(npcb);
 725:Middlewares/Third_Party/LwIP/src/core/tcp_in.c ****   }
 726:Middlewares/Third_Party/LwIP/src/core/tcp_in.c ****   return;
 1624              		.loc 1 726 3
 1625 0068 AAE0     		b	.L110
 1626              	.L103:
 651:Middlewares/Third_Party/LwIP/src/core/tcp_in.c ****   } else if (flags & TCP_SYN) {
 1627              		.loc 1 651 20
 1628 006a 574B     		ldr	r3, .L111
 1629 006c 1B78     		ldrb	r3, [r3]	@ zero_extendqisi2
 1630 006e 03F00203 		and	r3, r3, #2
 651:Middlewares/Third_Party/LwIP/src/core/tcp_in.c ****   } else if (flags & TCP_SYN) {
 1631              		.loc 1 651 13
 1632 0072 002B     		cmp	r3, #0
 1633 0074 00F0A480 		beq	.L110
 659:Middlewares/Third_Party/LwIP/src/core/tcp_in.c ****     /* If a new PCB could not be created (probably due to lack of memory),
 1634              		.loc 1 659 12
 1635 0078 7B68     		ldr	r3, [r7, #4]
 1636 007a 5B7D     		ldrb	r3, [r3, #21]	@ zero_extendqisi2
 1637 007c 1846     		mov	r0, r3
 1638 007e FFF7FEFF 		bl	tcp_alloc
 1639 0082 7861     		str	r0, [r7, #20]
 663:Middlewares/Third_Party/LwIP/src/core/tcp_in.c ****       err_t err;
 1640              		.loc 1 663 8
 1641 0084 7B69     		ldr	r3, [r7, #20]
 1642 0086 002B     		cmp	r3, #0
 1643 0088 11D1     		bne	.L105
 1644              	.LBB6:
 667:Middlewares/Third_Party/LwIP/src/core/tcp_in.c ****       LWIP_UNUSED_ARG(err); /* err not useful here */
 1645              		.loc 1 667 7
 1646 008a 7B68     		ldr	r3, [r7, #4]
 1647 008c 9B69     		ldr	r3, [r3, #24]
 1648 008e 002B     		cmp	r3, #0
ARM GAS  /tmp/ccWqLOXK.s 			page 44


 1649 0090 0AD0     		beq	.L106
 667:Middlewares/Third_Party/LwIP/src/core/tcp_in.c ****       LWIP_UNUSED_ARG(err); /* err not useful here */
 1650              		.loc 1 667 7 is_stmt 0 discriminator 1
 1651 0092 7B68     		ldr	r3, [r7, #4]
 1652 0094 9B69     		ldr	r3, [r3, #24]
 1653 0096 7A68     		ldr	r2, [r7, #4]
 1654 0098 1069     		ldr	r0, [r2, #16]
 1655 009a 4FF0FF32 		mov	r2, #-1
 1656 009e 0021     		movs	r1, #0
 1657 00a0 9847     		blx	r3
 1658              	.LVL5:
 1659 00a2 0346     		mov	r3, r0
 1660 00a4 FB74     		strb	r3, [r7, #19]
 669:Middlewares/Third_Party/LwIP/src/core/tcp_in.c ****     }
 1661              		.loc 1 669 7 is_stmt 1 discriminator 1
 1662 00a6 8CE0     		b	.L99
 1663              	.L106:
 667:Middlewares/Third_Party/LwIP/src/core/tcp_in.c ****       LWIP_UNUSED_ARG(err); /* err not useful here */
 1664              		.loc 1 667 7 discriminator 2
 1665 00a8 F023     		movs	r3, #240
 1666 00aa FB74     		strb	r3, [r7, #19]
 669:Middlewares/Third_Party/LwIP/src/core/tcp_in.c ****     }
 1667              		.loc 1 669 7 discriminator 2
 1668 00ac 89E0     		b	.L99
 1669              	.L105:
 1670              	.LBE6:
 676:Middlewares/Third_Party/LwIP/src/core/tcp_in.c ****     ip_addr_copy(npcb->remote_ip, *ip_current_src_addr());
 1671              		.loc 1 676 5
 1672 00ae 504B     		ldr	r3, .L111+40
 1673 00b0 5A69     		ldr	r2, [r3, #20]
 1674 00b2 7B69     		ldr	r3, [r7, #20]
 1675 00b4 1A60     		str	r2, [r3]
 677:Middlewares/Third_Party/LwIP/src/core/tcp_in.c ****     npcb->local_port = pcb->local_port;
 1676              		.loc 1 677 5
 1677 00b6 4E4B     		ldr	r3, .L111+40
 1678 00b8 1A69     		ldr	r2, [r3, #16]
 1679 00ba 7B69     		ldr	r3, [r7, #20]
 1680 00bc 5A60     		str	r2, [r3, #4]
 678:Middlewares/Third_Party/LwIP/src/core/tcp_in.c ****     npcb->remote_port = tcphdr->src;
 1681              		.loc 1 678 27
 1682 00be 7B68     		ldr	r3, [r7, #4]
 1683 00c0 DA8A     		ldrh	r2, [r3, #22]
 678:Middlewares/Third_Party/LwIP/src/core/tcp_in.c ****     npcb->remote_port = tcphdr->src;
 1684              		.loc 1 678 22
 1685 00c2 7B69     		ldr	r3, [r7, #20]
 1686 00c4 DA82     		strh	r2, [r3, #22]	@ movhi
 679:Middlewares/Third_Party/LwIP/src/core/tcp_in.c ****     npcb->state = SYN_RCVD;
 1687              		.loc 1 679 31
 1688 00c6 474B     		ldr	r3, .L111+28
 1689 00c8 1B68     		ldr	r3, [r3]
 1690 00ca 1B88     		ldrh	r3, [r3]	@ unaligned
 1691 00cc 9AB2     		uxth	r2, r3
 679:Middlewares/Third_Party/LwIP/src/core/tcp_in.c ****     npcb->state = SYN_RCVD;
 1692              		.loc 1 679 23
 1693 00ce 7B69     		ldr	r3, [r7, #20]
 1694 00d0 1A83     		strh	r2, [r3, #24]	@ movhi
 680:Middlewares/Third_Party/LwIP/src/core/tcp_in.c ****     npcb->rcv_nxt = seqno + 1;
ARM GAS  /tmp/ccWqLOXK.s 			page 45


 1695              		.loc 1 680 17
 1696 00d2 7B69     		ldr	r3, [r7, #20]
 1697 00d4 0322     		movs	r2, #3
 1698 00d6 1A75     		strb	r2, [r3, #20]
 681:Middlewares/Third_Party/LwIP/src/core/tcp_in.c ****     npcb->rcv_ann_right_edge = npcb->rcv_nxt;
 1699              		.loc 1 681 27
 1700 00d8 414B     		ldr	r3, .L111+24
 1701 00da 1B68     		ldr	r3, [r3]
 1702 00dc 5A1C     		adds	r2, r3, #1
 681:Middlewares/Third_Party/LwIP/src/core/tcp_in.c ****     npcb->rcv_ann_right_edge = npcb->rcv_nxt;
 1703              		.loc 1 681 19
 1704 00de 7B69     		ldr	r3, [r7, #20]
 1705 00e0 5A62     		str	r2, [r3, #36]
 682:Middlewares/Third_Party/LwIP/src/core/tcp_in.c ****     iss = tcp_next_iss(npcb);
 1706              		.loc 1 682 36
 1707 00e2 7B69     		ldr	r3, [r7, #20]
 1708 00e4 5A6A     		ldr	r2, [r3, #36]
 682:Middlewares/Third_Party/LwIP/src/core/tcp_in.c ****     iss = tcp_next_iss(npcb);
 1709              		.loc 1 682 30
 1710 00e6 7B69     		ldr	r3, [r7, #20]
 1711 00e8 DA62     		str	r2, [r3, #44]
 683:Middlewares/Third_Party/LwIP/src/core/tcp_in.c ****     npcb->snd_wl2 = iss;
 1712              		.loc 1 683 11
 1713 00ea 7869     		ldr	r0, [r7, #20]
 1714 00ec FFF7FEFF 		bl	tcp_next_iss
 1715 00f0 F860     		str	r0, [r7, #12]
 684:Middlewares/Third_Party/LwIP/src/core/tcp_in.c ****     npcb->snd_nxt = iss;
 1716              		.loc 1 684 19
 1717 00f2 7B69     		ldr	r3, [r7, #20]
 1718 00f4 FA68     		ldr	r2, [r7, #12]
 1719 00f6 9A65     		str	r2, [r3, #88]
 685:Middlewares/Third_Party/LwIP/src/core/tcp_in.c ****     npcb->lastack = iss;
 1720              		.loc 1 685 19
 1721 00f8 7B69     		ldr	r3, [r7, #20]
 1722 00fa FA68     		ldr	r2, [r7, #12]
 1723 00fc 1A65     		str	r2, [r3, #80]
 686:Middlewares/Third_Party/LwIP/src/core/tcp_in.c ****     npcb->snd_lbb = iss;
 1724              		.loc 1 686 19
 1725 00fe 7B69     		ldr	r3, [r7, #20]
 1726 0100 FA68     		ldr	r2, [r7, #12]
 1727 0102 5A64     		str	r2, [r3, #68]
 687:Middlewares/Third_Party/LwIP/src/core/tcp_in.c ****     npcb->snd_wl1 = seqno - 1;/* initialise to seqno-1 to force window update */
 1728              		.loc 1 687 19
 1729 0104 7B69     		ldr	r3, [r7, #20]
 1730 0106 FA68     		ldr	r2, [r7, #12]
 1731 0108 DA65     		str	r2, [r3, #92]
 688:Middlewares/Third_Party/LwIP/src/core/tcp_in.c ****     npcb->callback_arg = pcb->callback_arg;
 1732              		.loc 1 688 27
 1733 010a 354B     		ldr	r3, .L111+24
 1734 010c 1B68     		ldr	r3, [r3]
 1735 010e 5A1E     		subs	r2, r3, #1
 688:Middlewares/Third_Party/LwIP/src/core/tcp_in.c ****     npcb->callback_arg = pcb->callback_arg;
 1736              		.loc 1 688 19
 1737 0110 7B69     		ldr	r3, [r7, #20]
 1738 0112 5A65     		str	r2, [r3, #84]
 689:Middlewares/Third_Party/LwIP/src/core/tcp_in.c **** #if LWIP_CALLBACK_API || TCP_LISTEN_BACKLOG
 1739              		.loc 1 689 29
ARM GAS  /tmp/ccWqLOXK.s 			page 46


 1740 0114 7B68     		ldr	r3, [r7, #4]
 1741 0116 1A69     		ldr	r2, [r3, #16]
 689:Middlewares/Third_Party/LwIP/src/core/tcp_in.c **** #if LWIP_CALLBACK_API || TCP_LISTEN_BACKLOG
 1742              		.loc 1 689 24
 1743 0118 7B69     		ldr	r3, [r7, #20]
 1744 011a 1A61     		str	r2, [r3, #16]
 691:Middlewares/Third_Party/LwIP/src/core/tcp_in.c **** #endif /* LWIP_CALLBACK_API || TCP_LISTEN_BACKLOG */
 1745              		.loc 1 691 20
 1746 011c 7B69     		ldr	r3, [r7, #20]
 1747 011e 7A68     		ldr	r2, [r7, #4]
 1748 0120 DA67     		str	r2, [r3, #124]
 694:Middlewares/Third_Party/LwIP/src/core/tcp_in.c ****     npcb->netif_idx = pcb->netif_idx;
 1749              		.loc 1 694 27
 1750 0122 7B68     		ldr	r3, [r7, #4]
 1751 0124 5B7A     		ldrb	r3, [r3, #9]	@ zero_extendqisi2
 694:Middlewares/Third_Party/LwIP/src/core/tcp_in.c ****     npcb->netif_idx = pcb->netif_idx;
 1752              		.loc 1 694 40
 1753 0126 03F00C03 		and	r3, r3, #12
 1754 012a DAB2     		uxtb	r2, r3
 694:Middlewares/Third_Party/LwIP/src/core/tcp_in.c ****     npcb->netif_idx = pcb->netif_idx;
 1755              		.loc 1 694 22
 1756 012c 7B69     		ldr	r3, [r7, #20]
 1757 012e 5A72     		strb	r2, [r3, #9]
 695:Middlewares/Third_Party/LwIP/src/core/tcp_in.c ****     /* Register the new PCB so that we can begin receiving segments
 1758              		.loc 1 695 26
 1759 0130 7B68     		ldr	r3, [r7, #4]
 1760 0132 1A7A     		ldrb	r2, [r3, #8]	@ zero_extendqisi2
 695:Middlewares/Third_Party/LwIP/src/core/tcp_in.c ****     /* Register the new PCB so that we can begin receiving segments
 1761              		.loc 1 695 21
 1762 0134 7B69     		ldr	r3, [r7, #20]
 1763 0136 1A72     		strb	r2, [r3, #8]
 698:Middlewares/Third_Party/LwIP/src/core/tcp_in.c **** 
 1764              		.loc 1 698 5
 1765 0138 2E4B     		ldr	r3, .L111+44
 1766 013a 1A68     		ldr	r2, [r3]
 1767 013c 7B69     		ldr	r3, [r7, #20]
 1768 013e DA60     		str	r2, [r3, #12]
 1769 0140 2C4A     		ldr	r2, .L111+44
 1770 0142 7B69     		ldr	r3, [r7, #20]
 1771 0144 1360     		str	r3, [r2]
 1772 0146 FFF7FEFF 		bl	tcp_timer_needed
 1773 014a 2B4B     		ldr	r3, .L111+48
 1774 014c 0122     		movs	r2, #1
 1775 014e 1A70     		strb	r2, [r3]
 701:Middlewares/Third_Party/LwIP/src/core/tcp_in.c ****     npcb->snd_wnd = tcphdr->wnd;
 1776              		.loc 1 701 5
 1777 0150 7869     		ldr	r0, [r7, #20]
 1778 0152 FFF7FEFF 		bl	tcp_parseopt
 702:Middlewares/Third_Party/LwIP/src/core/tcp_in.c ****     npcb->snd_wnd_max = npcb->snd_wnd;
 1779              		.loc 1 702 27
 1780 0156 234B     		ldr	r3, .L111+28
 1781 0158 1B68     		ldr	r3, [r3]
 1782 015a DB89     		ldrh	r3, [r3, #14]	@ unaligned
 1783 015c 9AB2     		uxth	r2, r3
 702:Middlewares/Third_Party/LwIP/src/core/tcp_in.c ****     npcb->snd_wnd_max = npcb->snd_wnd;
 1784              		.loc 1 702 19
 1785 015e 7B69     		ldr	r3, [r7, #20]
ARM GAS  /tmp/ccWqLOXK.s 			page 47


 1786 0160 A3F86020 		strh	r2, [r3, #96]	@ movhi
 703:Middlewares/Third_Party/LwIP/src/core/tcp_in.c **** 
 1787              		.loc 1 703 29
 1788 0164 7B69     		ldr	r3, [r7, #20]
 1789 0166 B3F86020 		ldrh	r2, [r3, #96]
 703:Middlewares/Third_Party/LwIP/src/core/tcp_in.c **** 
 1790              		.loc 1 703 23
 1791 016a 7B69     		ldr	r3, [r7, #20]
 1792 016c A3F86220 		strh	r2, [r3, #98]	@ movhi
 706:Middlewares/Third_Party/LwIP/src/core/tcp_in.c **** #endif /* TCP_CALCULATE_EFF_SEND_MSS */
 1793              		.loc 1 706 17
 1794 0170 7B69     		ldr	r3, [r7, #20]
 1795 0172 5C8E     		ldrh	r4, [r3, #50]
 1796 0174 7B69     		ldr	r3, [r7, #20]
 1797 0176 0433     		adds	r3, r3, #4
 1798 0178 1846     		mov	r0, r3
 1799 017a FFF7FEFF 		bl	ip4_route
 1800 017e 0146     		mov	r1, r0
 1801 0180 7B69     		ldr	r3, [r7, #20]
 1802 0182 0433     		adds	r3, r3, #4
 1803 0184 1A46     		mov	r2, r3
 1804 0186 2046     		mov	r0, r4
 1805 0188 FFF7FEFF 		bl	tcp_eff_send_mss_netif
 1806 018c 0346     		mov	r3, r0
 1807 018e 1A46     		mov	r2, r3
 706:Middlewares/Third_Party/LwIP/src/core/tcp_in.c **** #endif /* TCP_CALCULATE_EFF_SEND_MSS */
 1808              		.loc 1 706 15
 1809 0190 7B69     		ldr	r3, [r7, #20]
 1810 0192 5A86     		strh	r2, [r3, #50]	@ movhi
 719:Middlewares/Third_Party/LwIP/src/core/tcp_in.c ****     if (rc != ERR_OK) {
 1811              		.loc 1 719 10
 1812 0194 1221     		movs	r1, #18
 1813 0196 7869     		ldr	r0, [r7, #20]
 1814 0198 FFF7FEFF 		bl	tcp_enqueue_flags
 1815 019c 0346     		mov	r3, r0
 1816 019e FB72     		strb	r3, [r7, #11]
 720:Middlewares/Third_Party/LwIP/src/core/tcp_in.c ****       tcp_abandon(npcb, 0);
 1817              		.loc 1 720 8
 1818 01a0 97F90B30 		ldrsb	r3, [r7, #11]
 1819 01a4 002B     		cmp	r3, #0
 1820 01a6 04D0     		beq	.L108
 721:Middlewares/Third_Party/LwIP/src/core/tcp_in.c ****       return;
 1821              		.loc 1 721 7
 1822 01a8 0021     		movs	r1, #0
 1823 01aa 7869     		ldr	r0, [r7, #20]
 1824 01ac FFF7FEFF 		bl	tcp_abandon
 722:Middlewares/Third_Party/LwIP/src/core/tcp_in.c ****     }
 1825              		.loc 1 722 7
 1826 01b0 07E0     		b	.L99
 1827              	.L108:
 724:Middlewares/Third_Party/LwIP/src/core/tcp_in.c ****   }
 1828              		.loc 1 724 5
 1829 01b2 7869     		ldr	r0, [r7, #20]
 1830 01b4 FFF7FEFF 		bl	tcp_output
 1831              		.loc 1 726 3
 1832 01b8 00BF     		nop
 1833 01ba 01E0     		b	.L110
ARM GAS  /tmp/ccWqLOXK.s 			page 48


 1834              	.L109:
 638:Middlewares/Third_Party/LwIP/src/core/tcp_in.c ****   }
 1835              		.loc 1 638 5
 1836 01bc 00BF     		nop
 1837 01be 00E0     		b	.L99
 1838              	.L110:
 1839              		.loc 1 726 3
 1840 01c0 00BF     		nop
 1841              	.L99:
 727:Middlewares/Third_Party/LwIP/src/core/tcp_in.c **** }
 1842              		.loc 1 727 1
 1843 01c2 1C37     		adds	r7, r7, #28
 1844              	.LCFI13:
 1845              		.cfi_def_cfa_offset 12
 1846 01c4 BD46     		mov	sp, r7
 1847              	.LCFI14:
 1848              		.cfi_def_cfa_register 13
 1849              		@ sp needed
 1850 01c6 90BD     		pop	{r4, r7, pc}
 1851              	.L112:
 1852              		.align	2
 1853              	.L111:
 1854 01c8 00000000 		.word	flags
 1855 01cc 00000000 		.word	.LC0
 1856 01d0 F4010000 		.word	.LC14
 1857 01d4 48000000 		.word	.LC2
 1858 01d8 00000000 		.word	ackno
 1859 01dc 00000000 		.word	tcplen
 1860 01e0 00000000 		.word	seqno
 1861 01e4 00000000 		.word	tcphdr
 1862 01e8 10000000 		.word	ip_data+16
 1863 01ec 14000000 		.word	ip_data+20
 1864 01f0 00000000 		.word	ip_data
 1865 01f4 00000000 		.word	tcp_active_pcbs
 1866 01f8 00000000 		.word	tcp_active_pcbs_changed
 1867              		.cfi_endproc
 1868              	.LFE135:
 1870              		.section	.rodata
 1871 0212 0000     		.align	2
 1872              	.LC15:
 1873 0214 7463705F 		.ascii	"tcp_timewait_input: invalid pcb\000"
 1873      74696D65 
 1873      77616974 
 1873      5F696E70 
 1873      75743A20 
 1874              		.section	.text.tcp_timewait_input,"ax",%progbits
 1875              		.align	1
 1876              		.syntax unified
 1877              		.thumb
 1878              		.thumb_func
 1879              		.fpu fpv4-sp-d16
 1881              	tcp_timewait_input:
 1882              	.LFB136:
 728:Middlewares/Third_Party/LwIP/src/core/tcp_in.c **** 
 729:Middlewares/Third_Party/LwIP/src/core/tcp_in.c **** /**
 730:Middlewares/Third_Party/LwIP/src/core/tcp_in.c ****  * Called by tcp_input() when a segment arrives for a connection in
 731:Middlewares/Third_Party/LwIP/src/core/tcp_in.c ****  * TIME_WAIT.
ARM GAS  /tmp/ccWqLOXK.s 			page 49


 732:Middlewares/Third_Party/LwIP/src/core/tcp_in.c ****  *
 733:Middlewares/Third_Party/LwIP/src/core/tcp_in.c ****  * @param pcb the tcp_pcb for which a segment arrived
 734:Middlewares/Third_Party/LwIP/src/core/tcp_in.c ****  *
 735:Middlewares/Third_Party/LwIP/src/core/tcp_in.c ****  * @note the segment which arrived is saved in global variables, therefore only the pcb
 736:Middlewares/Third_Party/LwIP/src/core/tcp_in.c ****  *       involved is passed as a parameter to this function
 737:Middlewares/Third_Party/LwIP/src/core/tcp_in.c ****  */
 738:Middlewares/Third_Party/LwIP/src/core/tcp_in.c **** static void
 739:Middlewares/Third_Party/LwIP/src/core/tcp_in.c **** tcp_timewait_input(struct tcp_pcb *pcb)
 740:Middlewares/Third_Party/LwIP/src/core/tcp_in.c **** {
 1883              		.loc 1 740 1
 1884              		.cfi_startproc
 1885              		@ args = 0, pretend = 0, frame = 8
 1886              		@ frame_needed = 1, uses_anonymous_args = 0
 1887 0000 80B5     		push	{r7, lr}
 1888              	.LCFI15:
 1889              		.cfi_def_cfa_offset 8
 1890              		.cfi_offset 7, -8
 1891              		.cfi_offset 14, -4
 1892 0002 86B0     		sub	sp, sp, #24
 1893              	.LCFI16:
 1894              		.cfi_def_cfa_offset 32
 1895 0004 04AF     		add	r7, sp, #16
 1896              	.LCFI17:
 1897              		.cfi_def_cfa 7, 16
 1898 0006 7860     		str	r0, [r7, #4]
 741:Middlewares/Third_Party/LwIP/src/core/tcp_in.c ****   /* RFC 1337: in TIME_WAIT, ignore RST and ACK FINs + any 'acceptable' segments */
 742:Middlewares/Third_Party/LwIP/src/core/tcp_in.c ****   /* RFC 793 3.9 Event Processing - Segment Arrives:
 743:Middlewares/Third_Party/LwIP/src/core/tcp_in.c ****    * - first check sequence number - we skip that one in TIME_WAIT (always
 744:Middlewares/Third_Party/LwIP/src/core/tcp_in.c ****    *   acceptable since we only send ACKs)
 745:Middlewares/Third_Party/LwIP/src/core/tcp_in.c ****    * - second check the RST bit (... return) */
 746:Middlewares/Third_Party/LwIP/src/core/tcp_in.c ****   if (flags & TCP_RST) {
 1899              		.loc 1 746 13
 1900 0008 304B     		ldr	r3, .L122
 1901 000a 1B78     		ldrb	r3, [r3]	@ zero_extendqisi2
 1902 000c 03F00403 		and	r3, r3, #4
 1903              		.loc 1 746 6
 1904 0010 002B     		cmp	r3, #0
 1905 0012 54D1     		bne	.L120
 747:Middlewares/Third_Party/LwIP/src/core/tcp_in.c ****     return;
 748:Middlewares/Third_Party/LwIP/src/core/tcp_in.c ****   }
 749:Middlewares/Third_Party/LwIP/src/core/tcp_in.c **** 
 750:Middlewares/Third_Party/LwIP/src/core/tcp_in.c ****   LWIP_ASSERT("tcp_timewait_input: invalid pcb", pcb != NULL);
 1906              		.loc 1 750 3
 1907 0014 7B68     		ldr	r3, [r7, #4]
 1908 0016 002B     		cmp	r3, #0
 1909 0018 06D1     		bne	.L116
 1910              		.loc 1 750 3 is_stmt 0 discriminator 1
 1911 001a 2D4B     		ldr	r3, .L122+4
 1912 001c 40F2EE22 		movw	r2, #750
 1913 0020 2C49     		ldr	r1, .L122+8
 1914 0022 2D48     		ldr	r0, .L122+12
 1915 0024 FFF7FEFF 		bl	printf
 1916              	.L116:
 751:Middlewares/Third_Party/LwIP/src/core/tcp_in.c **** 
 752:Middlewares/Third_Party/LwIP/src/core/tcp_in.c ****   /* - fourth, check the SYN bit, */
 753:Middlewares/Third_Party/LwIP/src/core/tcp_in.c ****   if (flags & TCP_SYN) {
 1917              		.loc 1 753 13 is_stmt 1
ARM GAS  /tmp/ccWqLOXK.s 			page 50


 1918 0028 284B     		ldr	r3, .L122
 1919 002a 1B78     		ldrb	r3, [r3]	@ zero_extendqisi2
 1920 002c 03F00203 		and	r3, r3, #2
 1921              		.loc 1 753 6
 1922 0030 002B     		cmp	r3, #0
 1923 0032 2AD0     		beq	.L117
 754:Middlewares/Third_Party/LwIP/src/core/tcp_in.c ****     /* If an incoming segment is not acceptable, an acknowledgment
 755:Middlewares/Third_Party/LwIP/src/core/tcp_in.c ****        should be sent in reply */
 756:Middlewares/Third_Party/LwIP/src/core/tcp_in.c ****     if (TCP_SEQ_BETWEEN(seqno, pcb->rcv_nxt, pcb->rcv_nxt + pcb->rcv_wnd)) {
 1924              		.loc 1 756 9
 1925 0034 294B     		ldr	r3, .L122+16
 1926 0036 1A68     		ldr	r2, [r3]
 1927 0038 7B68     		ldr	r3, [r7, #4]
 1928 003a 5B6A     		ldr	r3, [r3, #36]
 1929 003c D31A     		subs	r3, r2, r3
 1930              		.loc 1 756 8
 1931 003e 002B     		cmp	r3, #0
 1932 0040 2DDB     		blt	.L118
 1933              		.loc 1 756 9 discriminator 1
 1934 0042 264B     		ldr	r3, .L122+16
 1935 0044 1A68     		ldr	r2, [r3]
 1936 0046 7B68     		ldr	r3, [r7, #4]
 1937 0048 5B6A     		ldr	r3, [r3, #36]
 1938 004a 7968     		ldr	r1, [r7, #4]
 1939 004c 098D     		ldrh	r1, [r1, #40]
 1940 004e 0B44     		add	r3, r3, r1
 1941 0050 D31A     		subs	r3, r2, r3
 1942 0052 002B     		cmp	r3, #0
 1943 0054 23DC     		bgt	.L118
 757:Middlewares/Third_Party/LwIP/src/core/tcp_in.c ****       /* If the SYN is in the window it is an error, send a reset */
 758:Middlewares/Third_Party/LwIP/src/core/tcp_in.c ****       tcp_rst(pcb, ackno, seqno + tcplen, ip_current_dest_addr(),
 1944              		.loc 1 758 7
 1945 0056 224B     		ldr	r3, .L122+20
 1946 0058 1968     		ldr	r1, [r3]
 1947 005a 224B     		ldr	r3, .L122+24
 1948 005c 1B88     		ldrh	r3, [r3]
 1949 005e 1A46     		mov	r2, r3
 1950 0060 1E4B     		ldr	r3, .L122+16
 1951 0062 1B68     		ldr	r3, [r3]
 1952 0064 D018     		adds	r0, r2, r3
 759:Middlewares/Third_Party/LwIP/src/core/tcp_in.c ****               ip_current_src_addr(), tcphdr->dest, tcphdr->src);
 1953              		.loc 1 759 44
 1954 0066 204B     		ldr	r3, .L122+28
 1955 0068 1B68     		ldr	r3, [r3]
 758:Middlewares/Third_Party/LwIP/src/core/tcp_in.c ****               ip_current_src_addr(), tcphdr->dest, tcphdr->src);
 1956              		.loc 1 758 7
 1957 006a 5B88     		ldrh	r3, [r3, #2]	@ unaligned
 1958 006c 9BB2     		uxth	r3, r3
 1959              		.loc 1 759 58
 1960 006e 1E4A     		ldr	r2, .L122+28
 1961 0070 1268     		ldr	r2, [r2]
 758:Middlewares/Third_Party/LwIP/src/core/tcp_in.c ****               ip_current_src_addr(), tcphdr->dest, tcphdr->src);
 1962              		.loc 1 758 7
 1963 0072 1288     		ldrh	r2, [r2]	@ unaligned
 1964 0074 92B2     		uxth	r2, r2
 1965 0076 0292     		str	r2, [sp, #8]
 1966 0078 0193     		str	r3, [sp, #4]
ARM GAS  /tmp/ccWqLOXK.s 			page 51


 1967 007a 1C4B     		ldr	r3, .L122+32
 1968 007c 0093     		str	r3, [sp]
 1969 007e 1C4B     		ldr	r3, .L122+36
 1970 0080 0246     		mov	r2, r0
 1971 0082 7868     		ldr	r0, [r7, #4]
 1972 0084 FFF7FEFF 		bl	tcp_rst
 760:Middlewares/Third_Party/LwIP/src/core/tcp_in.c ****       return;
 1973              		.loc 1 760 7
 1974 0088 1CE0     		b	.L113
 1975              	.L117:
 761:Middlewares/Third_Party/LwIP/src/core/tcp_in.c ****     }
 762:Middlewares/Third_Party/LwIP/src/core/tcp_in.c ****   } else if (flags & TCP_FIN) {
 1976              		.loc 1 762 20
 1977 008a 104B     		ldr	r3, .L122
 1978 008c 1B78     		ldrb	r3, [r3]	@ zero_extendqisi2
 1979 008e 03F00103 		and	r3, r3, #1
 1980              		.loc 1 762 13
 1981 0092 002B     		cmp	r3, #0
 1982 0094 03D0     		beq	.L118
 763:Middlewares/Third_Party/LwIP/src/core/tcp_in.c ****     /* - eighth, check the FIN bit: Remain in the TIME-WAIT state.
 764:Middlewares/Third_Party/LwIP/src/core/tcp_in.c ****          Restart the 2 MSL time-wait timeout.*/
 765:Middlewares/Third_Party/LwIP/src/core/tcp_in.c ****     pcb->tmr = tcp_ticks;
 1983              		.loc 1 765 14
 1984 0096 174B     		ldr	r3, .L122+40
 1985 0098 1A68     		ldr	r2, [r3]
 1986 009a 7B68     		ldr	r3, [r7, #4]
 1987 009c 1A62     		str	r2, [r3, #32]
 1988              	.L118:
 766:Middlewares/Third_Party/LwIP/src/core/tcp_in.c ****   }
 767:Middlewares/Third_Party/LwIP/src/core/tcp_in.c **** 
 768:Middlewares/Third_Party/LwIP/src/core/tcp_in.c ****   if ((tcplen > 0)) {
 1989              		.loc 1 768 15
 1990 009e 114B     		ldr	r3, .L122+24
 1991 00a0 1B88     		ldrh	r3, [r3]
 1992              		.loc 1 768 6
 1993 00a2 002B     		cmp	r3, #0
 1994 00a4 0DD0     		beq	.L121
 769:Middlewares/Third_Party/LwIP/src/core/tcp_in.c ****     /* Acknowledge data, FIN or out-of-window SYN */
 770:Middlewares/Third_Party/LwIP/src/core/tcp_in.c ****     tcp_ack_now(pcb);
 1995              		.loc 1 770 5
 1996 00a6 7B68     		ldr	r3, [r7, #4]
 1997 00a8 5B8B     		ldrh	r3, [r3, #26]
 1998 00aa 43F00203 		orr	r3, r3, #2
 1999 00ae 9AB2     		uxth	r2, r3
 2000 00b0 7B68     		ldr	r3, [r7, #4]
 2001 00b2 5A83     		strh	r2, [r3, #26]	@ movhi
 771:Middlewares/Third_Party/LwIP/src/core/tcp_in.c ****     tcp_output(pcb);
 2002              		.loc 1 771 5
 2003 00b4 7868     		ldr	r0, [r7, #4]
 2004 00b6 FFF7FEFF 		bl	tcp_output
 772:Middlewares/Third_Party/LwIP/src/core/tcp_in.c ****   }
 773:Middlewares/Third_Party/LwIP/src/core/tcp_in.c ****   return;
 2005              		.loc 1 773 3
 2006 00ba 00BF     		nop
 2007 00bc 01E0     		b	.L121
 2008              	.L120:
 747:Middlewares/Third_Party/LwIP/src/core/tcp_in.c ****   }
ARM GAS  /tmp/ccWqLOXK.s 			page 52


 2009              		.loc 1 747 5
 2010 00be 00BF     		nop
 2011 00c0 00E0     		b	.L113
 2012              	.L121:
 2013              		.loc 1 773 3
 2014 00c2 00BF     		nop
 2015              	.L113:
 774:Middlewares/Third_Party/LwIP/src/core/tcp_in.c **** }
 2016              		.loc 1 774 1
 2017 00c4 0837     		adds	r7, r7, #8
 2018              	.LCFI18:
 2019              		.cfi_def_cfa_offset 8
 2020 00c6 BD46     		mov	sp, r7
 2021              	.LCFI19:
 2022              		.cfi_def_cfa_register 13
 2023              		@ sp needed
 2024 00c8 80BD     		pop	{r7, pc}
 2025              	.L123:
 2026 00ca 00BF     		.align	2
 2027              	.L122:
 2028 00cc 00000000 		.word	flags
 2029 00d0 00000000 		.word	.LC0
 2030 00d4 14020000 		.word	.LC15
 2031 00d8 48000000 		.word	.LC2
 2032 00dc 00000000 		.word	seqno
 2033 00e0 00000000 		.word	ackno
 2034 00e4 00000000 		.word	tcplen
 2035 00e8 00000000 		.word	tcphdr
 2036 00ec 10000000 		.word	ip_data+16
 2037 00f0 14000000 		.word	ip_data+20
 2038 00f4 00000000 		.word	tcp_ticks
 2039              		.cfi_endproc
 2040              	.LFE136:
 2042              		.section	.rodata
 2043              		.align	2
 2044              	.LC16:
 2045 0234 7463705F 		.ascii	"tcp_process: invalid pcb\000"
 2045      70726F63 
 2045      6573733A 
 2045      20696E76 
 2045      616C6964 
 2046 024d 000000   		.align	2
 2047              	.LC17:
 2048 0250 7463705F 		.ascii	"tcp_input: pcb->state != CLOSED\000"
 2048      696E7075 
 2048      743A2070 
 2048      63622D3E 
 2048      73746174 
 2049              		.align	2
 2050              	.LC18:
 2051 0270 7063622D 		.ascii	"pcb->snd_queuelen > 0\000"
 2051      3E736E64 
 2051      5F717565 
 2051      75656C65 
 2051      6E203E20 
 2052 0286 0000     		.align	2
 2053              	.LC19:
ARM GAS  /tmp/ccWqLOXK.s 			page 53


 2054 0288 6E6F2073 		.ascii	"no segment to free\000"
 2054      65676D65 
 2054      6E742074 
 2054      6F206672 
 2054      656500
 2055 029b 00       		.align	2
 2056              	.LC20:
 2057 029c 7063622D 		.ascii	"pcb->listener->accept != NULL\000"
 2057      3E6C6973 
 2057      74656E65 
 2057      722D3E61 
 2057      63636570 
 2058              		.section	.text.tcp_process,"ax",%progbits
 2059              		.align	1
 2060              		.syntax unified
 2061              		.thumb
 2062              		.thumb_func
 2063              		.fpu fpv4-sp-d16
 2065              	tcp_process:
 2066              	.LFB137:
 775:Middlewares/Third_Party/LwIP/src/core/tcp_in.c **** 
 776:Middlewares/Third_Party/LwIP/src/core/tcp_in.c **** /**
 777:Middlewares/Third_Party/LwIP/src/core/tcp_in.c ****  * Implements the TCP state machine. Called by tcp_input. In some
 778:Middlewares/Third_Party/LwIP/src/core/tcp_in.c ****  * states tcp_receive() is called to receive data. The tcp_seg
 779:Middlewares/Third_Party/LwIP/src/core/tcp_in.c ****  * argument will be freed by the caller (tcp_input()) unless the
 780:Middlewares/Third_Party/LwIP/src/core/tcp_in.c ****  * recv_data pointer in the pcb is set.
 781:Middlewares/Third_Party/LwIP/src/core/tcp_in.c ****  *
 782:Middlewares/Third_Party/LwIP/src/core/tcp_in.c ****  * @param pcb the tcp_pcb for which a segment arrived
 783:Middlewares/Third_Party/LwIP/src/core/tcp_in.c ****  *
 784:Middlewares/Third_Party/LwIP/src/core/tcp_in.c ****  * @note the segment which arrived is saved in global variables, therefore only the pcb
 785:Middlewares/Third_Party/LwIP/src/core/tcp_in.c ****  *       involved is passed as a parameter to this function
 786:Middlewares/Third_Party/LwIP/src/core/tcp_in.c ****  */
 787:Middlewares/Third_Party/LwIP/src/core/tcp_in.c **** static err_t
 788:Middlewares/Third_Party/LwIP/src/core/tcp_in.c **** tcp_process(struct tcp_pcb *pcb)
 789:Middlewares/Third_Party/LwIP/src/core/tcp_in.c **** {
 2067              		.loc 1 789 1
 2068              		.cfi_startproc
 2069              		@ args = 0, pretend = 0, frame = 32
 2070              		@ frame_needed = 1, uses_anonymous_args = 0
 2071 0000 90B5     		push	{r4, r7, lr}
 2072              	.LCFI20:
 2073              		.cfi_def_cfa_offset 12
 2074              		.cfi_offset 4, -12
 2075              		.cfi_offset 7, -8
 2076              		.cfi_offset 14, -4
 2077 0002 8DB0     		sub	sp, sp, #52
 2078              	.LCFI21:
 2079              		.cfi_def_cfa_offset 64
 2080 0004 04AF     		add	r7, sp, #16
 2081              	.LCFI22:
 2082              		.cfi_def_cfa 7, 48
 2083 0006 7860     		str	r0, [r7, #4]
 790:Middlewares/Third_Party/LwIP/src/core/tcp_in.c ****   struct tcp_seg *rseg;
 791:Middlewares/Third_Party/LwIP/src/core/tcp_in.c ****   u8_t acceptable = 0;
 2084              		.loc 1 791 8
 2085 0008 0023     		movs	r3, #0
 2086 000a FB76     		strb	r3, [r7, #27]
ARM GAS  /tmp/ccWqLOXK.s 			page 54


 792:Middlewares/Third_Party/LwIP/src/core/tcp_in.c ****   err_t err;
 793:Middlewares/Third_Party/LwIP/src/core/tcp_in.c **** 
 794:Middlewares/Third_Party/LwIP/src/core/tcp_in.c ****   err = ERR_OK;
 2087              		.loc 1 794 7
 2088 000c 0023     		movs	r3, #0
 2089 000e BB76     		strb	r3, [r7, #26]
 795:Middlewares/Third_Party/LwIP/src/core/tcp_in.c **** 
 796:Middlewares/Third_Party/LwIP/src/core/tcp_in.c ****   LWIP_ASSERT("tcp_process: invalid pcb", pcb != NULL);
 2090              		.loc 1 796 3
 2091 0010 7B68     		ldr	r3, [r7, #4]
 2092 0012 002B     		cmp	r3, #0
 2093 0014 06D1     		bne	.L125
 2094              		.loc 1 796 3 is_stmt 0 discriminator 1
 2095 0016 A54B     		ldr	r3, .L208
 2096 0018 4FF44772 		mov	r2, #796
 2097 001c A449     		ldr	r1, .L208+4
 2098 001e A548     		ldr	r0, .L208+8
 2099 0020 FFF7FEFF 		bl	printf
 2100              	.L125:
 797:Middlewares/Third_Party/LwIP/src/core/tcp_in.c **** 
 798:Middlewares/Third_Party/LwIP/src/core/tcp_in.c ****   /* Process incoming RST segments. */
 799:Middlewares/Third_Party/LwIP/src/core/tcp_in.c ****   if (flags & TCP_RST) {
 2101              		.loc 1 799 13 is_stmt 1
 2102 0024 A44B     		ldr	r3, .L208+12
 2103 0026 1B78     		ldrb	r3, [r3]	@ zero_extendqisi2
 2104 0028 03F00403 		and	r3, r3, #4
 2105              		.loc 1 799 6
 2106 002c 002B     		cmp	r3, #0
 2107 002e 4ED0     		beq	.L126
 800:Middlewares/Third_Party/LwIP/src/core/tcp_in.c ****     /* First, determine if the reset is acceptable. */
 801:Middlewares/Third_Party/LwIP/src/core/tcp_in.c ****     if (pcb->state == SYN_SENT) {
 2108              		.loc 1 801 12
 2109 0030 7B68     		ldr	r3, [r7, #4]
 2110 0032 1B7D     		ldrb	r3, [r3, #20]	@ zero_extendqisi2
 2111              		.loc 1 801 8
 2112 0034 022B     		cmp	r3, #2
 2113 0036 08D1     		bne	.L127
 802:Middlewares/Third_Party/LwIP/src/core/tcp_in.c ****       /* "In the SYN-SENT state (a RST received in response to an initial SYN),
 803:Middlewares/Third_Party/LwIP/src/core/tcp_in.c ****           the RST is acceptable if the ACK field acknowledges the SYN." */
 804:Middlewares/Third_Party/LwIP/src/core/tcp_in.c ****       if (ackno == pcb->snd_nxt) {
 2114              		.loc 1 804 23
 2115 0038 7B68     		ldr	r3, [r7, #4]
 2116 003a 1A6D     		ldr	r2, [r3, #80]
 2117              		.loc 1 804 17
 2118 003c 9F4B     		ldr	r3, .L208+16
 2119 003e 1B68     		ldr	r3, [r3]
 2120              		.loc 1 804 10
 2121 0040 9A42     		cmp	r2, r3
 2122 0042 23D1     		bne	.L129
 805:Middlewares/Third_Party/LwIP/src/core/tcp_in.c ****         acceptable = 1;
 2123              		.loc 1 805 20
 2124 0044 0123     		movs	r3, #1
 2125 0046 FB76     		strb	r3, [r7, #27]
 2126 0048 20E0     		b	.L129
 2127              	.L127:
 806:Middlewares/Third_Party/LwIP/src/core/tcp_in.c ****       }
 807:Middlewares/Third_Party/LwIP/src/core/tcp_in.c ****     } else {
ARM GAS  /tmp/ccWqLOXK.s 			page 55


 808:Middlewares/Third_Party/LwIP/src/core/tcp_in.c ****       /* "In all states except SYN-SENT, all reset (RST) segments are validated
 809:Middlewares/Third_Party/LwIP/src/core/tcp_in.c ****           by checking their SEQ-fields." */
 810:Middlewares/Third_Party/LwIP/src/core/tcp_in.c ****       if (seqno == pcb->rcv_nxt) {
 2128              		.loc 1 810 23
 2129 004a 7B68     		ldr	r3, [r7, #4]
 2130 004c 5A6A     		ldr	r2, [r3, #36]
 2131              		.loc 1 810 17
 2132 004e 9C4B     		ldr	r3, .L208+20
 2133 0050 1B68     		ldr	r3, [r3]
 2134              		.loc 1 810 10
 2135 0052 9A42     		cmp	r2, r3
 2136 0054 02D1     		bne	.L130
 811:Middlewares/Third_Party/LwIP/src/core/tcp_in.c ****         acceptable = 1;
 2137              		.loc 1 811 20
 2138 0056 0123     		movs	r3, #1
 2139 0058 FB76     		strb	r3, [r7, #27]
 2140 005a 17E0     		b	.L129
 2141              	.L130:
 812:Middlewares/Third_Party/LwIP/src/core/tcp_in.c ****       } else  if (TCP_SEQ_BETWEEN(seqno, pcb->rcv_nxt,
 2142              		.loc 1 812 19
 2143 005c 984B     		ldr	r3, .L208+20
 2144 005e 1A68     		ldr	r2, [r3]
 2145 0060 7B68     		ldr	r3, [r7, #4]
 2146 0062 5B6A     		ldr	r3, [r3, #36]
 2147 0064 D31A     		subs	r3, r2, r3
 2148              		.loc 1 812 18
 2149 0066 002B     		cmp	r3, #0
 2150 0068 10DB     		blt	.L129
 2151              		.loc 1 812 19 discriminator 1
 2152 006a 954B     		ldr	r3, .L208+20
 2153 006c 1A68     		ldr	r2, [r3]
 2154 006e 7B68     		ldr	r3, [r7, #4]
 2155 0070 5B6A     		ldr	r3, [r3, #36]
 2156 0072 7968     		ldr	r1, [r7, #4]
 2157 0074 098D     		ldrh	r1, [r1, #40]
 2158 0076 0B44     		add	r3, r3, r1
 2159 0078 D31A     		subs	r3, r2, r3
 2160 007a 002B     		cmp	r3, #0
 2161 007c 06DC     		bgt	.L129
 813:Middlewares/Third_Party/LwIP/src/core/tcp_in.c ****                                   pcb->rcv_nxt + pcb->rcv_wnd)) {
 814:Middlewares/Third_Party/LwIP/src/core/tcp_in.c ****         /* If the sequence number is inside the window, we send a challenge ACK
 815:Middlewares/Third_Party/LwIP/src/core/tcp_in.c ****            and wait for a re-send with matching sequence number.
 816:Middlewares/Third_Party/LwIP/src/core/tcp_in.c ****            This follows RFC 5961 section 3.2 and addresses CVE-2004-0230
 817:Middlewares/Third_Party/LwIP/src/core/tcp_in.c ****            (RST spoofing attack), which is present in RFC 793 RST handling. */
 818:Middlewares/Third_Party/LwIP/src/core/tcp_in.c ****         tcp_ack_now(pcb);
 2162              		.loc 1 818 9
 2163 007e 7B68     		ldr	r3, [r7, #4]
 2164 0080 5B8B     		ldrh	r3, [r3, #26]
 2165 0082 43F00203 		orr	r3, r3, #2
 2166 0086 9AB2     		uxth	r2, r3
 2167 0088 7B68     		ldr	r3, [r7, #4]
 2168 008a 5A83     		strh	r2, [r3, #26]	@ movhi
 2169              	.L129:
 819:Middlewares/Third_Party/LwIP/src/core/tcp_in.c ****       }
 820:Middlewares/Third_Party/LwIP/src/core/tcp_in.c ****     }
 821:Middlewares/Third_Party/LwIP/src/core/tcp_in.c **** 
 822:Middlewares/Third_Party/LwIP/src/core/tcp_in.c ****     if (acceptable) {
ARM GAS  /tmp/ccWqLOXK.s 			page 56


 2170              		.loc 1 822 8
 2171 008c FB7E     		ldrb	r3, [r7, #27]	@ zero_extendqisi2
 2172 008e 002B     		cmp	r3, #0
 2173 0090 1BD0     		beq	.L131
 823:Middlewares/Third_Party/LwIP/src/core/tcp_in.c ****       LWIP_DEBUGF(TCP_INPUT_DEBUG, ("tcp_process: Connection RESET\n"));
 824:Middlewares/Third_Party/LwIP/src/core/tcp_in.c ****       LWIP_ASSERT("tcp_input: pcb->state != CLOSED", pcb->state != CLOSED);
 2174              		.loc 1 824 7
 2175 0092 7B68     		ldr	r3, [r7, #4]
 2176 0094 1B7D     		ldrb	r3, [r3, #20]	@ zero_extendqisi2
 2177 0096 002B     		cmp	r3, #0
 2178 0098 06D1     		bne	.L132
 2179              		.loc 1 824 7 is_stmt 0 discriminator 1
 2180 009a 844B     		ldr	r3, .L208
 2181 009c 4FF44E72 		mov	r2, #824
 2182 00a0 8849     		ldr	r1, .L208+24
 2183 00a2 8448     		ldr	r0, .L208+8
 2184 00a4 FFF7FEFF 		bl	printf
 2185              	.L132:
 825:Middlewares/Third_Party/LwIP/src/core/tcp_in.c ****       recv_flags |= TF_RESET;
 2186              		.loc 1 825 18 is_stmt 1
 2187 00a8 874B     		ldr	r3, .L208+28
 2188 00aa 1B78     		ldrb	r3, [r3]	@ zero_extendqisi2
 2189 00ac 43F00803 		orr	r3, r3, #8
 2190 00b0 DAB2     		uxtb	r2, r3
 2191 00b2 854B     		ldr	r3, .L208+28
 2192 00b4 1A70     		strb	r2, [r3]
 826:Middlewares/Third_Party/LwIP/src/core/tcp_in.c ****       tcp_clear_flags(pcb, TF_ACK_DELAY);
 2193              		.loc 1 826 7
 2194 00b6 7B68     		ldr	r3, [r7, #4]
 2195 00b8 5B8B     		ldrh	r3, [r3, #26]
 2196 00ba 23F00103 		bic	r3, r3, #1
 2197 00be 9AB2     		uxth	r2, r3
 2198 00c0 7B68     		ldr	r3, [r7, #4]
 2199 00c2 5A83     		strh	r2, [r3, #26]	@ movhi
 827:Middlewares/Third_Party/LwIP/src/core/tcp_in.c ****       return ERR_RST;
 2200              		.loc 1 827 14
 2201 00c4 6FF00D03 		mvn	r3, #13
 2202 00c8 7AE3     		b	.L133
 2203              	.L131:
 828:Middlewares/Third_Party/LwIP/src/core/tcp_in.c ****     } else {
 829:Middlewares/Third_Party/LwIP/src/core/tcp_in.c ****       LWIP_DEBUGF(TCP_INPUT_DEBUG, ("tcp_process: unacceptable reset seqno %"U32_F" rcv_nxt %"U32_F
 830:Middlewares/Third_Party/LwIP/src/core/tcp_in.c ****                                     seqno, pcb->rcv_nxt));
 831:Middlewares/Third_Party/LwIP/src/core/tcp_in.c ****       LWIP_DEBUGF(TCP_DEBUG, ("tcp_process: unacceptable reset seqno %"U32_F" rcv_nxt %"U32_F"\n",
 832:Middlewares/Third_Party/LwIP/src/core/tcp_in.c ****                               seqno, pcb->rcv_nxt));
 833:Middlewares/Third_Party/LwIP/src/core/tcp_in.c ****       return ERR_OK;
 2204              		.loc 1 833 14
 2205 00ca 0023     		movs	r3, #0
 2206 00cc 78E3     		b	.L133
 2207              	.L126:
 834:Middlewares/Third_Party/LwIP/src/core/tcp_in.c ****     }
 835:Middlewares/Third_Party/LwIP/src/core/tcp_in.c ****   }
 836:Middlewares/Third_Party/LwIP/src/core/tcp_in.c **** 
 837:Middlewares/Third_Party/LwIP/src/core/tcp_in.c ****   if ((flags & TCP_SYN) && (pcb->state != SYN_SENT && pcb->state != SYN_RCVD)) {
 2208              		.loc 1 837 14
 2209 00ce 7A4B     		ldr	r3, .L208+12
 2210 00d0 1B78     		ldrb	r3, [r3]	@ zero_extendqisi2
 2211 00d2 03F00203 		and	r3, r3, #2
ARM GAS  /tmp/ccWqLOXK.s 			page 57


 2212              		.loc 1 837 6
 2213 00d6 002B     		cmp	r3, #0
 2214 00d8 10D0     		beq	.L134
 2215              		.loc 1 837 32 discriminator 1
 2216 00da 7B68     		ldr	r3, [r7, #4]
 2217 00dc 1B7D     		ldrb	r3, [r3, #20]	@ zero_extendqisi2
 2218              		.loc 1 837 25 discriminator 1
 2219 00de 022B     		cmp	r3, #2
 2220 00e0 0CD0     		beq	.L134
 2221              		.loc 1 837 58 discriminator 2
 2222 00e2 7B68     		ldr	r3, [r7, #4]
 2223 00e4 1B7D     		ldrb	r3, [r3, #20]	@ zero_extendqisi2
 2224              		.loc 1 837 52 discriminator 2
 2225 00e6 032B     		cmp	r3, #3
 2226 00e8 08D0     		beq	.L134
 838:Middlewares/Third_Party/LwIP/src/core/tcp_in.c ****     /* Cope with new connection attempt after remote end crashed */
 839:Middlewares/Third_Party/LwIP/src/core/tcp_in.c ****     tcp_ack_now(pcb);
 2227              		.loc 1 839 5
 2228 00ea 7B68     		ldr	r3, [r7, #4]
 2229 00ec 5B8B     		ldrh	r3, [r3, #26]
 2230 00ee 43F00203 		orr	r3, r3, #2
 2231 00f2 9AB2     		uxth	r2, r3
 2232 00f4 7B68     		ldr	r3, [r7, #4]
 2233 00f6 5A83     		strh	r2, [r3, #26]	@ movhi
 840:Middlewares/Third_Party/LwIP/src/core/tcp_in.c ****     return ERR_OK;
 2234              		.loc 1 840 12
 2235 00f8 0023     		movs	r3, #0
 2236 00fa 61E3     		b	.L133
 2237              	.L134:
 841:Middlewares/Third_Party/LwIP/src/core/tcp_in.c ****   }
 842:Middlewares/Third_Party/LwIP/src/core/tcp_in.c **** 
 843:Middlewares/Third_Party/LwIP/src/core/tcp_in.c ****   if ((pcb->flags & TF_RXCLOSED) == 0) {
 2238              		.loc 1 843 11
 2239 00fc 7B68     		ldr	r3, [r7, #4]
 2240 00fe 5B8B     		ldrh	r3, [r3, #26]
 2241              		.loc 1 843 19
 2242 0100 03F01003 		and	r3, r3, #16
 2243              		.loc 1 843 6
 2244 0104 002B     		cmp	r3, #0
 2245 0106 03D1     		bne	.L135
 844:Middlewares/Third_Party/LwIP/src/core/tcp_in.c ****     /* Update the PCB (in)activity timer unless rx is closed (see tcp_shutdown) */
 845:Middlewares/Third_Party/LwIP/src/core/tcp_in.c ****     pcb->tmr = tcp_ticks;
 2246              		.loc 1 845 14
 2247 0108 704B     		ldr	r3, .L208+32
 2248 010a 1A68     		ldr	r2, [r3]
 2249 010c 7B68     		ldr	r3, [r7, #4]
 2250 010e 1A62     		str	r2, [r3, #32]
 2251              	.L135:
 846:Middlewares/Third_Party/LwIP/src/core/tcp_in.c ****   }
 847:Middlewares/Third_Party/LwIP/src/core/tcp_in.c ****   pcb->keep_cnt_sent = 0;
 2252              		.loc 1 847 22
 2253 0110 7B68     		ldr	r3, [r7, #4]
 2254 0112 0022     		movs	r2, #0
 2255 0114 83F89B20 		strb	r2, [r3, #155]
 848:Middlewares/Third_Party/LwIP/src/core/tcp_in.c ****   pcb->persist_probe = 0;
 2256              		.loc 1 848 22
 2257 0118 7B68     		ldr	r3, [r7, #4]
ARM GAS  /tmp/ccWqLOXK.s 			page 58


 2258 011a 0022     		movs	r2, #0
 2259 011c 83F89A20 		strb	r2, [r3, #154]
 849:Middlewares/Third_Party/LwIP/src/core/tcp_in.c **** 
 850:Middlewares/Third_Party/LwIP/src/core/tcp_in.c ****   tcp_parseopt(pcb);
 2260              		.loc 1 850 3
 2261 0120 7868     		ldr	r0, [r7, #4]
 2262 0122 FFF7FEFF 		bl	tcp_parseopt
 851:Middlewares/Third_Party/LwIP/src/core/tcp_in.c **** 
 852:Middlewares/Third_Party/LwIP/src/core/tcp_in.c ****   /* Do different things depending on the TCP state. */
 853:Middlewares/Third_Party/LwIP/src/core/tcp_in.c ****   switch (pcb->state) {
 2263              		.loc 1 853 14
 2264 0126 7B68     		ldr	r3, [r7, #4]
 2265 0128 1B7D     		ldrb	r3, [r3, #20]	@ zero_extendqisi2
 2266              		.loc 1 853 3
 2267 012a 023B     		subs	r3, r3, #2
 2268 012c 072B     		cmp	r3, #7
 2269 012e 00F23783 		bhi	.L200
 2270 0132 01A2     		adr	r2, .L138
 2271 0134 52F823F0 		ldr	pc, [r2, r3, lsl #2]
 2272              		.p2align 2
 2273              	.L138:
 2274 0138 59010000 		.word	.L144+1
 2275 013c 89030000 		.word	.L143+1
 2276 0140 01050000 		.word	.L140+1
 2277 0144 2B050000 		.word	.L142+1
 2278 0148 4F060000 		.word	.L141+1
 2279 014c 01050000 		.word	.L140+1
 2280 0150 DB060000 		.word	.L139+1
 2281 0154 6B070000 		.word	.L137+1
 2282              		.p2align 1
 2283              	.L144:
 854:Middlewares/Third_Party/LwIP/src/core/tcp_in.c ****     case SYN_SENT:
 855:Middlewares/Third_Party/LwIP/src/core/tcp_in.c ****       LWIP_DEBUGF(TCP_INPUT_DEBUG, ("SYN-SENT: ackno %"U32_F" pcb->snd_nxt %"U32_F" unacked %"U32_F
 856:Middlewares/Third_Party/LwIP/src/core/tcp_in.c ****                                     pcb->snd_nxt, lwip_ntohl(pcb->unacked->tcphdr->seqno)));
 857:Middlewares/Third_Party/LwIP/src/core/tcp_in.c ****       /* received SYN ACK with expected sequence number? */
 858:Middlewares/Third_Party/LwIP/src/core/tcp_in.c ****       if ((flags & TCP_ACK) && (flags & TCP_SYN)
 2284              		.loc 1 858 18
 2285 0158 574B     		ldr	r3, .L208+12
 2286 015a 1B78     		ldrb	r3, [r3]	@ zero_extendqisi2
 2287 015c 03F01003 		and	r3, r3, #16
 2288              		.loc 1 858 10
 2289 0160 002B     		cmp	r3, #0
 2290 0162 00F0E480 		beq	.L145
 2291              		.loc 1 858 39 discriminator 1
 2292 0166 544B     		ldr	r3, .L208+12
 2293 0168 1B78     		ldrb	r3, [r3]	@ zero_extendqisi2
 2294 016a 03F00203 		and	r3, r3, #2
 2295              		.loc 1 858 29 discriminator 1
 2296 016e 002B     		cmp	r3, #0
 2297 0170 00F0DD80 		beq	.L145
 859:Middlewares/Third_Party/LwIP/src/core/tcp_in.c ****           && (ackno == pcb->lastack + 1)) {
 2298              		.loc 1 859 27
 2299 0174 7B68     		ldr	r3, [r7, #4]
 2300 0176 5B6C     		ldr	r3, [r3, #68]
 2301              		.loc 1 859 37
 2302 0178 5A1C     		adds	r2, r3, #1
 2303              		.loc 1 859 21
ARM GAS  /tmp/ccWqLOXK.s 			page 59


 2304 017a 504B     		ldr	r3, .L208+16
 2305 017c 1B68     		ldr	r3, [r3]
 2306              		.loc 1 859 11
 2307 017e 9A42     		cmp	r2, r3
 2308 0180 40F0D580 		bne	.L145
 860:Middlewares/Third_Party/LwIP/src/core/tcp_in.c ****         pcb->rcv_nxt = seqno + 1;
 2309              		.loc 1 860 30
 2310 0184 4E4B     		ldr	r3, .L208+20
 2311 0186 1B68     		ldr	r3, [r3]
 2312 0188 5A1C     		adds	r2, r3, #1
 2313              		.loc 1 860 22
 2314 018a 7B68     		ldr	r3, [r7, #4]
 2315 018c 5A62     		str	r2, [r3, #36]
 861:Middlewares/Third_Party/LwIP/src/core/tcp_in.c ****         pcb->rcv_ann_right_edge = pcb->rcv_nxt;
 2316              		.loc 1 861 38
 2317 018e 7B68     		ldr	r3, [r7, #4]
 2318 0190 5A6A     		ldr	r2, [r3, #36]
 2319              		.loc 1 861 33
 2320 0192 7B68     		ldr	r3, [r7, #4]
 2321 0194 DA62     		str	r2, [r3, #44]
 862:Middlewares/Third_Party/LwIP/src/core/tcp_in.c ****         pcb->lastack = ackno;
 2322              		.loc 1 862 22
 2323 0196 494B     		ldr	r3, .L208+16
 2324 0198 1A68     		ldr	r2, [r3]
 2325 019a 7B68     		ldr	r3, [r7, #4]
 2326 019c 5A64     		str	r2, [r3, #68]
 863:Middlewares/Third_Party/LwIP/src/core/tcp_in.c ****         pcb->snd_wnd = tcphdr->wnd;
 2327              		.loc 1 863 30
 2328 019e 4C4B     		ldr	r3, .L208+36
 2329 01a0 1B68     		ldr	r3, [r3]
 2330 01a2 DB89     		ldrh	r3, [r3, #14]	@ unaligned
 2331 01a4 9AB2     		uxth	r2, r3
 2332              		.loc 1 863 22
 2333 01a6 7B68     		ldr	r3, [r7, #4]
 2334 01a8 A3F86020 		strh	r2, [r3, #96]	@ movhi
 864:Middlewares/Third_Party/LwIP/src/core/tcp_in.c ****         pcb->snd_wnd_max = pcb->snd_wnd;
 2335              		.loc 1 864 31
 2336 01ac 7B68     		ldr	r3, [r7, #4]
 2337 01ae B3F86020 		ldrh	r2, [r3, #96]
 2338              		.loc 1 864 26
 2339 01b2 7B68     		ldr	r3, [r7, #4]
 2340 01b4 A3F86220 		strh	r2, [r3, #98]	@ movhi
 865:Middlewares/Third_Party/LwIP/src/core/tcp_in.c ****         pcb->snd_wl1 = seqno - 1; /* initialise to seqno - 1 to force window update */
 2341              		.loc 1 865 30
 2342 01b8 414B     		ldr	r3, .L208+20
 2343 01ba 1B68     		ldr	r3, [r3]
 2344 01bc 5A1E     		subs	r2, r3, #1
 2345              		.loc 1 865 22
 2346 01be 7B68     		ldr	r3, [r7, #4]
 2347 01c0 5A65     		str	r2, [r3, #84]
 866:Middlewares/Third_Party/LwIP/src/core/tcp_in.c ****         pcb->state = ESTABLISHED;
 2348              		.loc 1 866 20
 2349 01c2 7B68     		ldr	r3, [r7, #4]
 2350 01c4 0422     		movs	r2, #4
 2351 01c6 1A75     		strb	r2, [r3, #20]
 867:Middlewares/Third_Party/LwIP/src/core/tcp_in.c **** 
 868:Middlewares/Third_Party/LwIP/src/core/tcp_in.c **** #if TCP_CALCULATE_EFF_SEND_MSS
ARM GAS  /tmp/ccWqLOXK.s 			page 60


 869:Middlewares/Third_Party/LwIP/src/core/tcp_in.c ****         pcb->mss = tcp_eff_send_mss(pcb->mss, &pcb->local_ip, &pcb->remote_ip);
 2352              		.loc 1 869 20
 2353 01c8 7B68     		ldr	r3, [r7, #4]
 2354 01ca 5C8E     		ldrh	r4, [r3, #50]
 2355 01cc 7B68     		ldr	r3, [r7, #4]
 2356 01ce 0433     		adds	r3, r3, #4
 2357 01d0 1846     		mov	r0, r3
 2358 01d2 FFF7FEFF 		bl	ip4_route
 2359 01d6 0146     		mov	r1, r0
 2360 01d8 7B68     		ldr	r3, [r7, #4]
 2361 01da 0433     		adds	r3, r3, #4
 2362 01dc 1A46     		mov	r2, r3
 2363 01de 2046     		mov	r0, r4
 2364 01e0 FFF7FEFF 		bl	tcp_eff_send_mss_netif
 2365 01e4 0346     		mov	r3, r0
 2366 01e6 1A46     		mov	r2, r3
 2367              		.loc 1 869 18
 2368 01e8 7B68     		ldr	r3, [r7, #4]
 2369 01ea 5A86     		strh	r2, [r3, #50]	@ movhi
 870:Middlewares/Third_Party/LwIP/src/core/tcp_in.c **** #endif /* TCP_CALCULATE_EFF_SEND_MSS */
 871:Middlewares/Third_Party/LwIP/src/core/tcp_in.c **** 
 872:Middlewares/Third_Party/LwIP/src/core/tcp_in.c ****         pcb->cwnd = LWIP_TCP_CALC_INITIAL_CWND(pcb->mss);
 2370              		.loc 1 872 21
 2371 01ec 7B68     		ldr	r3, [r7, #4]
 2372 01ee 5B8E     		ldrh	r3, [r3, #50]
 2373 01f0 9A00     		lsls	r2, r3, #2
 2374 01f2 7B68     		ldr	r3, [r7, #4]
 2375 01f4 5B8E     		ldrh	r3, [r3, #50]
 2376 01f6 5B00     		lsls	r3, r3, #1
 2377 01f8 41F21C11 		movw	r1, #4380
 2378 01fc 8B42     		cmp	r3, r1
 2379 01fe 38BF     		it	cc
 2380 0200 0B46     		movcc	r3, r1
 2381 0202 9A42     		cmp	r2, r3
 2382 0204 04D2     		bcs	.L146
 2383              		.loc 1 872 21 is_stmt 0 discriminator 1
 2384 0206 7B68     		ldr	r3, [r7, #4]
 2385 0208 5B8E     		ldrh	r3, [r3, #50]
 2386 020a 9B00     		lsls	r3, r3, #2
 2387 020c 9BB2     		uxth	r3, r3
 2388 020e 0DE0     		b	.L147
 2389              	.L146:
 2390              		.loc 1 872 21 discriminator 2
 2391 0210 7B68     		ldr	r3, [r7, #4]
 2392 0212 5B8E     		ldrh	r3, [r3, #50]
 2393 0214 5B00     		lsls	r3, r3, #1
 2394 0216 41F21C12 		movw	r2, #4380
 2395 021a 9342     		cmp	r3, r2
 2396 021c 04D9     		bls	.L148
 2397              		.loc 1 872 21 discriminator 4
 2398 021e 7B68     		ldr	r3, [r7, #4]
 2399 0220 5B8E     		ldrh	r3, [r3, #50]
 2400 0222 5B00     		lsls	r3, r3, #1
 2401 0224 9BB2     		uxth	r3, r3
 2402 0226 01E0     		b	.L147
 2403              	.L148:
 2404              		.loc 1 872 21 discriminator 5
ARM GAS  /tmp/ccWqLOXK.s 			page 61


 2405 0228 41F21C13 		movw	r3, #4380
 2406              	.L147:
 2407              		.loc 1 872 19 is_stmt 1 discriminator 8
 2408 022c 7A68     		ldr	r2, [r7, #4]
 2409 022e A2F84830 		strh	r3, [r2, #72]	@ movhi
 873:Middlewares/Third_Party/LwIP/src/core/tcp_in.c ****         LWIP_DEBUGF(TCP_CWND_DEBUG, ("tcp_process (SENT): cwnd %"TCPWNDSIZE_F
 874:Middlewares/Third_Party/LwIP/src/core/tcp_in.c ****                                      " ssthresh %"TCPWNDSIZE_F"\n",
 875:Middlewares/Third_Party/LwIP/src/core/tcp_in.c ****                                      pcb->cwnd, pcb->ssthresh));
 876:Middlewares/Third_Party/LwIP/src/core/tcp_in.c ****         LWIP_ASSERT("pcb->snd_queuelen > 0", (pcb->snd_queuelen > 0));
 2410              		.loc 1 876 9 discriminator 8
 2411 0232 7B68     		ldr	r3, [r7, #4]
 2412 0234 B3F86630 		ldrh	r3, [r3, #102]
 2413 0238 002B     		cmp	r3, #0
 2414 023a 06D1     		bne	.L150
 2415              		.loc 1 876 9 is_stmt 0 discriminator 1
 2416 023c 1B4B     		ldr	r3, .L208
 2417 023e 4FF45B72 		mov	r2, #876
 2418 0242 2449     		ldr	r1, .L208+40
 2419 0244 1B48     		ldr	r0, .L208+8
 2420 0246 FFF7FEFF 		bl	printf
 2421              	.L150:
 877:Middlewares/Third_Party/LwIP/src/core/tcp_in.c ****         --pcb->snd_queuelen;
 2422              		.loc 1 877 14 is_stmt 1
 2423 024a 7B68     		ldr	r3, [r7, #4]
 2424 024c B3F86630 		ldrh	r3, [r3, #102]
 2425              		.loc 1 877 9
 2426 0250 013B     		subs	r3, r3, #1
 2427 0252 9AB2     		uxth	r2, r3
 2428 0254 7B68     		ldr	r3, [r7, #4]
 2429 0256 A3F86620 		strh	r2, [r3, #102]	@ movhi
 878:Middlewares/Third_Party/LwIP/src/core/tcp_in.c ****         LWIP_DEBUGF(TCP_QLEN_DEBUG, ("tcp_process: SYN-SENT --queuelen %"TCPWNDSIZE_F"\n", (tcpwnd_
 879:Middlewares/Third_Party/LwIP/src/core/tcp_in.c ****         rseg = pcb->unacked;
 2430              		.loc 1 879 14
 2431 025a 7B68     		ldr	r3, [r7, #4]
 2432 025c 1B6F     		ldr	r3, [r3, #112]
 2433 025e FB61     		str	r3, [r7, #28]
 880:Middlewares/Third_Party/LwIP/src/core/tcp_in.c ****         if (rseg == NULL) {
 2434              		.loc 1 880 12
 2435 0260 FB69     		ldr	r3, [r7, #28]
 2436 0262 002B     		cmp	r3, #0
 2437 0264 11D1     		bne	.L151
 881:Middlewares/Third_Party/LwIP/src/core/tcp_in.c ****           /* might happen if tcp_output fails in tcp_rexmit_rto()
 882:Middlewares/Third_Party/LwIP/src/core/tcp_in.c ****              in which case the segment is on the unsent list */
 883:Middlewares/Third_Party/LwIP/src/core/tcp_in.c ****           rseg = pcb->unsent;
 2438              		.loc 1 883 16
 2439 0266 7B68     		ldr	r3, [r7, #4]
 2440 0268 DB6E     		ldr	r3, [r3, #108]
 2441 026a FB61     		str	r3, [r7, #28]
 884:Middlewares/Third_Party/LwIP/src/core/tcp_in.c ****           LWIP_ASSERT("no segment to free", rseg != NULL);
 2442              		.loc 1 884 11
 2443 026c FB69     		ldr	r3, [r7, #28]
 2444 026e 002B     		cmp	r3, #0
 2445 0270 06D1     		bne	.L152
 2446              		.loc 1 884 11 is_stmt 0 discriminator 1
 2447 0272 0E4B     		ldr	r3, .L208
 2448 0274 4FF45D72 		mov	r2, #884
 2449 0278 1749     		ldr	r1, .L208+44
ARM GAS  /tmp/ccWqLOXK.s 			page 62


 2450 027a 0E48     		ldr	r0, .L208+8
 2451 027c FFF7FEFF 		bl	printf
 2452              	.L152:
 885:Middlewares/Third_Party/LwIP/src/core/tcp_in.c ****           pcb->unsent = rseg->next;
 2453              		.loc 1 885 29 is_stmt 1
 2454 0280 FB69     		ldr	r3, [r7, #28]
 2455 0282 1A68     		ldr	r2, [r3]
 2456              		.loc 1 885 23
 2457 0284 7B68     		ldr	r3, [r7, #4]
 2458 0286 DA66     		str	r2, [r3, #108]
 2459 0288 03E0     		b	.L153
 2460              	.L151:
 886:Middlewares/Third_Party/LwIP/src/core/tcp_in.c ****         } else {
 887:Middlewares/Third_Party/LwIP/src/core/tcp_in.c ****           pcb->unacked = rseg->next;
 2461              		.loc 1 887 30
 2462 028a FB69     		ldr	r3, [r7, #28]
 2463 028c 1A68     		ldr	r2, [r3]
 2464              		.loc 1 887 24
 2465 028e 7B68     		ldr	r3, [r7, #4]
 2466 0290 1A67     		str	r2, [r3, #112]
 2467              	.L153:
 888:Middlewares/Third_Party/LwIP/src/core/tcp_in.c ****         }
 889:Middlewares/Third_Party/LwIP/src/core/tcp_in.c ****         tcp_seg_free(rseg);
 2468              		.loc 1 889 9
 2469 0292 F869     		ldr	r0, [r7, #28]
 2470 0294 FFF7FEFF 		bl	tcp_seg_free
 890:Middlewares/Third_Party/LwIP/src/core/tcp_in.c **** 
 891:Middlewares/Third_Party/LwIP/src/core/tcp_in.c ****         /* If there's nothing left to acknowledge, stop the retransmit
 892:Middlewares/Third_Party/LwIP/src/core/tcp_in.c ****            timer, otherwise reset it to start again */
 893:Middlewares/Third_Party/LwIP/src/core/tcp_in.c ****         if (pcb->unacked == NULL) {
 2471              		.loc 1 893 16
 2472 0298 7B68     		ldr	r3, [r7, #4]
 2473 029a 1B6F     		ldr	r3, [r3, #112]
 2474              		.loc 1 893 12
 2475 029c 002B     		cmp	r3, #0
 2476 029e 1DD1     		bne	.L154
 894:Middlewares/Third_Party/LwIP/src/core/tcp_in.c ****           pcb->rtime = -1;
 2477              		.loc 1 894 22
 2478 02a0 7B68     		ldr	r3, [r7, #4]
 2479 02a2 4FF6FF72 		movw	r2, #65535
 2480 02a6 1A86     		strh	r2, [r3, #48]	@ movhi
 2481 02a8 1FE0     		b	.L155
 2482              	.L209:
 2483 02aa 00BF     		.align	2
 2484              	.L208:
 2485 02ac 00000000 		.word	.LC0
 2486 02b0 34020000 		.word	.LC16
 2487 02b4 48000000 		.word	.LC2
 2488 02b8 00000000 		.word	flags
 2489 02bc 00000000 		.word	ackno
 2490 02c0 00000000 		.word	seqno
 2491 02c4 50020000 		.word	.LC17
 2492 02c8 00000000 		.word	recv_flags
 2493 02cc 00000000 		.word	tcp_ticks
 2494 02d0 00000000 		.word	tcphdr
 2495 02d4 70020000 		.word	.LC18
 2496 02d8 88020000 		.word	.LC19
ARM GAS  /tmp/ccWqLOXK.s 			page 63


 2497              	.L154:
 895:Middlewares/Third_Party/LwIP/src/core/tcp_in.c ****         } else {
 896:Middlewares/Third_Party/LwIP/src/core/tcp_in.c ****           pcb->rtime = 0;
 2498              		.loc 1 896 22
 2499 02dc 7B68     		ldr	r3, [r7, #4]
 2500 02de 0022     		movs	r2, #0
 2501 02e0 1A86     		strh	r2, [r3, #48]	@ movhi
 897:Middlewares/Third_Party/LwIP/src/core/tcp_in.c ****           pcb->nrtx = 0;
 2502              		.loc 1 897 21
 2503 02e2 7B68     		ldr	r3, [r7, #4]
 2504 02e4 0022     		movs	r2, #0
 2505 02e6 83F84220 		strb	r2, [r3, #66]
 2506              	.L155:
 898:Middlewares/Third_Party/LwIP/src/core/tcp_in.c ****         }
 899:Middlewares/Third_Party/LwIP/src/core/tcp_in.c **** 
 900:Middlewares/Third_Party/LwIP/src/core/tcp_in.c ****         /* Call the user specified function to call when successfully
 901:Middlewares/Third_Party/LwIP/src/core/tcp_in.c ****          * connected. */
 902:Middlewares/Third_Party/LwIP/src/core/tcp_in.c ****         TCP_EVENT_CONNECTED(pcb, ERR_OK, err);
 2507              		.loc 1 902 9
 2508 02ea 7B68     		ldr	r3, [r7, #4]
 2509 02ec D3F88830 		ldr	r3, [r3, #136]
 2510 02f0 002B     		cmp	r3, #0
 2511 02f2 0AD0     		beq	.L156
 2512              		.loc 1 902 9 is_stmt 0 discriminator 1
 2513 02f4 7B68     		ldr	r3, [r7, #4]
 2514 02f6 D3F88830 		ldr	r3, [r3, #136]
 2515 02fa 7A68     		ldr	r2, [r7, #4]
 2516 02fc 1069     		ldr	r0, [r2, #16]
 2517 02fe 0022     		movs	r2, #0
 2518 0300 7968     		ldr	r1, [r7, #4]
 2519 0302 9847     		blx	r3
 2520              	.LVL6:
 2521 0304 0346     		mov	r3, r0
 2522 0306 BB76     		strb	r3, [r7, #26]
 2523 0308 01E0     		b	.L157
 2524              	.L156:
 2525              		.loc 1 902 9 discriminator 2
 2526 030a 0023     		movs	r3, #0
 2527 030c BB76     		strb	r3, [r7, #26]
 2528              	.L157:
 903:Middlewares/Third_Party/LwIP/src/core/tcp_in.c ****         if (err == ERR_ABRT) {
 2529              		.loc 1 903 12 is_stmt 1
 2530 030e 97F91A30 		ldrsb	r3, [r7, #26]
 2531 0312 13F10D0F 		cmn	r3, #13
 2532 0316 02D1     		bne	.L158
 904:Middlewares/Third_Party/LwIP/src/core/tcp_in.c ****           return ERR_ABRT;
 2533              		.loc 1 904 18
 2534 0318 6FF00C03 		mvn	r3, #12
 2535 031c 50E2     		b	.L133
 2536              	.L158:
 905:Middlewares/Third_Party/LwIP/src/core/tcp_in.c ****         }
 906:Middlewares/Third_Party/LwIP/src/core/tcp_in.c ****         tcp_ack_now(pcb);
 2537              		.loc 1 906 9
 2538 031e 7B68     		ldr	r3, [r7, #4]
 2539 0320 5B8B     		ldrh	r3, [r3, #26]
 2540 0322 43F00203 		orr	r3, r3, #2
 2541 0326 9AB2     		uxth	r2, r3
ARM GAS  /tmp/ccWqLOXK.s 			page 64


 2542 0328 7B68     		ldr	r3, [r7, #4]
 2543 032a 5A83     		strh	r2, [r3, #26]	@ movhi
 907:Middlewares/Third_Party/LwIP/src/core/tcp_in.c ****       }
 908:Middlewares/Third_Party/LwIP/src/core/tcp_in.c ****       /* received ACK? possibly a half-open connection */
 909:Middlewares/Third_Party/LwIP/src/core/tcp_in.c ****       else if (flags & TCP_ACK) {
 910:Middlewares/Third_Party/LwIP/src/core/tcp_in.c ****         /* send a RST to bring the other side in a non-synchronized state. */
 911:Middlewares/Third_Party/LwIP/src/core/tcp_in.c ****         tcp_rst(pcb, ackno, seqno + tcplen, ip_current_dest_addr(),
 912:Middlewares/Third_Party/LwIP/src/core/tcp_in.c ****                 ip_current_src_addr(), tcphdr->dest, tcphdr->src);
 913:Middlewares/Third_Party/LwIP/src/core/tcp_in.c ****         /* Resend SYN immediately (don't wait for rto timeout) to establish
 914:Middlewares/Third_Party/LwIP/src/core/tcp_in.c ****           connection faster, but do not send more SYNs than we otherwise would
 915:Middlewares/Third_Party/LwIP/src/core/tcp_in.c ****           have, or we might get caught in a loop on loopback interfaces. */
 916:Middlewares/Third_Party/LwIP/src/core/tcp_in.c ****         if (pcb->nrtx < TCP_SYNMAXRTX) {
 917:Middlewares/Third_Party/LwIP/src/core/tcp_in.c ****           pcb->rtime = 0;
 918:Middlewares/Third_Party/LwIP/src/core/tcp_in.c ****           tcp_rexmit_rto(pcb);
 919:Middlewares/Third_Party/LwIP/src/core/tcp_in.c ****         }
 920:Middlewares/Third_Party/LwIP/src/core/tcp_in.c ****       }
 921:Middlewares/Third_Party/LwIP/src/core/tcp_in.c ****       break;
 2544              		.loc 1 921 7
 2545 032c 3AE2     		b	.L201
 2546              	.L145:
 909:Middlewares/Third_Party/LwIP/src/core/tcp_in.c ****         /* send a RST to bring the other side in a non-synchronized state. */
 2547              		.loc 1 909 22
 2548 032e 9D4B     		ldr	r3, .L210
 2549 0330 1B78     		ldrb	r3, [r3]	@ zero_extendqisi2
 2550 0332 03F01003 		and	r3, r3, #16
 909:Middlewares/Third_Party/LwIP/src/core/tcp_in.c ****         /* send a RST to bring the other side in a non-synchronized state. */
 2551              		.loc 1 909 15
 2552 0336 002B     		cmp	r3, #0
 2553 0338 00F03482 		beq	.L201
 911:Middlewares/Third_Party/LwIP/src/core/tcp_in.c ****                 ip_current_src_addr(), tcphdr->dest, tcphdr->src);
 2554              		.loc 1 911 9
 2555 033c 9A4B     		ldr	r3, .L210+4
 2556 033e 1968     		ldr	r1, [r3]
 2557 0340 9A4B     		ldr	r3, .L210+8
 2558 0342 1B88     		ldrh	r3, [r3]
 2559 0344 1A46     		mov	r2, r3
 2560 0346 9A4B     		ldr	r3, .L210+12
 2561 0348 1B68     		ldr	r3, [r3]
 2562 034a D018     		adds	r0, r2, r3
 912:Middlewares/Third_Party/LwIP/src/core/tcp_in.c ****         /* Resend SYN immediately (don't wait for rto timeout) to establish
 2563              		.loc 1 912 46
 2564 034c 994B     		ldr	r3, .L210+16
 2565 034e 1B68     		ldr	r3, [r3]
 911:Middlewares/Third_Party/LwIP/src/core/tcp_in.c ****                 ip_current_src_addr(), tcphdr->dest, tcphdr->src);
 2566              		.loc 1 911 9
 2567 0350 5B88     		ldrh	r3, [r3, #2]	@ unaligned
 2568 0352 9BB2     		uxth	r3, r3
 912:Middlewares/Third_Party/LwIP/src/core/tcp_in.c ****         /* Resend SYN immediately (don't wait for rto timeout) to establish
 2569              		.loc 1 912 60
 2570 0354 974A     		ldr	r2, .L210+16
 2571 0356 1268     		ldr	r2, [r2]
 911:Middlewares/Third_Party/LwIP/src/core/tcp_in.c ****                 ip_current_src_addr(), tcphdr->dest, tcphdr->src);
 2572              		.loc 1 911 9
 2573 0358 1288     		ldrh	r2, [r2]	@ unaligned
 2574 035a 92B2     		uxth	r2, r2
 2575 035c 0292     		str	r2, [sp, #8]
 2576 035e 0193     		str	r3, [sp, #4]
ARM GAS  /tmp/ccWqLOXK.s 			page 65


 2577 0360 954B     		ldr	r3, .L210+20
 2578 0362 0093     		str	r3, [sp]
 2579 0364 954B     		ldr	r3, .L210+24
 2580 0366 0246     		mov	r2, r0
 2581 0368 7868     		ldr	r0, [r7, #4]
 2582 036a FFF7FEFF 		bl	tcp_rst
 916:Middlewares/Third_Party/LwIP/src/core/tcp_in.c ****           pcb->rtime = 0;
 2583              		.loc 1 916 16
 2584 036e 7B68     		ldr	r3, [r7, #4]
 2585 0370 93F84230 		ldrb	r3, [r3, #66]	@ zero_extendqisi2
 916:Middlewares/Third_Party/LwIP/src/core/tcp_in.c ****           pcb->rtime = 0;
 2586              		.loc 1 916 12
 2587 0374 052B     		cmp	r3, #5
 2588 0376 00F21582 		bhi	.L201
 917:Middlewares/Third_Party/LwIP/src/core/tcp_in.c ****           tcp_rexmit_rto(pcb);
 2589              		.loc 1 917 22
 2590 037a 7B68     		ldr	r3, [r7, #4]
 2591 037c 0022     		movs	r2, #0
 2592 037e 1A86     		strh	r2, [r3, #48]	@ movhi
 918:Middlewares/Third_Party/LwIP/src/core/tcp_in.c ****         }
 2593              		.loc 1 918 11
 2594 0380 7868     		ldr	r0, [r7, #4]
 2595 0382 FFF7FEFF 		bl	tcp_rexmit_rto
 2596              		.loc 1 921 7
 2597 0386 0DE2     		b	.L201
 2598              	.L143:
 922:Middlewares/Third_Party/LwIP/src/core/tcp_in.c ****     case SYN_RCVD:
 923:Middlewares/Third_Party/LwIP/src/core/tcp_in.c ****       if (flags & TCP_ACK) {
 2599              		.loc 1 923 17
 2600 0388 864B     		ldr	r3, .L210
 2601 038a 1B78     		ldrb	r3, [r3]	@ zero_extendqisi2
 2602 038c 03F01003 		and	r3, r3, #16
 2603              		.loc 1 923 10
 2604 0390 002B     		cmp	r3, #0
 2605 0392 00F0A180 		beq	.L161
 924:Middlewares/Third_Party/LwIP/src/core/tcp_in.c ****         /* expected ACK number? */
 925:Middlewares/Third_Party/LwIP/src/core/tcp_in.c ****         if (TCP_SEQ_BETWEEN(ackno, pcb->lastack + 1, pcb->snd_nxt)) {
 2606              		.loc 1 925 13
 2607 0396 844B     		ldr	r3, .L210+4
 2608 0398 1A68     		ldr	r2, [r3]
 2609 039a 7B68     		ldr	r3, [r7, #4]
 2610 039c 5B6C     		ldr	r3, [r3, #68]
 2611 039e D31A     		subs	r3, r2, r3
 2612 03a0 013B     		subs	r3, r3, #1
 2613              		.loc 1 925 12
 2614 03a2 002B     		cmp	r3, #0
 2615 03a4 7EDB     		blt	.L162
 2616              		.loc 1 925 13 discriminator 1
 2617 03a6 804B     		ldr	r3, .L210+4
 2618 03a8 1A68     		ldr	r2, [r3]
 2619 03aa 7B68     		ldr	r3, [r7, #4]
 2620 03ac 1B6D     		ldr	r3, [r3, #80]
 2621 03ae D31A     		subs	r3, r2, r3
 2622 03b0 002B     		cmp	r3, #0
 2623 03b2 77DC     		bgt	.L162
 926:Middlewares/Third_Party/LwIP/src/core/tcp_in.c ****           pcb->state = ESTABLISHED;
 2624              		.loc 1 926 22
ARM GAS  /tmp/ccWqLOXK.s 			page 66


 2625 03b4 7B68     		ldr	r3, [r7, #4]
 2626 03b6 0422     		movs	r2, #4
 2627 03b8 1A75     		strb	r2, [r3, #20]
 927:Middlewares/Third_Party/LwIP/src/core/tcp_in.c ****           LWIP_DEBUGF(TCP_DEBUG, ("TCP connection established %"U16_F" -> %"U16_F".\n", inseg.tcphd
 928:Middlewares/Third_Party/LwIP/src/core/tcp_in.c **** #if LWIP_CALLBACK_API || TCP_LISTEN_BACKLOG
 929:Middlewares/Third_Party/LwIP/src/core/tcp_in.c ****           if (pcb->listener == NULL) {
 2628              		.loc 1 929 18
 2629 03ba 7B68     		ldr	r3, [r7, #4]
 2630 03bc DB6F     		ldr	r3, [r3, #124]
 2631              		.loc 1 929 14
 2632 03be 002B     		cmp	r3, #0
 2633 03c0 02D1     		bne	.L163
 930:Middlewares/Third_Party/LwIP/src/core/tcp_in.c ****             /* listen pcb might be closed by now */
 931:Middlewares/Third_Party/LwIP/src/core/tcp_in.c ****             err = ERR_VAL;
 2634              		.loc 1 931 17
 2635 03c2 FA23     		movs	r3, #250
 2636 03c4 BB76     		strb	r3, [r7, #26]
 2637 03c6 1DE0     		b	.L164
 2638              	.L163:
 932:Middlewares/Third_Party/LwIP/src/core/tcp_in.c ****           } else
 933:Middlewares/Third_Party/LwIP/src/core/tcp_in.c **** #endif /* LWIP_CALLBACK_API || TCP_LISTEN_BACKLOG */
 934:Middlewares/Third_Party/LwIP/src/core/tcp_in.c ****           {
 935:Middlewares/Third_Party/LwIP/src/core/tcp_in.c **** #if LWIP_CALLBACK_API
 936:Middlewares/Third_Party/LwIP/src/core/tcp_in.c ****             LWIP_ASSERT("pcb->listener->accept != NULL", pcb->listener->accept != NULL);
 2639              		.loc 1 936 13
 2640 03c8 7B68     		ldr	r3, [r7, #4]
 2641 03ca DB6F     		ldr	r3, [r3, #124]
 2642 03cc 9B69     		ldr	r3, [r3, #24]
 2643 03ce 002B     		cmp	r3, #0
 2644 03d0 06D1     		bne	.L165
 2645              		.loc 1 936 13 is_stmt 0 discriminator 1
 2646 03d2 7B4B     		ldr	r3, .L210+28
 2647 03d4 4FF46A72 		mov	r2, #936
 2648 03d8 7A49     		ldr	r1, .L210+32
 2649 03da 7B48     		ldr	r0, .L210+36
 2650 03dc FFF7FEFF 		bl	printf
 2651              	.L165:
 937:Middlewares/Third_Party/LwIP/src/core/tcp_in.c **** #endif
 938:Middlewares/Third_Party/LwIP/src/core/tcp_in.c ****             tcp_backlog_accepted(pcb);
 939:Middlewares/Third_Party/LwIP/src/core/tcp_in.c ****             /* Call the accept function. */
 940:Middlewares/Third_Party/LwIP/src/core/tcp_in.c ****             TCP_EVENT_ACCEPT(pcb->listener, pcb, pcb->callback_arg, ERR_OK, err);
 2652              		.loc 1 940 13 is_stmt 1
 2653 03e0 7B68     		ldr	r3, [r7, #4]
 2654 03e2 DB6F     		ldr	r3, [r3, #124]
 2655 03e4 9B69     		ldr	r3, [r3, #24]
 2656 03e6 002B     		cmp	r3, #0
 2657 03e8 0AD0     		beq	.L166
 2658              		.loc 1 940 13 is_stmt 0 discriminator 1
 2659 03ea 7B68     		ldr	r3, [r7, #4]
 2660 03ec DB6F     		ldr	r3, [r3, #124]
 2661 03ee 9B69     		ldr	r3, [r3, #24]
 2662 03f0 7A68     		ldr	r2, [r7, #4]
 2663 03f2 1069     		ldr	r0, [r2, #16]
 2664 03f4 0022     		movs	r2, #0
 2665 03f6 7968     		ldr	r1, [r7, #4]
 2666 03f8 9847     		blx	r3
 2667              	.LVL7:
ARM GAS  /tmp/ccWqLOXK.s 			page 67


 2668 03fa 0346     		mov	r3, r0
 2669 03fc BB76     		strb	r3, [r7, #26]
 2670 03fe 01E0     		b	.L164
 2671              	.L166:
 2672              		.loc 1 940 13 discriminator 2
 2673 0400 F023     		movs	r3, #240
 2674 0402 BB76     		strb	r3, [r7, #26]
 2675              	.L164:
 941:Middlewares/Third_Party/LwIP/src/core/tcp_in.c ****           }
 942:Middlewares/Third_Party/LwIP/src/core/tcp_in.c ****           if (err != ERR_OK) {
 2676              		.loc 1 942 14 is_stmt 1
 2677 0404 97F91A30 		ldrsb	r3, [r7, #26]
 2678 0408 002B     		cmp	r3, #0
 2679 040a 0AD0     		beq	.L167
 943:Middlewares/Third_Party/LwIP/src/core/tcp_in.c ****             /* If the accept function returns with an error, we abort
 944:Middlewares/Third_Party/LwIP/src/core/tcp_in.c ****              * the connection. */
 945:Middlewares/Third_Party/LwIP/src/core/tcp_in.c ****             /* Already aborted? */
 946:Middlewares/Third_Party/LwIP/src/core/tcp_in.c ****             if (err != ERR_ABRT) {
 2680              		.loc 1 946 16
 2681 040c 97F91A30 		ldrsb	r3, [r7, #26]
 2682 0410 13F10D0F 		cmn	r3, #13
 2683 0414 02D0     		beq	.L168
 947:Middlewares/Third_Party/LwIP/src/core/tcp_in.c ****               tcp_abort(pcb);
 2684              		.loc 1 947 15
 2685 0416 7868     		ldr	r0, [r7, #4]
 2686 0418 FFF7FEFF 		bl	tcp_abort
 2687              	.L168:
 948:Middlewares/Third_Party/LwIP/src/core/tcp_in.c ****             }
 949:Middlewares/Third_Party/LwIP/src/core/tcp_in.c ****             return ERR_ABRT;
 2688              		.loc 1 949 20
 2689 041c 6FF00C03 		mvn	r3, #12
 2690 0420 CEE1     		b	.L133
 2691              	.L167:
 950:Middlewares/Third_Party/LwIP/src/core/tcp_in.c ****           }
 951:Middlewares/Third_Party/LwIP/src/core/tcp_in.c ****           /* If there was any data contained within this ACK,
 952:Middlewares/Third_Party/LwIP/src/core/tcp_in.c ****            * we'd better pass it on to the application as well. */
 953:Middlewares/Third_Party/LwIP/src/core/tcp_in.c ****           tcp_receive(pcb);
 2692              		.loc 1 953 11
 2693 0422 7868     		ldr	r0, [r7, #4]
 2694 0424 FFF7FEFF 		bl	tcp_receive
 954:Middlewares/Third_Party/LwIP/src/core/tcp_in.c **** 
 955:Middlewares/Third_Party/LwIP/src/core/tcp_in.c ****           /* Prevent ACK for SYN to generate a sent event */
 956:Middlewares/Third_Party/LwIP/src/core/tcp_in.c ****           if (recv_acked != 0) {
 2695              		.loc 1 956 26
 2696 0428 684B     		ldr	r3, .L210+40
 2697 042a 1B88     		ldrh	r3, [r3]
 2698              		.loc 1 956 14
 2699 042c 002B     		cmp	r3, #0
 2700 042e 05D0     		beq	.L169
 957:Middlewares/Third_Party/LwIP/src/core/tcp_in.c ****             recv_acked--;
 2701              		.loc 1 957 23
 2702 0430 664B     		ldr	r3, .L210+40
 2703 0432 1B88     		ldrh	r3, [r3]
 2704 0434 013B     		subs	r3, r3, #1
 2705 0436 9AB2     		uxth	r2, r3
 2706 0438 644B     		ldr	r3, .L210+40
 2707 043a 1A80     		strh	r2, [r3]	@ movhi
ARM GAS  /tmp/ccWqLOXK.s 			page 68


 2708              	.L169:
 958:Middlewares/Third_Party/LwIP/src/core/tcp_in.c ****           }
 959:Middlewares/Third_Party/LwIP/src/core/tcp_in.c **** 
 960:Middlewares/Third_Party/LwIP/src/core/tcp_in.c ****           pcb->cwnd = LWIP_TCP_CALC_INITIAL_CWND(pcb->mss);
 2709              		.loc 1 960 23
 2710 043c 7B68     		ldr	r3, [r7, #4]
 2711 043e 5B8E     		ldrh	r3, [r3, #50]
 2712 0440 9A00     		lsls	r2, r3, #2
 2713 0442 7B68     		ldr	r3, [r7, #4]
 2714 0444 5B8E     		ldrh	r3, [r3, #50]
 2715 0446 5B00     		lsls	r3, r3, #1
 2716 0448 41F21C11 		movw	r1, #4380
 2717 044c 8B42     		cmp	r3, r1
 2718 044e 38BF     		it	cc
 2719 0450 0B46     		movcc	r3, r1
 2720 0452 9A42     		cmp	r2, r3
 2721 0454 04D2     		bcs	.L170
 2722              		.loc 1 960 23 is_stmt 0 discriminator 1
 2723 0456 7B68     		ldr	r3, [r7, #4]
 2724 0458 5B8E     		ldrh	r3, [r3, #50]
 2725 045a 9B00     		lsls	r3, r3, #2
 2726 045c 9BB2     		uxth	r3, r3
 2727 045e 0DE0     		b	.L171
 2728              	.L170:
 2729              		.loc 1 960 23 discriminator 2
 2730 0460 7B68     		ldr	r3, [r7, #4]
 2731 0462 5B8E     		ldrh	r3, [r3, #50]
 2732 0464 5B00     		lsls	r3, r3, #1
 2733 0466 41F21C12 		movw	r2, #4380
 2734 046a 9342     		cmp	r3, r2
 2735 046c 04D9     		bls	.L172
 2736              		.loc 1 960 23 discriminator 4
 2737 046e 7B68     		ldr	r3, [r7, #4]
 2738 0470 5B8E     		ldrh	r3, [r3, #50]
 2739 0472 5B00     		lsls	r3, r3, #1
 2740 0474 9BB2     		uxth	r3, r3
 2741 0476 01E0     		b	.L171
 2742              	.L172:
 2743              		.loc 1 960 23 discriminator 5
 2744 0478 41F21C13 		movw	r3, #4380
 2745              	.L171:
 2746              		.loc 1 960 21 is_stmt 1 discriminator 8
 2747 047c 7A68     		ldr	r2, [r7, #4]
 2748 047e A2F84830 		strh	r3, [r2, #72]	@ movhi
 961:Middlewares/Third_Party/LwIP/src/core/tcp_in.c ****           LWIP_DEBUGF(TCP_CWND_DEBUG, ("tcp_process (SYN_RCVD): cwnd %"TCPWNDSIZE_F
 962:Middlewares/Third_Party/LwIP/src/core/tcp_in.c ****                                        " ssthresh %"TCPWNDSIZE_F"\n",
 963:Middlewares/Third_Party/LwIP/src/core/tcp_in.c ****                                        pcb->cwnd, pcb->ssthresh));
 964:Middlewares/Third_Party/LwIP/src/core/tcp_in.c **** 
 965:Middlewares/Third_Party/LwIP/src/core/tcp_in.c ****           if (recv_flags & TF_GOT_FIN) {
 2749              		.loc 1 965 26 discriminator 8
 2750 0482 534B     		ldr	r3, .L210+44
 2751 0484 1B78     		ldrb	r3, [r3]	@ zero_extendqisi2
 2752 0486 03F02003 		and	r3, r3, #32
 2753              		.loc 1 965 14 discriminator 8
 2754 048a 002B     		cmp	r3, #0
 2755 048c 37D0     		beq	.L176
 966:Middlewares/Third_Party/LwIP/src/core/tcp_in.c ****             tcp_ack_now(pcb);
ARM GAS  /tmp/ccWqLOXK.s 			page 69


 2756              		.loc 1 966 13
 2757 048e 7B68     		ldr	r3, [r7, #4]
 2758 0490 5B8B     		ldrh	r3, [r3, #26]
 2759 0492 43F00203 		orr	r3, r3, #2
 2760 0496 9AB2     		uxth	r2, r3
 2761 0498 7B68     		ldr	r3, [r7, #4]
 2762 049a 5A83     		strh	r2, [r3, #26]	@ movhi
 967:Middlewares/Third_Party/LwIP/src/core/tcp_in.c ****             pcb->state = CLOSE_WAIT;
 2763              		.loc 1 967 24
 2764 049c 7B68     		ldr	r3, [r7, #4]
 2765 049e 0722     		movs	r2, #7
 2766 04a0 1A75     		strb	r2, [r3, #20]
 965:Middlewares/Third_Party/LwIP/src/core/tcp_in.c ****             tcp_ack_now(pcb);
 2767              		.loc 1 965 14
 2768 04a2 2CE0     		b	.L176
 2769              	.L162:
 968:Middlewares/Third_Party/LwIP/src/core/tcp_in.c ****           }
 969:Middlewares/Third_Party/LwIP/src/core/tcp_in.c ****         } else {
 970:Middlewares/Third_Party/LwIP/src/core/tcp_in.c ****           /* incorrect ACK number, send RST */
 971:Middlewares/Third_Party/LwIP/src/core/tcp_in.c ****           tcp_rst(pcb, ackno, seqno + tcplen, ip_current_dest_addr(),
 2770              		.loc 1 971 11
 2771 04a4 404B     		ldr	r3, .L210+4
 2772 04a6 1968     		ldr	r1, [r3]
 2773 04a8 404B     		ldr	r3, .L210+8
 2774 04aa 1B88     		ldrh	r3, [r3]
 2775 04ac 1A46     		mov	r2, r3
 2776 04ae 404B     		ldr	r3, .L210+12
 2777 04b0 1B68     		ldr	r3, [r3]
 2778 04b2 D018     		adds	r0, r2, r3
 972:Middlewares/Third_Party/LwIP/src/core/tcp_in.c ****                   ip_current_src_addr(), tcphdr->dest, tcphdr->src);
 2779              		.loc 1 972 48
 2780 04b4 3F4B     		ldr	r3, .L210+16
 2781 04b6 1B68     		ldr	r3, [r3]
 971:Middlewares/Third_Party/LwIP/src/core/tcp_in.c ****                   ip_current_src_addr(), tcphdr->dest, tcphdr->src);
 2782              		.loc 1 971 11
 2783 04b8 5B88     		ldrh	r3, [r3, #2]	@ unaligned
 2784 04ba 9BB2     		uxth	r3, r3
 2785              		.loc 1 972 62
 2786 04bc 3D4A     		ldr	r2, .L210+16
 2787 04be 1268     		ldr	r2, [r2]
 971:Middlewares/Third_Party/LwIP/src/core/tcp_in.c ****                   ip_current_src_addr(), tcphdr->dest, tcphdr->src);
 2788              		.loc 1 971 11
 2789 04c0 1288     		ldrh	r2, [r2]	@ unaligned
 2790 04c2 92B2     		uxth	r2, r2
 2791 04c4 0292     		str	r2, [sp, #8]
 2792 04c6 0193     		str	r3, [sp, #4]
 2793 04c8 3B4B     		ldr	r3, .L210+20
 2794 04ca 0093     		str	r3, [sp]
 2795 04cc 3B4B     		ldr	r3, .L210+24
 2796 04ce 0246     		mov	r2, r0
 2797 04d0 7868     		ldr	r0, [r7, #4]
 2798 04d2 FFF7FEFF 		bl	tcp_rst
 973:Middlewares/Third_Party/LwIP/src/core/tcp_in.c ****         }
 974:Middlewares/Third_Party/LwIP/src/core/tcp_in.c ****       } else if ((flags & TCP_SYN) && (seqno == pcb->rcv_nxt - 1)) {
 975:Middlewares/Third_Party/LwIP/src/core/tcp_in.c ****         /* Looks like another copy of the SYN - retransmit our SYN-ACK */
 976:Middlewares/Third_Party/LwIP/src/core/tcp_in.c ****         tcp_rexmit(pcb);
 977:Middlewares/Third_Party/LwIP/src/core/tcp_in.c ****       }
ARM GAS  /tmp/ccWqLOXK.s 			page 70


 978:Middlewares/Third_Party/LwIP/src/core/tcp_in.c ****       break;
 2799              		.loc 1 978 7
 2800 04d6 67E1     		b	.L202
 2801              	.L161:
 974:Middlewares/Third_Party/LwIP/src/core/tcp_in.c ****         /* Looks like another copy of the SYN - retransmit our SYN-ACK */
 2802              		.loc 1 974 25
 2803 04d8 324B     		ldr	r3, .L210
 2804 04da 1B78     		ldrb	r3, [r3]	@ zero_extendqisi2
 2805 04dc 03F00203 		and	r3, r3, #2
 974:Middlewares/Third_Party/LwIP/src/core/tcp_in.c ****         /* Looks like another copy of the SYN - retransmit our SYN-ACK */
 2806              		.loc 1 974 17
 2807 04e0 002B     		cmp	r3, #0
 2808 04e2 00F06181 		beq	.L202
 974:Middlewares/Third_Party/LwIP/src/core/tcp_in.c ****         /* Looks like another copy of the SYN - retransmit our SYN-ACK */
 2809              		.loc 1 974 52 discriminator 1
 2810 04e6 7B68     		ldr	r3, [r7, #4]
 2811 04e8 5B6A     		ldr	r3, [r3, #36]
 974:Middlewares/Third_Party/LwIP/src/core/tcp_in.c ****         /* Looks like another copy of the SYN - retransmit our SYN-ACK */
 2812              		.loc 1 974 62 discriminator 1
 2813 04ea 5A1E     		subs	r2, r3, #1
 974:Middlewares/Third_Party/LwIP/src/core/tcp_in.c ****         /* Looks like another copy of the SYN - retransmit our SYN-ACK */
 2814              		.loc 1 974 46 discriminator 1
 2815 04ec 304B     		ldr	r3, .L210+12
 2816 04ee 1B68     		ldr	r3, [r3]
 974:Middlewares/Third_Party/LwIP/src/core/tcp_in.c ****         /* Looks like another copy of the SYN - retransmit our SYN-ACK */
 2817              		.loc 1 974 36 discriminator 1
 2818 04f0 9A42     		cmp	r2, r3
 2819 04f2 40F05981 		bne	.L202
 976:Middlewares/Third_Party/LwIP/src/core/tcp_in.c ****       }
 2820              		.loc 1 976 9
 2821 04f6 7868     		ldr	r0, [r7, #4]
 2822 04f8 FFF7FEFF 		bl	tcp_rexmit
 2823              		.loc 1 978 7
 2824 04fc 54E1     		b	.L202
 2825              	.L176:
 2826              		.loc 1 978 7 is_stmt 0 discriminator 2
 2827 04fe 53E1     		b	.L202
 2828              	.L140:
 979:Middlewares/Third_Party/LwIP/src/core/tcp_in.c ****     case CLOSE_WAIT:
 980:Middlewares/Third_Party/LwIP/src/core/tcp_in.c ****     /* FALLTHROUGH */
 981:Middlewares/Third_Party/LwIP/src/core/tcp_in.c ****     case ESTABLISHED:
 982:Middlewares/Third_Party/LwIP/src/core/tcp_in.c ****       tcp_receive(pcb);
 2829              		.loc 1 982 7 is_stmt 1
 2830 0500 7868     		ldr	r0, [r7, #4]
 2831 0502 FFF7FEFF 		bl	tcp_receive
 983:Middlewares/Third_Party/LwIP/src/core/tcp_in.c ****       if (recv_flags & TF_GOT_FIN) { /* passive close */
 2832              		.loc 1 983 22
 2833 0506 324B     		ldr	r3, .L210+44
 2834 0508 1B78     		ldrb	r3, [r3]	@ zero_extendqisi2
 2835 050a 03F02003 		and	r3, r3, #32
 2836              		.loc 1 983 10
 2837 050e 002B     		cmp	r3, #0
 2838 0510 00F04C81 		beq	.L203
 984:Middlewares/Third_Party/LwIP/src/core/tcp_in.c ****         tcp_ack_now(pcb);
 2839              		.loc 1 984 9
 2840 0514 7B68     		ldr	r3, [r7, #4]
 2841 0516 5B8B     		ldrh	r3, [r3, #26]
ARM GAS  /tmp/ccWqLOXK.s 			page 71


 2842 0518 43F00203 		orr	r3, r3, #2
 2843 051c 9AB2     		uxth	r2, r3
 2844 051e 7B68     		ldr	r3, [r7, #4]
 2845 0520 5A83     		strh	r2, [r3, #26]	@ movhi
 985:Middlewares/Third_Party/LwIP/src/core/tcp_in.c ****         pcb->state = CLOSE_WAIT;
 2846              		.loc 1 985 20
 2847 0522 7B68     		ldr	r3, [r7, #4]
 2848 0524 0722     		movs	r2, #7
 2849 0526 1A75     		strb	r2, [r3, #20]
 986:Middlewares/Third_Party/LwIP/src/core/tcp_in.c ****       }
 987:Middlewares/Third_Party/LwIP/src/core/tcp_in.c ****       break;
 2850              		.loc 1 987 7
 2851 0528 40E1     		b	.L203
 2852              	.L142:
 988:Middlewares/Third_Party/LwIP/src/core/tcp_in.c ****     case FIN_WAIT_1:
 989:Middlewares/Third_Party/LwIP/src/core/tcp_in.c ****       tcp_receive(pcb);
 2853              		.loc 1 989 7
 2854 052a 7868     		ldr	r0, [r7, #4]
 2855 052c FFF7FEFF 		bl	tcp_receive
 990:Middlewares/Third_Party/LwIP/src/core/tcp_in.c ****       if (recv_flags & TF_GOT_FIN) {
 2856              		.loc 1 990 22
 2857 0530 274B     		ldr	r3, .L210+44
 2858 0532 1B78     		ldrb	r3, [r3]	@ zero_extendqisi2
 2859 0534 03F02003 		and	r3, r3, #32
 2860              		.loc 1 990 10
 2861 0538 002B     		cmp	r3, #0
 2862 053a 71D0     		beq	.L178
 991:Middlewares/Third_Party/LwIP/src/core/tcp_in.c ****         if ((flags & TCP_ACK) && (ackno == pcb->snd_nxt) &&
 2863              		.loc 1 991 20
 2864 053c 194B     		ldr	r3, .L210
 2865 053e 1B78     		ldrb	r3, [r3]	@ zero_extendqisi2
 2866 0540 03F01003 		and	r3, r3, #16
 2867              		.loc 1 991 12
 2868 0544 002B     		cmp	r3, #0
 2869 0546 60D0     		beq	.L179
 2870              		.loc 1 991 47 discriminator 1
 2871 0548 7B68     		ldr	r3, [r7, #4]
 2872 054a 1A6D     		ldr	r2, [r3, #80]
 2873              		.loc 1 991 41 discriminator 1
 2874 054c 164B     		ldr	r3, .L210+4
 2875 054e 1B68     		ldr	r3, [r3]
 2876              		.loc 1 991 31 discriminator 1
 2877 0550 9A42     		cmp	r2, r3
 2878 0552 5AD1     		bne	.L179
 992:Middlewares/Third_Party/LwIP/src/core/tcp_in.c ****             pcb->unsent == NULL) {
 2879              		.loc 1 992 16 discriminator 2
 2880 0554 7B68     		ldr	r3, [r7, #4]
 2881 0556 DB6E     		ldr	r3, [r3, #108]
 991:Middlewares/Third_Party/LwIP/src/core/tcp_in.c ****         if ((flags & TCP_ACK) && (ackno == pcb->snd_nxt) &&
 2882              		.loc 1 991 58 discriminator 2
 2883 0558 002B     		cmp	r3, #0
 2884 055a 56D1     		bne	.L179
 993:Middlewares/Third_Party/LwIP/src/core/tcp_in.c ****           LWIP_DEBUGF(TCP_DEBUG,
 994:Middlewares/Third_Party/LwIP/src/core/tcp_in.c ****                       ("TCP connection closed: FIN_WAIT_1 %"U16_F" -> %"U16_F".\n", inseg.tcphdr->s
 995:Middlewares/Third_Party/LwIP/src/core/tcp_in.c ****           tcp_ack_now(pcb);
 2885              		.loc 1 995 11
 2886 055c 7B68     		ldr	r3, [r7, #4]
ARM GAS  /tmp/ccWqLOXK.s 			page 72


 2887 055e 5B8B     		ldrh	r3, [r3, #26]
 2888 0560 43F00203 		orr	r3, r3, #2
 2889 0564 9AB2     		uxth	r2, r3
 2890 0566 7B68     		ldr	r3, [r7, #4]
 2891 0568 5A83     		strh	r2, [r3, #26]	@ movhi
 996:Middlewares/Third_Party/LwIP/src/core/tcp_in.c ****           tcp_pcb_purge(pcb);
 2892              		.loc 1 996 11
 2893 056a 7868     		ldr	r0, [r7, #4]
 2894 056c FFF7FEFF 		bl	tcp_pcb_purge
 997:Middlewares/Third_Party/LwIP/src/core/tcp_in.c ****           TCP_RMV_ACTIVE(pcb);
 2895              		.loc 1 997 11
 2896 0570 184B     		ldr	r3, .L210+48
 2897 0572 1B68     		ldr	r3, [r3]
 2898 0574 7A68     		ldr	r2, [r7, #4]
 2899 0576 9A42     		cmp	r2, r3
 2900 0578 05D1     		bne	.L180
 2901              		.loc 1 997 11 is_stmt 0 discriminator 1
 2902 057a 164B     		ldr	r3, .L210+48
 2903 057c 1B68     		ldr	r3, [r3]
 2904 057e DB68     		ldr	r3, [r3, #12]
 2905 0580 144A     		ldr	r2, .L210+48
 2906 0582 1360     		str	r3, [r2]
 2907 0584 2EE0     		b	.L181
 2908              	.L180:
 2909              	.LBB7:
 2910              		.loc 1 997 11 discriminator 2
 2911 0586 134B     		ldr	r3, .L210+48
 2912 0588 1B68     		ldr	r3, [r3]
 2913 058a 7B61     		str	r3, [r7, #20]
 2914 058c 27E0     		b	.L182
 2915              	.L184:
 2916              		.loc 1 997 11 discriminator 9
 2917 058e 7B69     		ldr	r3, [r7, #20]
 2918 0590 DB68     		ldr	r3, [r3, #12]
 2919 0592 7A68     		ldr	r2, [r7, #4]
 2920 0594 9A42     		cmp	r2, r3
 2921 0596 1FD1     		bne	.L183
 2922              		.loc 1 997 11 discriminator 5
 2923 0598 7B68     		ldr	r3, [r7, #4]
 2924 059a DA68     		ldr	r2, [r3, #12]
 2925 059c 7B69     		ldr	r3, [r7, #20]
 2926 059e DA60     		str	r2, [r3, #12]
 2927 05a0 20E0     		b	.L181
 2928              	.L211:
 2929 05a2 00BF     		.align	2
 2930              	.L210:
 2931 05a4 00000000 		.word	flags
 2932 05a8 00000000 		.word	ackno
 2933 05ac 00000000 		.word	tcplen
 2934 05b0 00000000 		.word	seqno
 2935 05b4 00000000 		.word	tcphdr
 2936 05b8 10000000 		.word	ip_data+16
 2937 05bc 14000000 		.word	ip_data+20
 2938 05c0 00000000 		.word	.LC0
 2939 05c4 9C020000 		.word	.LC20
 2940 05c8 48000000 		.word	.LC2
 2941 05cc 00000000 		.word	recv_acked
ARM GAS  /tmp/ccWqLOXK.s 			page 73


 2942 05d0 00000000 		.word	recv_flags
 2943 05d4 00000000 		.word	tcp_active_pcbs
 2944              	.L183:
 2945              		.loc 1 997 11 discriminator 6
 2946 05d8 7B69     		ldr	r3, [r7, #20]
 2947 05da DB68     		ldr	r3, [r3, #12]
 2948 05dc 7B61     		str	r3, [r7, #20]
 2949              	.L182:
 2950              		.loc 1 997 11 discriminator 8
 2951 05de 7B69     		ldr	r3, [r7, #20]
 2952 05e0 002B     		cmp	r3, #0
 2953 05e2 D4D1     		bne	.L184
 2954              	.L181:
 2955              	.LBE7:
 2956              		.loc 1 997 11 discriminator 10
 2957 05e4 7B68     		ldr	r3, [r7, #4]
 2958 05e6 0022     		movs	r2, #0
 2959 05e8 DA60     		str	r2, [r3, #12]
 2960 05ea 774B     		ldr	r3, .L212
 2961 05ec 0122     		movs	r2, #1
 2962 05ee 1A70     		strb	r2, [r3]
 998:Middlewares/Third_Party/LwIP/src/core/tcp_in.c ****           pcb->state = TIME_WAIT;
 2963              		.loc 1 998 22 is_stmt 1 discriminator 10
 2964 05f0 7B68     		ldr	r3, [r7, #4]
 2965 05f2 0A22     		movs	r2, #10
 2966 05f4 1A75     		strb	r2, [r3, #20]
 999:Middlewares/Third_Party/LwIP/src/core/tcp_in.c ****           TCP_REG(&tcp_tw_pcbs, pcb);
 2967              		.loc 1 999 11 discriminator 10
 2968 05f6 754B     		ldr	r3, .L212+4
 2969 05f8 1A68     		ldr	r2, [r3]
 2970 05fa 7B68     		ldr	r3, [r7, #4]
 2971 05fc DA60     		str	r2, [r3, #12]
 2972 05fe 734A     		ldr	r2, .L212+4
 2973 0600 7B68     		ldr	r3, [r7, #4]
 2974 0602 1360     		str	r3, [r2]
 2975 0604 FFF7FEFF 		bl	tcp_timer_needed
1000:Middlewares/Third_Party/LwIP/src/core/tcp_in.c ****         } else {
1001:Middlewares/Third_Party/LwIP/src/core/tcp_in.c ****           tcp_ack_now(pcb);
1002:Middlewares/Third_Party/LwIP/src/core/tcp_in.c ****           pcb->state = CLOSING;
1003:Middlewares/Third_Party/LwIP/src/core/tcp_in.c ****         }
1004:Middlewares/Third_Party/LwIP/src/core/tcp_in.c ****       } else if ((flags & TCP_ACK) && (ackno == pcb->snd_nxt) &&
1005:Middlewares/Third_Party/LwIP/src/core/tcp_in.c ****                  pcb->unsent == NULL) {
1006:Middlewares/Third_Party/LwIP/src/core/tcp_in.c ****         pcb->state = FIN_WAIT_2;
1007:Middlewares/Third_Party/LwIP/src/core/tcp_in.c ****       }
1008:Middlewares/Third_Party/LwIP/src/core/tcp_in.c ****       break;
 2976              		.loc 1 1008 7 discriminator 10
 2977 0608 D2E0     		b	.L204
 2978              	.L179:
1001:Middlewares/Third_Party/LwIP/src/core/tcp_in.c ****           pcb->state = CLOSING;
 2979              		.loc 1 1001 11
 2980 060a 7B68     		ldr	r3, [r7, #4]
 2981 060c 5B8B     		ldrh	r3, [r3, #26]
 2982 060e 43F00203 		orr	r3, r3, #2
 2983 0612 9AB2     		uxth	r2, r3
 2984 0614 7B68     		ldr	r3, [r7, #4]
 2985 0616 5A83     		strh	r2, [r3, #26]	@ movhi
1002:Middlewares/Third_Party/LwIP/src/core/tcp_in.c ****         }
ARM GAS  /tmp/ccWqLOXK.s 			page 74


 2986              		.loc 1 1002 22
 2987 0618 7B68     		ldr	r3, [r7, #4]
 2988 061a 0822     		movs	r2, #8
 2989 061c 1A75     		strb	r2, [r3, #20]
 2990              		.loc 1 1008 7
 2991 061e C7E0     		b	.L204
 2992              	.L178:
1004:Middlewares/Third_Party/LwIP/src/core/tcp_in.c ****                  pcb->unsent == NULL) {
 2993              		.loc 1 1004 25
 2994 0620 6B4B     		ldr	r3, .L212+8
 2995 0622 1B78     		ldrb	r3, [r3]	@ zero_extendqisi2
 2996 0624 03F01003 		and	r3, r3, #16
1004:Middlewares/Third_Party/LwIP/src/core/tcp_in.c ****                  pcb->unsent == NULL) {
 2997              		.loc 1 1004 17
 2998 0628 002B     		cmp	r3, #0
 2999 062a 00F0C180 		beq	.L204
1004:Middlewares/Third_Party/LwIP/src/core/tcp_in.c ****                  pcb->unsent == NULL) {
 3000              		.loc 1 1004 52 discriminator 1
 3001 062e 7B68     		ldr	r3, [r7, #4]
 3002 0630 1A6D     		ldr	r2, [r3, #80]
1004:Middlewares/Third_Party/LwIP/src/core/tcp_in.c ****                  pcb->unsent == NULL) {
 3003              		.loc 1 1004 46 discriminator 1
 3004 0632 684B     		ldr	r3, .L212+12
 3005 0634 1B68     		ldr	r3, [r3]
1004:Middlewares/Third_Party/LwIP/src/core/tcp_in.c ****                  pcb->unsent == NULL) {
 3006              		.loc 1 1004 36 discriminator 1
 3007 0636 9A42     		cmp	r2, r3
 3008 0638 40F0BA80 		bne	.L204
1005:Middlewares/Third_Party/LwIP/src/core/tcp_in.c ****         pcb->state = FIN_WAIT_2;
 3009              		.loc 1 1005 21 discriminator 2
 3010 063c 7B68     		ldr	r3, [r7, #4]
 3011 063e DB6E     		ldr	r3, [r3, #108]
1004:Middlewares/Third_Party/LwIP/src/core/tcp_in.c ****                  pcb->unsent == NULL) {
 3012              		.loc 1 1004 63 discriminator 2
 3013 0640 002B     		cmp	r3, #0
 3014 0642 40F0B580 		bne	.L204
1006:Middlewares/Third_Party/LwIP/src/core/tcp_in.c ****       }
 3015              		.loc 1 1006 20
 3016 0646 7B68     		ldr	r3, [r7, #4]
 3017 0648 0622     		movs	r2, #6
 3018 064a 1A75     		strb	r2, [r3, #20]
 3019              		.loc 1 1008 7
 3020 064c B0E0     		b	.L204
 3021              	.L141:
1009:Middlewares/Third_Party/LwIP/src/core/tcp_in.c ****     case FIN_WAIT_2:
1010:Middlewares/Third_Party/LwIP/src/core/tcp_in.c ****       tcp_receive(pcb);
 3022              		.loc 1 1010 7
 3023 064e 7868     		ldr	r0, [r7, #4]
 3024 0650 FFF7FEFF 		bl	tcp_receive
1011:Middlewares/Third_Party/LwIP/src/core/tcp_in.c ****       if (recv_flags & TF_GOT_FIN) {
 3025              		.loc 1 1011 22
 3026 0654 604B     		ldr	r3, .L212+16
 3027 0656 1B78     		ldrb	r3, [r3]	@ zero_extendqisi2
 3028 0658 03F02003 		and	r3, r3, #32
 3029              		.loc 1 1011 10
 3030 065c 002B     		cmp	r3, #0
 3031 065e 00F0A980 		beq	.L205
ARM GAS  /tmp/ccWqLOXK.s 			page 75


1012:Middlewares/Third_Party/LwIP/src/core/tcp_in.c ****         LWIP_DEBUGF(TCP_DEBUG, ("TCP connection closed: FIN_WAIT_2 %"U16_F" -> %"U16_F".\n", inseg.
1013:Middlewares/Third_Party/LwIP/src/core/tcp_in.c ****         tcp_ack_now(pcb);
 3032              		.loc 1 1013 9
 3033 0662 7B68     		ldr	r3, [r7, #4]
 3034 0664 5B8B     		ldrh	r3, [r3, #26]
 3035 0666 43F00203 		orr	r3, r3, #2
 3036 066a 9AB2     		uxth	r2, r3
 3037 066c 7B68     		ldr	r3, [r7, #4]
 3038 066e 5A83     		strh	r2, [r3, #26]	@ movhi
1014:Middlewares/Third_Party/LwIP/src/core/tcp_in.c ****         tcp_pcb_purge(pcb);
 3039              		.loc 1 1014 9
 3040 0670 7868     		ldr	r0, [r7, #4]
 3041 0672 FFF7FEFF 		bl	tcp_pcb_purge
1015:Middlewares/Third_Party/LwIP/src/core/tcp_in.c ****         TCP_RMV_ACTIVE(pcb);
 3042              		.loc 1 1015 9
 3043 0676 594B     		ldr	r3, .L212+20
 3044 0678 1B68     		ldr	r3, [r3]
 3045 067a 7A68     		ldr	r2, [r7, #4]
 3046 067c 9A42     		cmp	r2, r3
 3047 067e 05D1     		bne	.L188
 3048              		.loc 1 1015 9 is_stmt 0 discriminator 1
 3049 0680 564B     		ldr	r3, .L212+20
 3050 0682 1B68     		ldr	r3, [r3]
 3051 0684 DB68     		ldr	r3, [r3, #12]
 3052 0686 554A     		ldr	r2, .L212+20
 3053 0688 1360     		str	r3, [r2]
 3054 068a 13E0     		b	.L189
 3055              	.L188:
 3056              	.LBB8:
 3057              		.loc 1 1015 9 discriminator 2
 3058 068c 534B     		ldr	r3, .L212+20
 3059 068e 1B68     		ldr	r3, [r3]
 3060 0690 3B61     		str	r3, [r7, #16]
 3061 0692 0CE0     		b	.L190
 3062              	.L192:
 3063              		.loc 1 1015 9 discriminator 9
 3064 0694 3B69     		ldr	r3, [r7, #16]
 3065 0696 DB68     		ldr	r3, [r3, #12]
 3066 0698 7A68     		ldr	r2, [r7, #4]
 3067 069a 9A42     		cmp	r2, r3
 3068 069c 04D1     		bne	.L191
 3069              		.loc 1 1015 9 discriminator 5
 3070 069e 7B68     		ldr	r3, [r7, #4]
 3071 06a0 DA68     		ldr	r2, [r3, #12]
 3072 06a2 3B69     		ldr	r3, [r7, #16]
 3073 06a4 DA60     		str	r2, [r3, #12]
 3074 06a6 05E0     		b	.L189
 3075              	.L191:
 3076              		.loc 1 1015 9 discriminator 6
 3077 06a8 3B69     		ldr	r3, [r7, #16]
 3078 06aa DB68     		ldr	r3, [r3, #12]
 3079 06ac 3B61     		str	r3, [r7, #16]
 3080              	.L190:
 3081              		.loc 1 1015 9 discriminator 8
 3082 06ae 3B69     		ldr	r3, [r7, #16]
 3083 06b0 002B     		cmp	r3, #0
 3084 06b2 EFD1     		bne	.L192
ARM GAS  /tmp/ccWqLOXK.s 			page 76


 3085              	.L189:
 3086              	.LBE8:
 3087              		.loc 1 1015 9 discriminator 10
 3088 06b4 7B68     		ldr	r3, [r7, #4]
 3089 06b6 0022     		movs	r2, #0
 3090 06b8 DA60     		str	r2, [r3, #12]
 3091 06ba 434B     		ldr	r3, .L212
 3092 06bc 0122     		movs	r2, #1
 3093 06be 1A70     		strb	r2, [r3]
1016:Middlewares/Third_Party/LwIP/src/core/tcp_in.c ****         pcb->state = TIME_WAIT;
 3094              		.loc 1 1016 20 is_stmt 1 discriminator 10
 3095 06c0 7B68     		ldr	r3, [r7, #4]
 3096 06c2 0A22     		movs	r2, #10
 3097 06c4 1A75     		strb	r2, [r3, #20]
1017:Middlewares/Third_Party/LwIP/src/core/tcp_in.c ****         TCP_REG(&tcp_tw_pcbs, pcb);
 3098              		.loc 1 1017 9 discriminator 10
 3099 06c6 414B     		ldr	r3, .L212+4
 3100 06c8 1A68     		ldr	r2, [r3]
 3101 06ca 7B68     		ldr	r3, [r7, #4]
 3102 06cc DA60     		str	r2, [r3, #12]
 3103 06ce 3F4A     		ldr	r2, .L212+4
 3104 06d0 7B68     		ldr	r3, [r7, #4]
 3105 06d2 1360     		str	r3, [r2]
 3106 06d4 FFF7FEFF 		bl	tcp_timer_needed
1018:Middlewares/Third_Party/LwIP/src/core/tcp_in.c ****       }
1019:Middlewares/Third_Party/LwIP/src/core/tcp_in.c ****       break;
 3107              		.loc 1 1019 7 discriminator 10
 3108 06d8 6CE0     		b	.L205
 3109              	.L139:
1020:Middlewares/Third_Party/LwIP/src/core/tcp_in.c ****     case CLOSING:
1021:Middlewares/Third_Party/LwIP/src/core/tcp_in.c ****       tcp_receive(pcb);
 3110              		.loc 1 1021 7
 3111 06da 7868     		ldr	r0, [r7, #4]
 3112 06dc FFF7FEFF 		bl	tcp_receive
1022:Middlewares/Third_Party/LwIP/src/core/tcp_in.c ****       if ((flags & TCP_ACK) && ackno == pcb->snd_nxt && pcb->unsent == NULL) {
 3113              		.loc 1 1022 18
 3114 06e0 3B4B     		ldr	r3, .L212+8
 3115 06e2 1B78     		ldrb	r3, [r3]	@ zero_extendqisi2
 3116 06e4 03F01003 		and	r3, r3, #16
 3117              		.loc 1 1022 10
 3118 06e8 002B     		cmp	r3, #0
 3119 06ea 65D0     		beq	.L206
 3120              		.loc 1 1022 44 discriminator 1
 3121 06ec 7B68     		ldr	r3, [r7, #4]
 3122 06ee 1A6D     		ldr	r2, [r3, #80]
 3123              		.loc 1 1022 38 discriminator 1
 3124 06f0 384B     		ldr	r3, .L212+12
 3125 06f2 1B68     		ldr	r3, [r3]
 3126              		.loc 1 1022 29 discriminator 1
 3127 06f4 9A42     		cmp	r2, r3
 3128 06f6 5FD1     		bne	.L206
 3129              		.loc 1 1022 60 discriminator 2
 3130 06f8 7B68     		ldr	r3, [r7, #4]
 3131 06fa DB6E     		ldr	r3, [r3, #108]
 3132              		.loc 1 1022 54 discriminator 2
 3133 06fc 002B     		cmp	r3, #0
 3134 06fe 5BD1     		bne	.L206
ARM GAS  /tmp/ccWqLOXK.s 			page 77


1023:Middlewares/Third_Party/LwIP/src/core/tcp_in.c ****         LWIP_DEBUGF(TCP_DEBUG, ("TCP connection closed: CLOSING %"U16_F" -> %"U16_F".\n", inseg.tcp
1024:Middlewares/Third_Party/LwIP/src/core/tcp_in.c ****         tcp_pcb_purge(pcb);
 3135              		.loc 1 1024 9
 3136 0700 7868     		ldr	r0, [r7, #4]
 3137 0702 FFF7FEFF 		bl	tcp_pcb_purge
1025:Middlewares/Third_Party/LwIP/src/core/tcp_in.c ****         TCP_RMV_ACTIVE(pcb);
 3138              		.loc 1 1025 9
 3139 0706 354B     		ldr	r3, .L212+20
 3140 0708 1B68     		ldr	r3, [r3]
 3141 070a 7A68     		ldr	r2, [r7, #4]
 3142 070c 9A42     		cmp	r2, r3
 3143 070e 05D1     		bne	.L194
 3144              		.loc 1 1025 9 is_stmt 0 discriminator 1
 3145 0710 324B     		ldr	r3, .L212+20
 3146 0712 1B68     		ldr	r3, [r3]
 3147 0714 DB68     		ldr	r3, [r3, #12]
 3148 0716 314A     		ldr	r2, .L212+20
 3149 0718 1360     		str	r3, [r2]
 3150 071a 13E0     		b	.L195
 3151              	.L194:
 3152              	.LBB9:
 3153              		.loc 1 1025 9 discriminator 2
 3154 071c 2F4B     		ldr	r3, .L212+20
 3155 071e 1B68     		ldr	r3, [r3]
 3156 0720 FB60     		str	r3, [r7, #12]
 3157 0722 0CE0     		b	.L196
 3158              	.L198:
 3159              		.loc 1 1025 9 discriminator 9
 3160 0724 FB68     		ldr	r3, [r7, #12]
 3161 0726 DB68     		ldr	r3, [r3, #12]
 3162 0728 7A68     		ldr	r2, [r7, #4]
 3163 072a 9A42     		cmp	r2, r3
 3164 072c 04D1     		bne	.L197
 3165              		.loc 1 1025 9 discriminator 5
 3166 072e 7B68     		ldr	r3, [r7, #4]
 3167 0730 DA68     		ldr	r2, [r3, #12]
 3168 0732 FB68     		ldr	r3, [r7, #12]
 3169 0734 DA60     		str	r2, [r3, #12]
 3170 0736 05E0     		b	.L195
 3171              	.L197:
 3172              		.loc 1 1025 9 discriminator 6
 3173 0738 FB68     		ldr	r3, [r7, #12]
 3174 073a DB68     		ldr	r3, [r3, #12]
 3175 073c FB60     		str	r3, [r7, #12]
 3176              	.L196:
 3177              		.loc 1 1025 9 discriminator 8
 3178 073e FB68     		ldr	r3, [r7, #12]
 3179 0740 002B     		cmp	r3, #0
 3180 0742 EFD1     		bne	.L198
 3181              	.L195:
 3182              	.LBE9:
 3183              		.loc 1 1025 9 discriminator 10
 3184 0744 7B68     		ldr	r3, [r7, #4]
 3185 0746 0022     		movs	r2, #0
 3186 0748 DA60     		str	r2, [r3, #12]
 3187 074a 1F4B     		ldr	r3, .L212
 3188 074c 0122     		movs	r2, #1
ARM GAS  /tmp/ccWqLOXK.s 			page 78


 3189 074e 1A70     		strb	r2, [r3]
1026:Middlewares/Third_Party/LwIP/src/core/tcp_in.c ****         pcb->state = TIME_WAIT;
 3190              		.loc 1 1026 20 is_stmt 1 discriminator 10
 3191 0750 7B68     		ldr	r3, [r7, #4]
 3192 0752 0A22     		movs	r2, #10
 3193 0754 1A75     		strb	r2, [r3, #20]
1027:Middlewares/Third_Party/LwIP/src/core/tcp_in.c ****         TCP_REG(&tcp_tw_pcbs, pcb);
 3194              		.loc 1 1027 9 discriminator 10
 3195 0756 1D4B     		ldr	r3, .L212+4
 3196 0758 1A68     		ldr	r2, [r3]
 3197 075a 7B68     		ldr	r3, [r7, #4]
 3198 075c DA60     		str	r2, [r3, #12]
 3199 075e 1B4A     		ldr	r2, .L212+4
 3200 0760 7B68     		ldr	r3, [r7, #4]
 3201 0762 1360     		str	r3, [r2]
 3202 0764 FFF7FEFF 		bl	tcp_timer_needed
1028:Middlewares/Third_Party/LwIP/src/core/tcp_in.c ****       }
1029:Middlewares/Third_Party/LwIP/src/core/tcp_in.c ****       break;
 3203              		.loc 1 1029 7 discriminator 10
 3204 0768 26E0     		b	.L206
 3205              	.L137:
1030:Middlewares/Third_Party/LwIP/src/core/tcp_in.c ****     case LAST_ACK:
1031:Middlewares/Third_Party/LwIP/src/core/tcp_in.c ****       tcp_receive(pcb);
 3206              		.loc 1 1031 7
 3207 076a 7868     		ldr	r0, [r7, #4]
 3208 076c FFF7FEFF 		bl	tcp_receive
1032:Middlewares/Third_Party/LwIP/src/core/tcp_in.c ****       if ((flags & TCP_ACK) && ackno == pcb->snd_nxt && pcb->unsent == NULL) {
 3209              		.loc 1 1032 18
 3210 0770 174B     		ldr	r3, .L212+8
 3211 0772 1B78     		ldrb	r3, [r3]	@ zero_extendqisi2
 3212 0774 03F01003 		and	r3, r3, #16
 3213              		.loc 1 1032 10
 3214 0778 002B     		cmp	r3, #0
 3215 077a 1FD0     		beq	.L207
 3216              		.loc 1 1032 44 discriminator 1
 3217 077c 7B68     		ldr	r3, [r7, #4]
 3218 077e 1A6D     		ldr	r2, [r3, #80]
 3219              		.loc 1 1032 38 discriminator 1
 3220 0780 144B     		ldr	r3, .L212+12
 3221 0782 1B68     		ldr	r3, [r3]
 3222              		.loc 1 1032 29 discriminator 1
 3223 0784 9A42     		cmp	r2, r3
 3224 0786 19D1     		bne	.L207
 3225              		.loc 1 1032 60 discriminator 2
 3226 0788 7B68     		ldr	r3, [r7, #4]
 3227 078a DB6E     		ldr	r3, [r3, #108]
 3228              		.loc 1 1032 54 discriminator 2
 3229 078c 002B     		cmp	r3, #0
 3230 078e 15D1     		bne	.L207
1033:Middlewares/Third_Party/LwIP/src/core/tcp_in.c ****         LWIP_DEBUGF(TCP_DEBUG, ("TCP connection closed: LAST_ACK %"U16_F" -> %"U16_F".\n", inseg.tc
1034:Middlewares/Third_Party/LwIP/src/core/tcp_in.c ****         /* bugfix #21699: don't set pcb->state to CLOSED here or we risk leaking segments */
1035:Middlewares/Third_Party/LwIP/src/core/tcp_in.c ****         recv_flags |= TF_CLOSED;
 3231              		.loc 1 1035 20
 3232 0790 114B     		ldr	r3, .L212+16
 3233 0792 1B78     		ldrb	r3, [r3]	@ zero_extendqisi2
 3234 0794 43F01003 		orr	r3, r3, #16
 3235 0798 DAB2     		uxtb	r2, r3
ARM GAS  /tmp/ccWqLOXK.s 			page 79


 3236 079a 0F4B     		ldr	r3, .L212+16
 3237 079c 1A70     		strb	r2, [r3]
1036:Middlewares/Third_Party/LwIP/src/core/tcp_in.c ****       }
1037:Middlewares/Third_Party/LwIP/src/core/tcp_in.c ****       break;
 3238              		.loc 1 1037 7
 3239 079e 0DE0     		b	.L207
 3240              	.L200:
1038:Middlewares/Third_Party/LwIP/src/core/tcp_in.c ****     default:
1039:Middlewares/Third_Party/LwIP/src/core/tcp_in.c ****       break;
 3241              		.loc 1 1039 7
 3242 07a0 00BF     		nop
 3243 07a2 0CE0     		b	.L160
 3244              	.L201:
 921:Middlewares/Third_Party/LwIP/src/core/tcp_in.c ****     case SYN_RCVD:
 3245              		.loc 1 921 7
 3246 07a4 00BF     		nop
 3247 07a6 0AE0     		b	.L160
 3248              	.L202:
 978:Middlewares/Third_Party/LwIP/src/core/tcp_in.c ****     case CLOSE_WAIT:
 3249              		.loc 1 978 7
 3250 07a8 00BF     		nop
 3251 07aa 08E0     		b	.L160
 3252              	.L203:
 987:Middlewares/Third_Party/LwIP/src/core/tcp_in.c ****     case FIN_WAIT_1:
 3253              		.loc 1 987 7
 3254 07ac 00BF     		nop
 3255 07ae 06E0     		b	.L160
 3256              	.L204:
1008:Middlewares/Third_Party/LwIP/src/core/tcp_in.c ****     case FIN_WAIT_2:
 3257              		.loc 1 1008 7
 3258 07b0 00BF     		nop
 3259 07b2 04E0     		b	.L160
 3260              	.L205:
1019:Middlewares/Third_Party/LwIP/src/core/tcp_in.c ****     case CLOSING:
 3261              		.loc 1 1019 7
 3262 07b4 00BF     		nop
 3263 07b6 02E0     		b	.L160
 3264              	.L206:
1029:Middlewares/Third_Party/LwIP/src/core/tcp_in.c ****     case LAST_ACK:
 3265              		.loc 1 1029 7
 3266 07b8 00BF     		nop
 3267 07ba 00E0     		b	.L160
 3268              	.L207:
1037:Middlewares/Third_Party/LwIP/src/core/tcp_in.c ****     default:
 3269              		.loc 1 1037 7
 3270 07bc 00BF     		nop
 3271              	.L160:
1040:Middlewares/Third_Party/LwIP/src/core/tcp_in.c ****   }
1041:Middlewares/Third_Party/LwIP/src/core/tcp_in.c ****   return ERR_OK;
 3272              		.loc 1 1041 10
 3273 07be 0023     		movs	r3, #0
 3274              	.L133:
1042:Middlewares/Third_Party/LwIP/src/core/tcp_in.c **** }
 3275              		.loc 1 1042 1
 3276 07c0 1846     		mov	r0, r3
 3277 07c2 2437     		adds	r7, r7, #36
 3278              	.LCFI23:
ARM GAS  /tmp/ccWqLOXK.s 			page 80


 3279              		.cfi_def_cfa_offset 12
 3280 07c4 BD46     		mov	sp, r7
 3281              	.LCFI24:
 3282              		.cfi_def_cfa_register 13
 3283              		@ sp needed
 3284 07c6 90BD     		pop	{r4, r7, pc}
 3285              	.L213:
 3286              		.align	2
 3287              	.L212:
 3288 07c8 00000000 		.word	tcp_active_pcbs_changed
 3289 07cc 00000000 		.word	tcp_tw_pcbs
 3290 07d0 00000000 		.word	flags
 3291 07d4 00000000 		.word	ackno
 3292 07d8 00000000 		.word	recv_flags
 3293 07dc 00000000 		.word	tcp_active_pcbs
 3294              		.cfi_endproc
 3295              	.LFE137:
 3297              		.section	.rodata
 3298 02ba 0000     		.align	2
 3299              	.LC21:
 3300 02bc 7463705F 		.ascii	"tcp_oos_insert_segment: invalid cseg\000"
 3300      6F6F735F 
 3300      696E7365 
 3300      72745F73 
 3300      65676D65 
 3301              		.section	.text.tcp_oos_insert_segment,"ax",%progbits
 3302              		.align	1
 3303              		.syntax unified
 3304              		.thumb
 3305              		.thumb_func
 3306              		.fpu fpv4-sp-d16
 3308              	tcp_oos_insert_segment:
 3309              	.LFB138:
1043:Middlewares/Third_Party/LwIP/src/core/tcp_in.c **** 
1044:Middlewares/Third_Party/LwIP/src/core/tcp_in.c **** #if TCP_QUEUE_OOSEQ
1045:Middlewares/Third_Party/LwIP/src/core/tcp_in.c **** /**
1046:Middlewares/Third_Party/LwIP/src/core/tcp_in.c ****  * Insert segment into the list (segments covered with new one will be deleted)
1047:Middlewares/Third_Party/LwIP/src/core/tcp_in.c ****  *
1048:Middlewares/Third_Party/LwIP/src/core/tcp_in.c ****  * Called from tcp_receive()
1049:Middlewares/Third_Party/LwIP/src/core/tcp_in.c ****  */
1050:Middlewares/Third_Party/LwIP/src/core/tcp_in.c **** static void
1051:Middlewares/Third_Party/LwIP/src/core/tcp_in.c **** tcp_oos_insert_segment(struct tcp_seg *cseg, struct tcp_seg *next)
1052:Middlewares/Third_Party/LwIP/src/core/tcp_in.c **** {
 3310              		.loc 1 1052 1
 3311              		.cfi_startproc
 3312              		@ args = 0, pretend = 0, frame = 16
 3313              		@ frame_needed = 1, uses_anonymous_args = 0
 3314 0000 90B5     		push	{r4, r7, lr}
 3315              	.LCFI25:
 3316              		.cfi_def_cfa_offset 12
 3317              		.cfi_offset 4, -12
 3318              		.cfi_offset 7, -8
 3319              		.cfi_offset 14, -4
 3320 0002 85B0     		sub	sp, sp, #20
 3321              	.LCFI26:
 3322              		.cfi_def_cfa_offset 32
 3323 0004 00AF     		add	r7, sp, #0
ARM GAS  /tmp/ccWqLOXK.s 			page 81


 3324              	.LCFI27:
 3325              		.cfi_def_cfa_register 7
 3326 0006 7860     		str	r0, [r7, #4]
 3327 0008 3960     		str	r1, [r7]
1053:Middlewares/Third_Party/LwIP/src/core/tcp_in.c ****   struct tcp_seg *old_seg;
1054:Middlewares/Third_Party/LwIP/src/core/tcp_in.c **** 
1055:Middlewares/Third_Party/LwIP/src/core/tcp_in.c ****   LWIP_ASSERT("tcp_oos_insert_segment: invalid cseg", cseg != NULL);
 3328              		.loc 1 1055 3
 3329 000a 7B68     		ldr	r3, [r7, #4]
 3330 000c 002B     		cmp	r3, #0
 3331 000e 06D1     		bne	.L215
 3332              		.loc 1 1055 3 is_stmt 0 discriminator 1
 3333 0010 3B4B     		ldr	r3, .L222
 3334 0012 40F21F42 		movw	r2, #1055
 3335 0016 3B49     		ldr	r1, .L222+4
 3336 0018 3B48     		ldr	r0, .L222+8
 3337 001a FFF7FEFF 		bl	printf
 3338              	.L215:
1056:Middlewares/Third_Party/LwIP/src/core/tcp_in.c **** 
1057:Middlewares/Third_Party/LwIP/src/core/tcp_in.c ****   if (TCPH_FLAGS(cseg->tcphdr) & TCP_FIN) {
 3339              		.loc 1 1057 7 is_stmt 1
 3340 001e 7B68     		ldr	r3, [r7, #4]
 3341 0020 DB68     		ldr	r3, [r3, #12]
 3342 0022 9B89     		ldrh	r3, [r3, #12]	@ unaligned
 3343 0024 9BB2     		uxth	r3, r3
 3344 0026 1846     		mov	r0, r3
 3345 0028 FFF7FEFF 		bl	lwip_htons
 3346 002c 0346     		mov	r3, r0
 3347 002e DBB2     		uxtb	r3, r3
 3348              		.loc 1 1057 32
 3349 0030 03F00103 		and	r3, r3, #1
 3350              		.loc 1 1057 6
 3351 0034 002B     		cmp	r3, #0
 3352 0036 28D0     		beq	.L218
1058:Middlewares/Third_Party/LwIP/src/core/tcp_in.c ****     /* received segment overlaps all following segments */
1059:Middlewares/Third_Party/LwIP/src/core/tcp_in.c ****     tcp_segs_free(next);
 3353              		.loc 1 1059 5
 3354 0038 3868     		ldr	r0, [r7]
 3355 003a FFF7FEFF 		bl	tcp_segs_free
1060:Middlewares/Third_Party/LwIP/src/core/tcp_in.c ****     next = NULL;
 3356              		.loc 1 1060 10
 3357 003e 0023     		movs	r3, #0
 3358 0040 3B60     		str	r3, [r7]
 3359 0042 56E0     		b	.L217
 3360              	.L221:
1061:Middlewares/Third_Party/LwIP/src/core/tcp_in.c ****   } else {
1062:Middlewares/Third_Party/LwIP/src/core/tcp_in.c ****     /* delete some following segments
1063:Middlewares/Third_Party/LwIP/src/core/tcp_in.c ****        oos queue may have segments with FIN flag */
1064:Middlewares/Third_Party/LwIP/src/core/tcp_in.c ****     while (next &&
1065:Middlewares/Third_Party/LwIP/src/core/tcp_in.c ****            TCP_SEQ_GEQ((seqno + cseg->len),
1066:Middlewares/Third_Party/LwIP/src/core/tcp_in.c ****                        (next->tcphdr->seqno + next->len))) {
1067:Middlewares/Third_Party/LwIP/src/core/tcp_in.c ****       /* cseg with FIN already processed */
1068:Middlewares/Third_Party/LwIP/src/core/tcp_in.c ****       if (TCPH_FLAGS(next->tcphdr) & TCP_FIN) {
 3361              		.loc 1 1068 11
 3362 0044 3B68     		ldr	r3, [r7]
 3363 0046 DB68     		ldr	r3, [r3, #12]
 3364 0048 9B89     		ldrh	r3, [r3, #12]	@ unaligned
ARM GAS  /tmp/ccWqLOXK.s 			page 82


 3365 004a 9BB2     		uxth	r3, r3
 3366 004c 1846     		mov	r0, r3
 3367 004e FFF7FEFF 		bl	lwip_htons
 3368 0052 0346     		mov	r3, r0
 3369 0054 DBB2     		uxtb	r3, r3
 3370              		.loc 1 1068 36
 3371 0056 03F00103 		and	r3, r3, #1
 3372              		.loc 1 1068 10
 3373 005a 002B     		cmp	r3, #0
 3374 005c 0DD0     		beq	.L219
1069:Middlewares/Third_Party/LwIP/src/core/tcp_in.c ****         TCPH_SET_FLAG(cseg->tcphdr, TCP_FIN);
 3375              		.loc 1 1069 9
 3376 005e 7B68     		ldr	r3, [r7, #4]
 3377 0060 DB68     		ldr	r3, [r3, #12]
 3378 0062 9B89     		ldrh	r3, [r3, #12]	@ unaligned
 3379 0064 9CB2     		uxth	r4, r3
 3380 0066 0120     		movs	r0, #1
 3381 0068 FFF7FEFF 		bl	lwip_htons
 3382 006c 0346     		mov	r3, r0
 3383 006e 1A46     		mov	r2, r3
 3384 0070 7B68     		ldr	r3, [r7, #4]
 3385 0072 DB68     		ldr	r3, [r3, #12]
 3386 0074 2243     		orrs	r2, r2, r4
 3387 0076 92B2     		uxth	r2, r2
 3388 0078 9A81     		strh	r2, [r3, #12]	@ unaligned
 3389              	.L219:
1070:Middlewares/Third_Party/LwIP/src/core/tcp_in.c ****       }
1071:Middlewares/Third_Party/LwIP/src/core/tcp_in.c ****       old_seg = next;
 3390              		.loc 1 1071 15
 3391 007a 3B68     		ldr	r3, [r7]
 3392 007c FB60     		str	r3, [r7, #12]
1072:Middlewares/Third_Party/LwIP/src/core/tcp_in.c ****       next = next->next;
 3393              		.loc 1 1072 12
 3394 007e 3B68     		ldr	r3, [r7]
 3395 0080 1B68     		ldr	r3, [r3]
 3396 0082 3B60     		str	r3, [r7]
1073:Middlewares/Third_Party/LwIP/src/core/tcp_in.c ****       tcp_seg_free(old_seg);
 3397              		.loc 1 1073 7
 3398 0084 F868     		ldr	r0, [r7, #12]
 3399 0086 FFF7FEFF 		bl	tcp_seg_free
 3400              	.L218:
1064:Middlewares/Third_Party/LwIP/src/core/tcp_in.c ****            TCP_SEQ_GEQ((seqno + cseg->len),
 3401              		.loc 1 1064 11
 3402 008a 3B68     		ldr	r3, [r7]
 3403 008c 002B     		cmp	r3, #0
 3404 008e 0ED0     		beq	.L220
1065:Middlewares/Third_Party/LwIP/src/core/tcp_in.c ****                        (next->tcphdr->seqno + next->len))) {
 3405              		.loc 1 1065 12 discriminator 1
 3406 0090 7B68     		ldr	r3, [r7, #4]
 3407 0092 1B89     		ldrh	r3, [r3, #8]
 3408 0094 1A46     		mov	r2, r3
 3409 0096 1D4B     		ldr	r3, .L222+12
 3410 0098 1B68     		ldr	r3, [r3]
 3411 009a 1A44     		add	r2, r2, r3
 3412 009c 3B68     		ldr	r3, [r7]
 3413 009e DB68     		ldr	r3, [r3, #12]
 3414 00a0 5B68     		ldr	r3, [r3, #4]	@ unaligned
ARM GAS  /tmp/ccWqLOXK.s 			page 83


 3415 00a2 3968     		ldr	r1, [r7]
 3416 00a4 0989     		ldrh	r1, [r1, #8]
 3417 00a6 0B44     		add	r3, r3, r1
 3418 00a8 D31A     		subs	r3, r2, r3
1064:Middlewares/Third_Party/LwIP/src/core/tcp_in.c ****            TCP_SEQ_GEQ((seqno + cseg->len),
 3419              		.loc 1 1064 17 discriminator 1
 3420 00aa 002B     		cmp	r3, #0
 3421 00ac CADA     		bge	.L221
 3422              	.L220:
1074:Middlewares/Third_Party/LwIP/src/core/tcp_in.c ****     }
1075:Middlewares/Third_Party/LwIP/src/core/tcp_in.c ****     if (next &&
 3423              		.loc 1 1075 8
 3424 00ae 3B68     		ldr	r3, [r7]
 3425 00b0 002B     		cmp	r3, #0
 3426 00b2 1ED0     		beq	.L217
1076:Middlewares/Third_Party/LwIP/src/core/tcp_in.c ****         TCP_SEQ_GT(seqno + cseg->len, next->tcphdr->seqno)) {
 3427              		.loc 1 1076 9 discriminator 1
 3428 00b4 7B68     		ldr	r3, [r7, #4]
 3429 00b6 1B89     		ldrh	r3, [r3, #8]
 3430 00b8 1A46     		mov	r2, r3
 3431 00ba 144B     		ldr	r3, .L222+12
 3432 00bc 1B68     		ldr	r3, [r3]
 3433 00be 1A44     		add	r2, r2, r3
 3434 00c0 3B68     		ldr	r3, [r7]
 3435 00c2 DB68     		ldr	r3, [r3, #12]
 3436 00c4 5B68     		ldr	r3, [r3, #4]	@ unaligned
 3437 00c6 D31A     		subs	r3, r2, r3
1075:Middlewares/Third_Party/LwIP/src/core/tcp_in.c ****         TCP_SEQ_GT(seqno + cseg->len, next->tcphdr->seqno)) {
 3438              		.loc 1 1075 14 discriminator 1
 3439 00c8 002B     		cmp	r3, #0
 3440 00ca 12DD     		ble	.L217
1077:Middlewares/Third_Party/LwIP/src/core/tcp_in.c ****       /* We need to trim the incoming segment. */
1078:Middlewares/Third_Party/LwIP/src/core/tcp_in.c ****       cseg->len = (u16_t)(next->tcphdr->seqno - seqno);
 3441              		.loc 1 1078 31
 3442 00cc 3B68     		ldr	r3, [r7]
 3443 00ce DB68     		ldr	r3, [r3, #12]
 3444              		.loc 1 1078 39
 3445 00d0 5B68     		ldr	r3, [r3, #4]	@ unaligned
 3446              		.loc 1 1078 19
 3447 00d2 9AB2     		uxth	r2, r3
 3448 00d4 0D4B     		ldr	r3, .L222+12
 3449 00d6 1B68     		ldr	r3, [r3]
 3450 00d8 9BB2     		uxth	r3, r3
 3451 00da D31A     		subs	r3, r2, r3
 3452 00dc 9AB2     		uxth	r2, r3
 3453              		.loc 1 1078 17
 3454 00de 7B68     		ldr	r3, [r7, #4]
 3455 00e0 1A81     		strh	r2, [r3, #8]	@ movhi
1079:Middlewares/Third_Party/LwIP/src/core/tcp_in.c ****       pbuf_realloc(cseg->p, cseg->len);
 3456              		.loc 1 1079 7
 3457 00e2 7B68     		ldr	r3, [r7, #4]
 3458 00e4 5A68     		ldr	r2, [r3, #4]
 3459 00e6 7B68     		ldr	r3, [r7, #4]
 3460 00e8 1B89     		ldrh	r3, [r3, #8]
 3461 00ea 1946     		mov	r1, r3
 3462 00ec 1046     		mov	r0, r2
 3463 00ee FFF7FEFF 		bl	pbuf_realloc
ARM GAS  /tmp/ccWqLOXK.s 			page 84


 3464              	.L217:
1080:Middlewares/Third_Party/LwIP/src/core/tcp_in.c ****     }
1081:Middlewares/Third_Party/LwIP/src/core/tcp_in.c ****   }
1082:Middlewares/Third_Party/LwIP/src/core/tcp_in.c ****   cseg->next = next;
 3465              		.loc 1 1082 14
 3466 00f2 7B68     		ldr	r3, [r7, #4]
 3467 00f4 3A68     		ldr	r2, [r7]
 3468 00f6 1A60     		str	r2, [r3]
1083:Middlewares/Third_Party/LwIP/src/core/tcp_in.c **** }
 3469              		.loc 1 1083 1
 3470 00f8 00BF     		nop
 3471 00fa 1437     		adds	r7, r7, #20
 3472              	.LCFI28:
 3473              		.cfi_def_cfa_offset 12
 3474 00fc BD46     		mov	sp, r7
 3475              	.LCFI29:
 3476              		.cfi_def_cfa_register 13
 3477              		@ sp needed
 3478 00fe 90BD     		pop	{r4, r7, pc}
 3479              	.L223:
 3480              		.align	2
 3481              	.L222:
 3482 0100 00000000 		.word	.LC0
 3483 0104 BC020000 		.word	.LC21
 3484 0108 48000000 		.word	.LC2
 3485 010c 00000000 		.word	seqno
 3486              		.cfi_endproc
 3487              	.LFE138:
 3489              		.section	.rodata
 3490 02e1 000000   		.align	2
 3491              	.LC22:
 3492 02e4 7063622D 		.ascii	"pcb->snd_queuelen >= pbuf_clen(next->p)\000"
 3492      3E736E64 
 3492      5F717565 
 3492      75656C65 
 3492      6E203E3D 
 3493              		.align	2
 3494              	.LC23:
 3495 030c 7463705F 		.ascii	"tcp_receive: valid queue length\000"
 3495      72656365 
 3495      6976653A 
 3495      2076616C 
 3495      69642071 
 3496              		.section	.text.tcp_free_acked_segments,"ax",%progbits
 3497              		.align	1
 3498              		.syntax unified
 3499              		.thumb
 3500              		.thumb_func
 3501              		.fpu fpv4-sp-d16
 3503              	tcp_free_acked_segments:
 3504              	.LFB139:
1084:Middlewares/Third_Party/LwIP/src/core/tcp_in.c **** #endif /* TCP_QUEUE_OOSEQ */
1085:Middlewares/Third_Party/LwIP/src/core/tcp_in.c **** 
1086:Middlewares/Third_Party/LwIP/src/core/tcp_in.c **** /** Remove segments from a list if the incoming ACK acknowledges them */
1087:Middlewares/Third_Party/LwIP/src/core/tcp_in.c **** static struct tcp_seg *
1088:Middlewares/Third_Party/LwIP/src/core/tcp_in.c **** tcp_free_acked_segments(struct tcp_pcb *pcb, struct tcp_seg *seg_list, const char *dbg_list_name,
1089:Middlewares/Third_Party/LwIP/src/core/tcp_in.c ****                         struct tcp_seg *dbg_other_seg_list)
ARM GAS  /tmp/ccWqLOXK.s 			page 85


1090:Middlewares/Third_Party/LwIP/src/core/tcp_in.c **** {
 3505              		.loc 1 1090 1
 3506              		.cfi_startproc
 3507              		@ args = 0, pretend = 0, frame = 24
 3508              		@ frame_needed = 1, uses_anonymous_args = 0
 3509 0000 B0B5     		push	{r4, r5, r7, lr}
 3510              	.LCFI30:
 3511              		.cfi_def_cfa_offset 16
 3512              		.cfi_offset 4, -16
 3513              		.cfi_offset 5, -12
 3514              		.cfi_offset 7, -8
 3515              		.cfi_offset 14, -4
 3516 0002 86B0     		sub	sp, sp, #24
 3517              	.LCFI31:
 3518              		.cfi_def_cfa_offset 40
 3519 0004 00AF     		add	r7, sp, #0
 3520              	.LCFI32:
 3521              		.cfi_def_cfa_register 7
 3522 0006 F860     		str	r0, [r7, #12]
 3523 0008 B960     		str	r1, [r7, #8]
 3524 000a 7A60     		str	r2, [r7, #4]
 3525 000c 3B60     		str	r3, [r7]
1091:Middlewares/Third_Party/LwIP/src/core/tcp_in.c ****   struct tcp_seg *next;
1092:Middlewares/Third_Party/LwIP/src/core/tcp_in.c ****   u16_t clen;
1093:Middlewares/Third_Party/LwIP/src/core/tcp_in.c **** 
1094:Middlewares/Third_Party/LwIP/src/core/tcp_in.c ****   LWIP_UNUSED_ARG(dbg_list_name);
1095:Middlewares/Third_Party/LwIP/src/core/tcp_in.c ****   LWIP_UNUSED_ARG(dbg_other_seg_list);
1096:Middlewares/Third_Party/LwIP/src/core/tcp_in.c **** 
1097:Middlewares/Third_Party/LwIP/src/core/tcp_in.c ****   while (seg_list != NULL &&
 3526              		.loc 1 1097 9
 3527 000e 3EE0     		b	.L225
 3528              	.L230:
1098:Middlewares/Third_Party/LwIP/src/core/tcp_in.c ****          TCP_SEQ_LEQ(lwip_ntohl(seg_list->tcphdr->seqno) +
1099:Middlewares/Third_Party/LwIP/src/core/tcp_in.c ****                      TCP_TCPLEN(seg_list), ackno)) {
1100:Middlewares/Third_Party/LwIP/src/core/tcp_in.c ****     LWIP_DEBUGF(TCP_INPUT_DEBUG, ("tcp_receive: removing %"U32_F":%"U32_F" from pcb->%s\n",
1101:Middlewares/Third_Party/LwIP/src/core/tcp_in.c ****                                   lwip_ntohl(seg_list->tcphdr->seqno),
1102:Middlewares/Third_Party/LwIP/src/core/tcp_in.c ****                                   lwip_ntohl(seg_list->tcphdr->seqno) + TCP_TCPLEN(seg_list),
1103:Middlewares/Third_Party/LwIP/src/core/tcp_in.c ****                                   dbg_list_name));
1104:Middlewares/Third_Party/LwIP/src/core/tcp_in.c **** 
1105:Middlewares/Third_Party/LwIP/src/core/tcp_in.c ****     next = seg_list;
 3529              		.loc 1 1105 10
 3530 0010 BB68     		ldr	r3, [r7, #8]
 3531 0012 7B61     		str	r3, [r7, #20]
1106:Middlewares/Third_Party/LwIP/src/core/tcp_in.c ****     seg_list = seg_list->next;
 3532              		.loc 1 1106 14
 3533 0014 BB68     		ldr	r3, [r7, #8]
 3534 0016 1B68     		ldr	r3, [r3]
 3535 0018 BB60     		str	r3, [r7, #8]
1107:Middlewares/Third_Party/LwIP/src/core/tcp_in.c **** 
1108:Middlewares/Third_Party/LwIP/src/core/tcp_in.c ****     clen = pbuf_clen(next->p);
 3536              		.loc 1 1108 26
 3537 001a 7B69     		ldr	r3, [r7, #20]
 3538 001c 5B68     		ldr	r3, [r3, #4]
 3539              		.loc 1 1108 12
 3540 001e 1846     		mov	r0, r3
 3541 0020 FFF7FEFF 		bl	pbuf_clen
 3542 0024 0346     		mov	r3, r0
ARM GAS  /tmp/ccWqLOXK.s 			page 86


 3543 0026 7B82     		strh	r3, [r7, #18]	@ movhi
1109:Middlewares/Third_Party/LwIP/src/core/tcp_in.c ****     LWIP_DEBUGF(TCP_QLEN_DEBUG, ("tcp_receive: queuelen %"TCPWNDSIZE_F" ... ",
