ARM GAS  /tmp/ccWqLOXK.s 			page 1


   1              		.cpu cortex-m4
   2              		.eabi_attribute 27, 1
   3              		.eabi_attribute 28, 1
   4              		.eabi_attribute 20, 1
   5              		.eabi_attribute 21, 1
   6              		.eabi_attribute 23, 3
   7              		.eabi_attribute 24, 1
   8              		.eabi_attribute 25, 1
   9              		.eabi_attribute 26, 1
  10              		.eabi_attribute 30, 6
  11              		.eabi_attribute 34, 1
  12              		.eabi_attribute 18, 4
  13              		.file	"tcp_in.c"
  14              		.text
  15              	.Ltext0:
  16              		.cfi_sections	.debug_frame
  17              		.section	.bss.inseg,"aw",%nobits
  18              		.align	2
  21              	inseg:
  22 0000 00000000 		.space	16
  22      00000000 
  22      00000000 
  22      00000000 
  23              		.section	.bss.tcphdr,"aw",%nobits
  24              		.align	2
  27              	tcphdr:
  28 0000 00000000 		.space	4
  29              		.section	.bss.tcphdr_optlen,"aw",%nobits
  30              		.align	1
  33              	tcphdr_optlen:
  34 0000 0000     		.space	2
  35              		.section	.bss.tcphdr_opt1len,"aw",%nobits
  36              		.align	1
  39              	tcphdr_opt1len:
  40 0000 0000     		.space	2
  41              		.section	.bss.tcphdr_opt2,"aw",%nobits
  42              		.align	2
  45              	tcphdr_opt2:
  46 0000 00000000 		.space	4
  47              		.section	.bss.tcp_optidx,"aw",%nobits
  48              		.align	1
  51              	tcp_optidx:
  52 0000 0000     		.space	2
  53              		.section	.bss.seqno,"aw",%nobits
  54              		.align	2
  57              	seqno:
  58 0000 00000000 		.space	4
  59              		.section	.bss.ackno,"aw",%nobits
  60              		.align	2
  63              	ackno:
  64 0000 00000000 		.space	4
  65              		.section	.bss.recv_acked,"aw",%nobits
  66              		.align	1
  69              	recv_acked:
  70 0000 0000     		.space	2
  71              		.section	.bss.tcplen,"aw",%nobits
  72              		.align	1
ARM GAS  /tmp/ccWqLOXK.s 			page 2


  75              	tcplen:
  76 0000 0000     		.space	2
  77              		.section	.bss.flags,"aw",%nobits
  80              	flags:
  81 0000 00       		.space	1
  82              		.section	.bss.recv_flags,"aw",%nobits
  85              	recv_flags:
  86 0000 00       		.space	1
  87              		.section	.bss.recv_data,"aw",%nobits
  88              		.align	2
  91              	recv_data:
  92 0000 00000000 		.space	4
  93              		.comm	tcp_input_pcb,4,4
  94              		.section	.rodata
  95              		.align	2
  96              	.LC0:
  97 0000 4D696464 		.ascii	"Middlewares/Third_Party/LwIP/src/core/tcp_in.c\000"
  97      6C657761 
  97      7265732F 
  97      54686972 
  97      645F5061 
  98 002f 00       		.align	2
  99              	.LC1:
 100 0030 7463705F 		.ascii	"tcp_input: invalid pbuf\000"
 100      696E7075 
 100      743A2069 
 100      6E76616C 
 100      69642070 
 101              		.align	2
 102              	.LC2:
 103 0048 41737365 		.ascii	"Assertion \"%s\" failed at line %d in %s\012\000"
 103      7274696F 
 103      6E202225 
 103      73222066 
 103      61696C65 
 104              		.align	2
 105              	.LC3:
 106 0070 702D3E6E 		.ascii	"p->next != NULL\000"
 106      65787420 
 106      213D204E 
 106      554C4C00 
 107              		.align	2
 108              	.LC4:
 109 0080 702D3E6C 		.ascii	"p->len == 0\000"
 109      656E203D 
 109      3D203000 
 110              		.align	2
 111              	.LC5:
 112 008c 702D3E74 		.ascii	"p->tot_len == p->next->tot_len\000"
 112      6F745F6C 
 112      656E203D 
 112      3D20702D 
 112      3E6E6578 
 113 00ab 00       		.align	2
 114              	.LC6:
 115 00ac 7463705F 		.ascii	"tcp_input: active pcb->state != CLOSED\000"
 115      696E7075 
ARM GAS  /tmp/ccWqLOXK.s 			page 3


 115      743A2061 
 115      63746976 
 115      65207063 
 116 00d3 00       		.align	2
 117              	.LC7:
 118 00d4 7463705F 		.ascii	"tcp_input: active pcb->state != TIME-WAIT\000"
 118      696E7075 
 118      743A2061 
 118      63746976 
 118      65207063 
 119 00fe 0000     		.align	2
 120              	.LC8:
 121 0100 7463705F 		.ascii	"tcp_input: active pcb->state != LISTEN\000"
 121      696E7075 
 121      743A2061 
 121      63746976 
 121      65207063 
 122 0127 00       		.align	2
 123              	.LC9:
 124 0128 7463705F 		.ascii	"tcp_input: pcb->next != pcb (before cache)\000"
 124      696E7075 
 124      743A2070 
 124      63622D3E 
 124      6E657874 
 125 0153 00       		.align	2
 126              	.LC10:
 127 0154 7463705F 		.ascii	"tcp_input: pcb->next != pcb (after cache)\000"
 127      696E7075 
 127      743A2070 
 127      63622D3E 
 127      6E657874 
 128 017e 0000     		.align	2
 129              	.LC11:
 130 0180 7463705F 		.ascii	"tcp_input: TIME-WAIT pcb->state == TIME-WAIT\000"
 130      696E7075 
 130      743A2054 
 130      494D452D 
 130      57414954 
 131 01ad 000000   		.align	2
 132              	.LC12:
 133 01b0 7063622D 		.ascii	"pcb->refused_data == NULL\000"
 133      3E726566 
 133      75736564 
 133      5F646174 
 133      61203D3D 
 134              		.section	.text.tcp_input,"ax",%progbits
 135              		.align	1
 136              		.global	tcp_input
 137              		.arch armv7e-m
 138              		.syntax unified
 139              		.thumb
 140              		.thumb_func
 141              		.fpu fpv4-sp-d16
 143              	tcp_input:
 144              	.LFB133:
 145              		.file 1 "Middlewares/Third_Party/LwIP/src/core/tcp_in.c"
   1:Middlewares/Third_Party/LwIP/src/core/tcp_in.c **** /**
ARM GAS  /tmp/ccWqLOXK.s 			page 4


   2:Middlewares/Third_Party/LwIP/src/core/tcp_in.c ****  * @file
   3:Middlewares/Third_Party/LwIP/src/core/tcp_in.c ****  * Transmission Control Protocol, incoming traffic
   4:Middlewares/Third_Party/LwIP/src/core/tcp_in.c ****  *
   5:Middlewares/Third_Party/LwIP/src/core/tcp_in.c ****  * The input processing functions of the TCP layer.
   6:Middlewares/Third_Party/LwIP/src/core/tcp_in.c ****  *
   7:Middlewares/Third_Party/LwIP/src/core/tcp_in.c ****  * These functions are generally called in the order (ip_input() ->)
   8:Middlewares/Third_Party/LwIP/src/core/tcp_in.c ****  * tcp_input() -> * tcp_process() -> tcp_receive() (-> application).
   9:Middlewares/Third_Party/LwIP/src/core/tcp_in.c ****  *
  10:Middlewares/Third_Party/LwIP/src/core/tcp_in.c ****  */
  11:Middlewares/Third_Party/LwIP/src/core/tcp_in.c **** 
  12:Middlewares/Third_Party/LwIP/src/core/tcp_in.c **** /*
  13:Middlewares/Third_Party/LwIP/src/core/tcp_in.c ****  * Copyright (c) 2001-2004 Swedish Institute of Computer Science.
  14:Middlewares/Third_Party/LwIP/src/core/tcp_in.c ****  * All rights reserved.
  15:Middlewares/Third_Party/LwIP/src/core/tcp_in.c ****  *
  16:Middlewares/Third_Party/LwIP/src/core/tcp_in.c ****  * Redistribution and use in source and binary forms, with or without modification,
  17:Middlewares/Third_Party/LwIP/src/core/tcp_in.c ****  * are permitted provided that the following conditions are met:
  18:Middlewares/Third_Party/LwIP/src/core/tcp_in.c ****  *
  19:Middlewares/Third_Party/LwIP/src/core/tcp_in.c ****  * 1. Redistributions of source code must retain the above copyright notice,
  20:Middlewares/Third_Party/LwIP/src/core/tcp_in.c ****  *    this list of conditions and the following disclaimer.
  21:Middlewares/Third_Party/LwIP/src/core/tcp_in.c ****  * 2. Redistributions in binary form must reproduce the above copyright notice,
  22:Middlewares/Third_Party/LwIP/src/core/tcp_in.c ****  *    this list of conditions and the following disclaimer in the documentation
  23:Middlewares/Third_Party/LwIP/src/core/tcp_in.c ****  *    and/or other materials provided with the distribution.
  24:Middlewares/Third_Party/LwIP/src/core/tcp_in.c ****  * 3. The name of the author may not be used to endorse or promote products
  25:Middlewares/Third_Party/LwIP/src/core/tcp_in.c ****  *    derived from this software without specific prior written permission.
  26:Middlewares/Third_Party/LwIP/src/core/tcp_in.c ****  *
  27:Middlewares/Third_Party/LwIP/src/core/tcp_in.c ****  * THIS SOFTWARE IS PROVIDED BY THE AUTHOR ``AS IS'' AND ANY EXPRESS OR IMPLIED
  28:Middlewares/Third_Party/LwIP/src/core/tcp_in.c ****  * WARRANTIES, INCLUDING, BUT NOT LIMITED TO, THE IMPLIED WARRANTIES OF
  29:Middlewares/Third_Party/LwIP/src/core/tcp_in.c ****  * MERCHANTABILITY AND FITNESS FOR A PARTICULAR PURPOSE ARE DISCLAIMED. IN NO EVENT
  30:Middlewares/Third_Party/LwIP/src/core/tcp_in.c ****  * SHALL THE AUTHOR BE LIABLE FOR ANY DIRECT, INDIRECT, INCIDENTAL, SPECIAL,
  31:Middlewares/Third_Party/LwIP/src/core/tcp_in.c ****  * EXEMPLARY, OR CONSEQUENTIAL DAMAGES (INCLUDING, BUT NOT LIMITED TO, PROCUREMENT
  32:Middlewares/Third_Party/LwIP/src/core/tcp_in.c ****  * OF SUBSTITUTE GOODS OR SERVICES; LOSS OF USE, DATA, OR PROFITS; OR BUSINESS
  33:Middlewares/Third_Party/LwIP/src/core/tcp_in.c ****  * INTERRUPTION) HOWEVER CAUSED AND ON ANY THEORY OF LIABILITY, WHETHER IN
  34:Middlewares/Third_Party/LwIP/src/core/tcp_in.c ****  * CONTRACT, STRICT LIABILITY, OR TORT (INCLUDING NEGLIGENCE OR OTHERWISE) ARISING
  35:Middlewares/Third_Party/LwIP/src/core/tcp_in.c ****  * IN ANY WAY OUT OF THE USE OF THIS SOFTWARE, EVEN IF ADVISED OF THE POSSIBILITY
  36:Middlewares/Third_Party/LwIP/src/core/tcp_in.c ****  * OF SUCH DAMAGE.
  37:Middlewares/Third_Party/LwIP/src/core/tcp_in.c ****  *
  38:Middlewares/Third_Party/LwIP/src/core/tcp_in.c ****  * This file is part of the lwIP TCP/IP stack.
  39:Middlewares/Third_Party/LwIP/src/core/tcp_in.c ****  *
  40:Middlewares/Third_Party/LwIP/src/core/tcp_in.c ****  * Author: Adam Dunkels <adam@sics.se>
  41:Middlewares/Third_Party/LwIP/src/core/tcp_in.c ****  *
  42:Middlewares/Third_Party/LwIP/src/core/tcp_in.c ****  */
  43:Middlewares/Third_Party/LwIP/src/core/tcp_in.c **** 
  44:Middlewares/Third_Party/LwIP/src/core/tcp_in.c **** #include "lwip/opt.h"
  45:Middlewares/Third_Party/LwIP/src/core/tcp_in.c **** 
  46:Middlewares/Third_Party/LwIP/src/core/tcp_in.c **** #if LWIP_TCP /* don't build if not configured for use in lwipopts.h */
  47:Middlewares/Third_Party/LwIP/src/core/tcp_in.c **** 
  48:Middlewares/Third_Party/LwIP/src/core/tcp_in.c **** #include "lwip/priv/tcp_priv.h"
  49:Middlewares/Third_Party/LwIP/src/core/tcp_in.c **** #include "lwip/def.h"
  50:Middlewares/Third_Party/LwIP/src/core/tcp_in.c **** #include "lwip/ip_addr.h"
  51:Middlewares/Third_Party/LwIP/src/core/tcp_in.c **** #include "lwip/netif.h"
  52:Middlewares/Third_Party/LwIP/src/core/tcp_in.c **** #include "lwip/mem.h"
  53:Middlewares/Third_Party/LwIP/src/core/tcp_in.c **** #include "lwip/memp.h"
  54:Middlewares/Third_Party/LwIP/src/core/tcp_in.c **** #include "lwip/inet_chksum.h"
  55:Middlewares/Third_Party/LwIP/src/core/tcp_in.c **** #include "lwip/stats.h"
  56:Middlewares/Third_Party/LwIP/src/core/tcp_in.c **** #include "lwip/ip6.h"
  57:Middlewares/Third_Party/LwIP/src/core/tcp_in.c **** #include "lwip/ip6_addr.h"
  58:Middlewares/Third_Party/LwIP/src/core/tcp_in.c **** #if LWIP_ND6_TCP_REACHABILITY_HINTS
ARM GAS  /tmp/ccWqLOXK.s 			page 5


  59:Middlewares/Third_Party/LwIP/src/core/tcp_in.c **** #include "lwip/nd6.h"
  60:Middlewares/Third_Party/LwIP/src/core/tcp_in.c **** #endif /* LWIP_ND6_TCP_REACHABILITY_HINTS */
  61:Middlewares/Third_Party/LwIP/src/core/tcp_in.c **** 
  62:Middlewares/Third_Party/LwIP/src/core/tcp_in.c **** #include <string.h>
  63:Middlewares/Third_Party/LwIP/src/core/tcp_in.c **** 
  64:Middlewares/Third_Party/LwIP/src/core/tcp_in.c **** #ifdef LWIP_HOOK_FILENAME
  65:Middlewares/Third_Party/LwIP/src/core/tcp_in.c **** #include LWIP_HOOK_FILENAME
  66:Middlewares/Third_Party/LwIP/src/core/tcp_in.c **** #endif
  67:Middlewares/Third_Party/LwIP/src/core/tcp_in.c **** 
  68:Middlewares/Third_Party/LwIP/src/core/tcp_in.c **** /** Initial CWND calculation as defined RFC 2581 */
  69:Middlewares/Third_Party/LwIP/src/core/tcp_in.c **** #define LWIP_TCP_CALC_INITIAL_CWND(mss) ((tcpwnd_size_t)LWIP_MIN((4U * (mss)), LWIP_MAX((2U * (mss)
  70:Middlewares/Third_Party/LwIP/src/core/tcp_in.c **** 
  71:Middlewares/Third_Party/LwIP/src/core/tcp_in.c **** /* These variables are global to all functions involved in the input
  72:Middlewares/Third_Party/LwIP/src/core/tcp_in.c ****    processing of TCP segments. They are set by the tcp_input()
  73:Middlewares/Third_Party/LwIP/src/core/tcp_in.c ****    function. */
  74:Middlewares/Third_Party/LwIP/src/core/tcp_in.c **** static struct tcp_seg inseg;
  75:Middlewares/Third_Party/LwIP/src/core/tcp_in.c **** static struct tcp_hdr *tcphdr;
  76:Middlewares/Third_Party/LwIP/src/core/tcp_in.c **** static u16_t tcphdr_optlen;
  77:Middlewares/Third_Party/LwIP/src/core/tcp_in.c **** static u16_t tcphdr_opt1len;
  78:Middlewares/Third_Party/LwIP/src/core/tcp_in.c **** static u8_t *tcphdr_opt2;
  79:Middlewares/Third_Party/LwIP/src/core/tcp_in.c **** static u16_t tcp_optidx;
  80:Middlewares/Third_Party/LwIP/src/core/tcp_in.c **** static u32_t seqno, ackno;
  81:Middlewares/Third_Party/LwIP/src/core/tcp_in.c **** static tcpwnd_size_t recv_acked;
  82:Middlewares/Third_Party/LwIP/src/core/tcp_in.c **** static u16_t tcplen;
  83:Middlewares/Third_Party/LwIP/src/core/tcp_in.c **** static u8_t flags;
  84:Middlewares/Third_Party/LwIP/src/core/tcp_in.c **** 
  85:Middlewares/Third_Party/LwIP/src/core/tcp_in.c **** static u8_t recv_flags;
  86:Middlewares/Third_Party/LwIP/src/core/tcp_in.c **** static struct pbuf *recv_data;
  87:Middlewares/Third_Party/LwIP/src/core/tcp_in.c **** 
  88:Middlewares/Third_Party/LwIP/src/core/tcp_in.c **** struct tcp_pcb *tcp_input_pcb;
  89:Middlewares/Third_Party/LwIP/src/core/tcp_in.c **** 
  90:Middlewares/Third_Party/LwIP/src/core/tcp_in.c **** /* Forward declarations. */
  91:Middlewares/Third_Party/LwIP/src/core/tcp_in.c **** static err_t tcp_process(struct tcp_pcb *pcb);
  92:Middlewares/Third_Party/LwIP/src/core/tcp_in.c **** static void tcp_receive(struct tcp_pcb *pcb);
  93:Middlewares/Third_Party/LwIP/src/core/tcp_in.c **** static void tcp_parseopt(struct tcp_pcb *pcb);
  94:Middlewares/Third_Party/LwIP/src/core/tcp_in.c **** 
  95:Middlewares/Third_Party/LwIP/src/core/tcp_in.c **** static void tcp_listen_input(struct tcp_pcb_listen *pcb);
  96:Middlewares/Third_Party/LwIP/src/core/tcp_in.c **** static void tcp_timewait_input(struct tcp_pcb *pcb);
  97:Middlewares/Third_Party/LwIP/src/core/tcp_in.c **** 
  98:Middlewares/Third_Party/LwIP/src/core/tcp_in.c **** static int tcp_input_delayed_close(struct tcp_pcb *pcb);
  99:Middlewares/Third_Party/LwIP/src/core/tcp_in.c **** 
 100:Middlewares/Third_Party/LwIP/src/core/tcp_in.c **** #if LWIP_TCP_SACK_OUT
 101:Middlewares/Third_Party/LwIP/src/core/tcp_in.c **** static void tcp_add_sack(struct tcp_pcb *pcb, u32_t left, u32_t right);
 102:Middlewares/Third_Party/LwIP/src/core/tcp_in.c **** static void tcp_remove_sacks_lt(struct tcp_pcb *pcb, u32_t seq);
 103:Middlewares/Third_Party/LwIP/src/core/tcp_in.c **** #if defined(TCP_OOSEQ_BYTES_LIMIT) || defined(TCP_OOSEQ_PBUFS_LIMIT)
 104:Middlewares/Third_Party/LwIP/src/core/tcp_in.c **** static void tcp_remove_sacks_gt(struct tcp_pcb *pcb, u32_t seq);
 105:Middlewares/Third_Party/LwIP/src/core/tcp_in.c **** #endif /* TCP_OOSEQ_BYTES_LIMIT || TCP_OOSEQ_PBUFS_LIMIT */
 106:Middlewares/Third_Party/LwIP/src/core/tcp_in.c **** #endif /* LWIP_TCP_SACK_OUT */
 107:Middlewares/Third_Party/LwIP/src/core/tcp_in.c **** 
 108:Middlewares/Third_Party/LwIP/src/core/tcp_in.c **** /**
 109:Middlewares/Third_Party/LwIP/src/core/tcp_in.c ****  * The initial input processing of TCP. It verifies the TCP header, demultiplexes
 110:Middlewares/Third_Party/LwIP/src/core/tcp_in.c ****  * the segment between the PCBs and passes it on to tcp_process(), which implements
 111:Middlewares/Third_Party/LwIP/src/core/tcp_in.c ****  * the TCP finite state machine. This function is called by the IP layer (in
 112:Middlewares/Third_Party/LwIP/src/core/tcp_in.c ****  * ip_input()).
 113:Middlewares/Third_Party/LwIP/src/core/tcp_in.c ****  *
 114:Middlewares/Third_Party/LwIP/src/core/tcp_in.c ****  * @param p received TCP segment to process (p->payload pointing to the TCP header)
 115:Middlewares/Third_Party/LwIP/src/core/tcp_in.c ****  * @param inp network interface on which this segment was received
ARM GAS  /tmp/ccWqLOXK.s 			page 6


 116:Middlewares/Third_Party/LwIP/src/core/tcp_in.c ****  */
 117:Middlewares/Third_Party/LwIP/src/core/tcp_in.c **** void
 118:Middlewares/Third_Party/LwIP/src/core/tcp_in.c **** tcp_input(struct pbuf *p, struct netif *inp)
 119:Middlewares/Third_Party/LwIP/src/core/tcp_in.c **** {
 146              		.loc 1 119 1
 147              		.cfi_startproc
 148              		@ args = 0, pretend = 0, frame = 32
 149              		@ frame_needed = 1, uses_anonymous_args = 0
 150 0000 90B5     		push	{r4, r7, lr}
 151              	.LCFI0:
 152              		.cfi_def_cfa_offset 12
 153              		.cfi_offset 4, -12
 154              		.cfi_offset 7, -8
 155              		.cfi_offset 14, -4
 156 0002 8DB0     		sub	sp, sp, #52
 157              	.LCFI1:
 158              		.cfi_def_cfa_offset 64
 159 0004 04AF     		add	r7, sp, #16
 160              	.LCFI2:
 161              		.cfi_def_cfa 7, 48
 162 0006 7860     		str	r0, [r7, #4]
 163 0008 3960     		str	r1, [r7]
 120:Middlewares/Third_Party/LwIP/src/core/tcp_in.c ****   struct tcp_pcb *pcb, *prev;
 121:Middlewares/Third_Party/LwIP/src/core/tcp_in.c ****   struct tcp_pcb_listen *lpcb;
 122:Middlewares/Third_Party/LwIP/src/core/tcp_in.c **** #if SO_REUSE
 123:Middlewares/Third_Party/LwIP/src/core/tcp_in.c ****   struct tcp_pcb *lpcb_prev = NULL;
 124:Middlewares/Third_Party/LwIP/src/core/tcp_in.c ****   struct tcp_pcb_listen *lpcb_any = NULL;
 125:Middlewares/Third_Party/LwIP/src/core/tcp_in.c **** #endif /* SO_REUSE */
 126:Middlewares/Third_Party/LwIP/src/core/tcp_in.c ****   u8_t hdrlen_bytes;
 127:Middlewares/Third_Party/LwIP/src/core/tcp_in.c ****   err_t err;
 128:Middlewares/Third_Party/LwIP/src/core/tcp_in.c **** 
 129:Middlewares/Third_Party/LwIP/src/core/tcp_in.c ****   LWIP_UNUSED_ARG(inp);
 130:Middlewares/Third_Party/LwIP/src/core/tcp_in.c ****   LWIP_ASSERT_CORE_LOCKED();
 131:Middlewares/Third_Party/LwIP/src/core/tcp_in.c ****   LWIP_ASSERT("tcp_input: invalid pbuf", p != NULL);
 164              		.loc 1 131 3
 165 000a 7B68     		ldr	r3, [r7, #4]
 166 000c 002B     		cmp	r3, #0
 167 000e 05D1     		bne	.L2
 168              		.loc 1 131 3 is_stmt 0 discriminator 1
 169 0010 9B4B     		ldr	r3, .L86
 170 0012 8322     		movs	r2, #131
 171 0014 9B49     		ldr	r1, .L86+4
 172 0016 9C48     		ldr	r0, .L86+8
 173 0018 FFF7FEFF 		bl	printf
 174              	.L2:
 132:Middlewares/Third_Party/LwIP/src/core/tcp_in.c **** 
 133:Middlewares/Third_Party/LwIP/src/core/tcp_in.c ****   PERF_START;
 134:Middlewares/Third_Party/LwIP/src/core/tcp_in.c **** 
 135:Middlewares/Third_Party/LwIP/src/core/tcp_in.c ****   TCP_STATS_INC(tcp.recv);
 136:Middlewares/Third_Party/LwIP/src/core/tcp_in.c ****   MIB2_STATS_INC(mib2.tcpinsegs);
 137:Middlewares/Third_Party/LwIP/src/core/tcp_in.c **** 
 138:Middlewares/Third_Party/LwIP/src/core/tcp_in.c ****   tcphdr = (struct tcp_hdr *)p->payload;
 175              		.loc 1 138 31 is_stmt 1
 176 001c 7B68     		ldr	r3, [r7, #4]
 177 001e 5B68     		ldr	r3, [r3, #4]
 178              		.loc 1 138 10
 179 0020 9A4A     		ldr	r2, .L86+12
ARM GAS  /tmp/ccWqLOXK.s 			page 7


 180 0022 1360     		str	r3, [r2]
 139:Middlewares/Third_Party/LwIP/src/core/tcp_in.c **** 
 140:Middlewares/Third_Party/LwIP/src/core/tcp_in.c **** #if TCP_INPUT_DEBUG
 141:Middlewares/Third_Party/LwIP/src/core/tcp_in.c ****   tcp_debug_print(tcphdr);
 142:Middlewares/Third_Party/LwIP/src/core/tcp_in.c **** #endif
 143:Middlewares/Third_Party/LwIP/src/core/tcp_in.c **** 
 144:Middlewares/Third_Party/LwIP/src/core/tcp_in.c ****   /* Check that TCP header fits in payload */
 145:Middlewares/Third_Party/LwIP/src/core/tcp_in.c ****   if (p->len < TCP_HLEN) {
 181              		.loc 1 145 8
 182 0024 7B68     		ldr	r3, [r7, #4]
 183 0026 5B89     		ldrh	r3, [r3, #10]
 184              		.loc 1 145 6
 185 0028 132B     		cmp	r3, #19
 186 002a 40F2C483 		bls	.L70
 146:Middlewares/Third_Party/LwIP/src/core/tcp_in.c ****     /* drop short packets */
 147:Middlewares/Third_Party/LwIP/src/core/tcp_in.c ****     LWIP_DEBUGF(TCP_INPUT_DEBUG, ("tcp_input: short packet (%"U16_F" bytes) discarded\n", p->tot_le
 148:Middlewares/Third_Party/LwIP/src/core/tcp_in.c ****     TCP_STATS_INC(tcp.lenerr);
 149:Middlewares/Third_Party/LwIP/src/core/tcp_in.c ****     goto dropped;
 150:Middlewares/Third_Party/LwIP/src/core/tcp_in.c ****   }
 151:Middlewares/Third_Party/LwIP/src/core/tcp_in.c **** 
 152:Middlewares/Third_Party/LwIP/src/core/tcp_in.c ****   /* Don't even process incoming broadcasts/multicasts. */
 153:Middlewares/Third_Party/LwIP/src/core/tcp_in.c ****   if (ip_addr_isbroadcast(ip_current_dest_addr(), ip_current_netif()) ||
 187              		.loc 1 153 7
 188 002e 984B     		ldr	r3, .L86+16
 189 0030 5A69     		ldr	r2, [r3, #20]
 190 0032 974B     		ldr	r3, .L86+16
 191 0034 1B68     		ldr	r3, [r3]
 192 0036 1946     		mov	r1, r3
 193 0038 1046     		mov	r0, r2
 194 003a FFF7FEFF 		bl	ip4_addr_isbroadcast_u32
 195 003e 0346     		mov	r3, r0
 196              		.loc 1 153 6
 197 0040 002B     		cmp	r3, #0
 198 0042 40F0BA83 		bne	.L71
 154:Middlewares/Third_Party/LwIP/src/core/tcp_in.c ****       ip_addr_ismulticast(ip_current_dest_addr())) {
 199              		.loc 1 154 7 discriminator 1
 200 0046 924B     		ldr	r3, .L86+16
 201 0048 5B69     		ldr	r3, [r3, #20]
 202 004a 03F0F003 		and	r3, r3, #240
 153:Middlewares/Third_Party/LwIP/src/core/tcp_in.c ****       ip_addr_ismulticast(ip_current_dest_addr())) {
 203              		.loc 1 153 71 discriminator 1
 204 004e E02B     		cmp	r3, #224
 205 0050 00F0B383 		beq	.L71
 155:Middlewares/Third_Party/LwIP/src/core/tcp_in.c ****     TCP_STATS_INC(tcp.proterr);
 156:Middlewares/Third_Party/LwIP/src/core/tcp_in.c ****     goto dropped;
 157:Middlewares/Third_Party/LwIP/src/core/tcp_in.c ****   }
 158:Middlewares/Third_Party/LwIP/src/core/tcp_in.c **** 
 159:Middlewares/Third_Party/LwIP/src/core/tcp_in.c **** #if CHECKSUM_CHECK_TCP
 160:Middlewares/Third_Party/LwIP/src/core/tcp_in.c ****   IF__NETIF_CHECKSUM_ENABLED(inp, NETIF_CHECKSUM_CHECK_TCP) {
 161:Middlewares/Third_Party/LwIP/src/core/tcp_in.c ****     /* Verify TCP checksum. */
 162:Middlewares/Third_Party/LwIP/src/core/tcp_in.c ****     u16_t chksum = ip_chksum_pseudo(p, IP_PROTO_TCP, p->tot_len,
 163:Middlewares/Third_Party/LwIP/src/core/tcp_in.c ****                                     ip_current_src_addr(), ip_current_dest_addr());
 164:Middlewares/Third_Party/LwIP/src/core/tcp_in.c ****     if (chksum != 0) {
 165:Middlewares/Third_Party/LwIP/src/core/tcp_in.c ****       LWIP_DEBUGF(TCP_INPUT_DEBUG, ("tcp_input: packet discarded due to failing checksum 0x%04"X16_
 166:Middlewares/Third_Party/LwIP/src/core/tcp_in.c ****                                     chksum));
 167:Middlewares/Third_Party/LwIP/src/core/tcp_in.c ****       tcp_debug_print(tcphdr);
 168:Middlewares/Third_Party/LwIP/src/core/tcp_in.c ****       TCP_STATS_INC(tcp.chkerr);
ARM GAS  /tmp/ccWqLOXK.s 			page 8


 169:Middlewares/Third_Party/LwIP/src/core/tcp_in.c ****       goto dropped;
 170:Middlewares/Third_Party/LwIP/src/core/tcp_in.c ****     }
 171:Middlewares/Third_Party/LwIP/src/core/tcp_in.c ****   }
 172:Middlewares/Third_Party/LwIP/src/core/tcp_in.c **** #endif /* CHECKSUM_CHECK_TCP */
 173:Middlewares/Third_Party/LwIP/src/core/tcp_in.c **** 
 174:Middlewares/Third_Party/LwIP/src/core/tcp_in.c ****   /* sanity-check header length */
 175:Middlewares/Third_Party/LwIP/src/core/tcp_in.c ****   hdrlen_bytes = TCPH_HDRLEN_BYTES(tcphdr);
 206              		.loc 1 175 18
 207 0054 8D4B     		ldr	r3, .L86+12
 208 0056 1B68     		ldr	r3, [r3]
 209 0058 9B89     		ldrh	r3, [r3, #12]	@ unaligned
 210 005a 9BB2     		uxth	r3, r3
 211 005c 1846     		mov	r0, r3
 212 005e FFF7FEFF 		bl	lwip_htons
 213 0062 0346     		mov	r3, r0
 214 0064 1B0B     		lsrs	r3, r3, #12
 215 0066 9BB2     		uxth	r3, r3
 216 0068 DBB2     		uxtb	r3, r3
 217              		.loc 1 175 16
 218 006a 9B00     		lsls	r3, r3, #2
 219 006c BB74     		strb	r3, [r7, #18]
 176:Middlewares/Third_Party/LwIP/src/core/tcp_in.c ****   if ((hdrlen_bytes < TCP_HLEN) || (hdrlen_bytes > p->tot_len)) {
 220              		.loc 1 176 6
 221 006e BB7C     		ldrb	r3, [r7, #18]	@ zero_extendqisi2
 222 0070 132B     		cmp	r3, #19
 223 0072 40F2A483 		bls	.L72
 224              		.loc 1 176 50 discriminator 1
 225 0076 BB7C     		ldrb	r3, [r7, #18]	@ zero_extendqisi2
 226 0078 9AB2     		uxth	r2, r3
 227              		.loc 1 176 53 discriminator 1
 228 007a 7B68     		ldr	r3, [r7, #4]
 229 007c 1B89     		ldrh	r3, [r3, #8]
 230              		.loc 1 176 33 discriminator 1
 231 007e 9A42     		cmp	r2, r3
 232 0080 00F29D83 		bhi	.L72
 177:Middlewares/Third_Party/LwIP/src/core/tcp_in.c ****     LWIP_DEBUGF(TCP_INPUT_DEBUG, ("tcp_input: invalid header length (%"U16_F")\n", (u16_t)hdrlen_by
 178:Middlewares/Third_Party/LwIP/src/core/tcp_in.c ****     TCP_STATS_INC(tcp.lenerr);
 179:Middlewares/Third_Party/LwIP/src/core/tcp_in.c ****     goto dropped;
 180:Middlewares/Third_Party/LwIP/src/core/tcp_in.c ****   }
 181:Middlewares/Third_Party/LwIP/src/core/tcp_in.c **** 
 182:Middlewares/Third_Party/LwIP/src/core/tcp_in.c ****   /* Move the payload pointer in the pbuf so that it points to the
 183:Middlewares/Third_Party/LwIP/src/core/tcp_in.c ****      TCP data instead of the TCP header. */
 184:Middlewares/Third_Party/LwIP/src/core/tcp_in.c ****   tcphdr_optlen = (u16_t)(hdrlen_bytes - TCP_HLEN);
 233              		.loc 1 184 19
 234 0084 BB7C     		ldrb	r3, [r7, #18]	@ zero_extendqisi2
 235 0086 9BB2     		uxth	r3, r3
 236 0088 143B     		subs	r3, r3, #20
 237 008a 9AB2     		uxth	r2, r3
 238              		.loc 1 184 17
 239 008c 814B     		ldr	r3, .L86+20
 240 008e 1A80     		strh	r2, [r3]	@ movhi
 185:Middlewares/Third_Party/LwIP/src/core/tcp_in.c ****   tcphdr_opt2 = NULL;
 241              		.loc 1 185 15
 242 0090 814B     		ldr	r3, .L86+24
 243 0092 0022     		movs	r2, #0
 244 0094 1A60     		str	r2, [r3]
 186:Middlewares/Third_Party/LwIP/src/core/tcp_in.c ****   if (p->len >= hdrlen_bytes) {
ARM GAS  /tmp/ccWqLOXK.s 			page 9


 245              		.loc 1 186 8
 246 0096 7B68     		ldr	r3, [r7, #4]
 247 0098 5A89     		ldrh	r2, [r3, #10]
 248              		.loc 1 186 14
 249 009a BB7C     		ldrb	r3, [r7, #18]	@ zero_extendqisi2
 250 009c 9BB2     		uxth	r3, r3
 251              		.loc 1 186 6
 252 009e 9A42     		cmp	r2, r3
 253 00a0 09D3     		bcc	.L9
 187:Middlewares/Third_Party/LwIP/src/core/tcp_in.c ****     /* all options are in the first pbuf */
 188:Middlewares/Third_Party/LwIP/src/core/tcp_in.c ****     tcphdr_opt1len = tcphdr_optlen;
 254              		.loc 1 188 20
 255 00a2 7C4B     		ldr	r3, .L86+20
 256 00a4 1A88     		ldrh	r2, [r3]
 257 00a6 7D4B     		ldr	r3, .L86+28
 258 00a8 1A80     		strh	r2, [r3]	@ movhi
 189:Middlewares/Third_Party/LwIP/src/core/tcp_in.c ****     pbuf_remove_header(p, hdrlen_bytes); /* cannot fail */
 259              		.loc 1 189 5
 260 00aa BB7C     		ldrb	r3, [r7, #18]	@ zero_extendqisi2
 261 00ac 1946     		mov	r1, r3
 262 00ae 7868     		ldr	r0, [r7, #4]
 263 00b0 FFF7FEFF 		bl	pbuf_remove_header
 264 00b4 4EE0     		b	.L10
 265              	.L9:
 266              	.LBB2:
 190:Middlewares/Third_Party/LwIP/src/core/tcp_in.c ****   } else {
 191:Middlewares/Third_Party/LwIP/src/core/tcp_in.c ****     u16_t opt2len;
 192:Middlewares/Third_Party/LwIP/src/core/tcp_in.c ****     /* TCP header fits into first pbuf, options don't - data is in the next pbuf */
 193:Middlewares/Third_Party/LwIP/src/core/tcp_in.c ****     /* there must be a next pbuf, due to hdrlen_bytes sanity check above */
 194:Middlewares/Third_Party/LwIP/src/core/tcp_in.c ****     LWIP_ASSERT("p->next != NULL", p->next != NULL);
 267              		.loc 1 194 5
 268 00b6 7B68     		ldr	r3, [r7, #4]
 269 00b8 1B68     		ldr	r3, [r3]
 270 00ba 002B     		cmp	r3, #0
 271 00bc 05D1     		bne	.L11
 272              		.loc 1 194 5 is_stmt 0 discriminator 1
 273 00be 704B     		ldr	r3, .L86
 274 00c0 C222     		movs	r2, #194
 275 00c2 7749     		ldr	r1, .L86+32
 276 00c4 7048     		ldr	r0, .L86+8
 277 00c6 FFF7FEFF 		bl	printf
 278              	.L11:
 195:Middlewares/Third_Party/LwIP/src/core/tcp_in.c **** 
 196:Middlewares/Third_Party/LwIP/src/core/tcp_in.c ****     /* advance over the TCP header (cannot fail) */
 197:Middlewares/Third_Party/LwIP/src/core/tcp_in.c ****     pbuf_remove_header(p, TCP_HLEN);
 279              		.loc 1 197 5 is_stmt 1
 280 00ca 1421     		movs	r1, #20
 281 00cc 7868     		ldr	r0, [r7, #4]
 282 00ce FFF7FEFF 		bl	pbuf_remove_header
 198:Middlewares/Third_Party/LwIP/src/core/tcp_in.c **** 
 199:Middlewares/Third_Party/LwIP/src/core/tcp_in.c ****     /* determine how long the first and second parts of the options are */
 200:Middlewares/Third_Party/LwIP/src/core/tcp_in.c ****     tcphdr_opt1len = p->len;
 283              		.loc 1 200 23
 284 00d2 7B68     		ldr	r3, [r7, #4]
 285 00d4 5A89     		ldrh	r2, [r3, #10]
 286              		.loc 1 200 20
 287 00d6 714B     		ldr	r3, .L86+28
ARM GAS  /tmp/ccWqLOXK.s 			page 10


 288 00d8 1A80     		strh	r2, [r3]	@ movhi
 201:Middlewares/Third_Party/LwIP/src/core/tcp_in.c ****     opt2len = (u16_t)(tcphdr_optlen - tcphdr_opt1len);
 289              		.loc 1 201 15
 290 00da 6E4B     		ldr	r3, .L86+20
 291 00dc 1A88     		ldrh	r2, [r3]
 292 00de 6F4B     		ldr	r3, .L86+28
 293 00e0 1B88     		ldrh	r3, [r3]
 294              		.loc 1 201 13
 295 00e2 D31A     		subs	r3, r2, r3
 296 00e4 3B82     		strh	r3, [r7, #16]	@ movhi
 202:Middlewares/Third_Party/LwIP/src/core/tcp_in.c **** 
 203:Middlewares/Third_Party/LwIP/src/core/tcp_in.c ****     /* options continue in the next pbuf: set p to zero length and hide the
 204:Middlewares/Third_Party/LwIP/src/core/tcp_in.c ****         options in the next pbuf (adjusting p->tot_len) */
 205:Middlewares/Third_Party/LwIP/src/core/tcp_in.c ****     pbuf_remove_header(p, tcphdr_opt1len);
 297              		.loc 1 205 5
 298 00e6 6D4B     		ldr	r3, .L86+28
 299 00e8 1B88     		ldrh	r3, [r3]
 300 00ea 1946     		mov	r1, r3
 301 00ec 7868     		ldr	r0, [r7, #4]
 302 00ee FFF7FEFF 		bl	pbuf_remove_header
 206:Middlewares/Third_Party/LwIP/src/core/tcp_in.c **** 
 207:Middlewares/Third_Party/LwIP/src/core/tcp_in.c ****     /* check that the options fit in the second pbuf */
 208:Middlewares/Third_Party/LwIP/src/core/tcp_in.c ****     if (opt2len > p->next->len) {
 303              		.loc 1 208 20
 304 00f2 7B68     		ldr	r3, [r7, #4]
 305 00f4 1B68     		ldr	r3, [r3]
 306              		.loc 1 208 26
 307 00f6 5B89     		ldrh	r3, [r3, #10]
 308              		.loc 1 208 8
 309 00f8 3A8A     		ldrh	r2, [r7, #16]
 310 00fa 9A42     		cmp	r2, r3
 311 00fc 00F26183 		bhi	.L73
 209:Middlewares/Third_Party/LwIP/src/core/tcp_in.c ****       /* drop short packets */
 210:Middlewares/Third_Party/LwIP/src/core/tcp_in.c ****       LWIP_DEBUGF(TCP_INPUT_DEBUG, ("tcp_input: options overflow second pbuf (%"U16_F" bytes)\n", p
 211:Middlewares/Third_Party/LwIP/src/core/tcp_in.c ****       TCP_STATS_INC(tcp.lenerr);
 212:Middlewares/Third_Party/LwIP/src/core/tcp_in.c ****       goto dropped;
 213:Middlewares/Third_Party/LwIP/src/core/tcp_in.c ****     }
 214:Middlewares/Third_Party/LwIP/src/core/tcp_in.c **** 
 215:Middlewares/Third_Party/LwIP/src/core/tcp_in.c ****     /* remember the pointer to the second part of the options */
 216:Middlewares/Third_Party/LwIP/src/core/tcp_in.c ****     tcphdr_opt2 = (u8_t *)p->next->payload;
 312              		.loc 1 216 28
 313 0100 7B68     		ldr	r3, [r7, #4]
 314 0102 1B68     		ldr	r3, [r3]
 315              		.loc 1 216 34
 316 0104 5B68     		ldr	r3, [r3, #4]
 317              		.loc 1 216 17
 318 0106 644A     		ldr	r2, .L86+24
 319 0108 1360     		str	r3, [r2]
 217:Middlewares/Third_Party/LwIP/src/core/tcp_in.c **** 
 218:Middlewares/Third_Party/LwIP/src/core/tcp_in.c ****     /* advance p->next to point after the options, and manually
 219:Middlewares/Third_Party/LwIP/src/core/tcp_in.c ****         adjust p->tot_len to keep it consistent with the changed p->next */
 220:Middlewares/Third_Party/LwIP/src/core/tcp_in.c ****     pbuf_remove_header(p->next, opt2len);
 320              		.loc 1 220 5
 321 010a 7B68     		ldr	r3, [r7, #4]
 322 010c 1B68     		ldr	r3, [r3]
 323 010e 3A8A     		ldrh	r2, [r7, #16]
 324 0110 1146     		mov	r1, r2
ARM GAS  /tmp/ccWqLOXK.s 			page 11


 325 0112 1846     		mov	r0, r3
 326 0114 FFF7FEFF 		bl	pbuf_remove_header
 221:Middlewares/Third_Party/LwIP/src/core/tcp_in.c ****     p->tot_len = (u16_t)(p->tot_len - opt2len);
 327              		.loc 1 221 27
 328 0118 7B68     		ldr	r3, [r7, #4]
 329 011a 1A89     		ldrh	r2, [r3, #8]
 330              		.loc 1 221 18
 331 011c 3B8A     		ldrh	r3, [r7, #16]	@ movhi
 332 011e D31A     		subs	r3, r2, r3
 333 0120 9AB2     		uxth	r2, r3
 334              		.loc 1 221 16
 335 0122 7B68     		ldr	r3, [r7, #4]
 336 0124 1A81     		strh	r2, [r3, #8]	@ movhi
 222:Middlewares/Third_Party/LwIP/src/core/tcp_in.c **** 
 223:Middlewares/Third_Party/LwIP/src/core/tcp_in.c ****     LWIP_ASSERT("p->len == 0", p->len == 0);
 337              		.loc 1 223 5
 338 0126 7B68     		ldr	r3, [r7, #4]
 339 0128 5B89     		ldrh	r3, [r3, #10]
 340 012a 002B     		cmp	r3, #0
 341 012c 05D0     		beq	.L13
 342              		.loc 1 223 5 is_stmt 0 discriminator 1
 343 012e 544B     		ldr	r3, .L86
 344 0130 DF22     		movs	r2, #223
 345 0132 5C49     		ldr	r1, .L86+36
 346 0134 5448     		ldr	r0, .L86+8
 347 0136 FFF7FEFF 		bl	printf
 348              	.L13:
 224:Middlewares/Third_Party/LwIP/src/core/tcp_in.c ****     LWIP_ASSERT("p->tot_len == p->next->tot_len", p->tot_len == p->next->tot_len);
 349              		.loc 1 224 5 is_stmt 1
 350 013a 7B68     		ldr	r3, [r7, #4]
 351 013c 1A89     		ldrh	r2, [r3, #8]
 352 013e 7B68     		ldr	r3, [r7, #4]
 353 0140 1B68     		ldr	r3, [r3]
 354 0142 1B89     		ldrh	r3, [r3, #8]
 355 0144 9A42     		cmp	r2, r3
 356 0146 05D0     		beq	.L10
 357              		.loc 1 224 5 is_stmt 0 discriminator 1
 358 0148 4D4B     		ldr	r3, .L86
 359 014a E022     		movs	r2, #224
 360 014c 5649     		ldr	r1, .L86+40
 361 014e 4E48     		ldr	r0, .L86+8
 362 0150 FFF7FEFF 		bl	printf
 363              	.L10:
 364              	.LBE2:
 225:Middlewares/Third_Party/LwIP/src/core/tcp_in.c ****   }
 226:Middlewares/Third_Party/LwIP/src/core/tcp_in.c **** 
 227:Middlewares/Third_Party/LwIP/src/core/tcp_in.c ****   /* Convert fields in TCP header to host byte order. */
 228:Middlewares/Third_Party/LwIP/src/core/tcp_in.c ****   tcphdr->src = lwip_ntohs(tcphdr->src);
 365              		.loc 1 228 17 is_stmt 1
 366 0154 4D4B     		ldr	r3, .L86+12
 367 0156 1B68     		ldr	r3, [r3]
 368 0158 1B88     		ldrh	r3, [r3]	@ unaligned
 369 015a 9AB2     		uxth	r2, r3
 370              		.loc 1 228 9
 371 015c 4B4B     		ldr	r3, .L86+12
 372 015e 1C68     		ldr	r4, [r3]
 373              		.loc 1 228 17
ARM GAS  /tmp/ccWqLOXK.s 			page 12


 374 0160 1046     		mov	r0, r2
 375 0162 FFF7FEFF 		bl	lwip_htons
 376 0166 0346     		mov	r3, r0
 377              		.loc 1 228 15
 378 0168 2380     		strh	r3, [r4]	@ unaligned
 229:Middlewares/Third_Party/LwIP/src/core/tcp_in.c ****   tcphdr->dest = lwip_ntohs(tcphdr->dest);
 379              		.loc 1 229 18
 380 016a 484B     		ldr	r3, .L86+12
 381 016c 1B68     		ldr	r3, [r3]
 382 016e 5B88     		ldrh	r3, [r3, #2]	@ unaligned
 383 0170 9AB2     		uxth	r2, r3
 384              		.loc 1 229 9
 385 0172 464B     		ldr	r3, .L86+12
 386 0174 1C68     		ldr	r4, [r3]
 387              		.loc 1 229 18
 388 0176 1046     		mov	r0, r2
 389 0178 FFF7FEFF 		bl	lwip_htons
 390 017c 0346     		mov	r3, r0
 391              		.loc 1 229 16
 392 017e 6380     		strh	r3, [r4, #2]	@ unaligned
 230:Middlewares/Third_Party/LwIP/src/core/tcp_in.c ****   seqno = tcphdr->seqno = lwip_ntohl(tcphdr->seqno);
 393              		.loc 1 230 27
 394 0180 424B     		ldr	r3, .L86+12
 395 0182 1B68     		ldr	r3, [r3]
 396 0184 5A68     		ldr	r2, [r3, #4]	@ unaligned
 397              		.loc 1 230 17
 398 0186 414B     		ldr	r3, .L86+12
 399 0188 1C68     		ldr	r4, [r3]
 400              		.loc 1 230 27
 401 018a 1046     		mov	r0, r2
 402 018c FFF7FEFF 		bl	lwip_htonl
 403 0190 0346     		mov	r3, r0
 404              		.loc 1 230 25
 405 0192 6360     		str	r3, [r4, #4]	@ unaligned
 406              		.loc 1 230 17
 407 0194 6368     		ldr	r3, [r4, #4]	@ unaligned
 408              		.loc 1 230 9
 409 0196 454A     		ldr	r2, .L86+44
 410 0198 1360     		str	r3, [r2]
 231:Middlewares/Third_Party/LwIP/src/core/tcp_in.c ****   ackno = tcphdr->ackno = lwip_ntohl(tcphdr->ackno);
 411              		.loc 1 231 27
 412 019a 3C4B     		ldr	r3, .L86+12
 413 019c 1B68     		ldr	r3, [r3]
 414 019e 9A68     		ldr	r2, [r3, #8]	@ unaligned
 415              		.loc 1 231 17
 416 01a0 3A4B     		ldr	r3, .L86+12
 417 01a2 1C68     		ldr	r4, [r3]
 418              		.loc 1 231 27
 419 01a4 1046     		mov	r0, r2
 420 01a6 FFF7FEFF 		bl	lwip_htonl
 421 01aa 0346     		mov	r3, r0
 422              		.loc 1 231 25
 423 01ac A360     		str	r3, [r4, #8]	@ unaligned
 424              		.loc 1 231 17
 425 01ae A368     		ldr	r3, [r4, #8]	@ unaligned
 426              		.loc 1 231 9
 427 01b0 3F4A     		ldr	r2, .L86+48
ARM GAS  /tmp/ccWqLOXK.s 			page 13


 428 01b2 1360     		str	r3, [r2]
 232:Middlewares/Third_Party/LwIP/src/core/tcp_in.c ****   tcphdr->wnd = lwip_ntohs(tcphdr->wnd);
 429              		.loc 1 232 17
 430 01b4 354B     		ldr	r3, .L86+12
 431 01b6 1B68     		ldr	r3, [r3]
 432 01b8 DB89     		ldrh	r3, [r3, #14]	@ unaligned
 433 01ba 9AB2     		uxth	r2, r3
 434              		.loc 1 232 9
 435 01bc 334B     		ldr	r3, .L86+12
 436 01be 1C68     		ldr	r4, [r3]
 437              		.loc 1 232 17
 438 01c0 1046     		mov	r0, r2
 439 01c2 FFF7FEFF 		bl	lwip_htons
 440 01c6 0346     		mov	r3, r0
 441              		.loc 1 232 15
 442 01c8 E381     		strh	r3, [r4, #14]	@ unaligned
 233:Middlewares/Third_Party/LwIP/src/core/tcp_in.c **** 
 234:Middlewares/Third_Party/LwIP/src/core/tcp_in.c ****   flags = TCPH_FLAGS(tcphdr);
 443              		.loc 1 234 11
 444 01ca 304B     		ldr	r3, .L86+12
 445 01cc 1B68     		ldr	r3, [r3]
 446 01ce 9B89     		ldrh	r3, [r3, #12]	@ unaligned
 447 01d0 9BB2     		uxth	r3, r3
 448 01d2 1846     		mov	r0, r3
 449 01d4 FFF7FEFF 		bl	lwip_htons
 450 01d8 0346     		mov	r3, r0
 451 01da DBB2     		uxtb	r3, r3
 452 01dc 03F03F03 		and	r3, r3, #63
 453 01e0 DAB2     		uxtb	r2, r3
 454              		.loc 1 234 9
 455 01e2 344B     		ldr	r3, .L86+52
 456 01e4 1A70     		strb	r2, [r3]
 235:Middlewares/Third_Party/LwIP/src/core/tcp_in.c ****   tcplen = p->tot_len;
 457              		.loc 1 235 13
 458 01e6 7B68     		ldr	r3, [r7, #4]
 459 01e8 1A89     		ldrh	r2, [r3, #8]
 460              		.loc 1 235 10
 461 01ea 334B     		ldr	r3, .L86+56
 462 01ec 1A80     		strh	r2, [r3]	@ movhi
 236:Middlewares/Third_Party/LwIP/src/core/tcp_in.c ****   if (flags & (TCP_FIN | TCP_SYN)) {
 463              		.loc 1 236 13
 464 01ee 314B     		ldr	r3, .L86+52
 465 01f0 1B78     		ldrb	r3, [r3]	@ zero_extendqisi2
 466 01f2 03F00303 		and	r3, r3, #3
 467              		.loc 1 236 6
 468 01f6 002B     		cmp	r3, #0
 469 01f8 0CD0     		beq	.L14
 237:Middlewares/Third_Party/LwIP/src/core/tcp_in.c ****     tcplen++;
 470              		.loc 1 237 11
 471 01fa 2F4B     		ldr	r3, .L86+56
 472 01fc 1B88     		ldrh	r3, [r3]
 473 01fe 0133     		adds	r3, r3, #1
 474 0200 9AB2     		uxth	r2, r3
 475 0202 2D4B     		ldr	r3, .L86+56
 476 0204 1A80     		strh	r2, [r3]	@ movhi
 238:Middlewares/Third_Party/LwIP/src/core/tcp_in.c ****     if (tcplen < p->tot_len) {
 477              		.loc 1 238 19
ARM GAS  /tmp/ccWqLOXK.s 			page 14


 478 0206 7B68     		ldr	r3, [r7, #4]
 479 0208 1A89     		ldrh	r2, [r3, #8]
 480              		.loc 1 238 16
 481 020a 2B4B     		ldr	r3, .L86+56
 482 020c 1B88     		ldrh	r3, [r3]
 483              		.loc 1 238 8
 484 020e 9A42     		cmp	r2, r3
 485 0210 00F2D982 		bhi	.L74
 486              	.L14:
 239:Middlewares/Third_Party/LwIP/src/core/tcp_in.c ****       /* u16_t overflow, cannot handle this */
 240:Middlewares/Third_Party/LwIP/src/core/tcp_in.c ****       LWIP_DEBUGF(TCP_INPUT_DEBUG, ("tcp_input: length u16_t overflow, cannot handle this\n"));
 241:Middlewares/Third_Party/LwIP/src/core/tcp_in.c ****       TCP_STATS_INC(tcp.lenerr);
 242:Middlewares/Third_Party/LwIP/src/core/tcp_in.c ****       goto dropped;
 243:Middlewares/Third_Party/LwIP/src/core/tcp_in.c ****     }
 244:Middlewares/Third_Party/LwIP/src/core/tcp_in.c ****   }
 245:Middlewares/Third_Party/LwIP/src/core/tcp_in.c **** 
 246:Middlewares/Third_Party/LwIP/src/core/tcp_in.c ****   /* Demultiplex an incoming segment. First, we check if it is destined
 247:Middlewares/Third_Party/LwIP/src/core/tcp_in.c ****      for an active connection. */
 248:Middlewares/Third_Party/LwIP/src/core/tcp_in.c ****   prev = NULL;
 487              		.loc 1 248 8
 488 0214 0023     		movs	r3, #0
 489 0216 BB61     		str	r3, [r7, #24]
 249:Middlewares/Third_Party/LwIP/src/core/tcp_in.c **** 
 250:Middlewares/Third_Party/LwIP/src/core/tcp_in.c ****   for (pcb = tcp_active_pcbs; pcb != NULL; pcb = pcb->next) {
 490              		.loc 1 250 12
 491 0218 284B     		ldr	r3, .L86+60
 492 021a 1B68     		ldr	r3, [r3]
 493 021c FB61     		str	r3, [r7, #28]
 494              		.loc 1 250 3
 495 021e 9DE0     		b	.L15
 496              	.L26:
 251:Middlewares/Third_Party/LwIP/src/core/tcp_in.c ****     LWIP_ASSERT("tcp_input: active pcb->state != CLOSED", pcb->state != CLOSED);
 497              		.loc 1 251 5
 498 0220 FB69     		ldr	r3, [r7, #28]
 499 0222 1B7D     		ldrb	r3, [r3, #20]	@ zero_extendqisi2
 500 0224 002B     		cmp	r3, #0
 501 0226 05D1     		bne	.L16
 502              		.loc 1 251 5 is_stmt 0 discriminator 1
 503 0228 154B     		ldr	r3, .L86
 504 022a FB22     		movs	r2, #251
 505 022c 2449     		ldr	r1, .L86+64
 506 022e 1648     		ldr	r0, .L86+8
 507 0230 FFF7FEFF 		bl	printf
 508              	.L16:
 252:Middlewares/Third_Party/LwIP/src/core/tcp_in.c ****     LWIP_ASSERT("tcp_input: active pcb->state != TIME-WAIT", pcb->state != TIME_WAIT);
 509              		.loc 1 252 5 is_stmt 1
 510 0234 FB69     		ldr	r3, [r7, #28]
 511 0236 1B7D     		ldrb	r3, [r3, #20]	@ zero_extendqisi2
 512 0238 0A2B     		cmp	r3, #10
 513 023a 05D1     		bne	.L17
 514              		.loc 1 252 5 is_stmt 0 discriminator 1
 515 023c 104B     		ldr	r3, .L86
 516 023e FC22     		movs	r2, #252
 517 0240 2049     		ldr	r1, .L86+68
 518 0242 1148     		ldr	r0, .L86+8
 519 0244 FFF7FEFF 		bl	printf
 520              	.L17:
ARM GAS  /tmp/ccWqLOXK.s 			page 15


 253:Middlewares/Third_Party/LwIP/src/core/tcp_in.c ****     LWIP_ASSERT("tcp_input: active pcb->state != LISTEN", pcb->state != LISTEN);
 521              		.loc 1 253 5 is_stmt 1
 522 0248 FB69     		ldr	r3, [r7, #28]
 523 024a 1B7D     		ldrb	r3, [r3, #20]	@ zero_extendqisi2
 524 024c 012B     		cmp	r3, #1
 525 024e 05D1     		bne	.L18
 526              		.loc 1 253 5 is_stmt 0 discriminator 1
 527 0250 0B4B     		ldr	r3, .L86
 528 0252 FD22     		movs	r2, #253
 529 0254 1C49     		ldr	r1, .L86+72
 530 0256 0C48     		ldr	r0, .L86+8
 531 0258 FFF7FEFF 		bl	printf
 532              	.L18:
 254:Middlewares/Third_Party/LwIP/src/core/tcp_in.c **** 
 255:Middlewares/Third_Party/LwIP/src/core/tcp_in.c ****     /* check if PCB is bound to specific netif */
 256:Middlewares/Third_Party/LwIP/src/core/tcp_in.c ****     if ((pcb->netif_idx != NETIF_NO_INDEX) &&
 533              		.loc 1 256 13 is_stmt 1
 534 025c FB69     		ldr	r3, [r7, #28]
 535 025e 1B7A     		ldrb	r3, [r3, #8]	@ zero_extendqisi2
 536              		.loc 1 256 8
 537 0260 002B     		cmp	r3, #0
 538 0262 33D0     		beq	.L19
 257:Middlewares/Third_Party/LwIP/src/core/tcp_in.c ****         (pcb->netif_idx != netif_get_index(ip_data.current_input_netif))) {
 539              		.loc 1 257 13 discriminator 1
 540 0264 FB69     		ldr	r3, [r7, #28]
 541 0266 1A7A     		ldrb	r2, [r3, #8]	@ zero_extendqisi2
 542              		.loc 1 257 28 discriminator 1
 543 0268 094B     		ldr	r3, .L86+16
 544 026a 5B68     		ldr	r3, [r3, #4]
 545 026c 93F83430 		ldrb	r3, [r3, #52]	@ zero_extendqisi2
 546 0270 0133     		adds	r3, r3, #1
 547 0272 DBB2     		uxtb	r3, r3
 256:Middlewares/Third_Party/LwIP/src/core/tcp_in.c ****         (pcb->netif_idx != netif_get_index(ip_data.current_input_netif))) {
 548              		.loc 1 256 44 discriminator 1
 549 0274 9A42     		cmp	r2, r3
 550 0276 29D0     		beq	.L19
 258:Middlewares/Third_Party/LwIP/src/core/tcp_in.c ****       prev = pcb;
 551              		.loc 1 258 12
 552 0278 FB69     		ldr	r3, [r7, #28]
 553 027a BB61     		str	r3, [r7, #24]
 259:Middlewares/Third_Party/LwIP/src/core/tcp_in.c ****       continue;
 554              		.loc 1 259 7
 555 027c 6BE0     		b	.L20
 556              	.L87:
 557 027e 00BF     		.align	2
 558              	.L86:
 559 0280 00000000 		.word	.LC0
 560 0284 30000000 		.word	.LC1
 561 0288 48000000 		.word	.LC2
 562 028c 00000000 		.word	tcphdr
 563 0290 00000000 		.word	ip_data
 564 0294 00000000 		.word	tcphdr_optlen
 565 0298 00000000 		.word	tcphdr_opt2
 566 029c 00000000 		.word	tcphdr_opt1len
 567 02a0 70000000 		.word	.LC3
 568 02a4 80000000 		.word	.LC4
 569 02a8 8C000000 		.word	.LC5
ARM GAS  /tmp/ccWqLOXK.s 			page 16


 570 02ac 00000000 		.word	seqno
 571 02b0 00000000 		.word	ackno
 572 02b4 00000000 		.word	flags
 573 02b8 00000000 		.word	tcplen
 574 02bc 00000000 		.word	tcp_active_pcbs
 575 02c0 AC000000 		.word	.LC6
 576 02c4 D4000000 		.word	.LC7
 577 02c8 00010000 		.word	.LC8
 578              	.L19:
 260:Middlewares/Third_Party/LwIP/src/core/tcp_in.c ****     }
 261:Middlewares/Third_Party/LwIP/src/core/tcp_in.c **** 
 262:Middlewares/Third_Party/LwIP/src/core/tcp_in.c ****     if (pcb->remote_port == tcphdr->src &&
 579              		.loc 1 262 12
 580 02cc FB69     		ldr	r3, [r7, #28]
 581 02ce 1A8B     		ldrh	r2, [r3, #24]
 582              		.loc 1 262 35
 583 02d0 944B     		ldr	r3, .L88
 584 02d2 1B68     		ldr	r3, [r3]
 585 02d4 1B88     		ldrh	r3, [r3]	@ unaligned
 586 02d6 9BB2     		uxth	r3, r3
 587              		.loc 1 262 8
 588 02d8 9A42     		cmp	r2, r3
 589 02da 3AD1     		bne	.L21
 263:Middlewares/Third_Party/LwIP/src/core/tcp_in.c ****         pcb->local_port == tcphdr->dest &&
 590              		.loc 1 263 12 discriminator 1
 591 02dc FB69     		ldr	r3, [r7, #28]
 592 02de DA8A     		ldrh	r2, [r3, #22]
 593              		.loc 1 263 34 discriminator 1
 594 02e0 904B     		ldr	r3, .L88
 595 02e2 1B68     		ldr	r3, [r3]
 596 02e4 5B88     		ldrh	r3, [r3, #2]	@ unaligned
 597 02e6 9BB2     		uxth	r3, r3
 262:Middlewares/Third_Party/LwIP/src/core/tcp_in.c ****         pcb->local_port == tcphdr->dest &&
 598              		.loc 1 262 41 discriminator 1
 599 02e8 9A42     		cmp	r2, r3
 600 02ea 32D1     		bne	.L21
 264:Middlewares/Third_Party/LwIP/src/core/tcp_in.c ****         ip_addr_cmp(&pcb->remote_ip, ip_current_src_addr()) &&
 601              		.loc 1 264 9
 602 02ec FB69     		ldr	r3, [r7, #28]
 603 02ee 5A68     		ldr	r2, [r3, #4]
 604 02f0 8D4B     		ldr	r3, .L88+4
 605 02f2 1B69     		ldr	r3, [r3, #16]
 263:Middlewares/Third_Party/LwIP/src/core/tcp_in.c ****         pcb->local_port == tcphdr->dest &&
 606              		.loc 1 263 41
 607 02f4 9A42     		cmp	r2, r3
 608 02f6 2CD1     		bne	.L21
 265:Middlewares/Third_Party/LwIP/src/core/tcp_in.c ****         ip_addr_cmp(&pcb->local_ip, ip_current_dest_addr())) {
 609              		.loc 1 265 9
 610 02f8 FB69     		ldr	r3, [r7, #28]
 611 02fa 1A68     		ldr	r2, [r3]
 612 02fc 8A4B     		ldr	r3, .L88+4
 613 02fe 5B69     		ldr	r3, [r3, #20]
 264:Middlewares/Third_Party/LwIP/src/core/tcp_in.c ****         ip_addr_cmp(&pcb->remote_ip, ip_current_src_addr()) &&
 614              		.loc 1 264 61
 615 0300 9A42     		cmp	r2, r3
 616 0302 26D1     		bne	.L21
 266:Middlewares/Third_Party/LwIP/src/core/tcp_in.c ****       /* Move this PCB to the front of the list so that subsequent
ARM GAS  /tmp/ccWqLOXK.s 			page 17


 267:Middlewares/Third_Party/LwIP/src/core/tcp_in.c ****          lookups will be faster (we exploit locality in TCP segment
 268:Middlewares/Third_Party/LwIP/src/core/tcp_in.c ****          arrivals). */
 269:Middlewares/Third_Party/LwIP/src/core/tcp_in.c ****       LWIP_ASSERT("tcp_input: pcb->next != pcb (before cache)", pcb->next != pcb);
 617              		.loc 1 269 7
 618 0304 FB69     		ldr	r3, [r7, #28]
 619 0306 DB68     		ldr	r3, [r3, #12]
 620 0308 FA69     		ldr	r2, [r7, #28]
 621 030a 9A42     		cmp	r2, r3
 622 030c 06D1     		bne	.L22
 623              		.loc 1 269 7 is_stmt 0 discriminator 1
 624 030e 874B     		ldr	r3, .L88+8
 625 0310 40F20D12 		movw	r2, #269
 626 0314 8649     		ldr	r1, .L88+12
 627 0316 8748     		ldr	r0, .L88+16
 628 0318 FFF7FEFF 		bl	printf
 629              	.L22:
 270:Middlewares/Third_Party/LwIP/src/core/tcp_in.c ****       if (prev != NULL) {
 630              		.loc 1 270 10 is_stmt 1
 631 031c BB69     		ldr	r3, [r7, #24]
 632 031e 002B     		cmp	r3, #0
 633 0320 0AD0     		beq	.L23
 271:Middlewares/Third_Party/LwIP/src/core/tcp_in.c ****         prev->next = pcb->next;
 634              		.loc 1 271 25
 635 0322 FB69     		ldr	r3, [r7, #28]
 636 0324 DA68     		ldr	r2, [r3, #12]
 637              		.loc 1 271 20
 638 0326 BB69     		ldr	r3, [r7, #24]
 639 0328 DA60     		str	r2, [r3, #12]
 272:Middlewares/Third_Party/LwIP/src/core/tcp_in.c ****         pcb->next = tcp_active_pcbs;
 640              		.loc 1 272 19
 641 032a 834B     		ldr	r3, .L88+20
 642 032c 1A68     		ldr	r2, [r3]
 643 032e FB69     		ldr	r3, [r7, #28]
 644 0330 DA60     		str	r2, [r3, #12]
 273:Middlewares/Third_Party/LwIP/src/core/tcp_in.c ****         tcp_active_pcbs = pcb;
 645              		.loc 1 273 25
 646 0332 814A     		ldr	r2, .L88+20
 647 0334 FB69     		ldr	r3, [r7, #28]
 648 0336 1360     		str	r3, [r2]
 649              	.L23:
 274:Middlewares/Third_Party/LwIP/src/core/tcp_in.c ****       } else {
 275:Middlewares/Third_Party/LwIP/src/core/tcp_in.c ****         TCP_STATS_INC(tcp.cachehit);
 276:Middlewares/Third_Party/LwIP/src/core/tcp_in.c ****       }
 277:Middlewares/Third_Party/LwIP/src/core/tcp_in.c ****       LWIP_ASSERT("tcp_input: pcb->next != pcb (after cache)", pcb->next != pcb);
 650              		.loc 1 277 7
 651 0338 FB69     		ldr	r3, [r7, #28]
 652 033a DB68     		ldr	r3, [r3, #12]
 653 033c FA69     		ldr	r2, [r7, #28]
 654 033e 9A42     		cmp	r2, r3
 655 0340 11D1     		bne	.L75
 656              		.loc 1 277 7 is_stmt 0 discriminator 1
 657 0342 7A4B     		ldr	r3, .L88+8
 658 0344 40F21512 		movw	r2, #277
 659 0348 7C49     		ldr	r1, .L88+24
 660 034a 7A48     		ldr	r0, .L88+16
 661 034c FFF7FEFF 		bl	printf
 278:Middlewares/Third_Party/LwIP/src/core/tcp_in.c ****       break;
ARM GAS  /tmp/ccWqLOXK.s 			page 18


 662              		.loc 1 278 7 is_stmt 1 discriminator 1
 663 0350 09E0     		b	.L75
 664              	.L21:
 279:Middlewares/Third_Party/LwIP/src/core/tcp_in.c ****     }
 280:Middlewares/Third_Party/LwIP/src/core/tcp_in.c ****     prev = pcb;
 665              		.loc 1 280 10
 666 0352 FB69     		ldr	r3, [r7, #28]
 667 0354 BB61     		str	r3, [r7, #24]
 668              	.L20:
 250:Middlewares/Third_Party/LwIP/src/core/tcp_in.c ****     LWIP_ASSERT("tcp_input: active pcb->state != CLOSED", pcb->state != CLOSED);
 669              		.loc 1 250 48 discriminator 2
 670 0356 FB69     		ldr	r3, [r7, #28]
 671 0358 DB68     		ldr	r3, [r3, #12]
 672 035a FB61     		str	r3, [r7, #28]
 673              	.L15:
 250:Middlewares/Third_Party/LwIP/src/core/tcp_in.c ****     LWIP_ASSERT("tcp_input: active pcb->state != CLOSED", pcb->state != CLOSED);
 674              		.loc 1 250 3 discriminator 1
 675 035c FB69     		ldr	r3, [r7, #28]
 676 035e 002B     		cmp	r3, #0
 677 0360 7FF45EAF 		bne	.L26
 678 0364 00E0     		b	.L25
 679              	.L75:
 278:Middlewares/Third_Party/LwIP/src/core/tcp_in.c ****       break;
 680              		.loc 1 278 7
 681 0366 00BF     		nop
 682              	.L25:
 281:Middlewares/Third_Party/LwIP/src/core/tcp_in.c ****   }
 282:Middlewares/Third_Party/LwIP/src/core/tcp_in.c **** 
 283:Middlewares/Third_Party/LwIP/src/core/tcp_in.c ****   if (pcb == NULL) {
 683              		.loc 1 283 6
 684 0368 FB69     		ldr	r3, [r7, #28]
 685 036a 002B     		cmp	r3, #0
 686 036c 40F09580 		bne	.L27
 284:Middlewares/Third_Party/LwIP/src/core/tcp_in.c ****     /* If it did not go to an active connection, we check the connections
 285:Middlewares/Third_Party/LwIP/src/core/tcp_in.c ****        in the TIME-WAIT state. */
 286:Middlewares/Third_Party/LwIP/src/core/tcp_in.c ****     for (pcb = tcp_tw_pcbs; pcb != NULL; pcb = pcb->next) {
 687              		.loc 1 286 14
 688 0370 734B     		ldr	r3, .L88+28
 689 0372 1B68     		ldr	r3, [r3]
 690 0374 FB61     		str	r3, [r7, #28]
 691              		.loc 1 286 5
 692 0376 3FE0     		b	.L28
 693              	.L33:
 287:Middlewares/Third_Party/LwIP/src/core/tcp_in.c ****       LWIP_ASSERT("tcp_input: TIME-WAIT pcb->state == TIME-WAIT", pcb->state == TIME_WAIT);
 694              		.loc 1 287 7
 695 0378 FB69     		ldr	r3, [r7, #28]
 696 037a 1B7D     		ldrb	r3, [r3, #20]	@ zero_extendqisi2
 697 037c 0A2B     		cmp	r3, #10
 698 037e 06D0     		beq	.L29
 699              		.loc 1 287 7 is_stmt 0 discriminator 1
 700 0380 6A4B     		ldr	r3, .L88+8
 701 0382 40F21F12 		movw	r2, #287
 702 0386 6F49     		ldr	r1, .L88+32
 703 0388 6A48     		ldr	r0, .L88+16
 704 038a FFF7FEFF 		bl	printf
 705              	.L29:
 288:Middlewares/Third_Party/LwIP/src/core/tcp_in.c **** 
ARM GAS  /tmp/ccWqLOXK.s 			page 19


 289:Middlewares/Third_Party/LwIP/src/core/tcp_in.c ****       /* check if PCB is bound to specific netif */
 290:Middlewares/Third_Party/LwIP/src/core/tcp_in.c ****       if ((pcb->netif_idx != NETIF_NO_INDEX) &&
 706              		.loc 1 290 15 is_stmt 1
 707 038e FB69     		ldr	r3, [r7, #28]
 708 0390 1B7A     		ldrb	r3, [r3, #8]	@ zero_extendqisi2
 709              		.loc 1 290 10
 710 0392 002B     		cmp	r3, #0
 711 0394 09D0     		beq	.L30
 291:Middlewares/Third_Party/LwIP/src/core/tcp_in.c ****           (pcb->netif_idx != netif_get_index(ip_data.current_input_netif))) {
 712              		.loc 1 291 15 discriminator 1
 713 0396 FB69     		ldr	r3, [r7, #28]
 714 0398 1A7A     		ldrb	r2, [r3, #8]	@ zero_extendqisi2
 715              		.loc 1 291 30 discriminator 1
 716 039a 634B     		ldr	r3, .L88+4
 717 039c 5B68     		ldr	r3, [r3, #4]
 718 039e 93F83430 		ldrb	r3, [r3, #52]	@ zero_extendqisi2
 719 03a2 0133     		adds	r3, r3, #1
 720 03a4 DBB2     		uxtb	r3, r3
 290:Middlewares/Third_Party/LwIP/src/core/tcp_in.c ****           (pcb->netif_idx != netif_get_index(ip_data.current_input_netif))) {
 721              		.loc 1 290 46 discriminator 1
 722 03a6 9A42     		cmp	r2, r3
 723 03a8 22D1     		bne	.L76
 724              	.L30:
 292:Middlewares/Third_Party/LwIP/src/core/tcp_in.c ****         continue;
 293:Middlewares/Third_Party/LwIP/src/core/tcp_in.c ****       }
 294:Middlewares/Third_Party/LwIP/src/core/tcp_in.c **** 
 295:Middlewares/Third_Party/LwIP/src/core/tcp_in.c ****       if (pcb->remote_port == tcphdr->src &&
 725              		.loc 1 295 14
 726 03aa FB69     		ldr	r3, [r7, #28]
 727 03ac 1A8B     		ldrh	r2, [r3, #24]
 728              		.loc 1 295 37
 729 03ae 5D4B     		ldr	r3, .L88
 730 03b0 1B68     		ldr	r3, [r3]
 731 03b2 1B88     		ldrh	r3, [r3]	@ unaligned
 732 03b4 9BB2     		uxth	r3, r3
 733              		.loc 1 295 10
 734 03b6 9A42     		cmp	r2, r3
 735 03b8 1BD1     		bne	.L31
 296:Middlewares/Third_Party/LwIP/src/core/tcp_in.c ****           pcb->local_port == tcphdr->dest &&
 736              		.loc 1 296 14 discriminator 1
 737 03ba FB69     		ldr	r3, [r7, #28]
 738 03bc DA8A     		ldrh	r2, [r3, #22]
 739              		.loc 1 296 36 discriminator 1
 740 03be 594B     		ldr	r3, .L88
 741 03c0 1B68     		ldr	r3, [r3]
 742 03c2 5B88     		ldrh	r3, [r3, #2]	@ unaligned
 743 03c4 9BB2     		uxth	r3, r3
 295:Middlewares/Third_Party/LwIP/src/core/tcp_in.c ****           pcb->local_port == tcphdr->dest &&
 744              		.loc 1 295 43 discriminator 1
 745 03c6 9A42     		cmp	r2, r3
 746 03c8 13D1     		bne	.L31
 297:Middlewares/Third_Party/LwIP/src/core/tcp_in.c ****           ip_addr_cmp(&pcb->remote_ip, ip_current_src_addr()) &&
 747              		.loc 1 297 11
 748 03ca FB69     		ldr	r3, [r7, #28]
 749 03cc 5A68     		ldr	r2, [r3, #4]
 750 03ce 564B     		ldr	r3, .L88+4
 751 03d0 1B69     		ldr	r3, [r3, #16]
ARM GAS  /tmp/ccWqLOXK.s 			page 20


 296:Middlewares/Third_Party/LwIP/src/core/tcp_in.c ****           pcb->local_port == tcphdr->dest &&
 752              		.loc 1 296 43
 753 03d2 9A42     		cmp	r2, r3
 754 03d4 0DD1     		bne	.L31
 298:Middlewares/Third_Party/LwIP/src/core/tcp_in.c ****           ip_addr_cmp(&pcb->local_ip, ip_current_dest_addr())) {
 755              		.loc 1 298 11
 756 03d6 FB69     		ldr	r3, [r7, #28]
 757 03d8 1A68     		ldr	r2, [r3]
 758 03da 534B     		ldr	r3, .L88+4
 759 03dc 5B69     		ldr	r3, [r3, #20]
 297:Middlewares/Third_Party/LwIP/src/core/tcp_in.c ****           ip_addr_cmp(&pcb->remote_ip, ip_current_src_addr()) &&
 760              		.loc 1 297 63
 761 03de 9A42     		cmp	r2, r3
 762 03e0 07D1     		bne	.L31
 299:Middlewares/Third_Party/LwIP/src/core/tcp_in.c ****         /* We don't really care enough to move this PCB to the front
 300:Middlewares/Third_Party/LwIP/src/core/tcp_in.c ****            of the list since we are not very likely to receive that
 301:Middlewares/Third_Party/LwIP/src/core/tcp_in.c ****            many segments for connections in TIME-WAIT. */
 302:Middlewares/Third_Party/LwIP/src/core/tcp_in.c ****         LWIP_DEBUGF(TCP_INPUT_DEBUG, ("tcp_input: packed for TIME_WAITing connection.\n"));
 303:Middlewares/Third_Party/LwIP/src/core/tcp_in.c **** #ifdef LWIP_HOOK_TCP_INPACKET_PCB
 304:Middlewares/Third_Party/LwIP/src/core/tcp_in.c ****         if (LWIP_HOOK_TCP_INPACKET_PCB(pcb, tcphdr, tcphdr_optlen, tcphdr_opt1len,
 305:Middlewares/Third_Party/LwIP/src/core/tcp_in.c ****                                        tcphdr_opt2, p) == ERR_OK)
 306:Middlewares/Third_Party/LwIP/src/core/tcp_in.c **** #endif
 307:Middlewares/Third_Party/LwIP/src/core/tcp_in.c ****         {
 308:Middlewares/Third_Party/LwIP/src/core/tcp_in.c ****           tcp_timewait_input(pcb);
 763              		.loc 1 308 11
 764 03e2 F869     		ldr	r0, [r7, #28]
 765 03e4 FFF7FEFF 		bl	tcp_timewait_input
 309:Middlewares/Third_Party/LwIP/src/core/tcp_in.c ****         }
 310:Middlewares/Third_Party/LwIP/src/core/tcp_in.c ****         pbuf_free(p);
 766              		.loc 1 310 9
 767 03e8 7868     		ldr	r0, [r7, #4]
 768 03ea FFF7FEFF 		bl	pbuf_free
 311:Middlewares/Third_Party/LwIP/src/core/tcp_in.c ****         return;
 769              		.loc 1 311 9
 770 03ee F0E1     		b	.L1
 771              	.L76:
 292:Middlewares/Third_Party/LwIP/src/core/tcp_in.c ****       }
 772              		.loc 1 292 9
 773 03f0 00BF     		nop
 774              	.L31:
 286:Middlewares/Third_Party/LwIP/src/core/tcp_in.c ****       LWIP_ASSERT("tcp_input: TIME-WAIT pcb->state == TIME-WAIT", pcb->state == TIME_WAIT);
 775              		.loc 1 286 46 discriminator 2
 776 03f2 FB69     		ldr	r3, [r7, #28]
 777 03f4 DB68     		ldr	r3, [r3, #12]
 778 03f6 FB61     		str	r3, [r7, #28]
 779              	.L28:
 286:Middlewares/Third_Party/LwIP/src/core/tcp_in.c ****       LWIP_ASSERT("tcp_input: TIME-WAIT pcb->state == TIME-WAIT", pcb->state == TIME_WAIT);
 780              		.loc 1 286 5 discriminator 1
 781 03f8 FB69     		ldr	r3, [r7, #28]
 782 03fa 002B     		cmp	r3, #0
 783 03fc BCD1     		bne	.L33
 312:Middlewares/Third_Party/LwIP/src/core/tcp_in.c ****       }
 313:Middlewares/Third_Party/LwIP/src/core/tcp_in.c ****     }
 314:Middlewares/Third_Party/LwIP/src/core/tcp_in.c **** 
 315:Middlewares/Third_Party/LwIP/src/core/tcp_in.c ****     /* Finally, if we still did not get a match, we check all PCBs that
 316:Middlewares/Third_Party/LwIP/src/core/tcp_in.c ****        are LISTENing for incoming connections. */
 317:Middlewares/Third_Party/LwIP/src/core/tcp_in.c ****     prev = NULL;
ARM GAS  /tmp/ccWqLOXK.s 			page 21


 784              		.loc 1 317 10
 785 03fe 0023     		movs	r3, #0
 786 0400 BB61     		str	r3, [r7, #24]
 318:Middlewares/Third_Party/LwIP/src/core/tcp_in.c ****     for (lpcb = tcp_listen_pcbs.listen_pcbs; lpcb != NULL; lpcb = lpcb->next) {
 787              		.loc 1 318 15
 788 0402 514B     		ldr	r3, .L88+36
 789 0404 1B68     		ldr	r3, [r3]
 790 0406 7B61     		str	r3, [r7, #20]
 791              		.loc 1 318 5
 792 0408 2AE0     		b	.L34
 793              	.L40:
 319:Middlewares/Third_Party/LwIP/src/core/tcp_in.c ****       /* check if PCB is bound to specific netif */
 320:Middlewares/Third_Party/LwIP/src/core/tcp_in.c ****       if ((lpcb->netif_idx != NETIF_NO_INDEX) &&
 794              		.loc 1 320 16
 795 040a 7B69     		ldr	r3, [r7, #20]
 796 040c 1B7A     		ldrb	r3, [r3, #8]	@ zero_extendqisi2
 797              		.loc 1 320 10
 798 040e 002B     		cmp	r3, #0
 799 0410 0CD0     		beq	.L35
 321:Middlewares/Third_Party/LwIP/src/core/tcp_in.c ****           (lpcb->netif_idx != netif_get_index(ip_data.current_input_netif))) {
 800              		.loc 1 321 16 discriminator 1
 801 0412 7B69     		ldr	r3, [r7, #20]
 802 0414 1A7A     		ldrb	r2, [r3, #8]	@ zero_extendqisi2
 803              		.loc 1 321 31 discriminator 1
 804 0416 444B     		ldr	r3, .L88+4
 805 0418 5B68     		ldr	r3, [r3, #4]
 806 041a 93F83430 		ldrb	r3, [r3, #52]	@ zero_extendqisi2
 807 041e 0133     		adds	r3, r3, #1
 808 0420 DBB2     		uxtb	r3, r3
 320:Middlewares/Third_Party/LwIP/src/core/tcp_in.c ****           (lpcb->netif_idx != netif_get_index(ip_data.current_input_netif))) {
 809              		.loc 1 320 47 discriminator 1
 810 0422 9A42     		cmp	r2, r3
 811 0424 02D0     		beq	.L35
 322:Middlewares/Third_Party/LwIP/src/core/tcp_in.c ****         prev = (struct tcp_pcb *)lpcb;
 812              		.loc 1 322 14
 813 0426 7B69     		ldr	r3, [r7, #20]
 814 0428 BB61     		str	r3, [r7, #24]
 323:Middlewares/Third_Party/LwIP/src/core/tcp_in.c ****         continue;
 815              		.loc 1 323 9
 816 042a 16E0     		b	.L36
 817              	.L35:
 324:Middlewares/Third_Party/LwIP/src/core/tcp_in.c ****       }
 325:Middlewares/Third_Party/LwIP/src/core/tcp_in.c **** 
 326:Middlewares/Third_Party/LwIP/src/core/tcp_in.c ****       if (lpcb->local_port == tcphdr->dest) {
 818              		.loc 1 326 15
 819 042c 7B69     		ldr	r3, [r7, #20]
 820 042e DA8A     		ldrh	r2, [r3, #22]
 821              		.loc 1 326 37
 822 0430 3C4B     		ldr	r3, .L88
 823 0432 1B68     		ldr	r3, [r3]
 824 0434 5B88     		ldrh	r3, [r3, #2]	@ unaligned
 825 0436 9BB2     		uxth	r3, r3
 826              		.loc 1 326 10
 827 0438 9A42     		cmp	r2, r3
 828 043a 0CD1     		bne	.L37
 327:Middlewares/Third_Party/LwIP/src/core/tcp_in.c ****         if (IP_IS_ANY_TYPE_VAL(lpcb->local_ip)) {
 328:Middlewares/Third_Party/LwIP/src/core/tcp_in.c ****           /* found an ANY TYPE (IPv4/IPv6) match */
ARM GAS  /tmp/ccWqLOXK.s 			page 22


 329:Middlewares/Third_Party/LwIP/src/core/tcp_in.c **** #if SO_REUSE
 330:Middlewares/Third_Party/LwIP/src/core/tcp_in.c ****           lpcb_any = lpcb;
 331:Middlewares/Third_Party/LwIP/src/core/tcp_in.c ****           lpcb_prev = prev;
 332:Middlewares/Third_Party/LwIP/src/core/tcp_in.c **** #else /* SO_REUSE */
 333:Middlewares/Third_Party/LwIP/src/core/tcp_in.c ****           break;
 334:Middlewares/Third_Party/LwIP/src/core/tcp_in.c **** #endif /* SO_REUSE */
 335:Middlewares/Third_Party/LwIP/src/core/tcp_in.c ****         } else if (IP_ADDR_PCB_VERSION_MATCH_EXACT(lpcb, ip_current_dest_addr())) {
 336:Middlewares/Third_Party/LwIP/src/core/tcp_in.c ****           if (ip_addr_cmp(&lpcb->local_ip, ip_current_dest_addr())) {
 829              		.loc 1 336 15
 830 043c 7B69     		ldr	r3, [r7, #20]
 831 043e 1A68     		ldr	r2, [r3]
 832 0440 394B     		ldr	r3, .L88+4
 833 0442 5B69     		ldr	r3, [r3, #20]
 834              		.loc 1 336 14
 835 0444 9A42     		cmp	r2, r3
 836 0446 0FD0     		beq	.L77
 337:Middlewares/Third_Party/LwIP/src/core/tcp_in.c ****             /* found an exact match */
 338:Middlewares/Third_Party/LwIP/src/core/tcp_in.c ****             break;
 339:Middlewares/Third_Party/LwIP/src/core/tcp_in.c ****           } else if (ip_addr_isany(&lpcb->local_ip)) {
 837              		.loc 1 339 22
 838 0448 7B69     		ldr	r3, [r7, #20]
 839              		.loc 1 339 21
 840 044a 002B     		cmp	r3, #0
 841 044c 0DD0     		beq	.L39
 842              		.loc 1 339 22 discriminator 1
 843 044e 7B69     		ldr	r3, [r7, #20]
 844 0450 1B68     		ldr	r3, [r3]
 845 0452 002B     		cmp	r3, #0
 846 0454 09D0     		beq	.L39
 847              	.L37:
 340:Middlewares/Third_Party/LwIP/src/core/tcp_in.c ****             /* found an ANY-match */
 341:Middlewares/Third_Party/LwIP/src/core/tcp_in.c **** #if SO_REUSE
 342:Middlewares/Third_Party/LwIP/src/core/tcp_in.c ****             lpcb_any = lpcb;
 343:Middlewares/Third_Party/LwIP/src/core/tcp_in.c ****             lpcb_prev = prev;
 344:Middlewares/Third_Party/LwIP/src/core/tcp_in.c **** #else /* SO_REUSE */
 345:Middlewares/Third_Party/LwIP/src/core/tcp_in.c ****             break;
 346:Middlewares/Third_Party/LwIP/src/core/tcp_in.c **** #endif /* SO_REUSE */
 347:Middlewares/Third_Party/LwIP/src/core/tcp_in.c ****           }
 348:Middlewares/Third_Party/LwIP/src/core/tcp_in.c ****         }
 349:Middlewares/Third_Party/LwIP/src/core/tcp_in.c ****       }
 350:Middlewares/Third_Party/LwIP/src/core/tcp_in.c ****       prev = (struct tcp_pcb *)lpcb;
 848              		.loc 1 350 12
 849 0456 7B69     		ldr	r3, [r7, #20]
 850 0458 BB61     		str	r3, [r7, #24]
 851              	.L36:
 318:Middlewares/Third_Party/LwIP/src/core/tcp_in.c ****       /* check if PCB is bound to specific netif */
 852              		.loc 1 318 65 discriminator 2
 853 045a 7B69     		ldr	r3, [r7, #20]
 854 045c DB68     		ldr	r3, [r3, #12]
 855 045e 7B61     		str	r3, [r7, #20]
 856              	.L34:
 318:Middlewares/Third_Party/LwIP/src/core/tcp_in.c ****       /* check if PCB is bound to specific netif */
 857              		.loc 1 318 5 discriminator 1
 858 0460 7B69     		ldr	r3, [r7, #20]
 859 0462 002B     		cmp	r3, #0
 860 0464 D1D1     		bne	.L40
 861 0466 00E0     		b	.L39
ARM GAS  /tmp/ccWqLOXK.s 			page 23


 862              	.L77:
 338:Middlewares/Third_Party/LwIP/src/core/tcp_in.c ****           } else if (ip_addr_isany(&lpcb->local_ip)) {
 863              		.loc 1 338 13
 864 0468 00BF     		nop
 865              	.L39:
 351:Middlewares/Third_Party/LwIP/src/core/tcp_in.c ****     }
 352:Middlewares/Third_Party/LwIP/src/core/tcp_in.c **** #if SO_REUSE
 353:Middlewares/Third_Party/LwIP/src/core/tcp_in.c ****     /* first try specific local IP */
 354:Middlewares/Third_Party/LwIP/src/core/tcp_in.c ****     if (lpcb == NULL) {
 355:Middlewares/Third_Party/LwIP/src/core/tcp_in.c ****       /* only pass to ANY if no specific local IP has been found */
 356:Middlewares/Third_Party/LwIP/src/core/tcp_in.c ****       lpcb = lpcb_any;
 357:Middlewares/Third_Party/LwIP/src/core/tcp_in.c ****       prev = lpcb_prev;
 358:Middlewares/Third_Party/LwIP/src/core/tcp_in.c ****     }
 359:Middlewares/Third_Party/LwIP/src/core/tcp_in.c **** #endif /* SO_REUSE */
 360:Middlewares/Third_Party/LwIP/src/core/tcp_in.c ****     if (lpcb != NULL) {
 866              		.loc 1 360 8
 867 046a 7B69     		ldr	r3, [r7, #20]
 868 046c 002B     		cmp	r3, #0
 869 046e 14D0     		beq	.L27
 361:Middlewares/Third_Party/LwIP/src/core/tcp_in.c ****       /* Move this PCB to the front of the list so that subsequent
 362:Middlewares/Third_Party/LwIP/src/core/tcp_in.c ****          lookups will be faster (we exploit locality in TCP segment
 363:Middlewares/Third_Party/LwIP/src/core/tcp_in.c ****          arrivals). */
 364:Middlewares/Third_Party/LwIP/src/core/tcp_in.c ****       if (prev != NULL) {
 870              		.loc 1 364 10
 871 0470 BB69     		ldr	r3, [r7, #24]
 872 0472 002B     		cmp	r3, #0
 873 0474 0AD0     		beq	.L41
 365:Middlewares/Third_Party/LwIP/src/core/tcp_in.c ****         ((struct tcp_pcb_listen *)prev)->next = lpcb->next;
 874              		.loc 1 365 53
 875 0476 7B69     		ldr	r3, [r7, #20]
 876 0478 DA68     		ldr	r2, [r3, #12]
 877              		.loc 1 365 47
 878 047a BB69     		ldr	r3, [r7, #24]
 879 047c DA60     		str	r2, [r3, #12]
 366:Middlewares/Third_Party/LwIP/src/core/tcp_in.c ****         /* our successor is the remainder of the listening list */
 367:Middlewares/Third_Party/LwIP/src/core/tcp_in.c ****         lpcb->next = tcp_listen_pcbs.listen_pcbs;
 880              		.loc 1 367 37
 881 047e 324B     		ldr	r3, .L88+36
 882 0480 1A68     		ldr	r2, [r3]
 883              		.loc 1 367 20
 884 0482 7B69     		ldr	r3, [r7, #20]
 885 0484 DA60     		str	r2, [r3, #12]
 368:Middlewares/Third_Party/LwIP/src/core/tcp_in.c ****         /* put this listening pcb at the head of the listening list */
 369:Middlewares/Third_Party/LwIP/src/core/tcp_in.c ****         tcp_listen_pcbs.listen_pcbs = lpcb;
 886              		.loc 1 369 37
 887 0486 304A     		ldr	r2, .L88+36
 888 0488 7B69     		ldr	r3, [r7, #20]
 889 048a 1360     		str	r3, [r2]
 890              	.L41:
 370:Middlewares/Third_Party/LwIP/src/core/tcp_in.c ****       } else {
 371:Middlewares/Third_Party/LwIP/src/core/tcp_in.c ****         TCP_STATS_INC(tcp.cachehit);
 372:Middlewares/Third_Party/LwIP/src/core/tcp_in.c ****       }
 373:Middlewares/Third_Party/LwIP/src/core/tcp_in.c **** 
 374:Middlewares/Third_Party/LwIP/src/core/tcp_in.c ****       LWIP_DEBUGF(TCP_INPUT_DEBUG, ("tcp_input: packed for LISTENing connection.\n"));
 375:Middlewares/Third_Party/LwIP/src/core/tcp_in.c **** #ifdef LWIP_HOOK_TCP_INPACKET_PCB
 376:Middlewares/Third_Party/LwIP/src/core/tcp_in.c ****       if (LWIP_HOOK_TCP_INPACKET_PCB((struct tcp_pcb *)lpcb, tcphdr, tcphdr_optlen,
 377:Middlewares/Third_Party/LwIP/src/core/tcp_in.c ****                                      tcphdr_opt1len, tcphdr_opt2, p) == ERR_OK)
ARM GAS  /tmp/ccWqLOXK.s 			page 24


 378:Middlewares/Third_Party/LwIP/src/core/tcp_in.c **** #endif
 379:Middlewares/Third_Party/LwIP/src/core/tcp_in.c ****       {
 380:Middlewares/Third_Party/LwIP/src/core/tcp_in.c ****         tcp_listen_input(lpcb);
 891              		.loc 1 380 9
 892 048c 7869     		ldr	r0, [r7, #20]
 893 048e FFF7FEFF 		bl	tcp_listen_input
 381:Middlewares/Third_Party/LwIP/src/core/tcp_in.c ****       }
 382:Middlewares/Third_Party/LwIP/src/core/tcp_in.c ****       pbuf_free(p);
 894              		.loc 1 382 7
 895 0492 7868     		ldr	r0, [r7, #4]
 896 0494 FFF7FEFF 		bl	pbuf_free
 383:Middlewares/Third_Party/LwIP/src/core/tcp_in.c ****       return;
 897              		.loc 1 383 7
 898 0498 9BE1     		b	.L1
 899              	.L27:
 384:Middlewares/Third_Party/LwIP/src/core/tcp_in.c ****     }
 385:Middlewares/Third_Party/LwIP/src/core/tcp_in.c ****   }
 386:Middlewares/Third_Party/LwIP/src/core/tcp_in.c **** 
 387:Middlewares/Third_Party/LwIP/src/core/tcp_in.c **** #if TCP_INPUT_DEBUG
 388:Middlewares/Third_Party/LwIP/src/core/tcp_in.c ****   LWIP_DEBUGF(TCP_INPUT_DEBUG, ("+-+-+-+-+-+-+-+-+-+-+-+-+-+- tcp_input: flags "));
 389:Middlewares/Third_Party/LwIP/src/core/tcp_in.c ****   tcp_debug_print_flags(TCPH_FLAGS(tcphdr));
 390:Middlewares/Third_Party/LwIP/src/core/tcp_in.c ****   LWIP_DEBUGF(TCP_INPUT_DEBUG, ("-+-+-+-+-+-+-+-+-+-+-+-+-+-+\n"));
 391:Middlewares/Third_Party/LwIP/src/core/tcp_in.c **** #endif /* TCP_INPUT_DEBUG */
 392:Middlewares/Third_Party/LwIP/src/core/tcp_in.c **** 
 393:Middlewares/Third_Party/LwIP/src/core/tcp_in.c **** 
 394:Middlewares/Third_Party/LwIP/src/core/tcp_in.c **** #ifdef LWIP_HOOK_TCP_INPACKET_PCB
 395:Middlewares/Third_Party/LwIP/src/core/tcp_in.c ****   if ((pcb != NULL) && LWIP_HOOK_TCP_INPACKET_PCB(pcb, tcphdr, tcphdr_optlen,
 396:Middlewares/Third_Party/LwIP/src/core/tcp_in.c ****       tcphdr_opt1len, tcphdr_opt2, p) != ERR_OK) {
 397:Middlewares/Third_Party/LwIP/src/core/tcp_in.c ****     pbuf_free(p);
 398:Middlewares/Third_Party/LwIP/src/core/tcp_in.c ****     return;
 399:Middlewares/Third_Party/LwIP/src/core/tcp_in.c ****   }
 400:Middlewares/Third_Party/LwIP/src/core/tcp_in.c **** #endif
 401:Middlewares/Third_Party/LwIP/src/core/tcp_in.c ****   if (pcb != NULL) {
 900              		.loc 1 401 6
 901 049a FB69     		ldr	r3, [r7, #28]
 902 049c 002B     		cmp	r3, #0
 903 049e 00F06081 		beq	.L42
 402:Middlewares/Third_Party/LwIP/src/core/tcp_in.c ****     /* The incoming segment belongs to a connection. */
 403:Middlewares/Third_Party/LwIP/src/core/tcp_in.c **** #if TCP_INPUT_DEBUG
 404:Middlewares/Third_Party/LwIP/src/core/tcp_in.c ****     tcp_debug_print_state(pcb->state);
 405:Middlewares/Third_Party/LwIP/src/core/tcp_in.c **** #endif /* TCP_INPUT_DEBUG */
 406:Middlewares/Third_Party/LwIP/src/core/tcp_in.c **** 
 407:Middlewares/Third_Party/LwIP/src/core/tcp_in.c ****     /* Set up a tcp_seg structure. */
 408:Middlewares/Third_Party/LwIP/src/core/tcp_in.c ****     inseg.next = NULL;
 904              		.loc 1 408 16
 905 04a2 2A4B     		ldr	r3, .L88+40
 906 04a4 0022     		movs	r2, #0
 907 04a6 1A60     		str	r2, [r3]
 409:Middlewares/Third_Party/LwIP/src/core/tcp_in.c ****     inseg.len = p->tot_len;
 908              		.loc 1 409 18
 909 04a8 7B68     		ldr	r3, [r7, #4]
 910 04aa 1A89     		ldrh	r2, [r3, #8]
 911              		.loc 1 409 15
 912 04ac 274B     		ldr	r3, .L88+40
 913 04ae 1A81     		strh	r2, [r3, #8]	@ movhi
 410:Middlewares/Third_Party/LwIP/src/core/tcp_in.c ****     inseg.p = p;
 914              		.loc 1 410 13
ARM GAS  /tmp/ccWqLOXK.s 			page 25


 915 04b0 264A     		ldr	r2, .L88+40
 916 04b2 7B68     		ldr	r3, [r7, #4]
 917 04b4 5360     		str	r3, [r2, #4]
 411:Middlewares/Third_Party/LwIP/src/core/tcp_in.c ****     inseg.tcphdr = tcphdr;
 918              		.loc 1 411 18
 919 04b6 1B4B     		ldr	r3, .L88
 920 04b8 1B68     		ldr	r3, [r3]
 921 04ba 244A     		ldr	r2, .L88+40
 922 04bc D360     		str	r3, [r2, #12]
 412:Middlewares/Third_Party/LwIP/src/core/tcp_in.c **** 
 413:Middlewares/Third_Party/LwIP/src/core/tcp_in.c ****     recv_data = NULL;
 923              		.loc 1 413 15
 924 04be 244B     		ldr	r3, .L88+44
 925 04c0 0022     		movs	r2, #0
 926 04c2 1A60     		str	r2, [r3]
 414:Middlewares/Third_Party/LwIP/src/core/tcp_in.c ****     recv_flags = 0;
 927              		.loc 1 414 16
 928 04c4 234B     		ldr	r3, .L88+48
 929 04c6 0022     		movs	r2, #0
 930 04c8 1A70     		strb	r2, [r3]
 415:Middlewares/Third_Party/LwIP/src/core/tcp_in.c ****     recv_acked = 0;
 931              		.loc 1 415 16
 932 04ca 234B     		ldr	r3, .L88+52
 933 04cc 0022     		movs	r2, #0
 934 04ce 1A80     		strh	r2, [r3]	@ movhi
 416:Middlewares/Third_Party/LwIP/src/core/tcp_in.c **** 
 417:Middlewares/Third_Party/LwIP/src/core/tcp_in.c ****     if (flags & TCP_PSH) {
 935              		.loc 1 417 15
 936 04d0 224B     		ldr	r3, .L88+56
 937 04d2 1B78     		ldrb	r3, [r3]	@ zero_extendqisi2
 938 04d4 03F00803 		and	r3, r3, #8
 939              		.loc 1 417 8
 940 04d8 002B     		cmp	r3, #0
 941 04da 06D0     		beq	.L43
 418:Middlewares/Third_Party/LwIP/src/core/tcp_in.c ****       p->flags |= PBUF_FLAG_PUSH;
 942              		.loc 1 418 16
 943 04dc 7B68     		ldr	r3, [r7, #4]
 944 04de 5B7B     		ldrb	r3, [r3, #13]	@ zero_extendqisi2
 945 04e0 43F00103 		orr	r3, r3, #1
 946 04e4 DAB2     		uxtb	r2, r3
 947 04e6 7B68     		ldr	r3, [r7, #4]
 948 04e8 5A73     		strb	r2, [r3, #13]
 949              	.L43:
 419:Middlewares/Third_Party/LwIP/src/core/tcp_in.c ****     }
 420:Middlewares/Third_Party/LwIP/src/core/tcp_in.c **** 
 421:Middlewares/Third_Party/LwIP/src/core/tcp_in.c ****     /* If there is data which was previously "refused" by upper layer */
 422:Middlewares/Third_Party/LwIP/src/core/tcp_in.c ****     if (pcb->refused_data != NULL) {
 950              		.loc 1 422 12
 951 04ea FB69     		ldr	r3, [r7, #28]
 952 04ec 9B6F     		ldr	r3, [r3, #120]
 953              		.loc 1 422 8
 954 04ee 002B     		cmp	r3, #0
 955 04f0 38D0     		beq	.L44
 423:Middlewares/Third_Party/LwIP/src/core/tcp_in.c ****       if ((tcp_process_refused_data(pcb) == ERR_ABRT) ||
 956              		.loc 1 423 12
 957 04f2 F869     		ldr	r0, [r7, #28]
 958 04f4 FFF7FEFF 		bl	tcp_process_refused_data
ARM GAS  /tmp/ccWqLOXK.s 			page 26


 959 04f8 0346     		mov	r3, r0
 960              		.loc 1 423 10
 961 04fa 13F10D0F 		cmn	r3, #13
 962 04fe 07D0     		beq	.L45
 424:Middlewares/Third_Party/LwIP/src/core/tcp_in.c ****           ((pcb->refused_data != NULL) && (tcplen > 0))) {
 963              		.loc 1 424 16 discriminator 1
 964 0500 FB69     		ldr	r3, [r7, #28]
 965 0502 9B6F     		ldr	r3, [r3, #120]
 423:Middlewares/Third_Party/LwIP/src/core/tcp_in.c ****       if ((tcp_process_refused_data(pcb) == ERR_ABRT) ||
 966              		.loc 1 423 55 discriminator 1
 967 0504 002B     		cmp	r3, #0
 968 0506 2DD0     		beq	.L44
 969              		.loc 1 424 51
 970 0508 154B     		ldr	r3, .L88+60
 971 050a 1B88     		ldrh	r3, [r3]
 972              		.loc 1 424 40
 973 050c 002B     		cmp	r3, #0
 974 050e 29D0     		beq	.L44
 975              	.L45:
 425:Middlewares/Third_Party/LwIP/src/core/tcp_in.c ****         /* pcb has been aborted or refused data is still refused and the new
 426:Middlewares/Third_Party/LwIP/src/core/tcp_in.c ****            segment contains data */
 427:Middlewares/Third_Party/LwIP/src/core/tcp_in.c ****         if (pcb->rcv_ann_wnd == 0) {
 976              		.loc 1 427 16
 977 0510 FB69     		ldr	r3, [r7, #28]
 978 0512 5B8D     		ldrh	r3, [r3, #42]
 979              		.loc 1 427 12
 980 0514 002B     		cmp	r3, #0
 981 0516 40F00481 		bne	.L78
 428:Middlewares/Third_Party/LwIP/src/core/tcp_in.c ****           /* this is a zero-window probe, we respond to it with current RCV.NXT
 429:Middlewares/Third_Party/LwIP/src/core/tcp_in.c ****           and drop the data segment */
 430:Middlewares/Third_Party/LwIP/src/core/tcp_in.c ****           tcp_send_empty_ack(pcb);
 982              		.loc 1 430 11
 983 051a F869     		ldr	r0, [r7, #28]
 984 051c FFF7FEFF 		bl	tcp_send_empty_ack
 431:Middlewares/Third_Party/LwIP/src/core/tcp_in.c ****         }
 432:Middlewares/Third_Party/LwIP/src/core/tcp_in.c ****         TCP_STATS_INC(tcp.drop);
 433:Middlewares/Third_Party/LwIP/src/core/tcp_in.c ****         MIB2_STATS_INC(mib2.tcpinerrs);
 434:Middlewares/Third_Party/LwIP/src/core/tcp_in.c ****         goto aborted;
 985              		.loc 1 434 9
 986 0520 FFE0     		b	.L78
 987              	.L89:
 988 0522 00BF     		.align	2
 989              	.L88:
 990 0524 00000000 		.word	tcphdr
 991 0528 00000000 		.word	ip_data
 992 052c 00000000 		.word	.LC0
 993 0530 28010000 		.word	.LC9
 994 0534 48000000 		.word	.LC2
 995 0538 00000000 		.word	tcp_active_pcbs
 996 053c 54010000 		.word	.LC10
 997 0540 00000000 		.word	tcp_tw_pcbs
 998 0544 80010000 		.word	.LC11
 999 0548 00000000 		.word	tcp_listen_pcbs
 1000 054c 00000000 		.word	inseg
 1001 0550 00000000 		.word	recv_data
 1002 0554 00000000 		.word	recv_flags
 1003 0558 00000000 		.word	recv_acked
ARM GAS  /tmp/ccWqLOXK.s 			page 27


 1004 055c 00000000 		.word	flags
 1005 0560 00000000 		.word	tcplen
 1006              	.L44:
 435:Middlewares/Third_Party/LwIP/src/core/tcp_in.c ****       }
 436:Middlewares/Third_Party/LwIP/src/core/tcp_in.c ****     }
 437:Middlewares/Third_Party/LwIP/src/core/tcp_in.c ****     tcp_input_pcb = pcb;
 1007              		.loc 1 437 19
 1008 0564 9C4A     		ldr	r2, .L90
 1009 0566 FB69     		ldr	r3, [r7, #28]
 1010 0568 1360     		str	r3, [r2]
 438:Middlewares/Third_Party/LwIP/src/core/tcp_in.c ****     err = tcp_process(pcb);
 1011              		.loc 1 438 11
 1012 056a F869     		ldr	r0, [r7, #28]
 1013 056c FFF7FEFF 		bl	tcp_process
 1014 0570 0346     		mov	r3, r0
 1015 0572 FB74     		strb	r3, [r7, #19]
 439:Middlewares/Third_Party/LwIP/src/core/tcp_in.c ****     /* A return value of ERR_ABRT means that tcp_abort() was called
 440:Middlewares/Third_Party/LwIP/src/core/tcp_in.c ****        and that the pcb has been freed. If so, we don't do anything. */
 441:Middlewares/Third_Party/LwIP/src/core/tcp_in.c ****     if (err != ERR_ABRT) {
 1016              		.loc 1 441 8
 1017 0574 97F91330 		ldrsb	r3, [r7, #19]
 1018 0578 13F10D0F 		cmn	r3, #13
 1019 057c 00F0D380 		beq	.L79
 442:Middlewares/Third_Party/LwIP/src/core/tcp_in.c ****       if (recv_flags & TF_RESET) {
 1020              		.loc 1 442 22
 1021 0580 964B     		ldr	r3, .L90+4
 1022 0582 1B78     		ldrb	r3, [r3]	@ zero_extendqisi2
 1023 0584 03F00803 		and	r3, r3, #8
 1024              		.loc 1 442 10
 1025 0588 002B     		cmp	r3, #0
 1026 058a 15D0     		beq	.L48
 443:Middlewares/Third_Party/LwIP/src/core/tcp_in.c ****         /* TF_RESET means that the connection was reset by the other
 444:Middlewares/Third_Party/LwIP/src/core/tcp_in.c ****            end. We then call the error callback to inform the
 445:Middlewares/Third_Party/LwIP/src/core/tcp_in.c ****            application that the connection is dead before we
 446:Middlewares/Third_Party/LwIP/src/core/tcp_in.c ****            deallocate the PCB. */
 447:Middlewares/Third_Party/LwIP/src/core/tcp_in.c ****         TCP_EVENT_ERR(pcb->state, pcb->errf, pcb->callback_arg, ERR_RST);
 1027              		.loc 1 447 9
 1028 058c FB69     		ldr	r3, [r7, #28]
 1029 058e D3F89030 		ldr	r3, [r3, #144]
 1030 0592 002B     		cmp	r3, #0
 1031 0594 08D0     		beq	.L49
 1032              		.loc 1 447 9 is_stmt 0 discriminator 1
 1033 0596 FB69     		ldr	r3, [r7, #28]
 1034 0598 D3F89030 		ldr	r3, [r3, #144]
 1035 059c FA69     		ldr	r2, [r7, #28]
 1036 059e 1269     		ldr	r2, [r2, #16]
 1037 05a0 6FF00D01 		mvn	r1, #13
 1038 05a4 1046     		mov	r0, r2
 1039 05a6 9847     		blx	r3
 1040              	.LVL0:
 1041              	.L49:
 448:Middlewares/Third_Party/LwIP/src/core/tcp_in.c ****         tcp_pcb_remove(&tcp_active_pcbs, pcb);
 1042              		.loc 1 448 9 is_stmt 1
 1043 05a8 F969     		ldr	r1, [r7, #28]
 1044 05aa 8D48     		ldr	r0, .L90+8
 1045 05ac FFF7FEFF 		bl	tcp_pcb_remove
 449:Middlewares/Third_Party/LwIP/src/core/tcp_in.c ****         tcp_free(pcb);
ARM GAS  /tmp/ccWqLOXK.s 			page 28


 1046              		.loc 1 449 9
 1047 05b0 F869     		ldr	r0, [r7, #28]
 1048 05b2 FFF7FEFF 		bl	tcp_free
 1049 05b6 C1E0     		b	.L47
 1050              	.L48:
 450:Middlewares/Third_Party/LwIP/src/core/tcp_in.c ****       } else {
 451:Middlewares/Third_Party/LwIP/src/core/tcp_in.c ****         err = ERR_OK;
 1051              		.loc 1 451 13
 1052 05b8 0023     		movs	r3, #0
 1053 05ba FB74     		strb	r3, [r7, #19]
 452:Middlewares/Third_Party/LwIP/src/core/tcp_in.c ****         /* If the application has registered a "sent" function to be
 453:Middlewares/Third_Party/LwIP/src/core/tcp_in.c ****            called when new send buffer space is available, we call it
 454:Middlewares/Third_Party/LwIP/src/core/tcp_in.c ****            now. */
 455:Middlewares/Third_Party/LwIP/src/core/tcp_in.c ****         if (recv_acked > 0) {
 1054              		.loc 1 455 24
 1055 05bc 894B     		ldr	r3, .L90+12
 1056 05be 1B88     		ldrh	r3, [r3]
 1057              		.loc 1 455 12
 1058 05c0 002B     		cmp	r3, #0
 1059 05c2 1DD0     		beq	.L50
 1060              	.LBB3:
 456:Middlewares/Third_Party/LwIP/src/core/tcp_in.c ****           u16_t acked16;
 457:Middlewares/Third_Party/LwIP/src/core/tcp_in.c **** #if LWIP_WND_SCALE
 458:Middlewares/Third_Party/LwIP/src/core/tcp_in.c ****           /* recv_acked is u32_t but the sent callback only takes a u16_t,
 459:Middlewares/Third_Party/LwIP/src/core/tcp_in.c ****              so we might have to call it multiple times. */
 460:Middlewares/Third_Party/LwIP/src/core/tcp_in.c ****           u32_t acked = recv_acked;
 461:Middlewares/Third_Party/LwIP/src/core/tcp_in.c ****           while (acked > 0) {
 462:Middlewares/Third_Party/LwIP/src/core/tcp_in.c ****             acked16 = (u16_t)LWIP_MIN(acked, 0xffffu);
 463:Middlewares/Third_Party/LwIP/src/core/tcp_in.c ****             acked -= acked16;
 464:Middlewares/Third_Party/LwIP/src/core/tcp_in.c **** #else
 465:Middlewares/Third_Party/LwIP/src/core/tcp_in.c ****           {
 466:Middlewares/Third_Party/LwIP/src/core/tcp_in.c ****             acked16 = recv_acked;
 1061              		.loc 1 466 21
 1062 05c4 874B     		ldr	r3, .L90+12
 1063 05c6 1B88     		ldrh	r3, [r3]	@ movhi
 1064 05c8 FB81     		strh	r3, [r7, #14]	@ movhi
 467:Middlewares/Third_Party/LwIP/src/core/tcp_in.c **** #endif
 468:Middlewares/Third_Party/LwIP/src/core/tcp_in.c ****             TCP_EVENT_SENT(pcb, (u16_t)acked16, err);
 1065              		.loc 1 468 13
 1066 05ca FB69     		ldr	r3, [r7, #28]
 1067 05cc D3F88030 		ldr	r3, [r3, #128]
 1068 05d0 002B     		cmp	r3, #0
 1069 05d2 0AD0     		beq	.L51
 1070              		.loc 1 468 13 is_stmt 0 discriminator 1
 1071 05d4 FB69     		ldr	r3, [r7, #28]
 1072 05d6 D3F88030 		ldr	r3, [r3, #128]
 1073 05da FA69     		ldr	r2, [r7, #28]
 1074 05dc 1069     		ldr	r0, [r2, #16]
 1075 05de FA89     		ldrh	r2, [r7, #14]
 1076 05e0 F969     		ldr	r1, [r7, #28]
 1077 05e2 9847     		blx	r3
 1078              	.LVL1:
 1079 05e4 0346     		mov	r3, r0
 1080 05e6 FB74     		strb	r3, [r7, #19]
 1081 05e8 01E0     		b	.L52
 1082              	.L51:
 1083              		.loc 1 468 13 discriminator 2
ARM GAS  /tmp/ccWqLOXK.s 			page 29


 1084 05ea 0023     		movs	r3, #0
 1085 05ec FB74     		strb	r3, [r7, #19]
 1086              	.L52:
 469:Middlewares/Third_Party/LwIP/src/core/tcp_in.c ****             if (err == ERR_ABRT) {
 1087              		.loc 1 469 16 is_stmt 1
 1088 05ee 97F91330 		ldrsb	r3, [r7, #19]
 1089 05f2 13F10D0F 		cmn	r3, #13
 1090 05f6 00F09880 		beq	.L80
 470:Middlewares/Third_Party/LwIP/src/core/tcp_in.c ****               goto aborted;
 471:Middlewares/Third_Party/LwIP/src/core/tcp_in.c ****             }
 472:Middlewares/Third_Party/LwIP/src/core/tcp_in.c ****           }
 473:Middlewares/Third_Party/LwIP/src/core/tcp_in.c ****           recv_acked = 0;
 1091              		.loc 1 473 22
 1092 05fa 7A4B     		ldr	r3, .L90+12
 1093 05fc 0022     		movs	r2, #0
 1094 05fe 1A80     		strh	r2, [r3]	@ movhi
 1095              	.L50:
 1096              	.LBE3:
 474:Middlewares/Third_Party/LwIP/src/core/tcp_in.c ****         }
 475:Middlewares/Third_Party/LwIP/src/core/tcp_in.c ****         if (tcp_input_delayed_close(pcb)) {
 1097              		.loc 1 475 13
 1098 0600 F869     		ldr	r0, [r7, #28]
 1099 0602 FFF7FEFF 		bl	tcp_input_delayed_close
 1100 0606 0346     		mov	r3, r0
 1101              		.loc 1 475 12
 1102 0608 002B     		cmp	r3, #0
 1103 060a 40F09080 		bne	.L81
 476:Middlewares/Third_Party/LwIP/src/core/tcp_in.c ****           goto aborted;
 477:Middlewares/Third_Party/LwIP/src/core/tcp_in.c ****         }
 478:Middlewares/Third_Party/LwIP/src/core/tcp_in.c **** #if TCP_QUEUE_OOSEQ && LWIP_WND_SCALE
 479:Middlewares/Third_Party/LwIP/src/core/tcp_in.c ****         while (recv_data != NULL) {
 480:Middlewares/Third_Party/LwIP/src/core/tcp_in.c ****           struct pbuf *rest = NULL;
 481:Middlewares/Third_Party/LwIP/src/core/tcp_in.c ****           pbuf_split_64k(recv_data, &rest);
 482:Middlewares/Third_Party/LwIP/src/core/tcp_in.c **** #else /* TCP_QUEUE_OOSEQ && LWIP_WND_SCALE */
 483:Middlewares/Third_Party/LwIP/src/core/tcp_in.c ****         if (recv_data != NULL) {
 1104              		.loc 1 483 23
 1105 060e 764B     		ldr	r3, .L90+16
 1106 0610 1B68     		ldr	r3, [r3]
 1107              		.loc 1 483 12
 1108 0612 002B     		cmp	r3, #0
 1109 0614 41D0     		beq	.L55
 484:Middlewares/Third_Party/LwIP/src/core/tcp_in.c **** #endif /* TCP_QUEUE_OOSEQ && LWIP_WND_SCALE */
 485:Middlewares/Third_Party/LwIP/src/core/tcp_in.c **** 
 486:Middlewares/Third_Party/LwIP/src/core/tcp_in.c ****           LWIP_ASSERT("pcb->refused_data == NULL", pcb->refused_data == NULL);
 1110              		.loc 1 486 11
 1111 0616 FB69     		ldr	r3, [r7, #28]
 1112 0618 9B6F     		ldr	r3, [r3, #120]
 1113 061a 002B     		cmp	r3, #0
 1114 061c 06D0     		beq	.L56
 1115              		.loc 1 486 11 is_stmt 0 discriminator 1
 1116 061e 734B     		ldr	r3, .L90+20
 1117 0620 4FF4F372 		mov	r2, #486
 1118 0624 7249     		ldr	r1, .L90+24
 1119 0626 7348     		ldr	r0, .L90+28
 1120 0628 FFF7FEFF 		bl	printf
 1121              	.L56:
 487:Middlewares/Third_Party/LwIP/src/core/tcp_in.c ****           if (pcb->flags & TF_RXCLOSED) {
ARM GAS  /tmp/ccWqLOXK.s 			page 30


 1122              		.loc 1 487 18 is_stmt 1
 1123 062c FB69     		ldr	r3, [r7, #28]
 1124 062e 5B8B     		ldrh	r3, [r3, #26]
 1125              		.loc 1 487 26
 1126 0630 03F01003 		and	r3, r3, #16
 1127              		.loc 1 487 14
 1128 0634 002B     		cmp	r3, #0
 1129 0636 08D0     		beq	.L57
 488:Middlewares/Third_Party/LwIP/src/core/tcp_in.c ****             /* received data although already closed -> abort (send RST) to
 489:Middlewares/Third_Party/LwIP/src/core/tcp_in.c ****                notify the remote host that not all data has been processed */
 490:Middlewares/Third_Party/LwIP/src/core/tcp_in.c ****             pbuf_free(recv_data);
 1130              		.loc 1 490 13
 1131 0638 6B4B     		ldr	r3, .L90+16
 1132 063a 1B68     		ldr	r3, [r3]
 1133 063c 1846     		mov	r0, r3
 1134 063e FFF7FEFF 		bl	pbuf_free
 491:Middlewares/Third_Party/LwIP/src/core/tcp_in.c **** #if TCP_QUEUE_OOSEQ && LWIP_WND_SCALE
 492:Middlewares/Third_Party/LwIP/src/core/tcp_in.c ****             if (rest != NULL) {
 493:Middlewares/Third_Party/LwIP/src/core/tcp_in.c ****               pbuf_free(rest);
 494:Middlewares/Third_Party/LwIP/src/core/tcp_in.c ****             }
 495:Middlewares/Third_Party/LwIP/src/core/tcp_in.c **** #endif /* TCP_QUEUE_OOSEQ && LWIP_WND_SCALE */
 496:Middlewares/Third_Party/LwIP/src/core/tcp_in.c ****             tcp_abort(pcb);
 1135              		.loc 1 496 13
 1136 0642 F869     		ldr	r0, [r7, #28]
 1137 0644 FFF7FEFF 		bl	tcp_abort
 497:Middlewares/Third_Party/LwIP/src/core/tcp_in.c ****             goto aborted;
 1138              		.loc 1 497 13
 1139 0648 78E0     		b	.L47
 1140              	.L57:
 498:Middlewares/Third_Party/LwIP/src/core/tcp_in.c ****           }
 499:Middlewares/Third_Party/LwIP/src/core/tcp_in.c **** 
 500:Middlewares/Third_Party/LwIP/src/core/tcp_in.c ****           /* Notify application that data has been received. */
 501:Middlewares/Third_Party/LwIP/src/core/tcp_in.c ****           TCP_EVENT_RECV(pcb, recv_data, ERR_OK, err);
 1141              		.loc 1 501 11
 1142 064a FB69     		ldr	r3, [r7, #28]
 1143 064c D3F88430 		ldr	r3, [r3, #132]
 1144 0650 002B     		cmp	r3, #0
 1145 0652 0CD0     		beq	.L58
 1146              		.loc 1 501 11 is_stmt 0 discriminator 1
 1147 0654 FB69     		ldr	r3, [r7, #28]
 1148 0656 D3F88440 		ldr	r4, [r3, #132]
 1149 065a FB69     		ldr	r3, [r7, #28]
 1150 065c 1869     		ldr	r0, [r3, #16]
 1151 065e 624B     		ldr	r3, .L90+16
 1152 0660 1A68     		ldr	r2, [r3]
 1153 0662 0023     		movs	r3, #0
 1154 0664 F969     		ldr	r1, [r7, #28]
 1155 0666 A047     		blx	r4
 1156              	.LVL2:
 1157 0668 0346     		mov	r3, r0
 1158 066a FB74     		strb	r3, [r7, #19]
 1159 066c 08E0     		b	.L59
 1160              	.L58:
 1161              		.loc 1 501 11 discriminator 2
 1162 066e 5E4B     		ldr	r3, .L90+16
 1163 0670 1A68     		ldr	r2, [r3]
 1164 0672 0023     		movs	r3, #0
ARM GAS  /tmp/ccWqLOXK.s 			page 31


 1165 0674 F969     		ldr	r1, [r7, #28]
 1166 0676 0020     		movs	r0, #0
 1167 0678 FFF7FEFF 		bl	tcp_recv_null
 1168 067c 0346     		mov	r3, r0
 1169 067e FB74     		strb	r3, [r7, #19]
 1170              	.L59:
 502:Middlewares/Third_Party/LwIP/src/core/tcp_in.c ****           if (err == ERR_ABRT) {
 1171              		.loc 1 502 14 is_stmt 1
 1172 0680 97F91330 		ldrsb	r3, [r7, #19]
 1173 0684 13F10D0F 		cmn	r3, #13
 1174 0688 53D0     		beq	.L82
 503:Middlewares/Third_Party/LwIP/src/core/tcp_in.c **** #if TCP_QUEUE_OOSEQ && LWIP_WND_SCALE
 504:Middlewares/Third_Party/LwIP/src/core/tcp_in.c ****             if (rest != NULL) {
 505:Middlewares/Third_Party/LwIP/src/core/tcp_in.c ****               pbuf_free(rest);
 506:Middlewares/Third_Party/LwIP/src/core/tcp_in.c ****             }
 507:Middlewares/Third_Party/LwIP/src/core/tcp_in.c **** #endif /* TCP_QUEUE_OOSEQ && LWIP_WND_SCALE */
 508:Middlewares/Third_Party/LwIP/src/core/tcp_in.c ****             goto aborted;
 509:Middlewares/Third_Party/LwIP/src/core/tcp_in.c ****           }
 510:Middlewares/Third_Party/LwIP/src/core/tcp_in.c **** 
 511:Middlewares/Third_Party/LwIP/src/core/tcp_in.c ****           /* If the upper layer can't receive this data, store it */
 512:Middlewares/Third_Party/LwIP/src/core/tcp_in.c ****           if (err != ERR_OK) {
 1175              		.loc 1 512 14
 1176 068a 97F91330 		ldrsb	r3, [r7, #19]
 1177 068e 002B     		cmp	r3, #0
 1178 0690 03D0     		beq	.L55
 513:Middlewares/Third_Party/LwIP/src/core/tcp_in.c **** #if TCP_QUEUE_OOSEQ && LWIP_WND_SCALE
 514:Middlewares/Third_Party/LwIP/src/core/tcp_in.c ****             if (rest != NULL) {
 515:Middlewares/Third_Party/LwIP/src/core/tcp_in.c ****               pbuf_cat(recv_data, rest);
 516:Middlewares/Third_Party/LwIP/src/core/tcp_in.c ****             }
 517:Middlewares/Third_Party/LwIP/src/core/tcp_in.c **** #endif /* TCP_QUEUE_OOSEQ && LWIP_WND_SCALE */
 518:Middlewares/Third_Party/LwIP/src/core/tcp_in.c ****             pcb->refused_data = recv_data;
 1179              		.loc 1 518 31
 1180 0692 554B     		ldr	r3, .L90+16
 1181 0694 1A68     		ldr	r2, [r3]
 1182 0696 FB69     		ldr	r3, [r7, #28]
 1183 0698 9A67     		str	r2, [r3, #120]
 1184              	.L55:
 519:Middlewares/Third_Party/LwIP/src/core/tcp_in.c ****             LWIP_DEBUGF(TCP_INPUT_DEBUG, ("tcp_input: keep incoming packet, because pcb is \"full\"
 520:Middlewares/Third_Party/LwIP/src/core/tcp_in.c **** #if TCP_QUEUE_OOSEQ && LWIP_WND_SCALE
 521:Middlewares/Third_Party/LwIP/src/core/tcp_in.c ****             break;
 522:Middlewares/Third_Party/LwIP/src/core/tcp_in.c ****           } else {
 523:Middlewares/Third_Party/LwIP/src/core/tcp_in.c ****             /* Upper layer received the data, go on with the rest if > 64K */
 524:Middlewares/Third_Party/LwIP/src/core/tcp_in.c ****             recv_data = rest;
 525:Middlewares/Third_Party/LwIP/src/core/tcp_in.c **** #endif /* TCP_QUEUE_OOSEQ && LWIP_WND_SCALE */
 526:Middlewares/Third_Party/LwIP/src/core/tcp_in.c ****           }
 527:Middlewares/Third_Party/LwIP/src/core/tcp_in.c ****         }
 528:Middlewares/Third_Party/LwIP/src/core/tcp_in.c **** 
 529:Middlewares/Third_Party/LwIP/src/core/tcp_in.c ****         /* If a FIN segment was received, we call the callback
 530:Middlewares/Third_Party/LwIP/src/core/tcp_in.c ****            function with a NULL buffer to indicate EOF. */
 531:Middlewares/Third_Party/LwIP/src/core/tcp_in.c ****         if (recv_flags & TF_GOT_FIN) {
 1185              		.loc 1 531 24
 1186 069a 504B     		ldr	r3, .L90+4
 1187 069c 1B78     		ldrb	r3, [r3]	@ zero_extendqisi2
 1188 069e 03F02003 		and	r3, r3, #32
 1189              		.loc 1 531 12
 1190 06a2 002B     		cmp	r3, #0
 1191 06a4 30D0     		beq	.L61
ARM GAS  /tmp/ccWqLOXK.s 			page 32


 532:Middlewares/Third_Party/LwIP/src/core/tcp_in.c ****           if (pcb->refused_data != NULL) {
 1192              		.loc 1 532 18
 1193 06a6 FB69     		ldr	r3, [r7, #28]
 1194 06a8 9B6F     		ldr	r3, [r3, #120]
 1195              		.loc 1 532 14
 1196 06aa 002B     		cmp	r3, #0
 1197 06ac 09D0     		beq	.L62
 533:Middlewares/Third_Party/LwIP/src/core/tcp_in.c ****             /* Delay this if we have refused data. */
 534:Middlewares/Third_Party/LwIP/src/core/tcp_in.c ****             pcb->refused_data->flags |= PBUF_FLAG_TCP_FIN;
 1198              		.loc 1 534 16
 1199 06ae FB69     		ldr	r3, [r7, #28]
 1200 06b0 9B6F     		ldr	r3, [r3, #120]
 1201              		.loc 1 534 38
 1202 06b2 5A7B     		ldrb	r2, [r3, #13]	@ zero_extendqisi2
 1203              		.loc 1 534 16
 1204 06b4 FB69     		ldr	r3, [r7, #28]
 1205 06b6 9B6F     		ldr	r3, [r3, #120]
 1206              		.loc 1 534 38
 1207 06b8 42F02002 		orr	r2, r2, #32
 1208 06bc D2B2     		uxtb	r2, r2
 1209 06be 5A73     		strb	r2, [r3, #13]
 1210 06c0 22E0     		b	.L61
 1211              	.L62:
 535:Middlewares/Third_Party/LwIP/src/core/tcp_in.c ****           } else {
 536:Middlewares/Third_Party/LwIP/src/core/tcp_in.c ****             /* correct rcv_wnd as the application won't call tcp_recved()
 537:Middlewares/Third_Party/LwIP/src/core/tcp_in.c ****                for the FIN's seqno */
 538:Middlewares/Third_Party/LwIP/src/core/tcp_in.c ****             if (pcb->rcv_wnd != TCP_WND_MAX(pcb)) {
 1212              		.loc 1 538 20
 1213 06c2 FB69     		ldr	r3, [r7, #28]
 1214 06c4 1B8D     		ldrh	r3, [r3, #40]
 1215              		.loc 1 538 16
 1216 06c6 B3F5066F 		cmp	r3, #2144
 1217 06ca 05D0     		beq	.L63
 539:Middlewares/Third_Party/LwIP/src/core/tcp_in.c ****               pcb->rcv_wnd++;
 1218              		.loc 1 539 18
 1219 06cc FB69     		ldr	r3, [r7, #28]
 1220 06ce 1B8D     		ldrh	r3, [r3, #40]
 1221              		.loc 1 539 27
 1222 06d0 0133     		adds	r3, r3, #1
 1223 06d2 9AB2     		uxth	r2, r3
 1224 06d4 FB69     		ldr	r3, [r7, #28]
 1225 06d6 1A85     		strh	r2, [r3, #40]	@ movhi
 1226              	.L63:
 540:Middlewares/Third_Party/LwIP/src/core/tcp_in.c ****             }
 541:Middlewares/Third_Party/LwIP/src/core/tcp_in.c ****             TCP_EVENT_CLOSED(pcb, err);
 1227              		.loc 1 541 13
 1228 06d8 FB69     		ldr	r3, [r7, #28]
 1229 06da D3F88430 		ldr	r3, [r3, #132]
 1230 06de 002B     		cmp	r3, #0
 1231 06e0 0BD0     		beq	.L64
 1232              		.loc 1 541 13 is_stmt 0 discriminator 1
 1233 06e2 FB69     		ldr	r3, [r7, #28]
 1234 06e4 D3F88440 		ldr	r4, [r3, #132]
 1235 06e8 FB69     		ldr	r3, [r7, #28]
 1236 06ea 1869     		ldr	r0, [r3, #16]
 1237 06ec 0023     		movs	r3, #0
 1238 06ee 0022     		movs	r2, #0
ARM GAS  /tmp/ccWqLOXK.s 			page 33


 1239 06f0 F969     		ldr	r1, [r7, #28]
 1240 06f2 A047     		blx	r4
 1241              	.LVL3:
 1242 06f4 0346     		mov	r3, r0
 1243 06f6 FB74     		strb	r3, [r7, #19]
 1244 06f8 01E0     		b	.L65
 1245              	.L64:
 1246              		.loc 1 541 13 discriminator 2
 1247 06fa 0023     		movs	r3, #0
 1248 06fc FB74     		strb	r3, [r7, #19]
 1249              	.L65:
 542:Middlewares/Third_Party/LwIP/src/core/tcp_in.c ****             if (err == ERR_ABRT) {
 1250              		.loc 1 542 16 is_stmt 1
 1251 06fe 97F91330 		ldrsb	r3, [r7, #19]
 1252 0702 13F10D0F 		cmn	r3, #13
 1253 0706 16D0     		beq	.L83
 1254              	.L61:
 543:Middlewares/Third_Party/LwIP/src/core/tcp_in.c ****               goto aborted;
 544:Middlewares/Third_Party/LwIP/src/core/tcp_in.c ****             }
 545:Middlewares/Third_Party/LwIP/src/core/tcp_in.c ****           }
 546:Middlewares/Third_Party/LwIP/src/core/tcp_in.c ****         }
 547:Middlewares/Third_Party/LwIP/src/core/tcp_in.c **** 
 548:Middlewares/Third_Party/LwIP/src/core/tcp_in.c ****         tcp_input_pcb = NULL;
 1255              		.loc 1 548 23
 1256 0708 334B     		ldr	r3, .L90
 1257 070a 0022     		movs	r2, #0
 1258 070c 1A60     		str	r2, [r3]
 549:Middlewares/Third_Party/LwIP/src/core/tcp_in.c ****         if (tcp_input_delayed_close(pcb)) {
 1259              		.loc 1 549 13
 1260 070e F869     		ldr	r0, [r7, #28]
 1261 0710 FFF7FEFF 		bl	tcp_input_delayed_close
 1262 0714 0346     		mov	r3, r0
 1263              		.loc 1 549 12
 1264 0716 002B     		cmp	r3, #0
 1265 0718 0FD1     		bne	.L84
 550:Middlewares/Third_Party/LwIP/src/core/tcp_in.c ****           goto aborted;
 551:Middlewares/Third_Party/LwIP/src/core/tcp_in.c ****         }
 552:Middlewares/Third_Party/LwIP/src/core/tcp_in.c ****         /* Try to send something out. */
 553:Middlewares/Third_Party/LwIP/src/core/tcp_in.c ****         tcp_output(pcb);
 1266              		.loc 1 553 9
 1267 071a F869     		ldr	r0, [r7, #28]
 1268 071c FFF7FEFF 		bl	tcp_output
 1269 0720 0CE0     		b	.L47
 1270              	.L78:
 434:Middlewares/Third_Party/LwIP/src/core/tcp_in.c ****       }
 1271              		.loc 1 434 9
 1272 0722 00BF     		nop
 1273 0724 0AE0     		b	.L47
 1274              	.L79:
 554:Middlewares/Third_Party/LwIP/src/core/tcp_in.c **** #if TCP_INPUT_DEBUG
 555:Middlewares/Third_Party/LwIP/src/core/tcp_in.c **** #if TCP_DEBUG
 556:Middlewares/Third_Party/LwIP/src/core/tcp_in.c ****         tcp_debug_print_state(pcb->state);
 557:Middlewares/Third_Party/LwIP/src/core/tcp_in.c **** #endif /* TCP_DEBUG */
 558:Middlewares/Third_Party/LwIP/src/core/tcp_in.c **** #endif /* TCP_INPUT_DEBUG */
 559:Middlewares/Third_Party/LwIP/src/core/tcp_in.c ****       }
 560:Middlewares/Third_Party/LwIP/src/core/tcp_in.c ****     }
 561:Middlewares/Third_Party/LwIP/src/core/tcp_in.c ****     /* Jump target if pcb has been aborted in a callback (by calling tcp_abort()).
ARM GAS  /tmp/ccWqLOXK.s 			page 34


 562:Middlewares/Third_Party/LwIP/src/core/tcp_in.c ****        Below this line, 'pcb' may not be dereferenced! */
 563:Middlewares/Third_Party/LwIP/src/core/tcp_in.c **** aborted:
 1275              		.loc 1 563 1
 1276 0726 00BF     		nop
 1277 0728 08E0     		b	.L47
 1278              	.L80:
 1279              	.LBB4:
 470:Middlewares/Third_Party/LwIP/src/core/tcp_in.c ****             }
 1280              		.loc 1 470 15
 1281 072a 00BF     		nop
 1282 072c 06E0     		b	.L47
 1283              	.L81:
 1284              	.LBE4:
 476:Middlewares/Third_Party/LwIP/src/core/tcp_in.c ****         }
 1285              		.loc 1 476 11
 1286 072e 00BF     		nop
 1287 0730 04E0     		b	.L47
 1288              	.L82:
 508:Middlewares/Third_Party/LwIP/src/core/tcp_in.c ****           }
 1289              		.loc 1 508 13
 1290 0732 00BF     		nop
 1291 0734 02E0     		b	.L47
 1292              	.L83:
 543:Middlewares/Third_Party/LwIP/src/core/tcp_in.c ****             }
 1293              		.loc 1 543 15
 1294 0736 00BF     		nop
 1295 0738 00E0     		b	.L47
 1296              	.L84:
 550:Middlewares/Third_Party/LwIP/src/core/tcp_in.c ****         }
 1297              		.loc 1 550 11
 1298 073a 00BF     		nop
 1299              	.L47:
 564:Middlewares/Third_Party/LwIP/src/core/tcp_in.c ****     tcp_input_pcb = NULL;
 1300              		.loc 1 564 19
 1301 073c 264B     		ldr	r3, .L90
 1302 073e 0022     		movs	r2, #0
 1303 0740 1A60     		str	r2, [r3]
 565:Middlewares/Third_Party/LwIP/src/core/tcp_in.c ****     recv_data = NULL;
 1304              		.loc 1 565 15
 1305 0742 294B     		ldr	r3, .L90+16
 1306 0744 0022     		movs	r2, #0
 1307 0746 1A60     		str	r2, [r3]
 566:Middlewares/Third_Party/LwIP/src/core/tcp_in.c **** 
 567:Middlewares/Third_Party/LwIP/src/core/tcp_in.c ****     /* give up our reference to inseg.p */
 568:Middlewares/Third_Party/LwIP/src/core/tcp_in.c ****     if (inseg.p != NULL) {
 1308              		.loc 1 568 14
 1309 0748 2B4B     		ldr	r3, .L90+32
 1310 074a 5B68     		ldr	r3, [r3, #4]
 1311              		.loc 1 568 8
 1312 074c 002B     		cmp	r3, #0
 1313 074e 3FD0     		beq	.L85
 569:Middlewares/Third_Party/LwIP/src/core/tcp_in.c ****       pbuf_free(inseg.p);
 1314              		.loc 1 569 7
 1315 0750 294B     		ldr	r3, .L90+32
 1316 0752 5B68     		ldr	r3, [r3, #4]
 1317 0754 1846     		mov	r0, r3
 1318 0756 FFF7FEFF 		bl	pbuf_free
ARM GAS  /tmp/ccWqLOXK.s 			page 35


 570:Middlewares/Third_Party/LwIP/src/core/tcp_in.c ****       inseg.p = NULL;
 1319              		.loc 1 570 15
 1320 075a 274B     		ldr	r3, .L90+32
 1321 075c 0022     		movs	r2, #0
 1322 075e 5A60     		str	r2, [r3, #4]
 571:Middlewares/Third_Party/LwIP/src/core/tcp_in.c ****     }
 572:Middlewares/Third_Party/LwIP/src/core/tcp_in.c ****   } else {
 573:Middlewares/Third_Party/LwIP/src/core/tcp_in.c ****     /* If no matching PCB was found, send a TCP RST (reset) to the
 574:Middlewares/Third_Party/LwIP/src/core/tcp_in.c ****        sender. */
 575:Middlewares/Third_Party/LwIP/src/core/tcp_in.c ****     LWIP_DEBUGF(TCP_RST_DEBUG, ("tcp_input: no PCB match found, resetting.\n"));
 576:Middlewares/Third_Party/LwIP/src/core/tcp_in.c ****     if (!(TCPH_FLAGS(tcphdr) & TCP_RST)) {
 577:Middlewares/Third_Party/LwIP/src/core/tcp_in.c ****       TCP_STATS_INC(tcp.proterr);
 578:Middlewares/Third_Party/LwIP/src/core/tcp_in.c ****       TCP_STATS_INC(tcp.drop);
 579:Middlewares/Third_Party/LwIP/src/core/tcp_in.c ****       tcp_rst(NULL, ackno, seqno + tcplen, ip_current_dest_addr(),
 580:Middlewares/Third_Party/LwIP/src/core/tcp_in.c ****               ip_current_src_addr(), tcphdr->dest, tcphdr->src);
 581:Middlewares/Third_Party/LwIP/src/core/tcp_in.c ****     }
 582:Middlewares/Third_Party/LwIP/src/core/tcp_in.c ****     pbuf_free(p);
 583:Middlewares/Third_Party/LwIP/src/core/tcp_in.c ****   }
 584:Middlewares/Third_Party/LwIP/src/core/tcp_in.c **** 
 585:Middlewares/Third_Party/LwIP/src/core/tcp_in.c ****   LWIP_ASSERT("tcp_input: tcp_pcbs_sane()", tcp_pcbs_sane());
 586:Middlewares/Third_Party/LwIP/src/core/tcp_in.c ****   PERF_STOP("tcp_input");
 587:Middlewares/Third_Party/LwIP/src/core/tcp_in.c ****   return;
 1323              		.loc 1 587 3
 1324 0760 36E0     		b	.L85
 1325              	.L42:
 576:Middlewares/Third_Party/LwIP/src/core/tcp_in.c ****       TCP_STATS_INC(tcp.proterr);
 1326              		.loc 1 576 11
 1327 0762 264B     		ldr	r3, .L90+36
 1328 0764 1B68     		ldr	r3, [r3]
 1329 0766 9B89     		ldrh	r3, [r3, #12]	@ unaligned
 1330 0768 9BB2     		uxth	r3, r3
 1331 076a 1846     		mov	r0, r3
 1332 076c FFF7FEFF 		bl	lwip_htons
 1333 0770 0346     		mov	r3, r0
 1334 0772 DBB2     		uxtb	r3, r3
 576:Middlewares/Third_Party/LwIP/src/core/tcp_in.c ****       TCP_STATS_INC(tcp.proterr);
 1335              		.loc 1 576 30
 1336 0774 03F00403 		and	r3, r3, #4
 576:Middlewares/Third_Party/LwIP/src/core/tcp_in.c ****       TCP_STATS_INC(tcp.proterr);
 1337              		.loc 1 576 8
 1338 0778 002B     		cmp	r3, #0
 1339 077a 18D1     		bne	.L69
 579:Middlewares/Third_Party/LwIP/src/core/tcp_in.c ****               ip_current_src_addr(), tcphdr->dest, tcphdr->src);
 1340              		.loc 1 579 7
 1341 077c 204B     		ldr	r3, .L90+40
 1342 077e 1968     		ldr	r1, [r3]
 1343 0780 204B     		ldr	r3, .L90+44
 1344 0782 1B88     		ldrh	r3, [r3]
 1345 0784 1A46     		mov	r2, r3
 1346 0786 204B     		ldr	r3, .L90+48
 1347 0788 1B68     		ldr	r3, [r3]
 1348 078a D018     		adds	r0, r2, r3
 580:Middlewares/Third_Party/LwIP/src/core/tcp_in.c ****     }
 1349              		.loc 1 580 44
 1350 078c 1B4B     		ldr	r3, .L90+36
 1351 078e 1B68     		ldr	r3, [r3]
 579:Middlewares/Third_Party/LwIP/src/core/tcp_in.c ****               ip_current_src_addr(), tcphdr->dest, tcphdr->src);
ARM GAS  /tmp/ccWqLOXK.s 			page 36


 1352              		.loc 1 579 7
 1353 0790 5B88     		ldrh	r3, [r3, #2]	@ unaligned
 1354 0792 9BB2     		uxth	r3, r3
 580:Middlewares/Third_Party/LwIP/src/core/tcp_in.c ****     }
 1355              		.loc 1 580 58
 1356 0794 194A     		ldr	r2, .L90+36
 1357 0796 1268     		ldr	r2, [r2]
 579:Middlewares/Third_Party/LwIP/src/core/tcp_in.c ****               ip_current_src_addr(), tcphdr->dest, tcphdr->src);
 1358              		.loc 1 579 7
 1359 0798 1288     		ldrh	r2, [r2]	@ unaligned
 1360 079a 92B2     		uxth	r2, r2
 1361 079c 0292     		str	r2, [sp, #8]
 1362 079e 0193     		str	r3, [sp, #4]
 1363 07a0 1A4B     		ldr	r3, .L90+52
 1364 07a2 0093     		str	r3, [sp]
 1365 07a4 1A4B     		ldr	r3, .L90+56
 1366 07a6 0246     		mov	r2, r0
 1367 07a8 0020     		movs	r0, #0
 1368 07aa FFF7FEFF 		bl	tcp_rst
 1369              	.L69:
 582:Middlewares/Third_Party/LwIP/src/core/tcp_in.c ****   }
 1370              		.loc 1 582 5
 1371 07ae 7868     		ldr	r0, [r7, #4]
 1372 07b0 FFF7FEFF 		bl	pbuf_free
 1373              		.loc 1 587 3
 1374 07b4 0CE0     		b	.L85
 1375              	.L70:
 149:Middlewares/Third_Party/LwIP/src/core/tcp_in.c ****   }
 1376              		.loc 1 149 5
 1377 07b6 00BF     		nop
 1378 07b8 06E0     		b	.L4
 1379              	.L71:
 156:Middlewares/Third_Party/LwIP/src/core/tcp_in.c ****   }
 1380              		.loc 1 156 5
 1381 07ba 00BF     		nop
 1382 07bc 04E0     		b	.L4
 1383              	.L72:
 179:Middlewares/Third_Party/LwIP/src/core/tcp_in.c ****   }
 1384              		.loc 1 179 5
 1385 07be 00BF     		nop
 1386 07c0 02E0     		b	.L4
 1387              	.L73:
 1388              	.LBB5:
 212:Middlewares/Third_Party/LwIP/src/core/tcp_in.c ****     }
 1389              		.loc 1 212 7
 1390 07c2 00BF     		nop
 1391 07c4 00E0     		b	.L4
 1392              	.L74:
 1393              	.LBE5:
 242:Middlewares/Third_Party/LwIP/src/core/tcp_in.c ****     }
 1394              		.loc 1 242 7
 1395 07c6 00BF     		nop
 1396              	.L4:
 588:Middlewares/Third_Party/LwIP/src/core/tcp_in.c **** dropped:
 589:Middlewares/Third_Party/LwIP/src/core/tcp_in.c ****   TCP_STATS_INC(tcp.drop);
 590:Middlewares/Third_Party/LwIP/src/core/tcp_in.c ****   MIB2_STATS_INC(mib2.tcpinerrs);
 591:Middlewares/Third_Party/LwIP/src/core/tcp_in.c ****   pbuf_free(p);
ARM GAS  /tmp/ccWqLOXK.s 			page 37


 1397              		.loc 1 591 3
 1398 07c8 7868     		ldr	r0, [r7, #4]
 1399 07ca FFF7FEFF 		bl	pbuf_free
 1400 07ce 00E0     		b	.L1
 1401              	.L85:
 587:Middlewares/Third_Party/LwIP/src/core/tcp_in.c **** dropped:
 1402              		.loc 1 587 3
 1403 07d0 00BF     		nop
 1404              	.L1:
 592:Middlewares/Third_Party/LwIP/src/core/tcp_in.c **** }
 1405              		.loc 1 592 1
 1406 07d2 2437     		adds	r7, r7, #36
 1407              	.LCFI3:
 1408              		.cfi_def_cfa_offset 12
 1409 07d4 BD46     		mov	sp, r7
 1410              	.LCFI4:
 1411              		.cfi_def_cfa_register 13
 1412              		@ sp needed
 1413 07d6 90BD     		pop	{r4, r7, pc}
 1414              	.L91:
 1415              		.align	2
 1416              	.L90:
 1417 07d8 00000000 		.word	tcp_input_pcb
 1418 07dc 00000000 		.word	recv_flags
 1419 07e0 00000000 		.word	tcp_active_pcbs
 1420 07e4 00000000 		.word	recv_acked
 1421 07e8 00000000 		.word	recv_data
 1422 07ec 00000000 		.word	.LC0
 1423 07f0 B0010000 		.word	.LC12
 1424 07f4 48000000 		.word	.LC2
 1425 07f8 00000000 		.word	inseg
 1426 07fc 00000000 		.word	tcphdr
 1427 0800 00000000 		.word	ackno
 1428 0804 00000000 		.word	tcplen
 1429 0808 00000000 		.word	seqno
 1430 080c 10000000 		.word	ip_data+16
 1431 0810 14000000 		.word	ip_data+20
 1432              		.cfi_endproc
 1433              	.LFE133:
 1435              		.section	.rodata
 1436 01ca 0000     		.align	2
 1437              	.LC13:
 1438 01cc 7463705F 		.ascii	"tcp_input_delayed_close: invalid pcb\000"
 1438      696E7075 
 1438      745F6465 
 1438      6C617965 
 1438      645F636C 
 1439              		.section	.text.tcp_input_delayed_close,"ax",%progbits
 1440              		.align	1
 1441              		.syntax unified
 1442              		.thumb
 1443              		.thumb_func
 1444              		.fpu fpv4-sp-d16
 1446              	tcp_input_delayed_close:
 1447              	.LFB134:
 593:Middlewares/Third_Party/LwIP/src/core/tcp_in.c **** 
 594:Middlewares/Third_Party/LwIP/src/core/tcp_in.c **** /** Called from tcp_input to check for TF_CLOSED flag. This results in closing
ARM GAS  /tmp/ccWqLOXK.s 			page 38


 595:Middlewares/Third_Party/LwIP/src/core/tcp_in.c ****  * and deallocating a pcb at the correct place to ensure noone references it
 596:Middlewares/Third_Party/LwIP/src/core/tcp_in.c ****  * any more.
 597:Middlewares/Third_Party/LwIP/src/core/tcp_in.c ****  * @returns 1 if the pcb has been closed and deallocated, 0 otherwise
 598:Middlewares/Third_Party/LwIP/src/core/tcp_in.c ****  */
 599:Middlewares/Third_Party/LwIP/src/core/tcp_in.c **** static int
 600:Middlewares/Third_Party/LwIP/src/core/tcp_in.c **** tcp_input_delayed_close(struct tcp_pcb *pcb)
 601:Middlewares/Third_Party/LwIP/src/core/tcp_in.c **** {
 1448              		.loc 1 601 1
 1449              		.cfi_startproc
 1450              		@ args = 0, pretend = 0, frame = 8
 1451              		@ frame_needed = 1, uses_anonymous_args = 0
 1452 0000 80B5     		push	{r7, lr}
 1453              	.LCFI5:
 1454              		.cfi_def_cfa_offset 8
 1455              		.cfi_offset 7, -8
 1456              		.cfi_offset 14, -4
 1457 0002 82B0     		sub	sp, sp, #8
 1458              	.LCFI6:
 1459              		.cfi_def_cfa_offset 16
 1460 0004 00AF     		add	r7, sp, #0
 1461              	.LCFI7:
 1462              		.cfi_def_cfa_register 7
 1463 0006 7860     		str	r0, [r7, #4]
 602:Middlewares/Third_Party/LwIP/src/core/tcp_in.c ****   LWIP_ASSERT("tcp_input_delayed_close: invalid pcb", pcb != NULL);
 1464              		.loc 1 602 3
 1465 0008 7B68     		ldr	r3, [r7, #4]
 1466 000a 002B     		cmp	r3, #0
 1467 000c 06D1     		bne	.L93
 1468              		.loc 1 602 3 is_stmt 0 discriminator 1
 1469 000e 174B     		ldr	r3, .L97
 1470 0010 40F25A22 		movw	r2, #602
 1471 0014 1649     		ldr	r1, .L97+4
 1472 0016 1748     		ldr	r0, .L97+8
 1473 0018 FFF7FEFF 		bl	printf
 1474              	.L93:
 603:Middlewares/Third_Party/LwIP/src/core/tcp_in.c **** 
 604:Middlewares/Third_Party/LwIP/src/core/tcp_in.c ****   if (recv_flags & TF_CLOSED) {
 1475              		.loc 1 604 18 is_stmt 1
 1476 001c 164B     		ldr	r3, .L97+12
 1477 001e 1B78     		ldrb	r3, [r3]	@ zero_extendqisi2
 1478 0020 03F01003 		and	r3, r3, #16
 1479              		.loc 1 604 6
 1480 0024 002B     		cmp	r3, #0
 1481 0026 1CD0     		beq	.L94
 605:Middlewares/Third_Party/LwIP/src/core/tcp_in.c ****     /* The connection has been closed and we will deallocate the
 606:Middlewares/Third_Party/LwIP/src/core/tcp_in.c ****         PCB. */
 607:Middlewares/Third_Party/LwIP/src/core/tcp_in.c ****     if (!(pcb->flags & TF_RXCLOSED)) {
 1482              		.loc 1 607 14
 1483 0028 7B68     		ldr	r3, [r7, #4]
 1484 002a 5B8B     		ldrh	r3, [r3, #26]
 1485              		.loc 1 607 22
 1486 002c 03F01003 		and	r3, r3, #16
 1487              		.loc 1 607 8
 1488 0030 002B     		cmp	r3, #0
 1489 0032 0DD1     		bne	.L95
 608:Middlewares/Third_Party/LwIP/src/core/tcp_in.c ****       /* Connection closed although the application has only shut down the
 609:Middlewares/Third_Party/LwIP/src/core/tcp_in.c ****           tx side: call the PCB's err callback and indicate the closure to
ARM GAS  /tmp/ccWqLOXK.s 			page 39


 610:Middlewares/Third_Party/LwIP/src/core/tcp_in.c ****           ensure the application doesn't continue using the PCB. */
 611:Middlewares/Third_Party/LwIP/src/core/tcp_in.c ****       TCP_EVENT_ERR(pcb->state, pcb->errf, pcb->callback_arg, ERR_CLSD);
 1490              		.loc 1 611 7
 1491 0034 7B68     		ldr	r3, [r7, #4]
 1492 0036 D3F89030 		ldr	r3, [r3, #144]
 1493 003a 002B     		cmp	r3, #0
 1494 003c 08D0     		beq	.L95
 1495              		.loc 1 611 7 is_stmt 0 discriminator 1
 1496 003e 7B68     		ldr	r3, [r7, #4]
 1497 0040 D3F89030 		ldr	r3, [r3, #144]
 1498 0044 7A68     		ldr	r2, [r7, #4]
 1499 0046 1269     		ldr	r2, [r2, #16]
 1500 0048 6FF00E01 		mvn	r1, #14
 1501 004c 1046     		mov	r0, r2
 1502 004e 9847     		blx	r3
 1503              	.LVL4:
 1504              	.L95:
 612:Middlewares/Third_Party/LwIP/src/core/tcp_in.c ****     }
 613:Middlewares/Third_Party/LwIP/src/core/tcp_in.c ****     tcp_pcb_remove(&tcp_active_pcbs, pcb);
 1505              		.loc 1 613 5 is_stmt 1
 1506 0050 7968     		ldr	r1, [r7, #4]
 1507 0052 0A48     		ldr	r0, .L97+16
 1508 0054 FFF7FEFF 		bl	tcp_pcb_remove
 614:Middlewares/Third_Party/LwIP/src/core/tcp_in.c ****     tcp_free(pcb);
 1509              		.loc 1 614 5
 1510 0058 7868     		ldr	r0, [r7, #4]
 1511 005a FFF7FEFF 		bl	tcp_free
 615:Middlewares/Third_Party/LwIP/src/core/tcp_in.c ****     return 1;
 1512              		.loc 1 615 12
 1513 005e 0123     		movs	r3, #1
 1514 0060 00E0     		b	.L96
 1515              	.L94:
 616:Middlewares/Third_Party/LwIP/src/core/tcp_in.c ****   }
 617:Middlewares/Third_Party/LwIP/src/core/tcp_in.c ****   return 0;
 1516              		.loc 1 617 10
 1517 0062 0023     		movs	r3, #0
 1518              	.L96:
 618:Middlewares/Third_Party/LwIP/src/core/tcp_in.c **** }
 1519              		.loc 1 618 1
 1520 0064 1846     		mov	r0, r3
 1521 0066 0837     		adds	r7, r7, #8
 1522              	.LCFI8:
 1523              		.cfi_def_cfa_offset 8
 1524 0068 BD46     		mov	sp, r7
 1525              	.LCFI9:
 1526              		.cfi_def_cfa_register 13
 1527              		@ sp needed
 1528 006a 80BD     		pop	{r7, pc}
 1529              	.L98:
 1530              		.align	2
 1531              	.L97:
 1532 006c 00000000 		.word	.LC0
 1533 0070 CC010000 		.word	.LC13
 1534 0074 48000000 		.word	.LC2
 1535 0078 00000000 		.word	recv_flags
 1536 007c 00000000 		.word	tcp_active_pcbs
 1537              		.cfi_endproc
ARM GAS  /tmp/ccWqLOXK.s 			page 40


 1538              	.LFE134:
 1540              		.section	.rodata
 1541 01f1 000000   		.align	2
 1542              	.LC14:
 1543 01f4 7463705F 		.ascii	"tcp_listen_input: invalid pcb\000"
 1543      6C697374 
 1543      656E5F69 
 1543      6E707574 
 1543      3A20696E 
 1544              		.section	.text.tcp_listen_input,"ax",%progbits
 1545              		.align	1
 1546              		.syntax unified
 1547              		.thumb
 1548              		.thumb_func
 1549              		.fpu fpv4-sp-d16
 1551              	tcp_listen_input:
 1552              	.LFB135:
 619:Middlewares/Third_Party/LwIP/src/core/tcp_in.c **** 
 620:Middlewares/Third_Party/LwIP/src/core/tcp_in.c **** /**
 621:Middlewares/Third_Party/LwIP/src/core/tcp_in.c ****  * Called by tcp_input() when a segment arrives for a listening
 622:Middlewares/Third_Party/LwIP/src/core/tcp_in.c ****  * connection (from tcp_input()).
 623:Middlewares/Third_Party/LwIP/src/core/tcp_in.c ****  *
 624:Middlewares/Third_Party/LwIP/src/core/tcp_in.c ****  * @param pcb the tcp_pcb_listen for which a segment arrived
 625:Middlewares/Third_Party/LwIP/src/core/tcp_in.c ****  *
 626:Middlewares/Third_Party/LwIP/src/core/tcp_in.c ****  * @note the segment which arrived is saved in global variables, therefore only the pcb
 627:Middlewares/Third_Party/LwIP/src/core/tcp_in.c ****  *       involved is passed as a parameter to this function
 628:Middlewares/Third_Party/LwIP/src/core/tcp_in.c ****  */
 629:Middlewares/Third_Party/LwIP/src/core/tcp_in.c **** static void
 630:Middlewares/Third_Party/LwIP/src/core/tcp_in.c **** tcp_listen_input(struct tcp_pcb_listen *pcb)
 631:Middlewares/Third_Party/LwIP/src/core/tcp_in.c **** {
 1553              		.loc 1 631 1
 1554              		.cfi_startproc
 1555              		@ args = 0, pretend = 0, frame = 24
 1556              		@ frame_needed = 1, uses_anonymous_args = 0
 1557 0000 90B5     		push	{r4, r7, lr}
 1558              	.LCFI10:
 1559              		.cfi_def_cfa_offset 12
 1560              		.cfi_offset 4, -12
 1561              		.cfi_offset 7, -8
 1562              		.cfi_offset 14, -4
 1563 0002 8BB0     		sub	sp, sp, #44
 1564              	.LCFI11:
 1565              		.cfi_def_cfa_offset 56
 1566 0004 04AF     		add	r7, sp, #16
 1567              	.LCFI12:
 1568              		.cfi_def_cfa 7, 40
 1569 0006 7860     		str	r0, [r7, #4]
 632:Middlewares/Third_Party/LwIP/src/core/tcp_in.c ****   struct tcp_pcb *npcb;
 633:Middlewares/Third_Party/LwIP/src/core/tcp_in.c ****   u32_t iss;
 634:Middlewares/Third_Party/LwIP/src/core/tcp_in.c ****   err_t rc;
 635:Middlewares/Third_Party/LwIP/src/core/tcp_in.c **** 
 636:Middlewares/Third_Party/LwIP/src/core/tcp_in.c ****   if (flags & TCP_RST) {
 1570              		.loc 1 636 13
 1571 0008 6F4B     		ldr	r3, .L111
 1572 000a 1B78     		ldrb	r3, [r3]	@ zero_extendqisi2
 1573 000c 03F00403 		and	r3, r3, #4
 1574              		.loc 1 636 6
ARM GAS  /tmp/ccWqLOXK.s 			page 41


 1575 0010 002B     		cmp	r3, #0
 1576 0012 40F0D380 		bne	.L109
 637:Middlewares/Third_Party/LwIP/src/core/tcp_in.c ****     /* An incoming RST should be ignored. Return. */
 638:Middlewares/Third_Party/LwIP/src/core/tcp_in.c ****     return;
 639:Middlewares/Third_Party/LwIP/src/core/tcp_in.c ****   }
 640:Middlewares/Third_Party/LwIP/src/core/tcp_in.c **** 
 641:Middlewares/Third_Party/LwIP/src/core/tcp_in.c ****   LWIP_ASSERT("tcp_listen_input: invalid pcb", pcb != NULL);
 1577              		.loc 1 641 3
 1578 0016 7B68     		ldr	r3, [r7, #4]
 1579 0018 002B     		cmp	r3, #0
 1580 001a 06D1     		bne	.L102
 1581              		.loc 1 641 3 is_stmt 0 discriminator 1
 1582 001c 6B4B     		ldr	r3, .L111+4
 1583 001e 40F28122 		movw	r2, #641
 1584 0022 6B49     		ldr	r1, .L111+8
 1585 0024 6B48     		ldr	r0, .L111+12
 1586 0026 FFF7FEFF 		bl	printf
 1587              	.L102:
 642:Middlewares/Third_Party/LwIP/src/core/tcp_in.c **** 
 643:Middlewares/Third_Party/LwIP/src/core/tcp_in.c ****   /* In the LISTEN state, we check for incoming SYN segments,
 644:Middlewares/Third_Party/LwIP/src/core/tcp_in.c ****      creates a new PCB, and responds with a SYN|ACK. */
 645:Middlewares/Third_Party/LwIP/src/core/tcp_in.c ****   if (flags & TCP_ACK) {
 1588              		.loc 1 645 13 is_stmt 1
 1589 002a 674B     		ldr	r3, .L111
 1590 002c 1B78     		ldrb	r3, [r3]	@ zero_extendqisi2
 1591 002e 03F01003 		and	r3, r3, #16
 1592              		.loc 1 645 6
 1593 0032 002B     		cmp	r3, #0
 1594 0034 19D0     		beq	.L103
 646:Middlewares/Third_Party/LwIP/src/core/tcp_in.c ****     /* For incoming segments with the ACK flag set, respond with a
 647:Middlewares/Third_Party/LwIP/src/core/tcp_in.c ****        RST. */
 648:Middlewares/Third_Party/LwIP/src/core/tcp_in.c ****     LWIP_DEBUGF(TCP_RST_DEBUG, ("tcp_listen_input: ACK in LISTEN, sending reset\n"));
 649:Middlewares/Third_Party/LwIP/src/core/tcp_in.c ****     tcp_rst((const struct tcp_pcb *)pcb, ackno, seqno + tcplen, ip_current_dest_addr(),
 1595              		.loc 1 649 5
 1596 0036 684B     		ldr	r3, .L111+16
 1597 0038 1968     		ldr	r1, [r3]
 1598 003a 684B     		ldr	r3, .L111+20
 1599 003c 1B88     		ldrh	r3, [r3]
 1600 003e 1A46     		mov	r2, r3
 1601 0040 674B     		ldr	r3, .L111+24
 1602 0042 1B68     		ldr	r3, [r3]
 1603 0044 D018     		adds	r0, r2, r3
 650:Middlewares/Third_Party/LwIP/src/core/tcp_in.c ****             ip_current_src_addr(), tcphdr->dest, tcphdr->src);
 1604              		.loc 1 650 42
 1605 0046 674B     		ldr	r3, .L111+28
 1606 0048 1B68     		ldr	r3, [r3]
 649:Middlewares/Third_Party/LwIP/src/core/tcp_in.c ****             ip_current_src_addr(), tcphdr->dest, tcphdr->src);
 1607              		.loc 1 649 5
 1608 004a 5B88     		ldrh	r3, [r3, #2]	@ unaligned
 1609 004c 9BB2     		uxth	r3, r3
 1610              		.loc 1 650 56
 1611 004e 654A     		ldr	r2, .L111+28
 1612 0050 1268     		ldr	r2, [r2]
 649:Middlewares/Third_Party/LwIP/src/core/tcp_in.c ****             ip_current_src_addr(), tcphdr->dest, tcphdr->src);
 1613              		.loc 1 649 5
 1614 0052 1288     		ldrh	r2, [r2]	@ unaligned
 1615 0054 92B2     		uxth	r2, r2
ARM GAS  /tmp/ccWqLOXK.s 			page 42


 1616 0056 0292     		str	r2, [sp, #8]
 1617 0058 0193     		str	r3, [sp, #4]
 1618 005a 634B     		ldr	r3, .L111+32
 1619 005c 0093     		str	r3, [sp]
 1620 005e 634B     		ldr	r3, .L111+36
 1621 0060 0246     		mov	r2, r0
 1622 0062 7868     		ldr	r0, [r7, #4]
 1623 0064 FFF7FEFF 		bl	tcp_rst
 651:Middlewares/Third_Party/LwIP/src/core/tcp_in.c ****   } else if (flags & TCP_SYN) {
 652:Middlewares/Third_Party/LwIP/src/core/tcp_in.c ****     LWIP_DEBUGF(TCP_DEBUG, ("TCP connection request %"U16_F" -> %"U16_F".\n", tcphdr->src, tcphdr->
 653:Middlewares/Third_Party/LwIP/src/core/tcp_in.c **** #if TCP_LISTEN_BACKLOG
 654:Middlewares/Third_Party/LwIP/src/core/tcp_in.c ****     if (pcb->accepts_pending >= pcb->backlog) {
 655:Middlewares/Third_Party/LwIP/src/core/tcp_in.c ****       LWIP_DEBUGF(TCP_DEBUG, ("tcp_listen_input: listen backlog exceeded for port %"U16_F"\n", tcph
 656:Middlewares/Third_Party/LwIP/src/core/tcp_in.c ****       return;
 657:Middlewares/Third_Party/LwIP/src/core/tcp_in.c ****     }
 658:Middlewares/Third_Party/LwIP/src/core/tcp_in.c **** #endif /* TCP_LISTEN_BACKLOG */
 659:Middlewares/Third_Party/LwIP/src/core/tcp_in.c ****     npcb = tcp_alloc(pcb->prio);
 660:Middlewares/Third_Party/LwIP/src/core/tcp_in.c ****     /* If a new PCB could not be created (probably due to lack of memory),
 661:Middlewares/Third_Party/LwIP/src/core/tcp_in.c ****        we don't do anything, but rely on the sender will retransmit the
 662:Middlewares/Third_Party/LwIP/src/core/tcp_in.c ****        SYN at a time when we have more memory available. */
 663:Middlewares/Third_Party/LwIP/src/core/tcp_in.c ****     if (npcb == NULL) {
 664:Middlewares/Third_Party/LwIP/src/core/tcp_in.c ****       err_t err;
 665:Middlewares/Third_Party/LwIP/src/core/tcp_in.c ****       LWIP_DEBUGF(TCP_DEBUG, ("tcp_listen_input: could not allocate PCB\n"));
 666:Middlewares/Third_Party/LwIP/src/core/tcp_in.c ****       TCP_STATS_INC(tcp.memerr);
 667:Middlewares/Third_Party/LwIP/src/core/tcp_in.c ****       TCP_EVENT_ACCEPT(pcb, NULL, pcb->callback_arg, ERR_MEM, err);
 668:Middlewares/Third_Party/LwIP/src/core/tcp_in.c ****       LWIP_UNUSED_ARG(err); /* err not useful here */
 669:Middlewares/Third_Party/LwIP/src/core/tcp_in.c ****       return;
 670:Middlewares/Third_Party/LwIP/src/core/tcp_in.c ****     }
 671:Middlewares/Third_Party/LwIP/src/core/tcp_in.c **** #if TCP_LISTEN_BACKLOG
 672:Middlewares/Third_Party/LwIP/src/core/tcp_in.c ****     pcb->accepts_pending++;
 673:Middlewares/Third_Party/LwIP/src/core/tcp_in.c ****     tcp_set_flags(npcb, TF_BACKLOGPEND);
 674:Middlewares/Third_Party/LwIP/src/core/tcp_in.c **** #endif /* TCP_LISTEN_BACKLOG */
 675:Middlewares/Third_Party/LwIP/src/core/tcp_in.c ****     /* Set up the new PCB. */
 676:Middlewares/Third_Party/LwIP/src/core/tcp_in.c ****     ip_addr_copy(npcb->local_ip, *ip_current_dest_addr());
 677:Middlewares/Third_Party/LwIP/src/core/tcp_in.c ****     ip_addr_copy(npcb->remote_ip, *ip_current_src_addr());
 678:Middlewares/Third_Party/LwIP/src/core/tcp_in.c ****     npcb->local_port = pcb->local_port;
 679:Middlewares/Third_Party/LwIP/src/core/tcp_in.c ****     npcb->remote_port = tcphdr->src;
 680:Middlewares/Third_Party/LwIP/src/core/tcp_in.c ****     npcb->state = SYN_RCVD;
 681:Middlewares/Third_Party/LwIP/src/core/tcp_in.c ****     npcb->rcv_nxt = seqno + 1;
 682:Middlewares/Third_Party/LwIP/src/core/tcp_in.c ****     npcb->rcv_ann_right_edge = npcb->rcv_nxt;
 683:Middlewares/Third_Party/LwIP/src/core/tcp_in.c ****     iss = tcp_next_iss(npcb);
 684:Middlewares/Third_Party/LwIP/src/core/tcp_in.c ****     npcb->snd_wl2 = iss;
 685:Middlewares/Third_Party/LwIP/src/core/tcp_in.c ****     npcb->snd_nxt = iss;
 686:Middlewares/Third_Party/LwIP/src/core/tcp_in.c ****     npcb->lastack = iss;
 687:Middlewares/Third_Party/LwIP/src/core/tcp_in.c ****     npcb->snd_lbb = iss;
 688:Middlewares/Third_Party/LwIP/src/core/tcp_in.c ****     npcb->snd_wl1 = seqno - 1;/* initialise to seqno-1 to force window update */
 689:Middlewares/Third_Party/LwIP/src/core/tcp_in.c ****     npcb->callback_arg = pcb->callback_arg;
 690:Middlewares/Third_Party/LwIP/src/core/tcp_in.c **** #if LWIP_CALLBACK_API || TCP_LISTEN_BACKLOG
 691:Middlewares/Third_Party/LwIP/src/core/tcp_in.c ****     npcb->listener = pcb;
 692:Middlewares/Third_Party/LwIP/src/core/tcp_in.c **** #endif /* LWIP_CALLBACK_API || TCP_LISTEN_BACKLOG */
 693:Middlewares/Third_Party/LwIP/src/core/tcp_in.c ****     /* inherit socket options */
 694:Middlewares/Third_Party/LwIP/src/core/tcp_in.c ****     npcb->so_options = pcb->so_options & SOF_INHERITED;
 695:Middlewares/Third_Party/LwIP/src/core/tcp_in.c ****     npcb->netif_idx = pcb->netif_idx;
 696:Middlewares/Third_Party/LwIP/src/core/tcp_in.c ****     /* Register the new PCB so that we can begin receiving segments
 697:Middlewares/Third_Party/LwIP/src/core/tcp_in.c ****        for it. */
 698:Middlewares/Third_Party/LwIP/src/core/tcp_in.c ****     TCP_REG_ACTIVE(npcb);
 699:Middlewares/Third_Party/LwIP/src/core/tcp_in.c **** 
ARM GAS  /tmp/ccWqLOXK.s 			page 43


 700:Middlewares/Third_Party/LwIP/src/core/tcp_in.c ****     /* Parse any options in the SYN. */
 701:Middlewares/Third_Party/LwIP/src/core/tcp_in.c ****     tcp_parseopt(npcb);
 702:Middlewares/Third_Party/LwIP/src/core/tcp_in.c ****     npcb->snd_wnd = tcphdr->wnd;
 703:Middlewares/Third_Party/LwIP/src/core/tcp_in.c ****     npcb->snd_wnd_max = npcb->snd_wnd;
 704:Middlewares/Third_Party/LwIP/src/core/tcp_in.c **** 
 705:Middlewares/Third_Party/LwIP/src/core/tcp_in.c **** #if TCP_CALCULATE_EFF_SEND_MSS
 706:Middlewares/Third_Party/LwIP/src/core/tcp_in.c ****     npcb->mss = tcp_eff_send_mss(npcb->mss, &npcb->local_ip, &npcb->remote_ip);
 707:Middlewares/Third_Party/LwIP/src/core/tcp_in.c **** #endif /* TCP_CALCULATE_EFF_SEND_MSS */
 708:Middlewares/Third_Party/LwIP/src/core/tcp_in.c **** 
 709:Middlewares/Third_Party/LwIP/src/core/tcp_in.c ****     MIB2_STATS_INC(mib2.tcppassiveopens);
 710:Middlewares/Third_Party/LwIP/src/core/tcp_in.c **** 
 711:Middlewares/Third_Party/LwIP/src/core/tcp_in.c **** #if LWIP_TCP_PCB_NUM_EXT_ARGS
 712:Middlewares/Third_Party/LwIP/src/core/tcp_in.c ****     if (tcp_ext_arg_invoke_callbacks_passive_open(pcb, npcb) != ERR_OK) {
 713:Middlewares/Third_Party/LwIP/src/core/tcp_in.c ****       tcp_abandon(npcb, 0);
 714:Middlewares/Third_Party/LwIP/src/core/tcp_in.c ****       return;
 715:Middlewares/Third_Party/LwIP/src/core/tcp_in.c ****     }
 716:Middlewares/Third_Party/LwIP/src/core/tcp_in.c **** #endif
 717:Middlewares/Third_Party/LwIP/src/core/tcp_in.c **** 
 718:Middlewares/Third_Party/LwIP/src/core/tcp_in.c ****     /* Send a SYN|ACK together with the MSS option. */
 719:Middlewares/Third_Party/LwIP/src/core/tcp_in.c ****     rc = tcp_enqueue_flags(npcb, TCP_SYN | TCP_ACK);
 720:Middlewares/Third_Party/LwIP/src/core/tcp_in.c ****     if (rc != ERR_OK) {
 721:Middlewares/Third_Party/LwIP/src/core/tcp_in.c ****       tcp_abandon(npcb, 0);
 722:Middlewares/Third_Party/LwIP/src/core/tcp_in.c ****       return;
 723:Middlewares/Third_Party/LwIP/src/core/tcp_in.c ****     }
 724:Middlewares/Third_Party/LwIP/src/core/tcp_in.c ****     tcp_output(npcb);
 725:Middlewares/Third_Party/LwIP/src/core/tcp_in.c ****   }
 726:Middlewares/Third_Party/LwIP/src/core/tcp_in.c ****   return;
 1624              		.loc 1 726 3
 1625 0068 AAE0     		b	.L110
 1626              	.L103:
 651:Middlewares/Third_Party/LwIP/src/core/tcp_in.c ****   } else if (flags & TCP_SYN) {
 1627              		.loc 1 651 20
 1628 006a 574B     		ldr	r3, .L111
 1629 006c 1B78     		ldrb	r3, [r3]	@ zero_extendqisi2
 1630 006e 03F00203 		and	r3, r3, #2
 651:Middlewares/Third_Party/LwIP/src/core/tcp_in.c ****   } else if (flags & TCP_SYN) {
 1631              		.loc 1 651 13
 1632 0072 002B     		cmp	r3, #0
 1633 0074 00F0A480 		beq	.L110
 659:Middlewares/Third_Party/LwIP/src/core/tcp_in.c ****     /* If a new PCB could not be created (probably due to lack of memory),
 1634              		.loc 1 659 12
 1635 0078 7B68     		ldr	r3, [r7, #4]
 1636 007a 5B7D     		ldrb	r3, [r3, #21]	@ zero_extendqisi2
 1637 007c 1846     		mov	r0, r3
 1638 007e FFF7FEFF 		bl	tcp_alloc
 1639 0082 7861     		str	r0, [r7, #20]
 663:Middlewares/Third_Party/LwIP/src/core/tcp_in.c ****       err_t err;
 1640              		.loc 1 663 8
 1641 0084 7B69     		ldr	r3, [r7, #20]
 1642 0086 002B     		cmp	r3, #0
 1643 0088 11D1     		bne	.L105
 1644              	.LBB6:
 667:Middlewares/Third_Party/LwIP/src/core/tcp_in.c ****       LWIP_UNUSED_ARG(err); /* err not useful here */
 1645              		.loc 1 667 7
 1646 008a 7B68     		ldr	r3, [r7, #4]
 1647 008c 9B69     		ldr	r3, [r3, #24]
 1648 008e 002B     		cmp	r3, #0
ARM GAS  /tmp/ccWqLOXK.s 			page 44


 1649 0090 0AD0     		beq	.L106
 667:Middlewares/Third_Party/LwIP/src/core/tcp_in.c ****       LWIP_UNUSED_ARG(err); /* err not useful here */
 1650              		.loc 1 667 7 is_stmt 0 discriminator 1
 1651 0092 7B68     		ldr	r3, [r7, #4]
 1652 0094 9B69     		ldr	r3, [r3, #24]
 1653 0096 7A68     		ldr	r2, [r7, #4]
 1654 0098 1069     		ldr	r0, [r2, #16]
 1655 009a 4FF0FF32 		mov	r2, #-1
 1656 009e 0021     		movs	r1, #0
 1657 00a0 9847     		blx	r3
 1658              	.LVL5:
 1659 00a2 0346     		mov	r3, r0
 1660 00a4 FB74     		strb	r3, [r7, #19]
 669:Middlewares/Third_Party/LwIP/src/core/tcp_in.c ****     }
 1661              		.loc 1 669 7 is_stmt 1 discriminator 1
 1662 00a6 8CE0     		b	.L99
 1663              	.L106:
 667:Middlewares/Third_Party/LwIP/src/core/tcp_in.c ****       LWIP_UNUSED_ARG(err); /* err not useful here */
 1664              		.loc 1 667 7 discriminator 2
 1665 00a8 F023     		movs	r3, #240
 1666 00aa FB74     		strb	r3, [r7, #19]
 669:Middlewares/Third_Party/LwIP/src/core/tcp_in.c ****     }
 1667              		.loc 1 669 7 discriminator 2
 1668 00ac 89E0     		b	.L99
 1669              	.L105:
 1670              	.LBE6:
 676:Middlewares/Third_Party/LwIP/src/core/tcp_in.c ****     ip_addr_copy(npcb->remote_ip, *ip_current_src_addr());
 1671              		.loc 1 676 5
 1672 00ae 504B     		ldr	r3, .L111+40
 1673 00b0 5A69     		ldr	r2, [r3, #20]
 1674 00b2 7B69     		ldr	r3, [r7, #20]
 1675 00b4 1A60     		str	r2, [r3]
 677:Middlewares/Third_Party/LwIP/src/core/tcp_in.c ****     npcb->local_port = pcb->local_port;
 1676              		.loc 1 677 5
 1677 00b6 4E4B     		ldr	r3, .L111+40
 1678 00b8 1A69     		ldr	r2, [r3, #16]
 1679 00ba 7B69     		ldr	r3, [r7, #20]
 1680 00bc 5A60     		str	r2, [r3, #4]
 678:Middlewares/Third_Party/LwIP/src/core/tcp_in.c ****     npcb->remote_port = tcphdr->src;
 1681              		.loc 1 678 27
 1682 00be 7B68     		ldr	r3, [r7, #4]
 1683 00c0 DA8A     		ldrh	r2, [r3, #22]
 678:Middlewares/Third_Party/LwIP/src/core/tcp_in.c ****     npcb->remote_port = tcphdr->src;
 1684              		.loc 1 678 22
 1685 00c2 7B69     		ldr	r3, [r7, #20]
 1686 00c4 DA82     		strh	r2, [r3, #22]	@ movhi
 679:Middlewares/Third_Party/LwIP/src/core/tcp_in.c ****     npcb->state = SYN_RCVD;
 1687              		.loc 1 679 31
 1688 00c6 474B     		ldr	r3, .L111+28
 1689 00c8 1B68     		ldr	r3, [r3]
 1690 00ca 1B88     		ldrh	r3, [r3]	@ unaligned
 1691 00cc 9AB2     		uxth	r2, r3
 679:Middlewares/Third_Party/LwIP/src/core/tcp_in.c ****     npcb->state = SYN_RCVD;
 1692              		.loc 1 679 23
 1693 00ce 7B69     		ldr	r3, [r7, #20]
 1694 00d0 1A83     		strh	r2, [r3, #24]	@ movhi
 680:Middlewares/Third_Party/LwIP/src/core/tcp_in.c ****     npcb->rcv_nxt = seqno + 1;
ARM GAS  /tmp/ccWqLOXK.s 			page 45


 1695              		.loc 1 680 17
 1696 00d2 7B69     		ldr	r3, [r7, #20]
 1697 00d4 0322     		movs	r2, #3
 1698 00d6 1A75     		strb	r2, [r3, #20]
 681:Middlewares/Third_Party/LwIP/src/core/tcp_in.c ****     npcb->rcv_ann_right_edge = npcb->rcv_nxt;
 1699              		.loc 1 681 27
 1700 00d8 414B     		ldr	r3, .L111+24
 1701 00da 1B68     		ldr	r3, [r3]
 1702 00dc 5A1C     		adds	r2, r3, #1
 681:Middlewares/Third_Party/LwIP/src/core/tcp_in.c ****     npcb->rcv_ann_right_edge = npcb->rcv_nxt;
 1703              		.loc 1 681 19
 1704 00de 7B69     		ldr	r3, [r7, #20]
 1705 00e0 5A62     		str	r2, [r3, #36]
 682:Middlewares/Third_Party/LwIP/src/core/tcp_in.c ****     iss = tcp_next_iss(npcb);
 1706              		.loc 1 682 36
 1707 00e2 7B69     		ldr	r3, [r7, #20]
 1708 00e4 5A6A     		ldr	r2, [r3, #36]
 682:Middlewares/Third_Party/LwIP/src/core/tcp_in.c ****     iss = tcp_next_iss(npcb);
 1709              		.loc 1 682 30
 1710 00e6 7B69     		ldr	r3, [r7, #20]
 1711 00e8 DA62     		str	r2, [r3, #44]
 683:Middlewares/Third_Party/LwIP/src/core/tcp_in.c ****     npcb->snd_wl2 = iss;
 1712              		.loc 1 683 11
 1713 00ea 7869     		ldr	r0, [r7, #20]
 1714 00ec FFF7FEFF 		bl	tcp_next_iss
 1715 00f0 F860     		str	r0, [r7, #12]
 684:Middlewares/Third_Party/LwIP/src/core/tcp_in.c ****     npcb->snd_nxt = iss;
 1716              		.loc 1 684 19
 1717 00f2 7B69     		ldr	r3, [r7, #20]
 1718 00f4 FA68     		ldr	r2, [r7, #12]
 1719 00f6 9A65     		str	r2, [r3, #88]
 685:Middlewares/Third_Party/LwIP/src/core/tcp_in.c ****     npcb->lastack = iss;
 1720              		.loc 1 685 19
 1721 00f8 7B69     		ldr	r3, [r7, #20]
 1722 00fa FA68     		ldr	r2, [r7, #12]
 1723 00fc 1A65     		str	r2, [r3, #80]
 686:Middlewares/Third_Party/LwIP/src/core/tcp_in.c ****     npcb->snd_lbb = iss;
 1724              		.loc 1 686 19
 1725 00fe 7B69     		ldr	r3, [r7, #20]
 1726 0100 FA68     		ldr	r2, [r7, #12]
 1727 0102 5A64     		str	r2, [r3, #68]
 687:Middlewares/Third_Party/LwIP/src/core/tcp_in.c ****     npcb->snd_wl1 = seqno - 1;/* initialise to seqno-1 to force window update */
 1728              		.loc 1 687 19
 1729 0104 7B69     		ldr	r3, [r7, #20]
 1730 0106 FA68     		ldr	r2, [r7, #12]
 1731 0108 DA65     		str	r2, [r3, #92]
 688:Middlewares/Third_Party/LwIP/src/core/tcp_in.c ****     npcb->callback_arg = pcb->callback_arg;
 1732              		.loc 1 688 27
 1733 010a 354B     		ldr	r3, .L111+24
 1734 010c 1B68     		ldr	r3, [r3]
 1735 010e 5A1E     		subs	r2, r3, #1
 688:Middlewares/Third_Party/LwIP/src/core/tcp_in.c ****     npcb->callback_arg = pcb->callback_arg;
 1736              		.loc 1 688 19
 1737 0110 7B69     		ldr	r3, [r7, #20]
 1738 0112 5A65     		str	r2, [r3, #84]
 689:Middlewares/Third_Party/LwIP/src/core/tcp_in.c **** #if LWIP_CALLBACK_API || TCP_LISTEN_BACKLOG
 1739              		.loc 1 689 29
ARM GAS  /tmp/ccWqLOXK.s 			page 46


 1740 0114 7B68     		ldr	r3, [r7, #4]
 1741 0116 1A69     		ldr	r2, [r3, #16]
 689:Middlewares/Third_Party/LwIP/src/core/tcp_in.c **** #if LWIP_CALLBACK_API || TCP_LISTEN_BACKLOG
 1742              		.loc 1 689 24
 1743 0118 7B69     		ldr	r3, [r7, #20]
 1744 011a 1A61     		str	r2, [r3, #16]
 691:Middlewares/Third_Party/LwIP/src/core/tcp_in.c **** #endif /* LWIP_CALLBACK_API || TCP_LISTEN_BACKLOG */
 1745              		.loc 1 691 20
 1746 011c 7B69     		ldr	r3, [r7, #20]
 1747 011e 7A68     		ldr	r2, [r7, #4]
 1748 0120 DA67     		str	r2, [r3, #124]
 694:Middlewares/Third_Party/LwIP/src/core/tcp_in.c ****     npcb->netif_idx = pcb->netif_idx;
 1749              		.loc 1 694 27
 1750 0122 7B68     		ldr	r3, [r7, #4]
 1751 0124 5B7A     		ldrb	r3, [r3, #9]	@ zero_extendqisi2
 694:Middlewares/Third_Party/LwIP/src/core/tcp_in.c ****     npcb->netif_idx = pcb->netif_idx;
 1752              		.loc 1 694 40
 1753 0126 03F00C03 		and	r3, r3, #12
 1754 012a DAB2     		uxtb	r2, r3
 694:Middlewares/Third_Party/LwIP/src/core/tcp_in.c ****     npcb->netif_idx = pcb->netif_idx;
 1755              		.loc 1 694 22
 1756 012c 7B69     		ldr	r3, [r7, #20]
 1757 012e 5A72     		strb	r2, [r3, #9]
 695:Middlewares/Third_Party/LwIP/src/core/tcp_in.c ****     /* Register the new PCB so that we can begin receiving segments
 1758              		.loc 1 695 26
 1759 0130 7B68     		ldr	r3, [r7, #4]
 1760 0132 1A7A     		ldrb	r2, [r3, #8]	@ zero_extendqisi2
 695:Middlewares/Third_Party/LwIP/src/core/tcp_in.c ****     /* Register the new PCB so that we can begin receiving segments
 1761              		.loc 1 695 21
 1762 0134 7B69     		ldr	r3, [r7, #20]
 1763 0136 1A72     		strb	r2, [r3, #8]
 698:Middlewares/Third_Party/LwIP/src/core/tcp_in.c **** 
 1764              		.loc 1 698 5
 1765 0138 2E4B     		ldr	r3, .L111+44
 1766 013a 1A68     		ldr	r2, [r3]
 1767 013c 7B69     		ldr	r3, [r7, #20]
 1768 013e DA60     		str	r2, [r3, #12]
 1769 0140 2C4A     		ldr	r2, .L111+44
 1770 0142 7B69     		ldr	r3, [r7, #20]
 1771 0144 1360     		str	r3, [r2]
 1772 0146 FFF7FEFF 		bl	tcp_timer_needed
 1773 014a 2B4B     		ldr	r3, .L111+48
 1774 014c 0122     		movs	r2, #1
 1775 014e 1A70     		strb	r2, [r3]
 701:Middlewares/Third_Party/LwIP/src/core/tcp_in.c ****     npcb->snd_wnd = tcphdr->wnd;
 1776              		.loc 1 701 5
 1777 0150 7869     		ldr	r0, [r7, #20]
 1778 0152 FFF7FEFF 		bl	tcp_parseopt
 702:Middlewares/Third_Party/LwIP/src/core/tcp_in.c ****     npcb->snd_wnd_max = npcb->snd_wnd;
 1779              		.loc 1 702 27
 1780 0156 234B     		ldr	r3, .L111+28
 1781 0158 1B68     		ldr	r3, [r3]
 1782 015a DB89     		ldrh	r3, [r3, #14]	@ unaligned
 1783 015c 9AB2     		uxth	r2, r3
 702:Middlewares/Third_Party/LwIP/src/core/tcp_in.c ****     npcb->snd_wnd_max = npcb->snd_wnd;
 1784              		.loc 1 702 19
 1785 015e 7B69     		ldr	r3, [r7, #20]
ARM GAS  /tmp/ccWqLOXK.s 			page 47


 1786 0160 A3F86020 		strh	r2, [r3, #96]	@ movhi
 703:Middlewares/Third_Party/LwIP/src/core/tcp_in.c **** 
 1787              		.loc 1 703 29
 1788 0164 7B69     		ldr	r3, [r7, #20]
 1789 0166 B3F86020 		ldrh	r2, [r3, #96]
 703:Middlewares/Third_Party/LwIP/src/core/tcp_in.c **** 
 1790              		.loc 1 703 23
 1791 016a 7B69     		ldr	r3, [r7, #20]
 1792 016c A3F86220 		strh	r2, [r3, #98]	@ movhi
 706:Middlewares/Third_Party/LwIP/src/core/tcp_in.c **** #endif /* TCP_CALCULATE_EFF_SEND_MSS */
 1793              		.loc 1 706 17
 1794 0170 7B69     		ldr	r3, [r7, #20]
 1795 0172 5C8E     		ldrh	r4, [r3, #50]
 1796 0174 7B69     		ldr	r3, [r7, #20]
 1797 0176 0433     		adds	r3, r3, #4
 1798 0178 1846     		mov	r0, r3
 1799 017a FFF7FEFF 		bl	ip4_route
 1800 017e 0146     		mov	r1, r0
 1801 0180 7B69     		ldr	r3, [r7, #20]
 1802 0182 0433     		adds	r3, r3, #4
 1803 0184 1A46     		mov	r2, r3
 1804 0186 2046     		mov	r0, r4
 1805 0188 FFF7FEFF 		bl	tcp_eff_send_mss_netif
 1806 018c 0346     		mov	r3, r0
 1807 018e 1A46     		mov	r2, r3
 706:Middlewares/Third_Party/LwIP/src/core/tcp_in.c **** #endif /* TCP_CALCULATE_EFF_SEND_MSS */
 1808              		.loc 1 706 15
 1809 0190 7B69     		ldr	r3, [r7, #20]
 1810 0192 5A86     		strh	r2, [r3, #50]	@ movhi
 719:Middlewares/Third_Party/LwIP/src/core/tcp_in.c ****     if (rc != ERR_OK) {
 1811              		.loc 1 719 10
 1812 0194 1221     		movs	r1, #18
 1813 0196 7869     		ldr	r0, [r7, #20]
 1814 0198 FFF7FEFF 		bl	tcp_enqueue_flags
 1815 019c 0346     		mov	r3, r0
 1816 019e FB72     		strb	r3, [r7, #11]
 720:Middlewares/Third_Party/LwIP/src/core/tcp_in.c ****       tcp_abandon(npcb, 0);
 1817              		.loc 1 720 8
 1818 01a0 97F90B30 		ldrsb	r3, [r7, #11]
 1819 01a4 002B     		cmp	r3, #0
 1820 01a6 04D0     		beq	.L108
 721:Middlewares/Third_Party/LwIP/src/core/tcp_in.c ****       return;
 1821              		.loc 1 721 7
 1822 01a8 0021     		movs	r1, #0
 1823 01aa 7869     		ldr	r0, [r7, #20]
 1824 01ac FFF7FEFF 		bl	tcp_abandon
 722:Middlewares/Third_Party/LwIP/src/core/tcp_in.c ****     }
 1825              		.loc 1 722 7
 1826 01b0 07E0     		b	.L99
 1827              	.L108:
 724:Middlewares/Third_Party/LwIP/src/core/tcp_in.c ****   }
 1828              		.loc 1 724 5
 1829 01b2 7869     		ldr	r0, [r7, #20]
 1830 01b4 FFF7FEFF 		bl	tcp_output
 1831              		.loc 1 726 3
 1832 01b8 00BF     		nop
 1833 01ba 01E0     		b	.L110
ARM GAS  /tmp/ccWqLOXK.s 			page 48


 1834              	.L109:
 638:Middlewares/Third_Party/LwIP/src/core/tcp_in.c ****   }
 1835              		.loc 1 638 5
 1836 01bc 00BF     		nop
 1837 01be 00E0     		b	.L99
 1838              	.L110:
 1839              		.loc 1 726 3
 1840 01c0 00BF     		nop
 1841              	.L99:
 727:Middlewares/Third_Party/LwIP/src/core/tcp_in.c **** }
 1842              		.loc 1 727 1
 1843 01c2 1C37     		adds	r7, r7, #28
 1844              	.LCFI13:
 1845              		.cfi_def_cfa_offset 12
 1846 01c4 BD46     		mov	sp, r7
 1847              	.LCFI14:
 1848              		.cfi_def_cfa_register 13
 1849              		@ sp needed
 1850 01c6 90BD     		pop	{r4, r7, pc}
 1851              	.L112:
 1852              		.align	2
 1853              	.L111:
 1854 01c8 00000000 		.word	flags
 1855 01cc 00000000 		.word	.LC0
 1856 01d0 F4010000 		.word	.LC14
 1857 01d4 48000000 		.word	.LC2
 1858 01d8 00000000 		.word	ackno
 1859 01dc 00000000 		.word	tcplen
 1860 01e0 00000000 		.word	seqno
 1861 01e4 00000000 		.word	tcphdr
 1862 01e8 10000000 		.word	ip_data+16
 1863 01ec 14000000 		.word	ip_data+20
 1864 01f0 00000000 		.word	ip_data
 1865 01f4 00000000 		.word	tcp_active_pcbs
 1866 01f8 00000000 		.word	tcp_active_pcbs_changed
 1867              		.cfi_endproc
 1868              	.LFE135:
 1870              		.section	.rodata
 1871 0212 0000     		.align	2
 1872              	.LC15:
 1873 0214 7463705F 		.ascii	"tcp_timewait_input: invalid pcb\000"
 1873      74696D65 
 1873      77616974 
 1873      5F696E70 
 1873      75743A20 
 1874              		.section	.text.tcp_timewait_input,"ax",%progbits
 1875              		.align	1
 1876              		.syntax unified
 1877              		.thumb
 1878              		.thumb_func
 1879              		.fpu fpv4-sp-d16
 1881              	tcp_timewait_input:
 1882              	.LFB136:
 728:Middlewares/Third_Party/LwIP/src/core/tcp_in.c **** 
 729:Middlewares/Third_Party/LwIP/src/core/tcp_in.c **** /**
 730:Middlewares/Third_Party/LwIP/src/core/tcp_in.c ****  * Called by tcp_input() when a segment arrives for a connection in
 731:Middlewares/Third_Party/LwIP/src/core/tcp_in.c ****  * TIME_WAIT.
ARM GAS  /tmp/ccWqLOXK.s 			page 49


 732:Middlewares/Third_Party/LwIP/src/core/tcp_in.c ****  *
 733:Middlewares/Third_Party/LwIP/src/core/tcp_in.c ****  * @param pcb the tcp_pcb for which a segment arrived
 734:Middlewares/Third_Party/LwIP/src/core/tcp_in.c ****  *
 735:Middlewares/Third_Party/LwIP/src/core/tcp_in.c ****  * @note the segment which arrived is saved in global variables, therefore only the pcb
 736:Middlewares/Third_Party/LwIP/src/core/tcp_in.c ****  *       involved is passed as a parameter to this function
 737:Middlewares/Third_Party/LwIP/src/core/tcp_in.c ****  */
 738:Middlewares/Third_Party/LwIP/src/core/tcp_in.c **** static void
 739:Middlewares/Third_Party/LwIP/src/core/tcp_in.c **** tcp_timewait_input(struct tcp_pcb *pcb)
 740:Middlewares/Third_Party/LwIP/src/core/tcp_in.c **** {
 1883              		.loc 1 740 1
 1884              		.cfi_startproc
 1885              		@ args = 0, pretend = 0, frame = 8
 1886              		@ frame_needed = 1, uses_anonymous_args = 0
 1887 0000 80B5     		push	{r7, lr}
 1888              	.LCFI15:
 1889              		.cfi_def_cfa_offset 8
 1890              		.cfi_offset 7, -8
 1891              		.cfi_offset 14, -4
 1892 0002 86B0     		sub	sp, sp, #24
 1893              	.LCFI16:
 1894              		.cfi_def_cfa_offset 32
 1895 0004 04AF     		add	r7, sp, #16
 1896              	.LCFI17:
 1897              		.cfi_def_cfa 7, 16
 1898 0006 7860     		str	r0, [r7, #4]
 741:Middlewares/Third_Party/LwIP/src/core/tcp_in.c ****   /* RFC 1337: in TIME_WAIT, ignore RST and ACK FINs + any 'acceptable' segments */
 742:Middlewares/Third_Party/LwIP/src/core/tcp_in.c ****   /* RFC 793 3.9 Event Processing - Segment Arrives:
 743:Middlewares/Third_Party/LwIP/src/core/tcp_in.c ****    * - first check sequence number - we skip that one in TIME_WAIT (always
 744:Middlewares/Third_Party/LwIP/src/core/tcp_in.c ****    *   acceptable since we only send ACKs)
 745:Middlewares/Third_Party/LwIP/src/core/tcp_in.c ****    * - second check the RST bit (... return) */
 746:Middlewares/Third_Party/LwIP/src/core/tcp_in.c ****   if (flags & TCP_RST) {
 1899              		.loc 1 746 13
 1900 0008 304B     		ldr	r3, .L122
 1901 000a 1B78     		ldrb	r3, [r3]	@ zero_extendqisi2
 1902 000c 03F00403 		and	r3, r3, #4
 1903              		.loc 1 746 6
 1904 0010 002B     		cmp	r3, #0
 1905 0012 54D1     		bne	.L120
 747:Middlewares/Third_Party/LwIP/src/core/tcp_in.c ****     return;
 748:Middlewares/Third_Party/LwIP/src/core/tcp_in.c ****   }
 749:Middlewares/Third_Party/LwIP/src/core/tcp_in.c **** 
 750:Middlewares/Third_Party/LwIP/src/core/tcp_in.c ****   LWIP_ASSERT("tcp_timewait_input: invalid pcb", pcb != NULL);
 1906              		.loc 1 750 3
 1907 0014 7B68     		ldr	r3, [r7, #4]
 1908 0016 002B     		cmp	r3, #0
 1909 0018 06D1     		bne	.L116
 1910              		.loc 1 750 3 is_stmt 0 discriminator 1
 1911 001a 2D4B     		ldr	r3, .L122+4
 1912 001c 40F2EE22 		movw	r2, #750
 1913 0020 2C49     		ldr	r1, .L122+8
 1914 0022 2D48     		ldr	r0, .L122+12
 1915 0024 FFF7FEFF 		bl	printf
 1916              	.L116:
 751:Middlewares/Third_Party/LwIP/src/core/tcp_in.c **** 
 752:Middlewares/Third_Party/LwIP/src/core/tcp_in.c ****   /* - fourth, check the SYN bit, */
 753:Middlewares/Third_Party/LwIP/src/core/tcp_in.c ****   if (flags & TCP_SYN) {
 1917              		.loc 1 753 13 is_stmt 1
ARM GAS  /tmp/ccWqLOXK.s 			page 50


 1918 0028 284B     		ldr	r3, .L122
 1919 002a 1B78     		ldrb	r3, [r3]	@ zero_extendqisi2
 1920 002c 03F00203 		and	r3, r3, #2
 1921              		.loc 1 753 6
 1922 0030 002B     		cmp	r3, #0
 1923 0032 2AD0     		beq	.L117
 754:Middlewares/Third_Party/LwIP/src/core/tcp_in.c ****     /* If an incoming segment is not acceptable, an acknowledgment
 755:Middlewares/Third_Party/LwIP/src/core/tcp_in.c ****        should be sent in reply */
 756:Middlewares/Third_Party/LwIP/src/core/tcp_in.c ****     if (TCP_SEQ_BETWEEN(seqno, pcb->rcv_nxt, pcb->rcv_nxt + pcb->rcv_wnd)) {
 1924              		.loc 1 756 9
 1925 0034 294B     		ldr	r3, .L122+16
 1926 0036 1A68     		ldr	r2, [r3]
 1927 0038 7B68     		ldr	r3, [r7, #4]
 1928 003a 5B6A     		ldr	r3, [r3, #36]
 1929 003c D31A     		subs	r3, r2, r3
 1930              		.loc 1 756 8
 1931 003e 002B     		cmp	r3, #0
 1932 0040 2DDB     		blt	.L118
 1933              		.loc 1 756 9 discriminator 1
 1934 0042 264B     		ldr	r3, .L122+16
 1935 0044 1A68     		ldr	r2, [r3]
 1936 0046 7B68     		ldr	r3, [r7, #4]
 1937 0048 5B6A     		ldr	r3, [r3, #36]
 1938 004a 7968     		ldr	r1, [r7, #4]
 1939 004c 098D     		ldrh	r1, [r1, #40]
 1940 004e 0B44     		add	r3, r3, r1
 1941 0050 D31A     		subs	r3, r2, r3
 1942 0052 002B     		cmp	r3, #0
 1943 0054 23DC     		bgt	.L118
 757:Middlewares/Third_Party/LwIP/src/core/tcp_in.c ****       /* If the SYN is in the window it is an error, send a reset */
 758:Middlewares/Third_Party/LwIP/src/core/tcp_in.c ****       tcp_rst(pcb, ackno, seqno + tcplen, ip_current_dest_addr(),
 1944              		.loc 1 758 7
 1945 0056 224B     		ldr	r3, .L122+20
 1946 0058 1968     		ldr	r1, [r3]
 1947 005a 224B     		ldr	r3, .L122+24
 1948 005c 1B88     		ldrh	r3, [r3]
 1949 005e 1A46     		mov	r2, r3
 1950 0060 1E4B     		ldr	r3, .L122+16
 1951 0062 1B68     		ldr	r3, [r3]
 1952 0064 D018     		adds	r0, r2, r3
 759:Middlewares/Third_Party/LwIP/src/core/tcp_in.c ****               ip_current_src_addr(), tcphdr->dest, tcphdr->src);
 1953              		.loc 1 759 44
 1954 0066 204B     		ldr	r3, .L122+28
 1955 0068 1B68     		ldr	r3, [r3]
 758:Middlewares/Third_Party/LwIP/src/core/tcp_in.c ****               ip_current_src_addr(), tcphdr->dest, tcphdr->src);
 1956              		.loc 1 758 7
 1957 006a 5B88     		ldrh	r3, [r3, #2]	@ unaligned
 1958 006c 9BB2     		uxth	r3, r3
 1959              		.loc 1 759 58
 1960 006e 1E4A     		ldr	r2, .L122+28
 1961 0070 1268     		ldr	r2, [r2]
 758:Middlewares/Third_Party/LwIP/src/core/tcp_in.c ****               ip_current_src_addr(), tcphdr->dest, tcphdr->src);
 1962              		.loc 1 758 7
 1963 0072 1288     		ldrh	r2, [r2]	@ unaligned
 1964 0074 92B2     		uxth	r2, r2
 1965 0076 0292     		str	r2, [sp, #8]
 1966 0078 0193     		str	r3, [sp, #4]
ARM GAS  /tmp/ccWqLOXK.s 			page 51


 1967 007a 1C4B     		ldr	r3, .L122+32
 1968 007c 0093     		str	r3, [sp]
 1969 007e 1C4B     		ldr	r3, .L122+36
 1970 0080 0246     		mov	r2, r0
 1971 0082 7868     		ldr	r0, [r7, #4]
 1972 0084 FFF7FEFF 		bl	tcp_rst
 760:Middlewares/Third_Party/LwIP/src/core/tcp_in.c ****       return;
 1973              		.loc 1 760 7
 1974 0088 1CE0     		b	.L113
 1975              	.L117:
 761:Middlewares/Third_Party/LwIP/src/core/tcp_in.c ****     }
 762:Middlewares/Third_Party/LwIP/src/core/tcp_in.c ****   } else if (flags & TCP_FIN) {
 1976              		.loc 1 762 20
 1977 008a 104B     		ldr	r3, .L122
 1978 008c 1B78     		ldrb	r3, [r3]	@ zero_extendqisi2
 1979 008e 03F00103 		and	r3, r3, #1
 1980              		.loc 1 762 13
 1981 0092 002B     		cmp	r3, #0
 1982 0094 03D0     		beq	.L118
 763:Middlewares/Third_Party/LwIP/src/core/tcp_in.c ****     /* - eighth, check the FIN bit: Remain in the TIME-WAIT state.
 764:Middlewares/Third_Party/LwIP/src/core/tcp_in.c ****          Restart the 2 MSL time-wait timeout.*/
 765:Middlewares/Third_Party/LwIP/src/core/tcp_in.c ****     pcb->tmr = tcp_ticks;
 1983              		.loc 1 765 14
 1984 0096 174B     		ldr	r3, .L122+40
 1985 0098 1A68     		ldr	r2, [r3]
 1986 009a 7B68     		ldr	r3, [r7, #4]
 1987 009c 1A62     		str	r2, [r3, #32]
 1988              	.L118:
 766:Middlewares/Third_Party/LwIP/src/core/tcp_in.c ****   }
 767:Middlewares/Third_Party/LwIP/src/core/tcp_in.c **** 
 768:Middlewares/Third_Party/LwIP/src/core/tcp_in.c ****   if ((tcplen > 0)) {
 1989              		.loc 1 768 15
 1990 009e 114B     		ldr	r3, .L122+24
 1991 00a0 1B88     		ldrh	r3, [r3]
 1992              		.loc 1 768 6
 1993 00a2 002B     		cmp	r3, #0
 1994 00a4 0DD0     		beq	.L121
 769:Middlewares/Third_Party/LwIP/src/core/tcp_in.c ****     /* Acknowledge data, FIN or out-of-window SYN */
 770:Middlewares/Third_Party/LwIP/src/core/tcp_in.c ****     tcp_ack_now(pcb);
 1995              		.loc 1 770 5
 1996 00a6 7B68     		ldr	r3, [r7, #4]
 1997 00a8 5B8B     		ldrh	r3, [r3, #26]
 1998 00aa 43F00203 		orr	r3, r3, #2
 1999 00ae 9AB2     		uxth	r2, r3
 2000 00b0 7B68     		ldr	r3, [r7, #4]
 2001 00b2 5A83     		strh	r2, [r3, #26]	@ movhi
 771:Middlewares/Third_Party/LwIP/src/core/tcp_in.c ****     tcp_output(pcb);
 2002              		.loc 1 771 5
 2003 00b4 7868     		ldr	r0, [r7, #4]
 2004 00b6 FFF7FEFF 		bl	tcp_output
 772:Middlewares/Third_Party/LwIP/src/core/tcp_in.c ****   }
 773:Middlewares/Third_Party/LwIP/src/core/tcp_in.c ****   return;
 2005              		.loc 1 773 3
 2006 00ba 00BF     		nop
 2007 00bc 01E0     		b	.L121
 2008              	.L120:
 747:Middlewares/Third_Party/LwIP/src/core/tcp_in.c ****   }
ARM GAS  /tmp/ccWqLOXK.s 			page 52


 2009              		.loc 1 747 5
 2010 00be 00BF     		nop
 2011 00c0 00E0     		b	.L113
 2012              	.L121:
 2013              		.loc 1 773 3
 2014 00c2 00BF     		nop
 2015              	.L113:
 774:Middlewares/Third_Party/LwIP/src/core/tcp_in.c **** }
 2016              		.loc 1 774 1
 2017 00c4 0837     		adds	r7, r7, #8
 2018              	.LCFI18:
 2019              		.cfi_def_cfa_offset 8
 2020 00c6 BD46     		mov	sp, r7
 2021              	.LCFI19:
 2022              		.cfi_def_cfa_register 13
 2023              		@ sp needed
 2024 00c8 80BD     		pop	{r7, pc}
 2025              	.L123:
 2026 00ca 00BF     		.align	2
 2027              	.L122:
 2028 00cc 00000000 		.word	flags
 2029 00d0 00000000 		.word	.LC0
 2030 00d4 14020000 		.word	.LC15
 2031 00d8 48000000 		.word	.LC2
 2032 00dc 00000000 		.word	seqno
 2033 00e0 00000000 		.word	ackno
 2034 00e4 00000000 		.word	tcplen
 2035 00e8 00000000 		.word	tcphdr
 2036 00ec 10000000 		.word	ip_data+16
 2037 00f0 14000000 		.word	ip_data+20
 2038 00f4 00000000 		.word	tcp_ticks
 2039              		.cfi_endproc
 2040              	.LFE136:
 2042              		.section	.rodata
 2043              		.align	2
 2044              	.LC16:
 2045 0234 7463705F 		.ascii	"tcp_process: invalid pcb\000"
 2045      70726F63 
 2045      6573733A 
 2045      20696E76 
 2045      616C6964 
 2046 024d 000000   		.align	2
 2047              	.LC17:
 2048 0250 7463705F 		.ascii	"tcp_input: pcb->state != CLOSED\000"
 2048      696E7075 
 2048      743A2070 
 2048      63622D3E 
 2048      73746174 
 2049              		.align	2
 2050              	.LC18:
 2051 0270 7063622D 		.ascii	"pcb->snd_queuelen > 0\000"
 2051      3E736E64 
 2051      5F717565 
 2051      75656C65 
 2051      6E203E20 
 2052 0286 0000     		.align	2
 2053              	.LC19:
ARM GAS  /tmp/ccWqLOXK.s 			page 53


 2054 0288 6E6F2073 		.ascii	"no segment to free\000"
 2054      65676D65 
 2054      6E742074 
 2054      6F206672 
 2054      656500
 2055 029b 00       		.align	2
 2056              	.LC20:
 2057 029c 7063622D 		.ascii	"pcb->listener->accept != NULL\000"
 2057      3E6C6973 
 2057      74656E65 
 2057      722D3E61 
 2057      63636570 
 2058              		.section	.text.tcp_process,"ax",%progbits
 2059              		.align	1
 2060              		.syntax unified
 2061              		.thumb
 2062              		.thumb_func
 2063              		.fpu fpv4-sp-d16
 2065              	tcp_process:
 2066              	.LFB137:
 775:Middlewares/Third_Party/LwIP/src/core/tcp_in.c **** 
 776:Middlewares/Third_Party/LwIP/src/core/tcp_in.c **** /**
 777:Middlewares/Third_Party/LwIP/src/core/tcp_in.c ****  * Implements the TCP state machine. Called by tcp_input. In some
 778:Middlewares/Third_Party/LwIP/src/core/tcp_in.c ****  * states tcp_receive() is called to receive data. The tcp_seg
 779:Middlewares/Third_Party/LwIP/src/core/tcp_in.c ****  * argument will be freed by the caller (tcp_input()) unless the
 780:Middlewares/Third_Party/LwIP/src/core/tcp_in.c ****  * recv_data pointer in the pcb is set.
 781:Middlewares/Third_Party/LwIP/src/core/tcp_in.c ****  *
 782:Middlewares/Third_Party/LwIP/src/core/tcp_in.c ****  * @param pcb the tcp_pcb for which a segment arrived
 783:Middlewares/Third_Party/LwIP/src/core/tcp_in.c ****  *
 784:Middlewares/Third_Party/LwIP/src/core/tcp_in.c ****  * @note the segment which arrived is saved in global variables, therefore only the pcb
 785:Middlewares/Third_Party/LwIP/src/core/tcp_in.c ****  *       involved is passed as a parameter to this function
 786:Middlewares/Third_Party/LwIP/src/core/tcp_in.c ****  */
 787:Middlewares/Third_Party/LwIP/src/core/tcp_in.c **** static err_t
 788:Middlewares/Third_Party/LwIP/src/core/tcp_in.c **** tcp_process(struct tcp_pcb *pcb)
 789:Middlewares/Third_Party/LwIP/src/core/tcp_in.c **** {
 2067              		.loc 1 789 1
 2068              		.cfi_startproc
 2069              		@ args = 0, pretend = 0, frame = 32
 2070              		@ frame_needed = 1, uses_anonymous_args = 0
 2071 0000 90B5     		push	{r4, r7, lr}
 2072              	.LCFI20:
 2073              		.cfi_def_cfa_offset 12
 2074              		.cfi_offset 4, -12
 2075              		.cfi_offset 7, -8
 2076              		.cfi_offset 14, -4
 2077 0002 8DB0     		sub	sp, sp, #52
 2078              	.LCFI21:
 2079              		.cfi_def_cfa_offset 64
 2080 0004 04AF     		add	r7, sp, #16
 2081              	.LCFI22:
 2082              		.cfi_def_cfa 7, 48
 2083 0006 7860     		str	r0, [r7, #4]
 790:Middlewares/Third_Party/LwIP/src/core/tcp_in.c ****   struct tcp_seg *rseg;
 791:Middlewares/Third_Party/LwIP/src/core/tcp_in.c ****   u8_t acceptable = 0;
 2084              		.loc 1 791 8
 2085 0008 0023     		movs	r3, #0
 2086 000a FB76     		strb	r3, [r7, #27]
ARM GAS  /tmp/ccWqLOXK.s 			page 54


 792:Middlewares/Third_Party/LwIP/src/core/tcp_in.c ****   err_t err;
 793:Middlewares/Third_Party/LwIP/src/core/tcp_in.c **** 
 794:Middlewares/Third_Party/LwIP/src/core/tcp_in.c ****   err = ERR_OK;
 2087              		.loc 1 794 7
 2088 000c 0023     		movs	r3, #0
 2089 000e BB76     		strb	r3, [r7, #26]
 795:Middlewares/Third_Party/LwIP/src/core/tcp_in.c **** 
 796:Middlewares/Third_Party/LwIP/src/core/tcp_in.c ****   LWIP_ASSERT("tcp_process: invalid pcb", pcb != NULL);
 2090              		.loc 1 796 3
 2091 0010 7B68     		ldr	r3, [r7, #4]
 2092 0012 002B     		cmp	r3, #0
 2093 0014 06D1     		bne	.L125
 2094              		.loc 1 796 3 is_stmt 0 discriminator 1
 2095 0016 A54B     		ldr	r3, .L208
 2096 0018 4FF44772 		mov	r2, #796
 2097 001c A449     		ldr	r1, .L208+4
 2098 001e A548     		ldr	r0, .L208+8
 2099 0020 FFF7FEFF 		bl	printf
 2100              	.L125:
 797:Middlewares/Third_Party/LwIP/src/core/tcp_in.c **** 
 798:Middlewares/Third_Party/LwIP/src/core/tcp_in.c ****   /* Process incoming RST segments. */
 799:Middlewares/Third_Party/LwIP/src/core/tcp_in.c ****   if (flags & TCP_RST) {
 2101              		.loc 1 799 13 is_stmt 1
 2102 0024 A44B     		ldr	r3, .L208+12
 2103 0026 1B78     		ldrb	r3, [r3]	@ zero_extendqisi2
 2104 0028 03F00403 		and	r3, r3, #4
 2105              		.loc 1 799 6
 2106 002c 002B     		cmp	r3, #0
 2107 002e 4ED0     		beq	.L126
 800:Middlewares/Third_Party/LwIP/src/core/tcp_in.c ****     /* First, determine if the reset is acceptable. */
 801:Middlewares/Third_Party/LwIP/src/core/tcp_in.c ****     if (pcb->state == SYN_SENT) {
 2108              		.loc 1 801 12
 2109 0030 7B68     		ldr	r3, [r7, #4]
 2110 0032 1B7D     		ldrb	r3, [r3, #20]	@ zero_extendqisi2
 2111              		.loc 1 801 8
 2112 0034 022B     		cmp	r3, #2
 2113 0036 08D1     		bne	.L127
 802:Middlewares/Third_Party/LwIP/src/core/tcp_in.c ****       /* "In the SYN-SENT state (a RST received in response to an initial SYN),
 803:Middlewares/Third_Party/LwIP/src/core/tcp_in.c ****           the RST is acceptable if the ACK field acknowledges the SYN." */
 804:Middlewares/Third_Party/LwIP/src/core/tcp_in.c ****       if (ackno == pcb->snd_nxt) {
 2114              		.loc 1 804 23
 2115 0038 7B68     		ldr	r3, [r7, #4]
 2116 003a 1A6D     		ldr	r2, [r3, #80]
 2117              		.loc 1 804 17
 2118 003c 9F4B     		ldr	r3, .L208+16
 2119 003e 1B68     		ldr	r3, [r3]
 2120              		.loc 1 804 10
 2121 0040 9A42     		cmp	r2, r3
 2122 0042 23D1     		bne	.L129
 805:Middlewares/Third_Party/LwIP/src/core/tcp_in.c ****         acceptable = 1;
 2123              		.loc 1 805 20
 2124 0044 0123     		movs	r3, #1
 2125 0046 FB76     		strb	r3, [r7, #27]
 2126 0048 20E0     		b	.L129
 2127              	.L127:
 806:Middlewares/Third_Party/LwIP/src/core/tcp_in.c ****       }
 807:Middlewares/Third_Party/LwIP/src/core/tcp_in.c ****     } else {
ARM GAS  /tmp/ccWqLOXK.s 			page 55


 808:Middlewares/Third_Party/LwIP/src/core/tcp_in.c ****       /* "In all states except SYN-SENT, all reset (RST) segments are validated
 809:Middlewares/Third_Party/LwIP/src/core/tcp_in.c ****           by checking their SEQ-fields." */
 810:Middlewares/Third_Party/LwIP/src/core/tcp_in.c ****       if (seqno == pcb->rcv_nxt) {
 2128              		.loc 1 810 23
 2129 004a 7B68     		ldr	r3, [r7, #4]
 2130 004c 5A6A     		ldr	r2, [r3, #36]
 2131              		.loc 1 810 17
 2132 004e 9C4B     		ldr	r3, .L208+20
 2133 0050 1B68     		ldr	r3, [r3]
 2134              		.loc 1 810 10
 2135 0052 9A42     		cmp	r2, r3
 2136 0054 02D1     		bne	.L130
 811:Middlewares/Third_Party/LwIP/src/core/tcp_in.c ****         acceptable = 1;
 2137              		.loc 1 811 20
 2138 0056 0123     		movs	r3, #1
 2139 0058 FB76     		strb	r3, [r7, #27]
 2140 005a 17E0     		b	.L129
 2141              	.L130:
 812:Middlewares/Third_Party/LwIP/src/core/tcp_in.c ****       } else  if (TCP_SEQ_BETWEEN(seqno, pcb->rcv_nxt,
 2142              		.loc 1 812 19
 2143 005c 984B     		ldr	r3, .L208+20
 2144 005e 1A68     		ldr	r2, [r3]
 2145 0060 7B68     		ldr	r3, [r7, #4]
 2146 0062 5B6A     		ldr	r3, [r3, #36]
 2147 0064 D31A     		subs	r3, r2, r3
 2148              		.loc 1 812 18
 2149 0066 002B     		cmp	r3, #0
 2150 0068 10DB     		blt	.L129
 2151              		.loc 1 812 19 discriminator 1
 2152 006a 954B     		ldr	r3, .L208+20
 2153 006c 1A68     		ldr	r2, [r3]
 2154 006e 7B68     		ldr	r3, [r7, #4]
 2155 0070 5B6A     		ldr	r3, [r3, #36]
 2156 0072 7968     		ldr	r1, [r7, #4]
 2157 0074 098D     		ldrh	r1, [r1, #40]
 2158 0076 0B44     		add	r3, r3, r1
 2159 0078 D31A     		subs	r3, r2, r3
 2160 007a 002B     		cmp	r3, #0
 2161 007c 06DC     		bgt	.L129
 813:Middlewares/Third_Party/LwIP/src/core/tcp_in.c ****                                   pcb->rcv_nxt + pcb->rcv_wnd)) {
 814:Middlewares/Third_Party/LwIP/src/core/tcp_in.c ****         /* If the sequence number is inside the window, we send a challenge ACK
 815:Middlewares/Third_Party/LwIP/src/core/tcp_in.c ****            and wait for a re-send with matching sequence number.
 816:Middlewares/Third_Party/LwIP/src/core/tcp_in.c ****            This follows RFC 5961 section 3.2 and addresses CVE-2004-0230
 817:Middlewares/Third_Party/LwIP/src/core/tcp_in.c ****            (RST spoofing attack), which is present in RFC 793 RST handling. */
 818:Middlewares/Third_Party/LwIP/src/core/tcp_in.c ****         tcp_ack_now(pcb);
 2162              		.loc 1 818 9
 2163 007e 7B68     		ldr	r3, [r7, #4]
 2164 0080 5B8B     		ldrh	r3, [r3, #26]
 2165 0082 43F00203 		orr	r3, r3, #2
 2166 0086 9AB2     		uxth	r2, r3
 2167 0088 7B68     		ldr	r3, [r7, #4]
 2168 008a 5A83     		strh	r2, [r3, #26]	@ movhi
 2169              	.L129:
 819:Middlewares/Third_Party/LwIP/src/core/tcp_in.c ****       }
 820:Middlewares/Third_Party/LwIP/src/core/tcp_in.c ****     }
 821:Middlewares/Third_Party/LwIP/src/core/tcp_in.c **** 
 822:Middlewares/Third_Party/LwIP/src/core/tcp_in.c ****     if (acceptable) {
ARM GAS  /tmp/ccWqLOXK.s 			page 56


 2170              		.loc 1 822 8
 2171 008c FB7E     		ldrb	r3, [r7, #27]	@ zero_extendqisi2
 2172 008e 002B     		cmp	r3, #0
 2173 0090 1BD0     		beq	.L131
 823:Middlewares/Third_Party/LwIP/src/core/tcp_in.c ****       LWIP_DEBUGF(TCP_INPUT_DEBUG, ("tcp_process: Connection RESET\n"));
 824:Middlewares/Third_Party/LwIP/src/core/tcp_in.c ****       LWIP_ASSERT("tcp_input: pcb->state != CLOSED", pcb->state != CLOSED);
 2174              		.loc 1 824 7
 2175 0092 7B68     		ldr	r3, [r7, #4]
 2176 0094 1B7D     		ldrb	r3, [r3, #20]	@ zero_extendqisi2
 2177 0096 002B     		cmp	r3, #0
 2178 0098 06D1     		bne	.L132
 2179              		.loc 1 824 7 is_stmt 0 discriminator 1
 2180 009a 844B     		ldr	r3, .L208
 2181 009c 4FF44E72 		mov	r2, #824
 2182 00a0 8849     		ldr	r1, .L208+24
 2183 00a2 8448     		ldr	r0, .L208+8
 2184 00a4 FFF7FEFF 		bl	printf
 2185              	.L132:
 825:Middlewares/Third_Party/LwIP/src/core/tcp_in.c ****       recv_flags |= TF_RESET;
 2186              		.loc 1 825 18 is_stmt 1
 2187 00a8 874B     		ldr	r3, .L208+28
 2188 00aa 1B78     		ldrb	r3, [r3]	@ zero_extendqisi2
 2189 00ac 43F00803 		orr	r3, r3, #8
 2190 00b0 DAB2     		uxtb	r2, r3
 2191 00b2 854B     		ldr	r3, .L208+28
 2192 00b4 1A70     		strb	r2, [r3]
 826:Middlewares/Third_Party/LwIP/src/core/tcp_in.c ****       tcp_clear_flags(pcb, TF_ACK_DELAY);
 2193              		.loc 1 826 7
 2194 00b6 7B68     		ldr	r3, [r7, #4]
 2195 00b8 5B8B     		ldrh	r3, [r3, #26]
 2196 00ba 23F00103 		bic	r3, r3, #1
 2197 00be 9AB2     		uxth	r2, r3
 2198 00c0 7B68     		ldr	r3, [r7, #4]
 2199 00c2 5A83     		strh	r2, [r3, #26]	@ movhi
 827:Middlewares/Third_Party/LwIP/src/core/tcp_in.c ****       return ERR_RST;
 2200              		.loc 1 827 14
 2201 00c4 6FF00D03 		mvn	r3, #13
 2202 00c8 7AE3     		b	.L133
 2203              	.L131:
 828:Middlewares/Third_Party/LwIP/src/core/tcp_in.c ****     } else {
 829:Middlewares/Third_Party/LwIP/src/core/tcp_in.c ****       LWIP_DEBUGF(TCP_INPUT_DEBUG, ("tcp_process: unacceptable reset seqno %"U32_F" rcv_nxt %"U32_F
 830:Middlewares/Third_Party/LwIP/src/core/tcp_in.c ****                                     seqno, pcb->rcv_nxt));
 831:Middlewares/Third_Party/LwIP/src/core/tcp_in.c ****       LWIP_DEBUGF(TCP_DEBUG, ("tcp_process: unacceptable reset seqno %"U32_F" rcv_nxt %"U32_F"\n",
 832:Middlewares/Third_Party/LwIP/src/core/tcp_in.c ****                               seqno, pcb->rcv_nxt));
 833:Middlewares/Third_Party/LwIP/src/core/tcp_in.c ****       return ERR_OK;
 2204              		.loc 1 833 14
 2205 00ca 0023     		movs	r3, #0
 2206 00cc 78E3     		b	.L133
 2207              	.L126:
 834:Middlewares/Third_Party/LwIP/src/core/tcp_in.c ****     }
 835:Middlewares/Third_Party/LwIP/src/core/tcp_in.c ****   }
 836:Middlewares/Third_Party/LwIP/src/core/tcp_in.c **** 
 837:Middlewares/Third_Party/LwIP/src/core/tcp_in.c ****   if ((flags & TCP_SYN) && (pcb->state != SYN_SENT && pcb->state != SYN_RCVD)) {
 2208              		.loc 1 837 14
 2209 00ce 7A4B     		ldr	r3, .L208+12
 2210 00d0 1B78     		ldrb	r3, [r3]	@ zero_extendqisi2
 2211 00d2 03F00203 		and	r3, r3, #2
ARM GAS  /tmp/ccWqLOXK.s 			page 57


 2212              		.loc 1 837 6
 2213 00d6 002B     		cmp	r3, #0
 2214 00d8 10D0     		beq	.L134
 2215              		.loc 1 837 32 discriminator 1
 2216 00da 7B68     		ldr	r3, [r7, #4]
 2217 00dc 1B7D     		ldrb	r3, [r3, #20]	@ zero_extendqisi2
 2218              		.loc 1 837 25 discriminator 1
 2219 00de 022B     		cmp	r3, #2
 2220 00e0 0CD0     		beq	.L134
 2221              		.loc 1 837 58 discriminator 2
 2222 00e2 7B68     		ldr	r3, [r7, #4]
 2223 00e4 1B7D     		ldrb	r3, [r3, #20]	@ zero_extendqisi2
 2224              		.loc 1 837 52 discriminator 2
 2225 00e6 032B     		cmp	r3, #3
 2226 00e8 08D0     		beq	.L134
 838:Middlewares/Third_Party/LwIP/src/core/tcp_in.c ****     /* Cope with new connection attempt after remote end crashed */
 839:Middlewares/Third_Party/LwIP/src/core/tcp_in.c ****     tcp_ack_now(pcb);
 2227              		.loc 1 839 5
 2228 00ea 7B68     		ldr	r3, [r7, #4]
 2229 00ec 5B8B     		ldrh	r3, [r3, #26]
 2230 00ee 43F00203 		orr	r3, r3, #2
 2231 00f2 9AB2     		uxth	r2, r3
 2232 00f4 7B68     		ldr	r3, [r7, #4]
 2233 00f6 5A83     		strh	r2, [r3, #26]	@ movhi
 840:Middlewares/Third_Party/LwIP/src/core/tcp_in.c ****     return ERR_OK;
 2234              		.loc 1 840 12
 2235 00f8 0023     		movs	r3, #0
 2236 00fa 61E3     		b	.L133
 2237              	.L134:
 841:Middlewares/Third_Party/LwIP/src/core/tcp_in.c ****   }
 842:Middlewares/Third_Party/LwIP/src/core/tcp_in.c **** 
 843:Middlewares/Third_Party/LwIP/src/core/tcp_in.c ****   if ((pcb->flags & TF_RXCLOSED) == 0) {
 2238              		.loc 1 843 11
 2239 00fc 7B68     		ldr	r3, [r7, #4]
 2240 00fe 5B8B     		ldrh	r3, [r3, #26]
 2241              		.loc 1 843 19
 2242 0100 03F01003 		and	r3, r3, #16
 2243              		.loc 1 843 6
 2244 0104 002B     		cmp	r3, #0
 2245 0106 03D1     		bne	.L135
 844:Middlewares/Third_Party/LwIP/src/core/tcp_in.c ****     /* Update the PCB (in)activity timer unless rx is closed (see tcp_shutdown) */
 845:Middlewares/Third_Party/LwIP/src/core/tcp_in.c ****     pcb->tmr = tcp_ticks;
 2246              		.loc 1 845 14
 2247 0108 704B     		ldr	r3, .L208+32
 2248 010a 1A68     		ldr	r2, [r3]
 2249 010c 7B68     		ldr	r3, [r7, #4]
 2250 010e 1A62     		str	r2, [r3, #32]
 2251              	.L135:
 846:Middlewares/Third_Party/LwIP/src/core/tcp_in.c ****   }
 847:Middlewares/Third_Party/LwIP/src/core/tcp_in.c ****   pcb->keep_cnt_sent = 0;
 2252              		.loc 1 847 22
 2253 0110 7B68     		ldr	r3, [r7, #4]
 2254 0112 0022     		movs	r2, #0
 2255 0114 83F89B20 		strb	r2, [r3, #155]
 848:Middlewares/Third_Party/LwIP/src/core/tcp_in.c ****   pcb->persist_probe = 0;
 2256              		.loc 1 848 22
 2257 0118 7B68     		ldr	r3, [r7, #4]
ARM GAS  /tmp/ccWqLOXK.s 			page 58


 2258 011a 0022     		movs	r2, #0
 2259 011c 83F89A20 		strb	r2, [r3, #154]
 849:Middlewares/Third_Party/LwIP/src/core/tcp_in.c **** 
 850:Middlewares/Third_Party/LwIP/src/core/tcp_in.c ****   tcp_parseopt(pcb);
 2260              		.loc 1 850 3
 2261 0120 7868     		ldr	r0, [r7, #4]
 2262 0122 FFF7FEFF 		bl	tcp_parseopt
 851:Middlewares/Third_Party/LwIP/src/core/tcp_in.c **** 
 852:Middlewares/Third_Party/LwIP/src/core/tcp_in.c ****   /* Do different things depending on the TCP state. */
 853:Middlewares/Third_Party/LwIP/src/core/tcp_in.c ****   switch (pcb->state) {
 2263              		.loc 1 853 14
 2264 0126 7B68     		ldr	r3, [r7, #4]
 2265 0128 1B7D     		ldrb	r3, [r3, #20]	@ zero_extendqisi2
 2266              		.loc 1 853 3
 2267 012a 023B     		subs	r3, r3, #2
 2268 012c 072B     		cmp	r3, #7
 2269 012e 00F23783 		bhi	.L200
 2270 0132 01A2     		adr	r2, .L138
 2271 0134 52F823F0 		ldr	pc, [r2, r3, lsl #2]
 2272              		.p2align 2
 2273              	.L138:
 2274 0138 59010000 		.word	.L144+1
 2275 013c 89030000 		.word	.L143+1
 2276 0140 01050000 		.word	.L140+1
 2277 0144 2B050000 		.word	.L142+1
 2278 0148 4F060000 		.word	.L141+1
 2279 014c 01050000 		.word	.L140+1
 2280 0150 DB060000 		.word	.L139+1
 2281 0154 6B070000 		.word	.L137+1
 2282              		.p2align 1
 2283              	.L144:
 854:Middlewares/Third_Party/LwIP/src/core/tcp_in.c ****     case SYN_SENT:
 855:Middlewares/Third_Party/LwIP/src/core/tcp_in.c ****       LWIP_DEBUGF(TCP_INPUT_DEBUG, ("SYN-SENT: ackno %"U32_F" pcb->snd_nxt %"U32_F" unacked %"U32_F
 856:Middlewares/Third_Party/LwIP/src/core/tcp_in.c ****                                     pcb->snd_nxt, lwip_ntohl(pcb->unacked->tcphdr->seqno)));
 857:Middlewares/Third_Party/LwIP/src/core/tcp_in.c ****       /* received SYN ACK with expected sequence number? */
 858:Middlewares/Third_Party/LwIP/src/core/tcp_in.c ****       if ((flags & TCP_ACK) && (flags & TCP_SYN)
 2284              		.loc 1 858 18
 2285 0158 574B     		ldr	r3, .L208+12
 2286 015a 1B78     		ldrb	r3, [r3]	@ zero_extendqisi2
 2287 015c 03F01003 		and	r3, r3, #16
 2288              		.loc 1 858 10
 2289 0160 002B     		cmp	r3, #0
 2290 0162 00F0E480 		beq	.L145
 2291              		.loc 1 858 39 discriminator 1
 2292 0166 544B     		ldr	r3, .L208+12
 2293 0168 1B78     		ldrb	r3, [r3]	@ zero_extendqisi2
 2294 016a 03F00203 		and	r3, r3, #2
 2295              		.loc 1 858 29 discriminator 1
 2296 016e 002B     		cmp	r3, #0
 2297 0170 00F0DD80 		beq	.L145
 859:Middlewares/Third_Party/LwIP/src/core/tcp_in.c ****           && (ackno == pcb->lastack + 1)) {
 2298              		.loc 1 859 27
 2299 0174 7B68     		ldr	r3, [r7, #4]
 2300 0176 5B6C     		ldr	r3, [r3, #68]
 2301              		.loc 1 859 37
 2302 0178 5A1C     		adds	r2, r3, #1
 2303              		.loc 1 859 21
ARM GAS  /tmp/ccWqLOXK.s 			page 59


 2304 017a 504B     		ldr	r3, .L208+16
 2305 017c 1B68     		ldr	r3, [r3]
 2306              		.loc 1 859 11
 2307 017e 9A42     		cmp	r2, r3
 2308 0180 40F0D580 		bne	.L145
 860:Middlewares/Third_Party/LwIP/src/core/tcp_in.c ****         pcb->rcv_nxt = seqno + 1;
 2309              		.loc 1 860 30
 2310 0184 4E4B     		ldr	r3, .L208+20
 2311 0186 1B68     		ldr	r3, [r3]
 2312 0188 5A1C     		adds	r2, r3, #1
 2313              		.loc 1 860 22
 2314 018a 7B68     		ldr	r3, [r7, #4]
 2315 018c 5A62     		str	r2, [r3, #36]
 861:Middlewares/Third_Party/LwIP/src/core/tcp_in.c ****         pcb->rcv_ann_right_edge = pcb->rcv_nxt;
 2316              		.loc 1 861 38
 2317 018e 7B68     		ldr	r3, [r7, #4]
 2318 0190 5A6A     		ldr	r2, [r3, #36]
 2319              		.loc 1 861 33
 2320 0192 7B68     		ldr	r3, [r7, #4]
 2321 0194 DA62     		str	r2, [r3, #44]
 862:Middlewares/Third_Party/LwIP/src/core/tcp_in.c ****         pcb->lastack = ackno;
 2322              		.loc 1 862 22
 2323 0196 494B     		ldr	r3, .L208+16
 2324 0198 1A68     		ldr	r2, [r3]
 2325 019a 7B68     		ldr	r3, [r7, #4]
 2326 019c 5A64     		str	r2, [r3, #68]
 863:Middlewares/Third_Party/LwIP/src/core/tcp_in.c ****         pcb->snd_wnd = tcphdr->wnd;
 2327              		.loc 1 863 30
 2328 019e 4C4B     		ldr	r3, .L208+36
 2329 01a0 1B68     		ldr	r3, [r3]
 2330 01a2 DB89     		ldrh	r3, [r3, #14]	@ unaligned
 2331 01a4 9AB2     		uxth	r2, r3
 2332              		.loc 1 863 22
 2333 01a6 7B68     		ldr	r3, [r7, #4]
 2334 01a8 A3F86020 		strh	r2, [r3, #96]	@ movhi
 864:Middlewares/Third_Party/LwIP/src/core/tcp_in.c ****         pcb->snd_wnd_max = pcb->snd_wnd;
 2335              		.loc 1 864 31
 2336 01ac 7B68     		ldr	r3, [r7, #4]
 2337 01ae B3F86020 		ldrh	r2, [r3, #96]
 2338              		.loc 1 864 26
 2339 01b2 7B68     		ldr	r3, [r7, #4]
 2340 01b4 A3F86220 		strh	r2, [r3, #98]	@ movhi
 865:Middlewares/Third_Party/LwIP/src/core/tcp_in.c ****         pcb->snd_wl1 = seqno - 1; /* initialise to seqno - 1 to force window update */
 2341              		.loc 1 865 30
 2342 01b8 414B     		ldr	r3, .L208+20
 2343 01ba 1B68     		ldr	r3, [r3]
 2344 01bc 5A1E     		subs	r2, r3, #1
 2345              		.loc 1 865 22
 2346 01be 7B68     		ldr	r3, [r7, #4]
 2347 01c0 5A65     		str	r2, [r3, #84]
 866:Middlewares/Third_Party/LwIP/src/core/tcp_in.c ****         pcb->state = ESTABLISHED;
 2348              		.loc 1 866 20
 2349 01c2 7B68     		ldr	r3, [r7, #4]
 2350 01c4 0422     		movs	r2, #4
 2351 01c6 1A75     		strb	r2, [r3, #20]
 867:Middlewares/Third_Party/LwIP/src/core/tcp_in.c **** 
 868:Middlewares/Third_Party/LwIP/src/core/tcp_in.c **** #if TCP_CALCULATE_EFF_SEND_MSS
ARM GAS  /tmp/ccWqLOXK.s 			page 60


 869:Middlewares/Third_Party/LwIP/src/core/tcp_in.c ****         pcb->mss = tcp_eff_send_mss(pcb->mss, &pcb->local_ip, &pcb->remote_ip);
 2352              		.loc 1 869 20
 2353 01c8 7B68     		ldr	r3, [r7, #4]
 2354 01ca 5C8E     		ldrh	r4, [r3, #50]
 2355 01cc 7B68     		ldr	r3, [r7, #4]
 2356 01ce 0433     		adds	r3, r3, #4
 2357 01d0 1846     		mov	r0, r3
 2358 01d2 FFF7FEFF 		bl	ip4_route
 2359 01d6 0146     		mov	r1, r0
 2360 01d8 7B68     		ldr	r3, [r7, #4]
 2361 01da 0433     		adds	r3, r3, #4
 2362 01dc 1A46     		mov	r2, r3
 2363 01de 2046     		mov	r0, r4
 2364 01e0 FFF7FEFF 		bl	tcp_eff_send_mss_netif
 2365 01e4 0346     		mov	r3, r0
 2366 01e6 1A46     		mov	r2, r3
 2367              		.loc 1 869 18
 2368 01e8 7B68     		ldr	r3, [r7, #4]
 2369 01ea 5A86     		strh	r2, [r3, #50]	@ movhi
 870:Middlewares/Third_Party/LwIP/src/core/tcp_in.c **** #endif /* TCP_CALCULATE_EFF_SEND_MSS */
 871:Middlewares/Third_Party/LwIP/src/core/tcp_in.c **** 
 872:Middlewares/Third_Party/LwIP/src/core/tcp_in.c ****         pcb->cwnd = LWIP_TCP_CALC_INITIAL_CWND(pcb->mss);
 2370              		.loc 1 872 21
 2371 01ec 7B68     		ldr	r3, [r7, #4]
 2372 01ee 5B8E     		ldrh	r3, [r3, #50]
 2373 01f0 9A00     		lsls	r2, r3, #2
 2374 01f2 7B68     		ldr	r3, [r7, #4]
 2375 01f4 5B8E     		ldrh	r3, [r3, #50]
 2376 01f6 5B00     		lsls	r3, r3, #1
 2377 01f8 41F21C11 		movw	r1, #4380
 2378 01fc 8B42     		cmp	r3, r1
 2379 01fe 38BF     		it	cc
 2380 0200 0B46     		movcc	r3, r1
 2381 0202 9A42     		cmp	r2, r3
 2382 0204 04D2     		bcs	.L146
 2383              		.loc 1 872 21 is_stmt 0 discriminator 1
 2384 0206 7B68     		ldr	r3, [r7, #4]
 2385 0208 5B8E     		ldrh	r3, [r3, #50]
 2386 020a 9B00     		lsls	r3, r3, #2
 2387 020c 9BB2     		uxth	r3, r3
 2388 020e 0DE0     		b	.L147
 2389              	.L146:
 2390              		.loc 1 872 21 discriminator 2
 2391 0210 7B68     		ldr	r3, [r7, #4]
 2392 0212 5B8E     		ldrh	r3, [r3, #50]
 2393 0214 5B00     		lsls	r3, r3, #1
 2394 0216 41F21C12 		movw	r2, #4380
 2395 021a 9342     		cmp	r3, r2
 2396 021c 04D9     		bls	.L148
 2397              		.loc 1 872 21 discriminator 4
 2398 021e 7B68     		ldr	r3, [r7, #4]
 2399 0220 5B8E     		ldrh	r3, [r3, #50]
 2400 0222 5B00     		lsls	r3, r3, #1
 2401 0224 9BB2     		uxth	r3, r3
 2402 0226 01E0     		b	.L147
 2403              	.L148:
 2404              		.loc 1 872 21 discriminator 5
ARM GAS  /tmp/ccWqLOXK.s 			page 61


 2405 0228 41F21C13 		movw	r3, #4380
 2406              	.L147:
 2407              		.loc 1 872 19 is_stmt 1 discriminator 8
 2408 022c 7A68     		ldr	r2, [r7, #4]
 2409 022e A2F84830 		strh	r3, [r2, #72]	@ movhi
 873:Middlewares/Third_Party/LwIP/src/core/tcp_in.c ****         LWIP_DEBUGF(TCP_CWND_DEBUG, ("tcp_process (SENT): cwnd %"TCPWNDSIZE_F
 874:Middlewares/Third_Party/LwIP/src/core/tcp_in.c ****                                      " ssthresh %"TCPWNDSIZE_F"\n",
 875:Middlewares/Third_Party/LwIP/src/core/tcp_in.c ****                                      pcb->cwnd, pcb->ssthresh));
 876:Middlewares/Third_Party/LwIP/src/core/tcp_in.c ****         LWIP_ASSERT("pcb->snd_queuelen > 0", (pcb->snd_queuelen > 0));
 2410              		.loc 1 876 9 discriminator 8
 2411 0232 7B68     		ldr	r3, [r7, #4]
 2412 0234 B3F86630 		ldrh	r3, [r3, #102]
 2413 0238 002B     		cmp	r3, #0
 2414 023a 06D1     		bne	.L150
 2415              		.loc 1 876 9 is_stmt 0 discriminator 1
 2416 023c 1B4B     		ldr	r3, .L208
 2417 023e 4FF45B72 		mov	r2, #876
 2418 0242 2449     		ldr	r1, .L208+40
 2419 0244 1B48     		ldr	r0, .L208+8
 2420 0246 FFF7FEFF 		bl	printf
 2421              	.L150:
 877:Middlewares/Third_Party/LwIP/src/core/tcp_in.c ****         --pcb->snd_queuelen;
 2422              		.loc 1 877 14 is_stmt 1
 2423 024a 7B68     		ldr	r3, [r7, #4]
 2424 024c B3F86630 		ldrh	r3, [r3, #102]
 2425              		.loc 1 877 9
 2426 0250 013B     		subs	r3, r3, #1
 2427 0252 9AB2     		uxth	r2, r3
 2428 0254 7B68     		ldr	r3, [r7, #4]
 2429 0256 A3F86620 		strh	r2, [r3, #102]	@ movhi
 878:Middlewares/Third_Party/LwIP/src/core/tcp_in.c ****         LWIP_DEBUGF(TCP_QLEN_DEBUG, ("tcp_process: SYN-SENT --queuelen %"TCPWNDSIZE_F"\n", (tcpwnd_
 879:Middlewares/Third_Party/LwIP/src/core/tcp_in.c ****         rseg = pcb->unacked;
 2430              		.loc 1 879 14
 2431 025a 7B68     		ldr	r3, [r7, #4]
 2432 025c 1B6F     		ldr	r3, [r3, #112]
 2433 025e FB61     		str	r3, [r7, #28]
 880:Middlewares/Third_Party/LwIP/src/core/tcp_in.c ****         if (rseg == NULL) {
 2434              		.loc 1 880 12
 2435 0260 FB69     		ldr	r3, [r7, #28]
 2436 0262 002B     		cmp	r3, #0
 2437 0264 11D1     		bne	.L151
 881:Middlewares/Third_Party/LwIP/src/core/tcp_in.c ****           /* might happen if tcp_output fails in tcp_rexmit_rto()
 882:Middlewares/Third_Party/LwIP/src/core/tcp_in.c ****              in which case the segment is on the unsent list */
 883:Middlewares/Third_Party/LwIP/src/core/tcp_in.c ****           rseg = pcb->unsent;
 2438              		.loc 1 883 16
 2439 0266 7B68     		ldr	r3, [r7, #4]
 2440 0268 DB6E     		ldr	r3, [r3, #108]
 2441 026a FB61     		str	r3, [r7, #28]
 884:Middlewares/Third_Party/LwIP/src/core/tcp_in.c ****           LWIP_ASSERT("no segment to free", rseg != NULL);
 2442              		.loc 1 884 11
 2443 026c FB69     		ldr	r3, [r7, #28]
 2444 026e 002B     		cmp	r3, #0
 2445 0270 06D1     		bne	.L152
 2446              		.loc 1 884 11 is_stmt 0 discriminator 1
 2447 0272 0E4B     		ldr	r3, .L208
 2448 0274 4FF45D72 		mov	r2, #884
 2449 0278 1749     		ldr	r1, .L208+44
ARM GAS  /tmp/ccWqLOXK.s 			page 62


 2450 027a 0E48     		ldr	r0, .L208+8
 2451 027c FFF7FEFF 		bl	printf
 2452              	.L152:
 885:Middlewares/Third_Party/LwIP/src/core/tcp_in.c ****           pcb->unsent = rseg->next;
 2453              		.loc 1 885 29 is_stmt 1
 2454 0280 FB69     		ldr	r3, [r7, #28]
 2455 0282 1A68     		ldr	r2, [r3]
 2456              		.loc 1 885 23
 2457 0284 7B68     		ldr	r3, [r7, #4]
 2458 0286 DA66     		str	r2, [r3, #108]
 2459 0288 03E0     		b	.L153
 2460              	.L151:
 886:Middlewares/Third_Party/LwIP/src/core/tcp_in.c ****         } else {
 887:Middlewares/Third_Party/LwIP/src/core/tcp_in.c ****           pcb->unacked = rseg->next;
 2461              		.loc 1 887 30
 2462 028a FB69     		ldr	r3, [r7, #28]
 2463 028c 1A68     		ldr	r2, [r3]
 2464              		.loc 1 887 24
 2465 028e 7B68     		ldr	r3, [r7, #4]
 2466 0290 1A67     		str	r2, [r3, #112]
 2467              	.L153:
 888:Middlewares/Third_Party/LwIP/src/core/tcp_in.c ****         }
 889:Middlewares/Third_Party/LwIP/src/core/tcp_in.c ****         tcp_seg_free(rseg);
 2468              		.loc 1 889 9
 2469 0292 F869     		ldr	r0, [r7, #28]
 2470 0294 FFF7FEFF 		bl	tcp_seg_free
 890:Middlewares/Third_Party/LwIP/src/core/tcp_in.c **** 
 891:Middlewares/Third_Party/LwIP/src/core/tcp_in.c ****         /* If there's nothing left to acknowledge, stop the retransmit
 892:Middlewares/Third_Party/LwIP/src/core/tcp_in.c ****            timer, otherwise reset it to start again */
 893:Middlewares/Third_Party/LwIP/src/core/tcp_in.c ****         if (pcb->unacked == NULL) {
 2471              		.loc 1 893 16
 2472 0298 7B68     		ldr	r3, [r7, #4]
 2473 029a 1B6F     		ldr	r3, [r3, #112]
 2474              		.loc 1 893 12
 2475 029c 002B     		cmp	r3, #0
 2476 029e 1DD1     		bne	.L154
 894:Middlewares/Third_Party/LwIP/src/core/tcp_in.c ****           pcb->rtime = -1;
 2477              		.loc 1 894 22
 2478 02a0 7B68     		ldr	r3, [r7, #4]
 2479 02a2 4FF6FF72 		movw	r2, #65535
 2480 02a6 1A86     		strh	r2, [r3, #48]	@ movhi
 2481 02a8 1FE0     		b	.L155
 2482              	.L209:
 2483 02aa 00BF     		.align	2
 2484              	.L208:
 2485 02ac 00000000 		.word	.LC0
 2486 02b0 34020000 		.word	.LC16
 2487 02b4 48000000 		.word	.LC2
 2488 02b8 00000000 		.word	flags
 2489 02bc 00000000 		.word	ackno
 2490 02c0 00000000 		.word	seqno
 2491 02c4 50020000 		.word	.LC17
 2492 02c8 00000000 		.word	recv_flags
 2493 02cc 00000000 		.word	tcp_ticks
 2494 02d0 00000000 		.word	tcphdr
 2495 02d4 70020000 		.word	.LC18
 2496 02d8 88020000 		.word	.LC19
ARM GAS  /tmp/ccWqLOXK.s 			page 63


 2497              	.L154:
 895:Middlewares/Third_Party/LwIP/src/core/tcp_in.c ****         } else {
 896:Middlewares/Third_Party/LwIP/src/core/tcp_in.c ****           pcb->rtime = 0;
 2498              		.loc 1 896 22
 2499 02dc 7B68     		ldr	r3, [r7, #4]
 2500 02de 0022     		movs	r2, #0
 2501 02e0 1A86     		strh	r2, [r3, #48]	@ movhi
 897:Middlewares/Third_Party/LwIP/src/core/tcp_in.c ****           pcb->nrtx = 0;
 2502              		.loc 1 897 21
 2503 02e2 7B68     		ldr	r3, [r7, #4]
 2504 02e4 0022     		movs	r2, #0
 2505 02e6 83F84220 		strb	r2, [r3, #66]
 2506              	.L155:
 898:Middlewares/Third_Party/LwIP/src/core/tcp_in.c ****         }
 899:Middlewares/Third_Party/LwIP/src/core/tcp_in.c **** 
 900:Middlewares/Third_Party/LwIP/src/core/tcp_in.c ****         /* Call the user specified function to call when successfully
 901:Middlewares/Third_Party/LwIP/src/core/tcp_in.c ****          * connected. */
 902:Middlewares/Third_Party/LwIP/src/core/tcp_in.c ****         TCP_EVENT_CONNECTED(pcb, ERR_OK, err);
 2507              		.loc 1 902 9
 2508 02ea 7B68     		ldr	r3, [r7, #4]
 2509 02ec D3F88830 		ldr	r3, [r3, #136]
 2510 02f0 002B     		cmp	r3, #0
 2511 02f2 0AD0     		beq	.L156
 2512              		.loc 1 902 9 is_stmt 0 discriminator 1
 2513 02f4 7B68     		ldr	r3, [r7, #4]
 2514 02f6 D3F88830 		ldr	r3, [r3, #136]
 2515 02fa 7A68     		ldr	r2, [r7, #4]
 2516 02fc 1069     		ldr	r0, [r2, #16]
 2517 02fe 0022     		movs	r2, #0
 2518 0300 7968     		ldr	r1, [r7, #4]
 2519 0302 9847     		blx	r3
 2520              	.LVL6:
 2521 0304 0346     		mov	r3, r0
 2522 0306 BB76     		strb	r3, [r7, #26]
 2523 0308 01E0     		b	.L157
 2524              	.L156:
 2525              		.loc 1 902 9 discriminator 2
 2526 030a 0023     		movs	r3, #0
 2527 030c BB76     		strb	r3, [r7, #26]
 2528              	.L157:
 903:Middlewares/Third_Party/LwIP/src/core/tcp_in.c ****         if (err == ERR_ABRT) {
 2529              		.loc 1 903 12 is_stmt 1
 2530 030e 97F91A30 		ldrsb	r3, [r7, #26]
 2531 0312 13F10D0F 		cmn	r3, #13
 2532 0316 02D1     		bne	.L158
 904:Middlewares/Third_Party/LwIP/src/core/tcp_in.c ****           return ERR_ABRT;
 2533              		.loc 1 904 18
 2534 0318 6FF00C03 		mvn	r3, #12
 2535 031c 50E2     		b	.L133
 2536              	.L158:
 905:Middlewares/Third_Party/LwIP/src/core/tcp_in.c ****         }
 906:Middlewares/Third_Party/LwIP/src/core/tcp_in.c ****         tcp_ack_now(pcb);
 2537              		.loc 1 906 9
 2538 031e 7B68     		ldr	r3, [r7, #4]
 2539 0320 5B8B     		ldrh	r3, [r3, #26]
 2540 0322 43F00203 		orr	r3, r3, #2
 2541 0326 9AB2     		uxth	r2, r3
ARM GAS  /tmp/ccWqLOXK.s 			page 64


 2542 0328 7B68     		ldr	r3, [r7, #4]
 2543 032a 5A83     		strh	r2, [r3, #26]	@ movhi
 907:Middlewares/Third_Party/LwIP/src/core/tcp_in.c ****       }
 908:Middlewares/Third_Party/LwIP/src/core/tcp_in.c ****       /* received ACK? possibly a half-open connection */
 909:Middlewares/Third_Party/LwIP/src/core/tcp_in.c ****       else if (flags & TCP_ACK) {
 910:Middlewares/Third_Party/LwIP/src/core/tcp_in.c ****         /* send a RST to bring the other side in a non-synchronized state. */
 911:Middlewares/Third_Party/LwIP/src/core/tcp_in.c ****         tcp_rst(pcb, ackno, seqno + tcplen, ip_current_dest_addr(),
 912:Middlewares/Third_Party/LwIP/src/core/tcp_in.c ****                 ip_current_src_addr(), tcphdr->dest, tcphdr->src);
 913:Middlewares/Third_Party/LwIP/src/core/tcp_in.c ****         /* Resend SYN immediately (don't wait for rto timeout) to establish
 914:Middlewares/Third_Party/LwIP/src/core/tcp_in.c ****           connection faster, but do not send more SYNs than we otherwise would
 915:Middlewares/Third_Party/LwIP/src/core/tcp_in.c ****           have, or we might get caught in a loop on loopback interfaces. */
 916:Middlewares/Third_Party/LwIP/src/core/tcp_in.c ****         if (pcb->nrtx < TCP_SYNMAXRTX) {
 917:Middlewares/Third_Party/LwIP/src/core/tcp_in.c ****           pcb->rtime = 0;
 918:Middlewares/Third_Party/LwIP/src/core/tcp_in.c ****           tcp_rexmit_rto(pcb);
 919:Middlewares/Third_Party/LwIP/src/core/tcp_in.c ****         }
 920:Middlewares/Third_Party/LwIP/src/core/tcp_in.c ****       }
 921:Middlewares/Third_Party/LwIP/src/core/tcp_in.c ****       break;
 2544              		.loc 1 921 7
 2545 032c 3AE2     		b	.L201
 2546              	.L145:
 909:Middlewares/Third_Party/LwIP/src/core/tcp_in.c ****         /* send a RST to bring the other side in a non-synchronized state. */
 2547              		.loc 1 909 22
 2548 032e 9D4B     		ldr	r3, .L210
 2549 0330 1B78     		ldrb	r3, [r3]	@ zero_extendqisi2
 2550 0332 03F01003 		and	r3, r3, #16
 909:Middlewares/Third_Party/LwIP/src/core/tcp_in.c ****         /* send a RST to bring the other side in a non-synchronized state. */
 2551              		.loc 1 909 15
 2552 0336 002B     		cmp	r3, #0
 2553 0338 00F03482 		beq	.L201
 911:Middlewares/Third_Party/LwIP/src/core/tcp_in.c ****                 ip_current_src_addr(), tcphdr->dest, tcphdr->src);
 2554              		.loc 1 911 9
 2555 033c 9A4B     		ldr	r3, .L210+4
 2556 033e 1968     		ldr	r1, [r3]
 2557 0340 9A4B     		ldr	r3, .L210+8
 2558 0342 1B88     		ldrh	r3, [r3]
 2559 0344 1A46     		mov	r2, r3
 2560 0346 9A4B     		ldr	r3, .L210+12
 2561 0348 1B68     		ldr	r3, [r3]
 2562 034a D018     		adds	r0, r2, r3
 912:Middlewares/Third_Party/LwIP/src/core/tcp_in.c ****         /* Resend SYN immediately (don't wait for rto timeout) to establish
 2563              		.loc 1 912 46
 2564 034c 994B     		ldr	r3, .L210+16
 2565 034e 1B68     		ldr	r3, [r3]
 911:Middlewares/Third_Party/LwIP/src/core/tcp_in.c ****                 ip_current_src_addr(), tcphdr->dest, tcphdr->src);
 2566              		.loc 1 911 9
 2567 0350 5B88     		ldrh	r3, [r3, #2]	@ unaligned
 2568 0352 9BB2     		uxth	r3, r3
 912:Middlewares/Third_Party/LwIP/src/core/tcp_in.c ****         /* Resend SYN immediately (don't wait for rto timeout) to establish
 2569              		.loc 1 912 60
 2570 0354 974A     		ldr	r2, .L210+16
 2571 0356 1268     		ldr	r2, [r2]
 911:Middlewares/Third_Party/LwIP/src/core/tcp_in.c ****                 ip_current_src_addr(), tcphdr->dest, tcphdr->src);
 2572              		.loc 1 911 9
 2573 0358 1288     		ldrh	r2, [r2]	@ unaligned
 2574 035a 92B2     		uxth	r2, r2
 2575 035c 0292     		str	r2, [sp, #8]
 2576 035e 0193     		str	r3, [sp, #4]
ARM GAS  /tmp/ccWqLOXK.s 			page 65


 2577 0360 954B     		ldr	r3, .L210+20
 2578 0362 0093     		str	r3, [sp]
 2579 0364 954B     		ldr	r3, .L210+24
 2580 0366 0246     		mov	r2, r0
 2581 0368 7868     		ldr	r0, [r7, #4]
 2582 036a FFF7FEFF 		bl	tcp_rst
 916:Middlewares/Third_Party/LwIP/src/core/tcp_in.c ****           pcb->rtime = 0;
 2583              		.loc 1 916 16
 2584 036e 7B68     		ldr	r3, [r7, #4]
 2585 0370 93F84230 		ldrb	r3, [r3, #66]	@ zero_extendqisi2
 916:Middlewares/Third_Party/LwIP/src/core/tcp_in.c ****           pcb->rtime = 0;
 2586              		.loc 1 916 12
 2587 0374 052B     		cmp	r3, #5
 2588 0376 00F21582 		bhi	.L201
 917:Middlewares/Third_Party/LwIP/src/core/tcp_in.c ****           tcp_rexmit_rto(pcb);
 2589              		.loc 1 917 22
 2590 037a 7B68     		ldr	r3, [r7, #4]
 2591 037c 0022     		movs	r2, #0
 2592 037e 1A86     		strh	r2, [r3, #48]	@ movhi
 918:Middlewares/Third_Party/LwIP/src/core/tcp_in.c ****         }
 2593              		.loc 1 918 11
 2594 0380 7868     		ldr	r0, [r7, #4]
 2595 0382 FFF7FEFF 		bl	tcp_rexmit_rto
 2596              		.loc 1 921 7
 2597 0386 0DE2     		b	.L201
 2598              	.L143:
 922:Middlewares/Third_Party/LwIP/src/core/tcp_in.c ****     case SYN_RCVD:
 923:Middlewares/Third_Party/LwIP/src/core/tcp_in.c ****       if (flags & TCP_ACK) {
 2599              		.loc 1 923 17
 2600 0388 864B     		ldr	r3, .L210
 2601 038a 1B78     		ldrb	r3, [r3]	@ zero_extendqisi2
 2602 038c 03F01003 		and	r3, r3, #16
 2603              		.loc 1 923 10
 2604 0390 002B     		cmp	r3, #0
 2605 0392 00F0A180 		beq	.L161
 924:Middlewares/Third_Party/LwIP/src/core/tcp_in.c ****         /* expected ACK number? */
 925:Middlewares/Third_Party/LwIP/src/core/tcp_in.c ****         if (TCP_SEQ_BETWEEN(ackno, pcb->lastack + 1, pcb->snd_nxt)) {
 2606              		.loc 1 925 13
 2607 0396 844B     		ldr	r3, .L210+4
 2608 0398 1A68     		ldr	r2, [r3]
 2609 039a 7B68     		ldr	r3, [r7, #4]
 2610 039c 5B6C     		ldr	r3, [r3, #68]
 2611 039e D31A     		subs	r3, r2, r3
 2612 03a0 013B     		subs	r3, r3, #1
 2613              		.loc 1 925 12
 2614 03a2 002B     		cmp	r3, #0
 2615 03a4 7EDB     		blt	.L162
 2616              		.loc 1 925 13 discriminator 1
 2617 03a6 804B     		ldr	r3, .L210+4
 2618 03a8 1A68     		ldr	r2, [r3]
 2619 03aa 7B68     		ldr	r3, [r7, #4]
 2620 03ac 1B6D     		ldr	r3, [r3, #80]
 2621 03ae D31A     		subs	r3, r2, r3
 2622 03b0 002B     		cmp	r3, #0
 2623 03b2 77DC     		bgt	.L162
 926:Middlewares/Third_Party/LwIP/src/core/tcp_in.c ****           pcb->state = ESTABLISHED;
 2624              		.loc 1 926 22
ARM GAS  /tmp/ccWqLOXK.s 			page 66


 2625 03b4 7B68     		ldr	r3, [r7, #4]
 2626 03b6 0422     		movs	r2, #4
 2627 03b8 1A75     		strb	r2, [r3, #20]
 927:Middlewares/Third_Party/LwIP/src/core/tcp_in.c ****           LWIP_DEBUGF(TCP_DEBUG, ("TCP connection established %"U16_F" -> %"U16_F".\n", inseg.tcphd
 928:Middlewares/Third_Party/LwIP/src/core/tcp_in.c **** #if LWIP_CALLBACK_API || TCP_LISTEN_BACKLOG
 929:Middlewares/Third_Party/LwIP/src/core/tcp_in.c ****           if (pcb->listener == NULL) {
 2628              		.loc 1 929 18
 2629 03ba 7B68     		ldr	r3, [r7, #4]
 2630 03bc DB6F     		ldr	r3, [r3, #124]
 2631              		.loc 1 929 14
 2632 03be 002B     		cmp	r3, #0
 2633 03c0 02D1     		bne	.L163
 930:Middlewares/Third_Party/LwIP/src/core/tcp_in.c ****             /* listen pcb might be closed by now */
 931:Middlewares/Third_Party/LwIP/src/core/tcp_in.c ****             err = ERR_VAL;
 2634              		.loc 1 931 17
 2635 03c2 FA23     		movs	r3, #250
 2636 03c4 BB76     		strb	r3, [r7, #26]
 2637 03c6 1DE0     		b	.L164
 2638              	.L163:
 932:Middlewares/Third_Party/LwIP/src/core/tcp_in.c ****           } else
 933:Middlewares/Third_Party/LwIP/src/core/tcp_in.c **** #endif /* LWIP_CALLBACK_API || TCP_LISTEN_BACKLOG */
 934:Middlewares/Third_Party/LwIP/src/core/tcp_in.c ****           {
 935:Middlewares/Third_Party/LwIP/src/core/tcp_in.c **** #if LWIP_CALLBACK_API
 936:Middlewares/Third_Party/LwIP/src/core/tcp_in.c ****             LWIP_ASSERT("pcb->listener->accept != NULL", pcb->listener->accept != NULL);
 2639              		.loc 1 936 13
 2640 03c8 7B68     		ldr	r3, [r7, #4]
 2641 03ca DB6F     		ldr	r3, [r3, #124]
 2642 03cc 9B69     		ldr	r3, [r3, #24]
 2643 03ce 002B     		cmp	r3, #0
 2644 03d0 06D1     		bne	.L165
 2645              		.loc 1 936 13 is_stmt 0 discriminator 1
 2646 03d2 7B4B     		ldr	r3, .L210+28
 2647 03d4 4FF46A72 		mov	r2, #936
 2648 03d8 7A49     		ldr	r1, .L210+32
 2649 03da 7B48     		ldr	r0, .L210+36
 2650 03dc FFF7FEFF 		bl	printf
 2651              	.L165:
 937:Middlewares/Third_Party/LwIP/src/core/tcp_in.c **** #endif
 938:Middlewares/Third_Party/LwIP/src/core/tcp_in.c ****             tcp_backlog_accepted(pcb);
 939:Middlewares/Third_Party/LwIP/src/core/tcp_in.c ****             /* Call the accept function. */
 940:Middlewares/Third_Party/LwIP/src/core/tcp_in.c ****             TCP_EVENT_ACCEPT(pcb->listener, pcb, pcb->callback_arg, ERR_OK, err);
 2652              		.loc 1 940 13 is_stmt 1
 2653 03e0 7B68     		ldr	r3, [r7, #4]
 2654 03e2 DB6F     		ldr	r3, [r3, #124]
 2655 03e4 9B69     		ldr	r3, [r3, #24]
 2656 03e6 002B     		cmp	r3, #0
 2657 03e8 0AD0     		beq	.L166
 2658              		.loc 1 940 13 is_stmt 0 discriminator 1
 2659 03ea 7B68     		ldr	r3, [r7, #4]
 2660 03ec DB6F     		ldr	r3, [r3, #124]
 2661 03ee 9B69     		ldr	r3, [r3, #24]
 2662 03f0 7A68     		ldr	r2, [r7, #4]
 2663 03f2 1069     		ldr	r0, [r2, #16]
 2664 03f4 0022     		movs	r2, #0
 2665 03f6 7968     		ldr	r1, [r7, #4]
 2666 03f8 9847     		blx	r3
 2667              	.LVL7:
ARM GAS  /tmp/ccWqLOXK.s 			page 67


 2668 03fa 0346     		mov	r3, r0
 2669 03fc BB76     		strb	r3, [r7, #26]
 2670 03fe 01E0     		b	.L164
 2671              	.L166:
 2672              		.loc 1 940 13 discriminator 2
 2673 0400 F023     		movs	r3, #240
 2674 0402 BB76     		strb	r3, [r7, #26]
 2675              	.L164:
 941:Middlewares/Third_Party/LwIP/src/core/tcp_in.c ****           }
 942:Middlewares/Third_Party/LwIP/src/core/tcp_in.c ****           if (err != ERR_OK) {
 2676              		.loc 1 942 14 is_stmt 1
 2677 0404 97F91A30 		ldrsb	r3, [r7, #26]
 2678 0408 002B     		cmp	r3, #0
 2679 040a 0AD0     		beq	.L167
 943:Middlewares/Third_Party/LwIP/src/core/tcp_in.c ****             /* If the accept function returns with an error, we abort
 944:Middlewares/Third_Party/LwIP/src/core/tcp_in.c ****              * the connection. */
 945:Middlewares/Third_Party/LwIP/src/core/tcp_in.c ****             /* Already aborted? */
 946:Middlewares/Third_Party/LwIP/src/core/tcp_in.c ****             if (err != ERR_ABRT) {
 2680              		.loc 1 946 16
 2681 040c 97F91A30 		ldrsb	r3, [r7, #26]
 2682 0410 13F10D0F 		cmn	r3, #13
 2683 0414 02D0     		beq	.L168
 947:Middlewares/Third_Party/LwIP/src/core/tcp_in.c ****               tcp_abort(pcb);
 2684              		.loc 1 947 15
 2685 0416 7868     		ldr	r0, [r7, #4]
 2686 0418 FFF7FEFF 		bl	tcp_abort
 2687              	.L168:
 948:Middlewares/Third_Party/LwIP/src/core/tcp_in.c ****             }
 949:Middlewares/Third_Party/LwIP/src/core/tcp_in.c ****             return ERR_ABRT;
 2688              		.loc 1 949 20
 2689 041c 6FF00C03 		mvn	r3, #12
 2690 0420 CEE1     		b	.L133
 2691              	.L167:
 950:Middlewares/Third_Party/LwIP/src/core/tcp_in.c ****           }
 951:Middlewares/Third_Party/LwIP/src/core/tcp_in.c ****           /* If there was any data contained within this ACK,
 952:Middlewares/Third_Party/LwIP/src/core/tcp_in.c ****            * we'd better pass it on to the application as well. */
 953:Middlewares/Third_Party/LwIP/src/core/tcp_in.c ****           tcp_receive(pcb);
 2692              		.loc 1 953 11
 2693 0422 7868     		ldr	r0, [r7, #4]
 2694 0424 FFF7FEFF 		bl	tcp_receive
 954:Middlewares/Third_Party/LwIP/src/core/tcp_in.c **** 
 955:Middlewares/Third_Party/LwIP/src/core/tcp_in.c ****           /* Prevent ACK for SYN to generate a sent event */
 956:Middlewares/Third_Party/LwIP/src/core/tcp_in.c ****           if (recv_acked != 0) {
 2695              		.loc 1 956 26
 2696 0428 684B     		ldr	r3, .L210+40
 2697 042a 1B88     		ldrh	r3, [r3]
 2698              		.loc 1 956 14
 2699 042c 002B     		cmp	r3, #0
 2700 042e 05D0     		beq	.L169
 957:Middlewares/Third_Party/LwIP/src/core/tcp_in.c ****             recv_acked--;
 2701              		.loc 1 957 23
 2702 0430 664B     		ldr	r3, .L210+40
 2703 0432 1B88     		ldrh	r3, [r3]
 2704 0434 013B     		subs	r3, r3, #1
 2705 0436 9AB2     		uxth	r2, r3
 2706 0438 644B     		ldr	r3, .L210+40
 2707 043a 1A80     		strh	r2, [r3]	@ movhi
ARM GAS  /tmp/ccWqLOXK.s 			page 68


 2708              	.L169:
 958:Middlewares/Third_Party/LwIP/src/core/tcp_in.c ****           }
 959:Middlewares/Third_Party/LwIP/src/core/tcp_in.c **** 
 960:Middlewares/Third_Party/LwIP/src/core/tcp_in.c ****           pcb->cwnd = LWIP_TCP_CALC_INITIAL_CWND(pcb->mss);
 2709              		.loc 1 960 23
 2710 043c 7B68     		ldr	r3, [r7, #4]
 2711 043e 5B8E     		ldrh	r3, [r3, #50]
 2712 0440 9A00     		lsls	r2, r3, #2
 2713 0442 7B68     		ldr	r3, [r7, #4]
 2714 0444 5B8E     		ldrh	r3, [r3, #50]
 2715 0446 5B00     		lsls	r3, r3, #1
 2716 0448 41F21C11 		movw	r1, #4380
 2717 044c 8B42     		cmp	r3, r1
 2718 044e 38BF     		it	cc
 2719 0450 0B46     		movcc	r3, r1
 2720 0452 9A42     		cmp	r2, r3
 2721 0454 04D2     		bcs	.L170
 2722              		.loc 1 960 23 is_stmt 0 discriminator 1
 2723 0456 7B68     		ldr	r3, [r7, #4]
 2724 0458 5B8E     		ldrh	r3, [r3, #50]
 2725 045a 9B00     		lsls	r3, r3, #2
 2726 045c 9BB2     		uxth	r3, r3
 2727 045e 0DE0     		b	.L171
 2728              	.L170:
 2729              		.loc 1 960 23 discriminator 2
 2730 0460 7B68     		ldr	r3, [r7, #4]
 2731 0462 5B8E     		ldrh	r3, [r3, #50]
 2732 0464 5B00     		lsls	r3, r3, #1
 2733 0466 41F21C12 		movw	r2, #4380
 2734 046a 9342     		cmp	r3, r2
 2735 046c 04D9     		bls	.L172
 2736              		.loc 1 960 23 discriminator 4
 2737 046e 7B68     		ldr	r3, [r7, #4]
 2738 0470 5B8E     		ldrh	r3, [r3, #50]
 2739 0472 5B00     		lsls	r3, r3, #1
 2740 0474 9BB2     		uxth	r3, r3
 2741 0476 01E0     		b	.L171
 2742              	.L172:
 2743              		.loc 1 960 23 discriminator 5
 2744 0478 41F21C13 		movw	r3, #4380
 2745              	.L171:
 2746              		.loc 1 960 21 is_stmt 1 discriminator 8
 2747 047c 7A68     		ldr	r2, [r7, #4]
 2748 047e A2F84830 		strh	r3, [r2, #72]	@ movhi
 961:Middlewares/Third_Party/LwIP/src/core/tcp_in.c ****           LWIP_DEBUGF(TCP_CWND_DEBUG, ("tcp_process (SYN_RCVD): cwnd %"TCPWNDSIZE_F
 962:Middlewares/Third_Party/LwIP/src/core/tcp_in.c ****                                        " ssthresh %"TCPWNDSIZE_F"\n",
 963:Middlewares/Third_Party/LwIP/src/core/tcp_in.c ****                                        pcb->cwnd, pcb->ssthresh));
 964:Middlewares/Third_Party/LwIP/src/core/tcp_in.c **** 
 965:Middlewares/Third_Party/LwIP/src/core/tcp_in.c ****           if (recv_flags & TF_GOT_FIN) {
 2749              		.loc 1 965 26 discriminator 8
 2750 0482 534B     		ldr	r3, .L210+44
 2751 0484 1B78     		ldrb	r3, [r3]	@ zero_extendqisi2
 2752 0486 03F02003 		and	r3, r3, #32
 2753              		.loc 1 965 14 discriminator 8
 2754 048a 002B     		cmp	r3, #0
 2755 048c 37D0     		beq	.L176
 966:Middlewares/Third_Party/LwIP/src/core/tcp_in.c ****             tcp_ack_now(pcb);
ARM GAS  /tmp/ccWqLOXK.s 			page 69


 2756              		.loc 1 966 13
 2757 048e 7B68     		ldr	r3, [r7, #4]
 2758 0490 5B8B     		ldrh	r3, [r3, #26]
 2759 0492 43F00203 		orr	r3, r3, #2
 2760 0496 9AB2     		uxth	r2, r3
 2761 0498 7B68     		ldr	r3, [r7, #4]
 2762 049a 5A83     		strh	r2, [r3, #26]	@ movhi
 967:Middlewares/Third_Party/LwIP/src/core/tcp_in.c ****             pcb->state = CLOSE_WAIT;
 2763              		.loc 1 967 24
 2764 049c 7B68     		ldr	r3, [r7, #4]
 2765 049e 0722     		movs	r2, #7
 2766 04a0 1A75     		strb	r2, [r3, #20]
 965:Middlewares/Third_Party/LwIP/src/core/tcp_in.c ****             tcp_ack_now(pcb);
 2767              		.loc 1 965 14
 2768 04a2 2CE0     		b	.L176
 2769              	.L162:
 968:Middlewares/Third_Party/LwIP/src/core/tcp_in.c ****           }
 969:Middlewares/Third_Party/LwIP/src/core/tcp_in.c ****         } else {
 970:Middlewares/Third_Party/LwIP/src/core/tcp_in.c ****           /* incorrect ACK number, send RST */
 971:Middlewares/Third_Party/LwIP/src/core/tcp_in.c ****           tcp_rst(pcb, ackno, seqno + tcplen, ip_current_dest_addr(),
 2770              		.loc 1 971 11
 2771 04a4 404B     		ldr	r3, .L210+4
 2772 04a6 1968     		ldr	r1, [r3]
 2773 04a8 404B     		ldr	r3, .L210+8
 2774 04aa 1B88     		ldrh	r3, [r3]
 2775 04ac 1A46     		mov	r2, r3
 2776 04ae 404B     		ldr	r3, .L210+12
 2777 04b0 1B68     		ldr	r3, [r3]
 2778 04b2 D018     		adds	r0, r2, r3
 972:Middlewares/Third_Party/LwIP/src/core/tcp_in.c ****                   ip_current_src_addr(), tcphdr->dest, tcphdr->src);
 2779              		.loc 1 972 48
 2780 04b4 3F4B     		ldr	r3, .L210+16
 2781 04b6 1B68     		ldr	r3, [r3]
 971:Middlewares/Third_Party/LwIP/src/core/tcp_in.c ****                   ip_current_src_addr(), tcphdr->dest, tcphdr->src);
 2782              		.loc 1 971 11
 2783 04b8 5B88     		ldrh	r3, [r3, #2]	@ unaligned
 2784 04ba 9BB2     		uxth	r3, r3
 2785              		.loc 1 972 62
 2786 04bc 3D4A     		ldr	r2, .L210+16
 2787 04be 1268     		ldr	r2, [r2]
 971:Middlewares/Third_Party/LwIP/src/core/tcp_in.c ****                   ip_current_src_addr(), tcphdr->dest, tcphdr->src);
 2788              		.loc 1 971 11
 2789 04c0 1288     		ldrh	r2, [r2]	@ unaligned
 2790 04c2 92B2     		uxth	r2, r2
 2791 04c4 0292     		str	r2, [sp, #8]
 2792 04c6 0193     		str	r3, [sp, #4]
 2793 04c8 3B4B     		ldr	r3, .L210+20
 2794 04ca 0093     		str	r3, [sp]
 2795 04cc 3B4B     		ldr	r3, .L210+24
 2796 04ce 0246     		mov	r2, r0
 2797 04d0 7868     		ldr	r0, [r7, #4]
 2798 04d2 FFF7FEFF 		bl	tcp_rst
 973:Middlewares/Third_Party/LwIP/src/core/tcp_in.c ****         }
 974:Middlewares/Third_Party/LwIP/src/core/tcp_in.c ****       } else if ((flags & TCP_SYN) && (seqno == pcb->rcv_nxt - 1)) {
 975:Middlewares/Third_Party/LwIP/src/core/tcp_in.c ****         /* Looks like another copy of the SYN - retransmit our SYN-ACK */
 976:Middlewares/Third_Party/LwIP/src/core/tcp_in.c ****         tcp_rexmit(pcb);
 977:Middlewares/Third_Party/LwIP/src/core/tcp_in.c ****       }
ARM GAS  /tmp/ccWqLOXK.s 			page 70


 978:Middlewares/Third_Party/LwIP/src/core/tcp_in.c ****       break;
 2799              		.loc 1 978 7
 2800 04d6 67E1     		b	.L202
 2801              	.L161:
 974:Middlewares/Third_Party/LwIP/src/core/tcp_in.c ****         /* Looks like another copy of the SYN - retransmit our SYN-ACK */
 2802              		.loc 1 974 25
 2803 04d8 324B     		ldr	r3, .L210
 2804 04da 1B78     		ldrb	r3, [r3]	@ zero_extendqisi2
 2805 04dc 03F00203 		and	r3, r3, #2
 974:Middlewares/Third_Party/LwIP/src/core/tcp_in.c ****         /* Looks like another copy of the SYN - retransmit our SYN-ACK */
 2806              		.loc 1 974 17
 2807 04e0 002B     		cmp	r3, #0
 2808 04e2 00F06181 		beq	.L202
 974:Middlewares/Third_Party/LwIP/src/core/tcp_in.c ****         /* Looks like another copy of the SYN - retransmit our SYN-ACK */
 2809              		.loc 1 974 52 discriminator 1
 2810 04e6 7B68     		ldr	r3, [r7, #4]
 2811 04e8 5B6A     		ldr	r3, [r3, #36]
 974:Middlewares/Third_Party/LwIP/src/core/tcp_in.c ****         /* Looks like another copy of the SYN - retransmit our SYN-ACK */
 2812              		.loc 1 974 62 discriminator 1
 2813 04ea 5A1E     		subs	r2, r3, #1
 974:Middlewares/Third_Party/LwIP/src/core/tcp_in.c ****         /* Looks like another copy of the SYN - retransmit our SYN-ACK */
 2814              		.loc 1 974 46 discriminator 1
 2815 04ec 304B     		ldr	r3, .L210+12
 2816 04ee 1B68     		ldr	r3, [r3]
 974:Middlewares/Third_Party/LwIP/src/core/tcp_in.c ****         /* Looks like another copy of the SYN - retransmit our SYN-ACK */
 2817              		.loc 1 974 36 discriminator 1
 2818 04f0 9A42     		cmp	r2, r3
 2819 04f2 40F05981 		bne	.L202
 976:Middlewares/Third_Party/LwIP/src/core/tcp_in.c ****       }
 2820              		.loc 1 976 9
 2821 04f6 7868     		ldr	r0, [r7, #4]
 2822 04f8 FFF7FEFF 		bl	tcp_rexmit
 2823              		.loc 1 978 7
 2824 04fc 54E1     		b	.L202
 2825              	.L176:
 2826              		.loc 1 978 7 is_stmt 0 discriminator 2
 2827 04fe 53E1     		b	.L202
 2828              	.L140:
 979:Middlewares/Third_Party/LwIP/src/core/tcp_in.c ****     case CLOSE_WAIT:
 980:Middlewares/Third_Party/LwIP/src/core/tcp_in.c ****     /* FALLTHROUGH */
 981:Middlewares/Third_Party/LwIP/src/core/tcp_in.c ****     case ESTABLISHED:
 982:Middlewares/Third_Party/LwIP/src/core/tcp_in.c ****       tcp_receive(pcb);
 2829              		.loc 1 982 7 is_stmt 1
 2830 0500 7868     		ldr	r0, [r7, #4]
 2831 0502 FFF7FEFF 		bl	tcp_receive
 983:Middlewares/Third_Party/LwIP/src/core/tcp_in.c ****       if (recv_flags & TF_GOT_FIN) { /* passive close */
 2832              		.loc 1 983 22
 2833 0506 324B     		ldr	r3, .L210+44
 2834 0508 1B78     		ldrb	r3, [r3]	@ zero_extendqisi2
 2835 050a 03F02003 		and	r3, r3, #32
 2836              		.loc 1 983 10
 2837 050e 002B     		cmp	r3, #0
 2838 0510 00F04C81 		beq	.L203
 984:Middlewares/Third_Party/LwIP/src/core/tcp_in.c ****         tcp_ack_now(pcb);
 2839              		.loc 1 984 9
 2840 0514 7B68     		ldr	r3, [r7, #4]
 2841 0516 5B8B     		ldrh	r3, [r3, #26]
ARM GAS  /tmp/ccWqLOXK.s 			page 71


 2842 0518 43F00203 		orr	r3, r3, #2
 2843 051c 9AB2     		uxth	r2, r3
 2844 051e 7B68     		ldr	r3, [r7, #4]
 2845 0520 5A83     		strh	r2, [r3, #26]	@ movhi
 985:Middlewares/Third_Party/LwIP/src/core/tcp_in.c ****         pcb->state = CLOSE_WAIT;
 2846              		.loc 1 985 20
 2847 0522 7B68     		ldr	r3, [r7, #4]
 2848 0524 0722     		movs	r2, #7
 2849 0526 1A75     		strb	r2, [r3, #20]
 986:Middlewares/Third_Party/LwIP/src/core/tcp_in.c ****       }
 987:Middlewares/Third_Party/LwIP/src/core/tcp_in.c ****       break;
 2850              		.loc 1 987 7
 2851 0528 40E1     		b	.L203
 2852              	.L142:
 988:Middlewares/Third_Party/LwIP/src/core/tcp_in.c ****     case FIN_WAIT_1:
 989:Middlewares/Third_Party/LwIP/src/core/tcp_in.c ****       tcp_receive(pcb);
 2853              		.loc 1 989 7
 2854 052a 7868     		ldr	r0, [r7, #4]
 2855 052c FFF7FEFF 		bl	tcp_receive
 990:Middlewares/Third_Party/LwIP/src/core/tcp_in.c ****       if (recv_flags & TF_GOT_FIN) {
 2856              		.loc 1 990 22
 2857 0530 274B     		ldr	r3, .L210+44
 2858 0532 1B78     		ldrb	r3, [r3]	@ zero_extendqisi2
 2859 0534 03F02003 		and	r3, r3, #32
 2860              		.loc 1 990 10
 2861 0538 002B     		cmp	r3, #0
 2862 053a 71D0     		beq	.L178
 991:Middlewares/Third_Party/LwIP/src/core/tcp_in.c ****         if ((flags & TCP_ACK) && (ackno == pcb->snd_nxt) &&
 2863              		.loc 1 991 20
 2864 053c 194B     		ldr	r3, .L210
 2865 053e 1B78     		ldrb	r3, [r3]	@ zero_extendqisi2
 2866 0540 03F01003 		and	r3, r3, #16
 2867              		.loc 1 991 12
 2868 0544 002B     		cmp	r3, #0
 2869 0546 60D0     		beq	.L179
 2870              		.loc 1 991 47 discriminator 1
 2871 0548 7B68     		ldr	r3, [r7, #4]
 2872 054a 1A6D     		ldr	r2, [r3, #80]
 2873              		.loc 1 991 41 discriminator 1
 2874 054c 164B     		ldr	r3, .L210+4
 2875 054e 1B68     		ldr	r3, [r3]
 2876              		.loc 1 991 31 discriminator 1
 2877 0550 9A42     		cmp	r2, r3
 2878 0552 5AD1     		bne	.L179
 992:Middlewares/Third_Party/LwIP/src/core/tcp_in.c ****             pcb->unsent == NULL) {
 2879              		.loc 1 992 16 discriminator 2
 2880 0554 7B68     		ldr	r3, [r7, #4]
 2881 0556 DB6E     		ldr	r3, [r3, #108]
 991:Middlewares/Third_Party/LwIP/src/core/tcp_in.c ****         if ((flags & TCP_ACK) && (ackno == pcb->snd_nxt) &&
 2882              		.loc 1 991 58 discriminator 2
 2883 0558 002B     		cmp	r3, #0
 2884 055a 56D1     		bne	.L179
 993:Middlewares/Third_Party/LwIP/src/core/tcp_in.c ****           LWIP_DEBUGF(TCP_DEBUG,
 994:Middlewares/Third_Party/LwIP/src/core/tcp_in.c ****                       ("TCP connection closed: FIN_WAIT_1 %"U16_F" -> %"U16_F".\n", inseg.tcphdr->s
 995:Middlewares/Third_Party/LwIP/src/core/tcp_in.c ****           tcp_ack_now(pcb);
 2885              		.loc 1 995 11
 2886 055c 7B68     		ldr	r3, [r7, #4]
ARM GAS  /tmp/ccWqLOXK.s 			page 72


 2887 055e 5B8B     		ldrh	r3, [r3, #26]
 2888 0560 43F00203 		orr	r3, r3, #2
 2889 0564 9AB2     		uxth	r2, r3
 2890 0566 7B68     		ldr	r3, [r7, #4]
 2891 0568 5A83     		strh	r2, [r3, #26]	@ movhi
 996:Middlewares/Third_Party/LwIP/src/core/tcp_in.c ****           tcp_pcb_purge(pcb);
 2892              		.loc 1 996 11
 2893 056a 7868     		ldr	r0, [r7, #4]
 2894 056c FFF7FEFF 		bl	tcp_pcb_purge
 997:Middlewares/Third_Party/LwIP/src/core/tcp_in.c ****           TCP_RMV_ACTIVE(pcb);
 2895              		.loc 1 997 11
 2896 0570 184B     		ldr	r3, .L210+48
 2897 0572 1B68     		ldr	r3, [r3]
 2898 0574 7A68     		ldr	r2, [r7, #4]
 2899 0576 9A42     		cmp	r2, r3
 2900 0578 05D1     		bne	.L180
 2901              		.loc 1 997 11 is_stmt 0 discriminator 1
 2902 057a 164B     		ldr	r3, .L210+48
 2903 057c 1B68     		ldr	r3, [r3]
 2904 057e DB68     		ldr	r3, [r3, #12]
 2905 0580 144A     		ldr	r2, .L210+48
 2906 0582 1360     		str	r3, [r2]
 2907 0584 2EE0     		b	.L181
 2908              	.L180:
 2909              	.LBB7:
 2910              		.loc 1 997 11 discriminator 2
 2911 0586 134B     		ldr	r3, .L210+48
 2912 0588 1B68     		ldr	r3, [r3]
 2913 058a 7B61     		str	r3, [r7, #20]
 2914 058c 27E0     		b	.L182
 2915              	.L184:
 2916              		.loc 1 997 11 discriminator 9
 2917 058e 7B69     		ldr	r3, [r7, #20]
 2918 0590 DB68     		ldr	r3, [r3, #12]
 2919 0592 7A68     		ldr	r2, [r7, #4]
 2920 0594 9A42     		cmp	r2, r3
 2921 0596 1FD1     		bne	.L183
 2922              		.loc 1 997 11 discriminator 5
 2923 0598 7B68     		ldr	r3, [r7, #4]
 2924 059a DA68     		ldr	r2, [r3, #12]
 2925 059c 7B69     		ldr	r3, [r7, #20]
 2926 059e DA60     		str	r2, [r3, #12]
 2927 05a0 20E0     		b	.L181
 2928              	.L211:
 2929 05a2 00BF     		.align	2
 2930              	.L210:
 2931 05a4 00000000 		.word	flags
 2932 05a8 00000000 		.word	ackno
 2933 05ac 00000000 		.word	tcplen
 2934 05b0 00000000 		.word	seqno
 2935 05b4 00000000 		.word	tcphdr
 2936 05b8 10000000 		.word	ip_data+16
 2937 05bc 14000000 		.word	ip_data+20
 2938 05c0 00000000 		.word	.LC0
 2939 05c4 9C020000 		.word	.LC20
 2940 05c8 48000000 		.word	.LC2
 2941 05cc 00000000 		.word	recv_acked
ARM GAS  /tmp/ccWqLOXK.s 			page 73


 2942 05d0 00000000 		.word	recv_flags
 2943 05d4 00000000 		.word	tcp_active_pcbs
 2944              	.L183:
 2945              		.loc 1 997 11 discriminator 6
 2946 05d8 7B69     		ldr	r3, [r7, #20]
 2947 05da DB68     		ldr	r3, [r3, #12]
 2948 05dc 7B61     		str	r3, [r7, #20]
 2949              	.L182:
 2950              		.loc 1 997 11 discriminator 8
 2951 05de 7B69     		ldr	r3, [r7, #20]
 2952 05e0 002B     		cmp	r3, #0
 2953 05e2 D4D1     		bne	.L184
 2954              	.L181:
 2955              	.LBE7:
 2956              		.loc 1 997 11 discriminator 10
 2957 05e4 7B68     		ldr	r3, [r7, #4]
 2958 05e6 0022     		movs	r2, #0
 2959 05e8 DA60     		str	r2, [r3, #12]
 2960 05ea 774B     		ldr	r3, .L212
 2961 05ec 0122     		movs	r2, #1
 2962 05ee 1A70     		strb	r2, [r3]
 998:Middlewares/Third_Party/LwIP/src/core/tcp_in.c ****           pcb->state = TIME_WAIT;
 2963              		.loc 1 998 22 is_stmt 1 discriminator 10
 2964 05f0 7B68     		ldr	r3, [r7, #4]
 2965 05f2 0A22     		movs	r2, #10
 2966 05f4 1A75     		strb	r2, [r3, #20]
 999:Middlewares/Third_Party/LwIP/src/core/tcp_in.c ****           TCP_REG(&tcp_tw_pcbs, pcb);
 2967              		.loc 1 999 11 discriminator 10
 2968 05f6 754B     		ldr	r3, .L212+4
 2969 05f8 1A68     		ldr	r2, [r3]
 2970 05fa 7B68     		ldr	r3, [r7, #4]
 2971 05fc DA60     		str	r2, [r3, #12]
 2972 05fe 734A     		ldr	r2, .L212+4
 2973 0600 7B68     		ldr	r3, [r7, #4]
 2974 0602 1360     		str	r3, [r2]
 2975 0604 FFF7FEFF 		bl	tcp_timer_needed
1000:Middlewares/Third_Party/LwIP/src/core/tcp_in.c ****         } else {
1001:Middlewares/Third_Party/LwIP/src/core/tcp_in.c ****           tcp_ack_now(pcb);
1002:Middlewares/Third_Party/LwIP/src/core/tcp_in.c ****           pcb->state = CLOSING;
1003:Middlewares/Third_Party/LwIP/src/core/tcp_in.c ****         }
1004:Middlewares/Third_Party/LwIP/src/core/tcp_in.c ****       } else if ((flags & TCP_ACK) && (ackno == pcb->snd_nxt) &&
1005:Middlewares/Third_Party/LwIP/src/core/tcp_in.c ****                  pcb->unsent == NULL) {
1006:Middlewares/Third_Party/LwIP/src/core/tcp_in.c ****         pcb->state = FIN_WAIT_2;
1007:Middlewares/Third_Party/LwIP/src/core/tcp_in.c ****       }
1008:Middlewares/Third_Party/LwIP/src/core/tcp_in.c ****       break;
 2976              		.loc 1 1008 7 discriminator 10
 2977 0608 D2E0     		b	.L204
 2978              	.L179:
1001:Middlewares/Third_Party/LwIP/src/core/tcp_in.c ****           pcb->state = CLOSING;
 2979              		.loc 1 1001 11
 2980 060a 7B68     		ldr	r3, [r7, #4]
 2981 060c 5B8B     		ldrh	r3, [r3, #26]
 2982 060e 43F00203 		orr	r3, r3, #2
 2983 0612 9AB2     		uxth	r2, r3
 2984 0614 7B68     		ldr	r3, [r7, #4]
 2985 0616 5A83     		strh	r2, [r3, #26]	@ movhi
1002:Middlewares/Third_Party/LwIP/src/core/tcp_in.c ****         }
ARM GAS  /tmp/ccWqLOXK.s 			page 74


 2986              		.loc 1 1002 22
 2987 0618 7B68     		ldr	r3, [r7, #4]
 2988 061a 0822     		movs	r2, #8
 2989 061c 1A75     		strb	r2, [r3, #20]
 2990              		.loc 1 1008 7
 2991 061e C7E0     		b	.L204
 2992              	.L178:
1004:Middlewares/Third_Party/LwIP/src/core/tcp_in.c ****                  pcb->unsent == NULL) {
 2993              		.loc 1 1004 25
 2994 0620 6B4B     		ldr	r3, .L212+8
 2995 0622 1B78     		ldrb	r3, [r3]	@ zero_extendqisi2
 2996 0624 03F01003 		and	r3, r3, #16
1004:Middlewares/Third_Party/LwIP/src/core/tcp_in.c ****                  pcb->unsent == NULL) {
 2997              		.loc 1 1004 17
 2998 0628 002B     		cmp	r3, #0
 2999 062a 00F0C180 		beq	.L204
1004:Middlewares/Third_Party/LwIP/src/core/tcp_in.c ****                  pcb->unsent == NULL) {
 3000              		.loc 1 1004 52 discriminator 1
 3001 062e 7B68     		ldr	r3, [r7, #4]
 3002 0630 1A6D     		ldr	r2, [r3, #80]
1004:Middlewares/Third_Party/LwIP/src/core/tcp_in.c ****                  pcb->unsent == NULL) {
 3003              		.loc 1 1004 46 discriminator 1
 3004 0632 684B     		ldr	r3, .L212+12
 3005 0634 1B68     		ldr	r3, [r3]
1004:Middlewares/Third_Party/LwIP/src/core/tcp_in.c ****                  pcb->unsent == NULL) {
 3006              		.loc 1 1004 36 discriminator 1
 3007 0636 9A42     		cmp	r2, r3
 3008 0638 40F0BA80 		bne	.L204
1005:Middlewares/Third_Party/LwIP/src/core/tcp_in.c ****         pcb->state = FIN_WAIT_2;
 3009              		.loc 1 1005 21 discriminator 2
 3010 063c 7B68     		ldr	r3, [r7, #4]
 3011 063e DB6E     		ldr	r3, [r3, #108]
1004:Middlewares/Third_Party/LwIP/src/core/tcp_in.c ****                  pcb->unsent == NULL) {
 3012              		.loc 1 1004 63 discriminator 2
 3013 0640 002B     		cmp	r3, #0
 3014 0642 40F0B580 		bne	.L204
1006:Middlewares/Third_Party/LwIP/src/core/tcp_in.c ****       }
 3015              		.loc 1 1006 20
 3016 0646 7B68     		ldr	r3, [r7, #4]
 3017 0648 0622     		movs	r2, #6
 3018 064a 1A75     		strb	r2, [r3, #20]
 3019              		.loc 1 1008 7
 3020 064c B0E0     		b	.L204
 3021              	.L141:
1009:Middlewares/Third_Party/LwIP/src/core/tcp_in.c ****     case FIN_WAIT_2:
1010:Middlewares/Third_Party/LwIP/src/core/tcp_in.c ****       tcp_receive(pcb);
 3022              		.loc 1 1010 7
 3023 064e 7868     		ldr	r0, [r7, #4]
 3024 0650 FFF7FEFF 		bl	tcp_receive
1011:Middlewares/Third_Party/LwIP/src/core/tcp_in.c ****       if (recv_flags & TF_GOT_FIN) {
 3025              		.loc 1 1011 22
 3026 0654 604B     		ldr	r3, .L212+16
 3027 0656 1B78     		ldrb	r3, [r3]	@ zero_extendqisi2
 3028 0658 03F02003 		and	r3, r3, #32
 3029              		.loc 1 1011 10
 3030 065c 002B     		cmp	r3, #0
 3031 065e 00F0A980 		beq	.L205
ARM GAS  /tmp/ccWqLOXK.s 			page 75


1012:Middlewares/Third_Party/LwIP/src/core/tcp_in.c ****         LWIP_DEBUGF(TCP_DEBUG, ("TCP connection closed: FIN_WAIT_2 %"U16_F" -> %"U16_F".\n", inseg.
1013:Middlewares/Third_Party/LwIP/src/core/tcp_in.c ****         tcp_ack_now(pcb);
 3032              		.loc 1 1013 9
 3033 0662 7B68     		ldr	r3, [r7, #4]
 3034 0664 5B8B     		ldrh	r3, [r3, #26]
 3035 0666 43F00203 		orr	r3, r3, #2
 3036 066a 9AB2     		uxth	r2, r3
 3037 066c 7B68     		ldr	r3, [r7, #4]
 3038 066e 5A83     		strh	r2, [r3, #26]	@ movhi
1014:Middlewares/Third_Party/LwIP/src/core/tcp_in.c ****         tcp_pcb_purge(pcb);
 3039              		.loc 1 1014 9
 3040 0670 7868     		ldr	r0, [r7, #4]
 3041 0672 FFF7FEFF 		bl	tcp_pcb_purge
1015:Middlewares/Third_Party/LwIP/src/core/tcp_in.c ****         TCP_RMV_ACTIVE(pcb);
 3042              		.loc 1 1015 9
 3043 0676 594B     		ldr	r3, .L212+20
 3044 0678 1B68     		ldr	r3, [r3]
 3045 067a 7A68     		ldr	r2, [r7, #4]
 3046 067c 9A42     		cmp	r2, r3
 3047 067e 05D1     		bne	.L188
 3048              		.loc 1 1015 9 is_stmt 0 discriminator 1
 3049 0680 564B     		ldr	r3, .L212+20
 3050 0682 1B68     		ldr	r3, [r3]
 3051 0684 DB68     		ldr	r3, [r3, #12]
 3052 0686 554A     		ldr	r2, .L212+20
 3053 0688 1360     		str	r3, [r2]
 3054 068a 13E0     		b	.L189
 3055              	.L188:
 3056              	.LBB8:
 3057              		.loc 1 1015 9 discriminator 2
 3058 068c 534B     		ldr	r3, .L212+20
 3059 068e 1B68     		ldr	r3, [r3]
 3060 0690 3B61     		str	r3, [r7, #16]
 3061 0692 0CE0     		b	.L190
 3062              	.L192:
 3063              		.loc 1 1015 9 discriminator 9
 3064 0694 3B69     		ldr	r3, [r7, #16]
 3065 0696 DB68     		ldr	r3, [r3, #12]
 3066 0698 7A68     		ldr	r2, [r7, #4]
 3067 069a 9A42     		cmp	r2, r3
 3068 069c 04D1     		bne	.L191
 3069              		.loc 1 1015 9 discriminator 5
 3070 069e 7B68     		ldr	r3, [r7, #4]
 3071 06a0 DA68     		ldr	r2, [r3, #12]
 3072 06a2 3B69     		ldr	r3, [r7, #16]
 3073 06a4 DA60     		str	r2, [r3, #12]
 3074 06a6 05E0     		b	.L189
 3075              	.L191:
 3076              		.loc 1 1015 9 discriminator 6
 3077 06a8 3B69     		ldr	r3, [r7, #16]
 3078 06aa DB68     		ldr	r3, [r3, #12]
 3079 06ac 3B61     		str	r3, [r7, #16]
 3080              	.L190:
 3081              		.loc 1 1015 9 discriminator 8
 3082 06ae 3B69     		ldr	r3, [r7, #16]
 3083 06b0 002B     		cmp	r3, #0
 3084 06b2 EFD1     		bne	.L192
ARM GAS  /tmp/ccWqLOXK.s 			page 76


 3085              	.L189:
 3086              	.LBE8:
 3087              		.loc 1 1015 9 discriminator 10
 3088 06b4 7B68     		ldr	r3, [r7, #4]
 3089 06b6 0022     		movs	r2, #0
 3090 06b8 DA60     		str	r2, [r3, #12]
 3091 06ba 434B     		ldr	r3, .L212
 3092 06bc 0122     		movs	r2, #1
 3093 06be 1A70     		strb	r2, [r3]
1016:Middlewares/Third_Party/LwIP/src/core/tcp_in.c ****         pcb->state = TIME_WAIT;
 3094              		.loc 1 1016 20 is_stmt 1 discriminator 10
 3095 06c0 7B68     		ldr	r3, [r7, #4]
 3096 06c2 0A22     		movs	r2, #10
 3097 06c4 1A75     		strb	r2, [r3, #20]
1017:Middlewares/Third_Party/LwIP/src/core/tcp_in.c ****         TCP_REG(&tcp_tw_pcbs, pcb);
 3098              		.loc 1 1017 9 discriminator 10
 3099 06c6 414B     		ldr	r3, .L212+4
 3100 06c8 1A68     		ldr	r2, [r3]
 3101 06ca 7B68     		ldr	r3, [r7, #4]
 3102 06cc DA60     		str	r2, [r3, #12]
 3103 06ce 3F4A     		ldr	r2, .L212+4
 3104 06d0 7B68     		ldr	r3, [r7, #4]
 3105 06d2 1360     		str	r3, [r2]
 3106 06d4 FFF7FEFF 		bl	tcp_timer_needed
1018:Middlewares/Third_Party/LwIP/src/core/tcp_in.c ****       }
1019:Middlewares/Third_Party/LwIP/src/core/tcp_in.c ****       break;
 3107              		.loc 1 1019 7 discriminator 10
 3108 06d8 6CE0     		b	.L205
 3109              	.L139:
1020:Middlewares/Third_Party/LwIP/src/core/tcp_in.c ****     case CLOSING:
1021:Middlewares/Third_Party/LwIP/src/core/tcp_in.c ****       tcp_receive(pcb);
 3110              		.loc 1 1021 7
 3111 06da 7868     		ldr	r0, [r7, #4]
 3112 06dc FFF7FEFF 		bl	tcp_receive
1022:Middlewares/Third_Party/LwIP/src/core/tcp_in.c ****       if ((flags & TCP_ACK) && ackno == pcb->snd_nxt && pcb->unsent == NULL) {
 3113              		.loc 1 1022 18
 3114 06e0 3B4B     		ldr	r3, .L212+8
 3115 06e2 1B78     		ldrb	r3, [r3]	@ zero_extendqisi2
 3116 06e4 03F01003 		and	r3, r3, #16
 3117              		.loc 1 1022 10
 3118 06e8 002B     		cmp	r3, #0
 3119 06ea 65D0     		beq	.L206
 3120              		.loc 1 1022 44 discriminator 1
 3121 06ec 7B68     		ldr	r3, [r7, #4]
 3122 06ee 1A6D     		ldr	r2, [r3, #80]
 3123              		.loc 1 1022 38 discriminator 1
 3124 06f0 384B     		ldr	r3, .L212+12
 3125 06f2 1B68     		ldr	r3, [r3]
 3126              		.loc 1 1022 29 discriminator 1
 3127 06f4 9A42     		cmp	r2, r3
 3128 06f6 5FD1     		bne	.L206
 3129              		.loc 1 1022 60 discriminator 2
 3130 06f8 7B68     		ldr	r3, [r7, #4]
 3131 06fa DB6E     		ldr	r3, [r3, #108]
 3132              		.loc 1 1022 54 discriminator 2
 3133 06fc 002B     		cmp	r3, #0
 3134 06fe 5BD1     		bne	.L206
ARM GAS  /tmp/ccWqLOXK.s 			page 77


1023:Middlewares/Third_Party/LwIP/src/core/tcp_in.c ****         LWIP_DEBUGF(TCP_DEBUG, ("TCP connection closed: CLOSING %"U16_F" -> %"U16_F".\n", inseg.tcp
1024:Middlewares/Third_Party/LwIP/src/core/tcp_in.c ****         tcp_pcb_purge(pcb);
 3135              		.loc 1 1024 9
 3136 0700 7868     		ldr	r0, [r7, #4]
 3137 0702 FFF7FEFF 		bl	tcp_pcb_purge
1025:Middlewares/Third_Party/LwIP/src/core/tcp_in.c ****         TCP_RMV_ACTIVE(pcb);
 3138              		.loc 1 1025 9
 3139 0706 354B     		ldr	r3, .L212+20
 3140 0708 1B68     		ldr	r3, [r3]
 3141 070a 7A68     		ldr	r2, [r7, #4]
 3142 070c 9A42     		cmp	r2, r3
 3143 070e 05D1     		bne	.L194
 3144              		.loc 1 1025 9 is_stmt 0 discriminator 1
 3145 0710 324B     		ldr	r3, .L212+20
 3146 0712 1B68     		ldr	r3, [r3]
 3147 0714 DB68     		ldr	r3, [r3, #12]
 3148 0716 314A     		ldr	r2, .L212+20
 3149 0718 1360     		str	r3, [r2]
 3150 071a 13E0     		b	.L195
 3151              	.L194:
 3152              	.LBB9:
 3153              		.loc 1 1025 9 discriminator 2
 3154 071c 2F4B     		ldr	r3, .L212+20
 3155 071e 1B68     		ldr	r3, [r3]
 3156 0720 FB60     		str	r3, [r7, #12]
 3157 0722 0CE0     		b	.L196
 3158              	.L198:
 3159              		.loc 1 1025 9 discriminator 9
 3160 0724 FB68     		ldr	r3, [r7, #12]
 3161 0726 DB68     		ldr	r3, [r3, #12]
 3162 0728 7A68     		ldr	r2, [r7, #4]
 3163 072a 9A42     		cmp	r2, r3
 3164 072c 04D1     		bne	.L197
 3165              		.loc 1 1025 9 discriminator 5
 3166 072e 7B68     		ldr	r3, [r7, #4]
 3167 0730 DA68     		ldr	r2, [r3, #12]
 3168 0732 FB68     		ldr	r3, [r7, #12]
 3169 0734 DA60     		str	r2, [r3, #12]
 3170 0736 05E0     		b	.L195
 3171              	.L197:
 3172              		.loc 1 1025 9 discriminator 6
 3173 0738 FB68     		ldr	r3, [r7, #12]
 3174 073a DB68     		ldr	r3, [r3, #12]
 3175 073c FB60     		str	r3, [r7, #12]
 3176              	.L196:
 3177              		.loc 1 1025 9 discriminator 8
 3178 073e FB68     		ldr	r3, [r7, #12]
 3179 0740 002B     		cmp	r3, #0
 3180 0742 EFD1     		bne	.L198
 3181              	.L195:
 3182              	.LBE9:
 3183              		.loc 1 1025 9 discriminator 10
 3184 0744 7B68     		ldr	r3, [r7, #4]
 3185 0746 0022     		movs	r2, #0
 3186 0748 DA60     		str	r2, [r3, #12]
 3187 074a 1F4B     		ldr	r3, .L212
 3188 074c 0122     		movs	r2, #1
ARM GAS  /tmp/ccWqLOXK.s 			page 78


 3189 074e 1A70     		strb	r2, [r3]
1026:Middlewares/Third_Party/LwIP/src/core/tcp_in.c ****         pcb->state = TIME_WAIT;
 3190              		.loc 1 1026 20 is_stmt 1 discriminator 10
 3191 0750 7B68     		ldr	r3, [r7, #4]
 3192 0752 0A22     		movs	r2, #10
 3193 0754 1A75     		strb	r2, [r3, #20]
1027:Middlewares/Third_Party/LwIP/src/core/tcp_in.c ****         TCP_REG(&tcp_tw_pcbs, pcb);
 3194              		.loc 1 1027 9 discriminator 10
 3195 0756 1D4B     		ldr	r3, .L212+4
 3196 0758 1A68     		ldr	r2, [r3]
 3197 075a 7B68     		ldr	r3, [r7, #4]
 3198 075c DA60     		str	r2, [r3, #12]
 3199 075e 1B4A     		ldr	r2, .L212+4
 3200 0760 7B68     		ldr	r3, [r7, #4]
 3201 0762 1360     		str	r3, [r2]
 3202 0764 FFF7FEFF 		bl	tcp_timer_needed
1028:Middlewares/Third_Party/LwIP/src/core/tcp_in.c ****       }
1029:Middlewares/Third_Party/LwIP/src/core/tcp_in.c ****       break;
 3203              		.loc 1 1029 7 discriminator 10
 3204 0768 26E0     		b	.L206
 3205              	.L137:
1030:Middlewares/Third_Party/LwIP/src/core/tcp_in.c ****     case LAST_ACK:
1031:Middlewares/Third_Party/LwIP/src/core/tcp_in.c ****       tcp_receive(pcb);
 3206              		.loc 1 1031 7
 3207 076a 7868     		ldr	r0, [r7, #4]
 3208 076c FFF7FEFF 		bl	tcp_receive
1032:Middlewares/Third_Party/LwIP/src/core/tcp_in.c ****       if ((flags & TCP_ACK) && ackno == pcb->snd_nxt && pcb->unsent == NULL) {
 3209              		.loc 1 1032 18
 3210 0770 174B     		ldr	r3, .L212+8
 3211 0772 1B78     		ldrb	r3, [r3]	@ zero_extendqisi2
 3212 0774 03F01003 		and	r3, r3, #16
 3213              		.loc 1 1032 10
 3214 0778 002B     		cmp	r3, #0
 3215 077a 1FD0     		beq	.L207
 3216              		.loc 1 1032 44 discriminator 1
 3217 077c 7B68     		ldr	r3, [r7, #4]
 3218 077e 1A6D     		ldr	r2, [r3, #80]
 3219              		.loc 1 1032 38 discriminator 1
 3220 0780 144B     		ldr	r3, .L212+12
 3221 0782 1B68     		ldr	r3, [r3]
 3222              		.loc 1 1032 29 discriminator 1
 3223 0784 9A42     		cmp	r2, r3
 3224 0786 19D1     		bne	.L207
 3225              		.loc 1 1032 60 discriminator 2
 3226 0788 7B68     		ldr	r3, [r7, #4]
 3227 078a DB6E     		ldr	r3, [r3, #108]
 3228              		.loc 1 1032 54 discriminator 2
 3229 078c 002B     		cmp	r3, #0
 3230 078e 15D1     		bne	.L207
1033:Middlewares/Third_Party/LwIP/src/core/tcp_in.c ****         LWIP_DEBUGF(TCP_DEBUG, ("TCP connection closed: LAST_ACK %"U16_F" -> %"U16_F".\n", inseg.tc
1034:Middlewares/Third_Party/LwIP/src/core/tcp_in.c ****         /* bugfix #21699: don't set pcb->state to CLOSED here or we risk leaking segments */
1035:Middlewares/Third_Party/LwIP/src/core/tcp_in.c ****         recv_flags |= TF_CLOSED;
 3231              		.loc 1 1035 20
 3232 0790 114B     		ldr	r3, .L212+16
 3233 0792 1B78     		ldrb	r3, [r3]	@ zero_extendqisi2
 3234 0794 43F01003 		orr	r3, r3, #16
 3235 0798 DAB2     		uxtb	r2, r3
ARM GAS  /tmp/ccWqLOXK.s 			page 79


 3236 079a 0F4B     		ldr	r3, .L212+16
 3237 079c 1A70     		strb	r2, [r3]
1036:Middlewares/Third_Party/LwIP/src/core/tcp_in.c ****       }
1037:Middlewares/Third_Party/LwIP/src/core/tcp_in.c ****       break;
 3238              		.loc 1 1037 7
 3239 079e 0DE0     		b	.L207
 3240              	.L200:
1038:Middlewares/Third_Party/LwIP/src/core/tcp_in.c ****     default:
1039:Middlewares/Third_Party/LwIP/src/core/tcp_in.c ****       break;
 3241              		.loc 1 1039 7
 3242 07a0 00BF     		nop
 3243 07a2 0CE0     		b	.L160
 3244              	.L201:
 921:Middlewares/Third_Party/LwIP/src/core/tcp_in.c ****     case SYN_RCVD:
 3245              		.loc 1 921 7
 3246 07a4 00BF     		nop
 3247 07a6 0AE0     		b	.L160
 3248              	.L202:
 978:Middlewares/Third_Party/LwIP/src/core/tcp_in.c ****     case CLOSE_WAIT:
 3249              		.loc 1 978 7
 3250 07a8 00BF     		nop
 3251 07aa 08E0     		b	.L160
 3252              	.L203:
 987:Middlewares/Third_Party/LwIP/src/core/tcp_in.c ****     case FIN_WAIT_1:
 3253              		.loc 1 987 7
 3254 07ac 00BF     		nop
 3255 07ae 06E0     		b	.L160
 3256              	.L204:
1008:Middlewares/Third_Party/LwIP/src/core/tcp_in.c ****     case FIN_WAIT_2:
 3257              		.loc 1 1008 7
 3258 07b0 00BF     		nop
 3259 07b2 04E0     		b	.L160
 3260              	.L205:
1019:Middlewares/Third_Party/LwIP/src/core/tcp_in.c ****     case CLOSING:
 3261              		.loc 1 1019 7
 3262 07b4 00BF     		nop
 3263 07b6 02E0     		b	.L160
 3264              	.L206:
1029:Middlewares/Third_Party/LwIP/src/core/tcp_in.c ****     case LAST_ACK:
 3265              		.loc 1 1029 7
 3266 07b8 00BF     		nop
 3267 07ba 00E0     		b	.L160
 3268              	.L207:
1037:Middlewares/Third_Party/LwIP/src/core/tcp_in.c ****     default:
 3269              		.loc 1 1037 7
 3270 07bc 00BF     		nop
 3271              	.L160:
1040:Middlewares/Third_Party/LwIP/src/core/tcp_in.c ****   }
1041:Middlewares/Third_Party/LwIP/src/core/tcp_in.c ****   return ERR_OK;
 3272              		.loc 1 1041 10
 3273 07be 0023     		movs	r3, #0
 3274              	.L133:
1042:Middlewares/Third_Party/LwIP/src/core/tcp_in.c **** }
 3275              		.loc 1 1042 1
 3276 07c0 1846     		mov	r0, r3
 3277 07c2 2437     		adds	r7, r7, #36
 3278              	.LCFI23:
ARM GAS  /tmp/ccWqLOXK.s 			page 80


 3279              		.cfi_def_cfa_offset 12
 3280 07c4 BD46     		mov	sp, r7
 3281              	.LCFI24:
 3282              		.cfi_def_cfa_register 13
 3283              		@ sp needed
 3284 07c6 90BD     		pop	{r4, r7, pc}
 3285              	.L213:
 3286              		.align	2
 3287              	.L212:
 3288 07c8 00000000 		.word	tcp_active_pcbs_changed
 3289 07cc 00000000 		.word	tcp_tw_pcbs
 3290 07d0 00000000 		.word	flags
 3291 07d4 00000000 		.word	ackno
 3292 07d8 00000000 		.word	recv_flags
 3293 07dc 00000000 		.word	tcp_active_pcbs
 3294              		.cfi_endproc
 3295              	.LFE137:
 3297              		.section	.rodata
 3298 02ba 0000     		.align	2
 3299              	.LC21:
 3300 02bc 7463705F 		.ascii	"tcp_oos_insert_segment: invalid cseg\000"
 3300      6F6F735F 
 3300      696E7365 
 3300      72745F73 
 3300      65676D65 
 3301              		.section	.text.tcp_oos_insert_segment,"ax",%progbits
 3302              		.align	1
 3303              		.syntax unified
 3304              		.thumb
 3305              		.thumb_func
 3306              		.fpu fpv4-sp-d16
 3308              	tcp_oos_insert_segment:
 3309              	.LFB138:
1043:Middlewares/Third_Party/LwIP/src/core/tcp_in.c **** 
1044:Middlewares/Third_Party/LwIP/src/core/tcp_in.c **** #if TCP_QUEUE_OOSEQ
1045:Middlewares/Third_Party/LwIP/src/core/tcp_in.c **** /**
1046:Middlewares/Third_Party/LwIP/src/core/tcp_in.c ****  * Insert segment into the list (segments covered with new one will be deleted)
1047:Middlewares/Third_Party/LwIP/src/core/tcp_in.c ****  *
1048:Middlewares/Third_Party/LwIP/src/core/tcp_in.c ****  * Called from tcp_receive()
1049:Middlewares/Third_Party/LwIP/src/core/tcp_in.c ****  */
1050:Middlewares/Third_Party/LwIP/src/core/tcp_in.c **** static void
1051:Middlewares/Third_Party/LwIP/src/core/tcp_in.c **** tcp_oos_insert_segment(struct tcp_seg *cseg, struct tcp_seg *next)
1052:Middlewares/Third_Party/LwIP/src/core/tcp_in.c **** {
 3310              		.loc 1 1052 1
 3311              		.cfi_startproc
 3312              		@ args = 0, pretend = 0, frame = 16
 3313              		@ frame_needed = 1, uses_anonymous_args = 0
 3314 0000 90B5     		push	{r4, r7, lr}
 3315              	.LCFI25:
 3316              		.cfi_def_cfa_offset 12
 3317              		.cfi_offset 4, -12
 3318              		.cfi_offset 7, -8
 3319              		.cfi_offset 14, -4
 3320 0002 85B0     		sub	sp, sp, #20
 3321              	.LCFI26:
 3322              		.cfi_def_cfa_offset 32
 3323 0004 00AF     		add	r7, sp, #0
ARM GAS  /tmp/ccWqLOXK.s 			page 81


 3324              	.LCFI27:
 3325              		.cfi_def_cfa_register 7
 3326 0006 7860     		str	r0, [r7, #4]
 3327 0008 3960     		str	r1, [r7]
1053:Middlewares/Third_Party/LwIP/src/core/tcp_in.c ****   struct tcp_seg *old_seg;
1054:Middlewares/Third_Party/LwIP/src/core/tcp_in.c **** 
1055:Middlewares/Third_Party/LwIP/src/core/tcp_in.c ****   LWIP_ASSERT("tcp_oos_insert_segment: invalid cseg", cseg != NULL);
 3328              		.loc 1 1055 3
 3329 000a 7B68     		ldr	r3, [r7, #4]
 3330 000c 002B     		cmp	r3, #0
 3331 000e 06D1     		bne	.L215
 3332              		.loc 1 1055 3 is_stmt 0 discriminator 1
 3333 0010 3B4B     		ldr	r3, .L222
 3334 0012 40F21F42 		movw	r2, #1055
 3335 0016 3B49     		ldr	r1, .L222+4
 3336 0018 3B48     		ldr	r0, .L222+8
 3337 001a FFF7FEFF 		bl	printf
 3338              	.L215:
1056:Middlewares/Third_Party/LwIP/src/core/tcp_in.c **** 
1057:Middlewares/Third_Party/LwIP/src/core/tcp_in.c ****   if (TCPH_FLAGS(cseg->tcphdr) & TCP_FIN) {
 3339              		.loc 1 1057 7 is_stmt 1
 3340 001e 7B68     		ldr	r3, [r7, #4]
 3341 0020 DB68     		ldr	r3, [r3, #12]
 3342 0022 9B89     		ldrh	r3, [r3, #12]	@ unaligned
 3343 0024 9BB2     		uxth	r3, r3
 3344 0026 1846     		mov	r0, r3
 3345 0028 FFF7FEFF 		bl	lwip_htons
 3346 002c 0346     		mov	r3, r0
 3347 002e DBB2     		uxtb	r3, r3
 3348              		.loc 1 1057 32
 3349 0030 03F00103 		and	r3, r3, #1
 3350              		.loc 1 1057 6
 3351 0034 002B     		cmp	r3, #0
 3352 0036 28D0     		beq	.L218
1058:Middlewares/Third_Party/LwIP/src/core/tcp_in.c ****     /* received segment overlaps all following segments */
1059:Middlewares/Third_Party/LwIP/src/core/tcp_in.c ****     tcp_segs_free(next);
 3353              		.loc 1 1059 5
 3354 0038 3868     		ldr	r0, [r7]
 3355 003a FFF7FEFF 		bl	tcp_segs_free
1060:Middlewares/Third_Party/LwIP/src/core/tcp_in.c ****     next = NULL;
 3356              		.loc 1 1060 10
 3357 003e 0023     		movs	r3, #0
 3358 0040 3B60     		str	r3, [r7]
 3359 0042 56E0     		b	.L217
 3360              	.L221:
1061:Middlewares/Third_Party/LwIP/src/core/tcp_in.c ****   } else {
1062:Middlewares/Third_Party/LwIP/src/core/tcp_in.c ****     /* delete some following segments
1063:Middlewares/Third_Party/LwIP/src/core/tcp_in.c ****        oos queue may have segments with FIN flag */
1064:Middlewares/Third_Party/LwIP/src/core/tcp_in.c ****     while (next &&
1065:Middlewares/Third_Party/LwIP/src/core/tcp_in.c ****            TCP_SEQ_GEQ((seqno + cseg->len),
1066:Middlewares/Third_Party/LwIP/src/core/tcp_in.c ****                        (next->tcphdr->seqno + next->len))) {
1067:Middlewares/Third_Party/LwIP/src/core/tcp_in.c ****       /* cseg with FIN already processed */
1068:Middlewares/Third_Party/LwIP/src/core/tcp_in.c ****       if (TCPH_FLAGS(next->tcphdr) & TCP_FIN) {
 3361              		.loc 1 1068 11
 3362 0044 3B68     		ldr	r3, [r7]
 3363 0046 DB68     		ldr	r3, [r3, #12]
 3364 0048 9B89     		ldrh	r3, [r3, #12]	@ unaligned
ARM GAS  /tmp/ccWqLOXK.s 			page 82


 3365 004a 9BB2     		uxth	r3, r3
 3366 004c 1846     		mov	r0, r3
 3367 004e FFF7FEFF 		bl	lwip_htons
 3368 0052 0346     		mov	r3, r0
 3369 0054 DBB2     		uxtb	r3, r3
 3370              		.loc 1 1068 36
 3371 0056 03F00103 		and	r3, r3, #1
 3372              		.loc 1 1068 10
 3373 005a 002B     		cmp	r3, #0
 3374 005c 0DD0     		beq	.L219
1069:Middlewares/Third_Party/LwIP/src/core/tcp_in.c ****         TCPH_SET_FLAG(cseg->tcphdr, TCP_FIN);
 3375              		.loc 1 1069 9
 3376 005e 7B68     		ldr	r3, [r7, #4]
 3377 0060 DB68     		ldr	r3, [r3, #12]
 3378 0062 9B89     		ldrh	r3, [r3, #12]	@ unaligned
 3379 0064 9CB2     		uxth	r4, r3
 3380 0066 0120     		movs	r0, #1
 3381 0068 FFF7FEFF 		bl	lwip_htons
 3382 006c 0346     		mov	r3, r0
 3383 006e 1A46     		mov	r2, r3
 3384 0070 7B68     		ldr	r3, [r7, #4]
 3385 0072 DB68     		ldr	r3, [r3, #12]
 3386 0074 2243     		orrs	r2, r2, r4
 3387 0076 92B2     		uxth	r2, r2
 3388 0078 9A81     		strh	r2, [r3, #12]	@ unaligned
 3389              	.L219:
1070:Middlewares/Third_Party/LwIP/src/core/tcp_in.c ****       }
1071:Middlewares/Third_Party/LwIP/src/core/tcp_in.c ****       old_seg = next;
 3390              		.loc 1 1071 15
 3391 007a 3B68     		ldr	r3, [r7]
 3392 007c FB60     		str	r3, [r7, #12]
1072:Middlewares/Third_Party/LwIP/src/core/tcp_in.c ****       next = next->next;
 3393              		.loc 1 1072 12
 3394 007e 3B68     		ldr	r3, [r7]
 3395 0080 1B68     		ldr	r3, [r3]
 3396 0082 3B60     		str	r3, [r7]
1073:Middlewares/Third_Party/LwIP/src/core/tcp_in.c ****       tcp_seg_free(old_seg);
 3397              		.loc 1 1073 7
 3398 0084 F868     		ldr	r0, [r7, #12]
 3399 0086 FFF7FEFF 		bl	tcp_seg_free
 3400              	.L218:
1064:Middlewares/Third_Party/LwIP/src/core/tcp_in.c ****            TCP_SEQ_GEQ((seqno + cseg->len),
 3401              		.loc 1 1064 11
 3402 008a 3B68     		ldr	r3, [r7]
 3403 008c 002B     		cmp	r3, #0
 3404 008e 0ED0     		beq	.L220
1065:Middlewares/Third_Party/LwIP/src/core/tcp_in.c ****                        (next->tcphdr->seqno + next->len))) {
 3405              		.loc 1 1065 12 discriminator 1
 3406 0090 7B68     		ldr	r3, [r7, #4]
 3407 0092 1B89     		ldrh	r3, [r3, #8]
 3408 0094 1A46     		mov	r2, r3
 3409 0096 1D4B     		ldr	r3, .L222+12
 3410 0098 1B68     		ldr	r3, [r3]
 3411 009a 1A44     		add	r2, r2, r3
 3412 009c 3B68     		ldr	r3, [r7]
 3413 009e DB68     		ldr	r3, [r3, #12]
 3414 00a0 5B68     		ldr	r3, [r3, #4]	@ unaligned
ARM GAS  /tmp/ccWqLOXK.s 			page 83


 3415 00a2 3968     		ldr	r1, [r7]
 3416 00a4 0989     		ldrh	r1, [r1, #8]
 3417 00a6 0B44     		add	r3, r3, r1
 3418 00a8 D31A     		subs	r3, r2, r3
1064:Middlewares/Third_Party/LwIP/src/core/tcp_in.c ****            TCP_SEQ_GEQ((seqno + cseg->len),
 3419              		.loc 1 1064 17 discriminator 1
 3420 00aa 002B     		cmp	r3, #0
 3421 00ac CADA     		bge	.L221
 3422              	.L220:
1074:Middlewares/Third_Party/LwIP/src/core/tcp_in.c ****     }
1075:Middlewares/Third_Party/LwIP/src/core/tcp_in.c ****     if (next &&
 3423              		.loc 1 1075 8
 3424 00ae 3B68     		ldr	r3, [r7]
 3425 00b0 002B     		cmp	r3, #0
 3426 00b2 1ED0     		beq	.L217
1076:Middlewares/Third_Party/LwIP/src/core/tcp_in.c ****         TCP_SEQ_GT(seqno + cseg->len, next->tcphdr->seqno)) {
 3427              		.loc 1 1076 9 discriminator 1
 3428 00b4 7B68     		ldr	r3, [r7, #4]
 3429 00b6 1B89     		ldrh	r3, [r3, #8]
 3430 00b8 1A46     		mov	r2, r3
 3431 00ba 144B     		ldr	r3, .L222+12
 3432 00bc 1B68     		ldr	r3, [r3]
 3433 00be 1A44     		add	r2, r2, r3
 3434 00c0 3B68     		ldr	r3, [r7]
 3435 00c2 DB68     		ldr	r3, [r3, #12]
 3436 00c4 5B68     		ldr	r3, [r3, #4]	@ unaligned
 3437 00c6 D31A     		subs	r3, r2, r3
1075:Middlewares/Third_Party/LwIP/src/core/tcp_in.c ****         TCP_SEQ_GT(seqno + cseg->len, next->tcphdr->seqno)) {
 3438              		.loc 1 1075 14 discriminator 1
 3439 00c8 002B     		cmp	r3, #0
 3440 00ca 12DD     		ble	.L217
1077:Middlewares/Third_Party/LwIP/src/core/tcp_in.c ****       /* We need to trim the incoming segment. */
1078:Middlewares/Third_Party/LwIP/src/core/tcp_in.c ****       cseg->len = (u16_t)(next->tcphdr->seqno - seqno);
 3441              		.loc 1 1078 31
 3442 00cc 3B68     		ldr	r3, [r7]
 3443 00ce DB68     		ldr	r3, [r3, #12]
 3444              		.loc 1 1078 39
 3445 00d0 5B68     		ldr	r3, [r3, #4]	@ unaligned
 3446              		.loc 1 1078 19
 3447 00d2 9AB2     		uxth	r2, r3
 3448 00d4 0D4B     		ldr	r3, .L222+12
 3449 00d6 1B68     		ldr	r3, [r3]
 3450 00d8 9BB2     		uxth	r3, r3
 3451 00da D31A     		subs	r3, r2, r3
 3452 00dc 9AB2     		uxth	r2, r3
 3453              		.loc 1 1078 17
 3454 00de 7B68     		ldr	r3, [r7, #4]
 3455 00e0 1A81     		strh	r2, [r3, #8]	@ movhi
1079:Middlewares/Third_Party/LwIP/src/core/tcp_in.c ****       pbuf_realloc(cseg->p, cseg->len);
 3456              		.loc 1 1079 7
 3457 00e2 7B68     		ldr	r3, [r7, #4]
 3458 00e4 5A68     		ldr	r2, [r3, #4]
 3459 00e6 7B68     		ldr	r3, [r7, #4]
 3460 00e8 1B89     		ldrh	r3, [r3, #8]
 3461 00ea 1946     		mov	r1, r3
 3462 00ec 1046     		mov	r0, r2
 3463 00ee FFF7FEFF 		bl	pbuf_realloc
ARM GAS  /tmp/ccWqLOXK.s 			page 84


 3464              	.L217:
1080:Middlewares/Third_Party/LwIP/src/core/tcp_in.c ****     }
1081:Middlewares/Third_Party/LwIP/src/core/tcp_in.c ****   }
1082:Middlewares/Third_Party/LwIP/src/core/tcp_in.c ****   cseg->next = next;
 3465              		.loc 1 1082 14
 3466 00f2 7B68     		ldr	r3, [r7, #4]
 3467 00f4 3A68     		ldr	r2, [r7]
 3468 00f6 1A60     		str	r2, [r3]
1083:Middlewares/Third_Party/LwIP/src/core/tcp_in.c **** }
 3469              		.loc 1 1083 1
 3470 00f8 00BF     		nop
 3471 00fa 1437     		adds	r7, r7, #20
 3472              	.LCFI28:
 3473              		.cfi_def_cfa_offset 12
 3474 00fc BD46     		mov	sp, r7
 3475              	.LCFI29:
 3476              		.cfi_def_cfa_register 13
 3477              		@ sp needed
 3478 00fe 90BD     		pop	{r4, r7, pc}
 3479              	.L223:
 3480              		.align	2
 3481              	.L222:
 3482 0100 00000000 		.word	.LC0
 3483 0104 BC020000 		.word	.LC21
 3484 0108 48000000 		.word	.LC2
 3485 010c 00000000 		.word	seqno
 3486              		.cfi_endproc
 3487              	.LFE138:
 3489              		.section	.rodata
 3490 02e1 000000   		.align	2
 3491              	.LC22:
 3492 02e4 7063622D 		.ascii	"pcb->snd_queuelen >= pbuf_clen(next->p)\000"
 3492      3E736E64 
 3492      5F717565 
 3492      75656C65 
 3492      6E203E3D 
 3493              		.align	2
 3494              	.LC23:
 3495 030c 7463705F 		.ascii	"tcp_receive: valid queue length\000"
 3495      72656365 
 3495      6976653A 
 3495      2076616C 
 3495      69642071 
 3496              		.section	.text.tcp_free_acked_segments,"ax",%progbits
 3497              		.align	1
 3498              		.syntax unified
 3499              		.thumb
 3500              		.thumb_func
 3501              		.fpu fpv4-sp-d16
 3503              	tcp_free_acked_segments:
 3504              	.LFB139:
1084:Middlewares/Third_Party/LwIP/src/core/tcp_in.c **** #endif /* TCP_QUEUE_OOSEQ */
1085:Middlewares/Third_Party/LwIP/src/core/tcp_in.c **** 
1086:Middlewares/Third_Party/LwIP/src/core/tcp_in.c **** /** Remove segments from a list if the incoming ACK acknowledges them */
1087:Middlewares/Third_Party/LwIP/src/core/tcp_in.c **** static struct tcp_seg *
1088:Middlewares/Third_Party/LwIP/src/core/tcp_in.c **** tcp_free_acked_segments(struct tcp_pcb *pcb, struct tcp_seg *seg_list, const char *dbg_list_name,
1089:Middlewares/Third_Party/LwIP/src/core/tcp_in.c ****                         struct tcp_seg *dbg_other_seg_list)
ARM GAS  /tmp/ccWqLOXK.s 			page 85


1090:Middlewares/Third_Party/LwIP/src/core/tcp_in.c **** {
 3505              		.loc 1 1090 1
 3506              		.cfi_startproc
 3507              		@ args = 0, pretend = 0, frame = 24
 3508              		@ frame_needed = 1, uses_anonymous_args = 0
 3509 0000 B0B5     		push	{r4, r5, r7, lr}
 3510              	.LCFI30:
 3511              		.cfi_def_cfa_offset 16
 3512              		.cfi_offset 4, -16
 3513              		.cfi_offset 5, -12
 3514              		.cfi_offset 7, -8
 3515              		.cfi_offset 14, -4
 3516 0002 86B0     		sub	sp, sp, #24
 3517              	.LCFI31:
 3518              		.cfi_def_cfa_offset 40
 3519 0004 00AF     		add	r7, sp, #0
 3520              	.LCFI32:
 3521              		.cfi_def_cfa_register 7
 3522 0006 F860     		str	r0, [r7, #12]
 3523 0008 B960     		str	r1, [r7, #8]
 3524 000a 7A60     		str	r2, [r7, #4]
 3525 000c 3B60     		str	r3, [r7]
1091:Middlewares/Third_Party/LwIP/src/core/tcp_in.c ****   struct tcp_seg *next;
1092:Middlewares/Third_Party/LwIP/src/core/tcp_in.c ****   u16_t clen;
1093:Middlewares/Third_Party/LwIP/src/core/tcp_in.c **** 
1094:Middlewares/Third_Party/LwIP/src/core/tcp_in.c ****   LWIP_UNUSED_ARG(dbg_list_name);
1095:Middlewares/Third_Party/LwIP/src/core/tcp_in.c ****   LWIP_UNUSED_ARG(dbg_other_seg_list);
1096:Middlewares/Third_Party/LwIP/src/core/tcp_in.c **** 
1097:Middlewares/Third_Party/LwIP/src/core/tcp_in.c ****   while (seg_list != NULL &&
 3526              		.loc 1 1097 9
 3527 000e 3EE0     		b	.L225
 3528              	.L230:
1098:Middlewares/Third_Party/LwIP/src/core/tcp_in.c ****          TCP_SEQ_LEQ(lwip_ntohl(seg_list->tcphdr->seqno) +
1099:Middlewares/Third_Party/LwIP/src/core/tcp_in.c ****                      TCP_TCPLEN(seg_list), ackno)) {
1100:Middlewares/Third_Party/LwIP/src/core/tcp_in.c ****     LWIP_DEBUGF(TCP_INPUT_DEBUG, ("tcp_receive: removing %"U32_F":%"U32_F" from pcb->%s\n",
1101:Middlewares/Third_Party/LwIP/src/core/tcp_in.c ****                                   lwip_ntohl(seg_list->tcphdr->seqno),
1102:Middlewares/Third_Party/LwIP/src/core/tcp_in.c ****                                   lwip_ntohl(seg_list->tcphdr->seqno) + TCP_TCPLEN(seg_list),
1103:Middlewares/Third_Party/LwIP/src/core/tcp_in.c ****                                   dbg_list_name));
1104:Middlewares/Third_Party/LwIP/src/core/tcp_in.c **** 
1105:Middlewares/Third_Party/LwIP/src/core/tcp_in.c ****     next = seg_list;
 3529              		.loc 1 1105 10
 3530 0010 BB68     		ldr	r3, [r7, #8]
 3531 0012 7B61     		str	r3, [r7, #20]
1106:Middlewares/Third_Party/LwIP/src/core/tcp_in.c ****     seg_list = seg_list->next;
 3532              		.loc 1 1106 14
 3533 0014 BB68     		ldr	r3, [r7, #8]
 3534 0016 1B68     		ldr	r3, [r3]
 3535 0018 BB60     		str	r3, [r7, #8]
1107:Middlewares/Third_Party/LwIP/src/core/tcp_in.c **** 
1108:Middlewares/Third_Party/LwIP/src/core/tcp_in.c ****     clen = pbuf_clen(next->p);
 3536              		.loc 1 1108 26
 3537 001a 7B69     		ldr	r3, [r7, #20]
 3538 001c 5B68     		ldr	r3, [r3, #4]
 3539              		.loc 1 1108 12
 3540 001e 1846     		mov	r0, r3
 3541 0020 FFF7FEFF 		bl	pbuf_clen
 3542 0024 0346     		mov	r3, r0
ARM GAS  /tmp/ccWqLOXK.s 			page 86


 3543 0026 7B82     		strh	r3, [r7, #18]	@ movhi
1109:Middlewares/Third_Party/LwIP/src/core/tcp_in.c ****     LWIP_DEBUGF(TCP_QLEN_DEBUG, ("tcp_receive: queuelen %"TCPWNDSIZE_F" ... ",
1110:Middlewares/Third_Party/LwIP/src/core/tcp_in.c ****                                  (tcpwnd_size_t)pcb->snd_queuelen));
1111:Middlewares/Third_Party/LwIP/src/core/tcp_in.c ****     LWIP_ASSERT("pcb->snd_queuelen >= pbuf_clen(next->p)", (pcb->snd_queuelen >= clen));
 3544              		.loc 1 1111 5
 3545 0028 FB68     		ldr	r3, [r7, #12]
 3546 002a B3F86630 		ldrh	r3, [r3, #102]
 3547 002e 7A8A     		ldrh	r2, [r7, #18]
 3548 0030 9A42     		cmp	r2, r3
 3549 0032 06D9     		bls	.L226
 3550              		.loc 1 1111 5 is_stmt 0 discriminator 1
 3551 0034 2A4B     		ldr	r3, .L232
 3552 0036 40F25742 		movw	r2, #1111
 3553 003a 2A49     		ldr	r1, .L232+4
 3554 003c 2A48     		ldr	r0, .L232+8
 3555 003e FFF7FEFF 		bl	printf
 3556              	.L226:
1112:Middlewares/Third_Party/LwIP/src/core/tcp_in.c **** 
1113:Middlewares/Third_Party/LwIP/src/core/tcp_in.c ****     pcb->snd_queuelen = (u16_t)(pcb->snd_queuelen - clen);
 3557              		.loc 1 1113 36 is_stmt 1
 3558 0042 FB68     		ldr	r3, [r7, #12]
 3559 0044 B3F86620 		ldrh	r2, [r3, #102]
 3560              		.loc 1 1113 25
 3561 0048 7B8A     		ldrh	r3, [r7, #18]	@ movhi
 3562 004a D31A     		subs	r3, r2, r3
 3563 004c 9AB2     		uxth	r2, r3
 3564              		.loc 1 1113 23
 3565 004e FB68     		ldr	r3, [r7, #12]
 3566 0050 A3F86620 		strh	r2, [r3, #102]	@ movhi
1114:Middlewares/Third_Party/LwIP/src/core/tcp_in.c ****     recv_acked = (tcpwnd_size_t)(recv_acked + next->len);
 3567              		.loc 1 1114 51
 3568 0054 7B69     		ldr	r3, [r7, #20]
 3569 0056 1A89     		ldrh	r2, [r3, #8]
 3570              		.loc 1 1114 18
 3571 0058 244B     		ldr	r3, .L232+12
 3572 005a 1B88     		ldrh	r3, [r3]
 3573 005c 1344     		add	r3, r3, r2
 3574 005e 9AB2     		uxth	r2, r3
 3575              		.loc 1 1114 16
 3576 0060 224B     		ldr	r3, .L232+12
 3577 0062 1A80     		strh	r2, [r3]	@ movhi
1115:Middlewares/Third_Party/LwIP/src/core/tcp_in.c ****     tcp_seg_free(next);
 3578              		.loc 1 1115 5
 3579 0064 7869     		ldr	r0, [r7, #20]
 3580 0066 FFF7FEFF 		bl	tcp_seg_free
1116:Middlewares/Third_Party/LwIP/src/core/tcp_in.c **** 
1117:Middlewares/Third_Party/LwIP/src/core/tcp_in.c ****     LWIP_DEBUGF(TCP_QLEN_DEBUG, ("%"TCPWNDSIZE_F" (after freeing %s)\n",
1118:Middlewares/Third_Party/LwIP/src/core/tcp_in.c ****                                  (tcpwnd_size_t)pcb->snd_queuelen,
1119:Middlewares/Third_Party/LwIP/src/core/tcp_in.c ****                                  dbg_list_name));
1120:Middlewares/Third_Party/LwIP/src/core/tcp_in.c ****     if (pcb->snd_queuelen != 0) {
 3581              		.loc 1 1120 12
 3582 006a FB68     		ldr	r3, [r7, #12]
 3583 006c B3F86630 		ldrh	r3, [r3, #102]
 3584              		.loc 1 1120 8
 3585 0070 002B     		cmp	r3, #0
 3586 0072 0CD0     		beq	.L225
1121:Middlewares/Third_Party/LwIP/src/core/tcp_in.c ****       LWIP_ASSERT("tcp_receive: valid queue length",
ARM GAS  /tmp/ccWqLOXK.s 			page 87


 3587              		.loc 1 1121 7
 3588 0074 BB68     		ldr	r3, [r7, #8]
 3589 0076 002B     		cmp	r3, #0
 3590 0078 09D1     		bne	.L225
 3591              		.loc 1 1121 7 is_stmt 0 discriminator 1
 3592 007a 3B68     		ldr	r3, [r7]
 3593 007c 002B     		cmp	r3, #0
 3594 007e 06D1     		bne	.L225
 3595              		.loc 1 1121 7 discriminator 2
 3596 0080 174B     		ldr	r3, .L232
 3597 0082 40F26242 		movw	r2, #1122
 3598 0086 1A49     		ldr	r1, .L232+16
 3599 0088 1748     		ldr	r0, .L232+8
 3600 008a FFF7FEFF 		bl	printf
 3601              	.L225:
1097:Middlewares/Third_Party/LwIP/src/core/tcp_in.c ****          TCP_SEQ_LEQ(lwip_ntohl(seg_list->tcphdr->seqno) +
 3602              		.loc 1 1097 9 is_stmt 1
 3603 008e BB68     		ldr	r3, [r7, #8]
 3604 0090 002B     		cmp	r3, #0
 3605 0092 20D0     		beq	.L227
1098:Middlewares/Third_Party/LwIP/src/core/tcp_in.c ****                      TCP_TCPLEN(seg_list), ackno)) {
 3606              		.loc 1 1098 10
 3607 0094 BB68     		ldr	r3, [r7, #8]
 3608 0096 DB68     		ldr	r3, [r3, #12]
 3609 0098 5B68     		ldr	r3, [r3, #4]	@ unaligned
 3610 009a 1846     		mov	r0, r3
 3611 009c FFF7FEFF 		bl	lwip_htonl
 3612 00a0 0446     		mov	r4, r0
 3613 00a2 BB68     		ldr	r3, [r7, #8]
 3614 00a4 1B89     		ldrh	r3, [r3, #8]
 3615 00a6 1D46     		mov	r5, r3
 3616 00a8 BB68     		ldr	r3, [r7, #8]
 3617 00aa DB68     		ldr	r3, [r3, #12]
 3618 00ac 9B89     		ldrh	r3, [r3, #12]	@ unaligned
 3619 00ae 9BB2     		uxth	r3, r3
 3620 00b0 1846     		mov	r0, r3
 3621 00b2 FFF7FEFF 		bl	lwip_htons
 3622 00b6 0346     		mov	r3, r0
 3623 00b8 DBB2     		uxtb	r3, r3
 3624 00ba 03F00303 		and	r3, r3, #3
 3625 00be 002B     		cmp	r3, #0
 3626 00c0 01D0     		beq	.L228
1098:Middlewares/Third_Party/LwIP/src/core/tcp_in.c ****                      TCP_TCPLEN(seg_list), ackno)) {
 3627              		.loc 1 1098 10 is_stmt 0 discriminator 1
 3628 00c2 0123     		movs	r3, #1
 3629 00c4 00E0     		b	.L229
 3630              	.L228:
1098:Middlewares/Third_Party/LwIP/src/core/tcp_in.c ****                      TCP_TCPLEN(seg_list), ackno)) {
 3631              		.loc 1 1098 10 discriminator 2
 3632 00c6 0023     		movs	r3, #0
 3633              	.L229:
1098:Middlewares/Third_Party/LwIP/src/core/tcp_in.c ****                      TCP_TCPLEN(seg_list), ackno)) {
 3634              		.loc 1 1098 10 discriminator 4
 3635 00c8 2B44     		add	r3, r3, r5
 3636 00ca E218     		adds	r2, r4, r3
 3637 00cc 094B     		ldr	r3, .L232+20
 3638 00ce 1B68     		ldr	r3, [r3]
ARM GAS  /tmp/ccWqLOXK.s 			page 88


 3639 00d0 D31A     		subs	r3, r2, r3
1097:Middlewares/Third_Party/LwIP/src/core/tcp_in.c ****          TCP_SEQ_LEQ(lwip_ntohl(seg_list->tcphdr->seqno) +
 3640              		.loc 1 1097 27 is_stmt 1 discriminator 4
 3641 00d2 002B     		cmp	r3, #0
 3642 00d4 9CDD     		ble	.L230
 3643              	.L227:
1122:Middlewares/Third_Party/LwIP/src/core/tcp_in.c ****                   seg_list != NULL || dbg_other_seg_list != NULL);
1123:Middlewares/Third_Party/LwIP/src/core/tcp_in.c ****     }
1124:Middlewares/Third_Party/LwIP/src/core/tcp_in.c ****   }
1125:Middlewares/Third_Party/LwIP/src/core/tcp_in.c ****   return seg_list;
 3644              		.loc 1 1125 10
 3645 00d6 BB68     		ldr	r3, [r7, #8]
1126:Middlewares/Third_Party/LwIP/src/core/tcp_in.c **** }
 3646              		.loc 1 1126 1
 3647 00d8 1846     		mov	r0, r3
 3648 00da 1837     		adds	r7, r7, #24
 3649              	.LCFI33:
 3650              		.cfi_def_cfa_offset 16
 3651 00dc BD46     		mov	sp, r7
 3652              	.LCFI34:
 3653              		.cfi_def_cfa_register 13
 3654              		@ sp needed
 3655 00de B0BD     		pop	{r4, r5, r7, pc}
 3656              	.L233:
 3657              		.align	2
 3658              	.L232:
 3659 00e0 00000000 		.word	.LC0
 3660 00e4 E4020000 		.word	.LC22
 3661 00e8 48000000 		.word	.LC2
 3662 00ec 00000000 		.word	recv_acked
 3663 00f0 0C030000 		.word	.LC23
 3664 00f4 00000000 		.word	ackno
 3665              		.cfi_endproc
 3666              	.LFE139:
 3668              		.section	.rodata
 3669              		.align	2
 3670              	.LC24:
 3671 032c 7463705F 		.ascii	"tcp_receive: invalid pcb\000"
 3671      72656365 
 3671      6976653A 
 3671      20696E76 
 3671      616C6964 
 3672 0345 000000   		.align	2
 3673              	.LC25:
 3674 0348 7463705F 		.ascii	"tcp_receive: wrong state\000"
 3674      72656365 
 3674      6976653A 
 3674      2077726F 
 3674      6E672073 
 3675 0361 000000   		.align	2
 3676              	.LC26:
 3677 0364 756E6163 		.ascii	"unacked\000"
 3677      6B656400 
 3678              		.align	2
 3679              	.LC27:
 3680 036c 756E7365 		.ascii	"unsent\000"
 3680      6E7400
ARM GAS  /tmp/ccWqLOXK.s 			page 89


 3681 0373 00       		.align	2
 3682              	.LC28:
 3683 0374 696E7365 		.ascii	"inseg.p != NULL\000"
 3683      672E7020 
 3683      213D204E 
 3683      554C4C00 
 3684              		.align	2
 3685              	.LC29:
 3686 0384 696E7361 		.ascii	"insane offset!\000"
 3686      6E65206F 
 3686      66667365 
 3686      742100
 3687 0393 00       		.align	2
 3688              	.LC30:
 3689 0394 70627566 		.ascii	"pbuf too short!\000"
 3689      20746F6F 
 3689      2073686F 
 3689      72742100 
 3690              		.align	2
 3691              	.LC31:
 3692 03a4 7463705F 		.ascii	"tcp_receive: segment not trimmed correctly to rcv_w"
 3692      72656365 
 3692      6976653A 
 3692      20736567 
 3692      6D656E74 
 3693 03d7 6E640A00 		.ascii	"nd\012\000"
 3694 03db 00       		.align	2
 3695              	.LC32:
 3696 03dc 7463705F 		.ascii	"tcp_receive: segment not trimmed correctly to ooseq"
 3696      72656365 
 3696      6976653A 
 3696      20736567 
 3696      6D656E74 
 3697 040f 20717565 		.ascii	" queue\012\000"
 3697      75650A00 
 3698 0417 00       		.align	2
 3699              	.LC33:
 3700 0418 7463705F 		.ascii	"tcp_receive: tcplen > rcv_wnd\012\000"
 3700      72656365 
 3700      6976653A 
 3700      20746370 
 3700      6C656E20 
 3701 0437 00       		.align	2
 3702              	.LC34:
 3703 0438 7463705F 		.ascii	"tcp_receive: ooseq tcplen > rcv_wnd\012\000"
 3703      72656365 
 3703      6976653A 
 3703      206F6F73 
 3703      65712074 
 3704              		.section	.text.tcp_receive,"ax",%progbits
 3705              		.align	1
 3706              		.syntax unified
 3707              		.thumb
 3708              		.thumb_func
 3709              		.fpu fpv4-sp-d16
 3711              	tcp_receive:
 3712              	.LFB140:
ARM GAS  /tmp/ccWqLOXK.s 			page 90


1127:Middlewares/Third_Party/LwIP/src/core/tcp_in.c **** 
1128:Middlewares/Third_Party/LwIP/src/core/tcp_in.c **** /**
1129:Middlewares/Third_Party/LwIP/src/core/tcp_in.c ****  * Called by tcp_process. Checks if the given segment is an ACK for outstanding
1130:Middlewares/Third_Party/LwIP/src/core/tcp_in.c ****  * data, and if so frees the memory of the buffered data. Next, it places the
1131:Middlewares/Third_Party/LwIP/src/core/tcp_in.c ****  * segment on any of the receive queues (pcb->recved or pcb->ooseq). If the segment
1132:Middlewares/Third_Party/LwIP/src/core/tcp_in.c ****  * is buffered, the pbuf is referenced by pbuf_ref so that it will not be freed until
1133:Middlewares/Third_Party/LwIP/src/core/tcp_in.c ****  * it has been removed from the buffer.
1134:Middlewares/Third_Party/LwIP/src/core/tcp_in.c ****  *
1135:Middlewares/Third_Party/LwIP/src/core/tcp_in.c ****  * If the incoming segment constitutes an ACK for a segment that was used for RTT
1136:Middlewares/Third_Party/LwIP/src/core/tcp_in.c ****  * estimation, the RTT is estimated here as well.
1137:Middlewares/Third_Party/LwIP/src/core/tcp_in.c ****  *
1138:Middlewares/Third_Party/LwIP/src/core/tcp_in.c ****  * Called from tcp_process().
1139:Middlewares/Third_Party/LwIP/src/core/tcp_in.c ****  */
1140:Middlewares/Third_Party/LwIP/src/core/tcp_in.c **** static void
1141:Middlewares/Third_Party/LwIP/src/core/tcp_in.c **** tcp_receive(struct tcp_pcb *pcb)
1142:Middlewares/Third_Party/LwIP/src/core/tcp_in.c **** {
 3713              		.loc 1 1142 1
 3714              		.cfi_startproc
 3715              		@ args = 0, pretend = 0, frame = 80
 3716              		@ frame_needed = 1, uses_anonymous_args = 0
 3717 0000 B0B5     		push	{r4, r5, r7, lr}
 3718              	.LCFI35:
 3719              		.cfi_def_cfa_offset 16
 3720              		.cfi_offset 4, -16
 3721              		.cfi_offset 5, -12
 3722              		.cfi_offset 7, -8
 3723              		.cfi_offset 14, -4
 3724 0002 94B0     		sub	sp, sp, #80
 3725              	.LCFI36:
 3726              		.cfi_def_cfa_offset 96
 3727 0004 00AF     		add	r7, sp, #0
 3728              	.LCFI37:
 3729              		.cfi_def_cfa_register 7
 3730 0006 7860     		str	r0, [r7, #4]
1143:Middlewares/Third_Party/LwIP/src/core/tcp_in.c ****   s16_t m;
1144:Middlewares/Third_Party/LwIP/src/core/tcp_in.c ****   u32_t right_wnd_edge;
1145:Middlewares/Third_Party/LwIP/src/core/tcp_in.c ****   int found_dupack = 0;
 3731              		.loc 1 1145 7
 3732 0008 0023     		movs	r3, #0
 3733 000a BB64     		str	r3, [r7, #72]
1146:Middlewares/Third_Party/LwIP/src/core/tcp_in.c **** 
1147:Middlewares/Third_Party/LwIP/src/core/tcp_in.c ****   LWIP_ASSERT("tcp_receive: invalid pcb", pcb != NULL);
 3734              		.loc 1 1147 3
 3735 000c 7B68     		ldr	r3, [r7, #4]
 3736 000e 002B     		cmp	r3, #0
 3737 0010 06D1     		bne	.L235
 3738              		.loc 1 1147 3 is_stmt 0 discriminator 1
 3739 0012 A64B     		ldr	r3, .L351
 3740 0014 40F27B42 		movw	r2, #1147
 3741 0018 A549     		ldr	r1, .L351+4
 3742 001a A648     		ldr	r0, .L351+8
 3743 001c FFF7FEFF 		bl	printf
 3744              	.L235:
1148:Middlewares/Third_Party/LwIP/src/core/tcp_in.c ****   LWIP_ASSERT("tcp_receive: wrong state", pcb->state >= ESTABLISHED);
 3745              		.loc 1 1148 3 is_stmt 1
 3746 0020 7B68     		ldr	r3, [r7, #4]
 3747 0022 1B7D     		ldrb	r3, [r3, #20]	@ zero_extendqisi2
ARM GAS  /tmp/ccWqLOXK.s 			page 91


 3748 0024 032B     		cmp	r3, #3
 3749 0026 06D8     		bhi	.L236
 3750              		.loc 1 1148 3 is_stmt 0 discriminator 1
 3751 0028 A04B     		ldr	r3, .L351
 3752 002a 40F27C42 		movw	r2, #1148
 3753 002e A249     		ldr	r1, .L351+12
 3754 0030 A048     		ldr	r0, .L351+8
 3755 0032 FFF7FEFF 		bl	printf
 3756              	.L236:
1149:Middlewares/Third_Party/LwIP/src/core/tcp_in.c **** 
1150:Middlewares/Third_Party/LwIP/src/core/tcp_in.c ****   if (flags & TCP_ACK) {
 3757              		.loc 1 1150 13 is_stmt 1
 3758 0036 A14B     		ldr	r3, .L351+16
 3759 0038 1B78     		ldrb	r3, [r3]	@ zero_extendqisi2
 3760 003a 03F01003 		and	r3, r3, #16
 3761              		.loc 1 1150 6
 3762 003e 002B     		cmp	r3, #0
 3763 0040 00F06382 		beq	.L237
1151:Middlewares/Third_Party/LwIP/src/core/tcp_in.c ****     right_wnd_edge = pcb->snd_wnd + pcb->snd_wl2;
 3764              		.loc 1 1151 25
 3765 0044 7B68     		ldr	r3, [r7, #4]
 3766 0046 B3F86030 		ldrh	r3, [r3, #96]
 3767 004a 1A46     		mov	r2, r3
 3768              		.loc 1 1151 40
 3769 004c 7B68     		ldr	r3, [r7, #4]
 3770 004e 9B6D     		ldr	r3, [r3, #88]
 3771              		.loc 1 1151 20
 3772 0050 1344     		add	r3, r3, r2
 3773 0052 3B63     		str	r3, [r7, #48]
1152:Middlewares/Third_Party/LwIP/src/core/tcp_in.c **** 
1153:Middlewares/Third_Party/LwIP/src/core/tcp_in.c ****     /* Update window. */
1154:Middlewares/Third_Party/LwIP/src/core/tcp_in.c ****     if (TCP_SEQ_LT(pcb->snd_wl1, seqno) ||
 3774              		.loc 1 1154 9
 3775 0054 7B68     		ldr	r3, [r7, #4]
 3776 0056 5A6D     		ldr	r2, [r3, #84]
 3777 0058 994B     		ldr	r3, .L351+20
 3778 005a 1B68     		ldr	r3, [r3]
 3779 005c D31A     		subs	r3, r2, r3
 3780              		.loc 1 1154 8
 3781 005e 002B     		cmp	r3, #0
 3782 0060 1BDB     		blt	.L238
1155:Middlewares/Third_Party/LwIP/src/core/tcp_in.c ****         (pcb->snd_wl1 == seqno && TCP_SEQ_LT(pcb->snd_wl2, ackno)) ||
 3783              		.loc 1 1155 13 discriminator 1
 3784 0062 7B68     		ldr	r3, [r7, #4]
 3785 0064 5A6D     		ldr	r2, [r3, #84]
 3786              		.loc 1 1155 23 discriminator 1
 3787 0066 964B     		ldr	r3, .L351+20
 3788 0068 1B68     		ldr	r3, [r3]
1154:Middlewares/Third_Party/LwIP/src/core/tcp_in.c ****         (pcb->snd_wl1 == seqno && TCP_SEQ_LT(pcb->snd_wl2, ackno)) ||
 3789              		.loc 1 1154 41 discriminator 1
 3790 006a 9A42     		cmp	r2, r3
 3791 006c 06D1     		bne	.L239
 3792              		.loc 1 1155 35
 3793 006e 7B68     		ldr	r3, [r7, #4]
 3794 0070 9A6D     		ldr	r2, [r3, #88]
 3795 0072 944B     		ldr	r3, .L351+24
 3796 0074 1B68     		ldr	r3, [r3]
ARM GAS  /tmp/ccWqLOXK.s 			page 92


 3797 0076 D31A     		subs	r3, r2, r3
 3798              		.loc 1 1155 32
 3799 0078 002B     		cmp	r3, #0
 3800 007a 0EDB     		blt	.L238
 3801              	.L239:
1156:Middlewares/Third_Party/LwIP/src/core/tcp_in.c ****         (pcb->snd_wl2 == ackno && (u32_t)SND_WND_SCALE(pcb, tcphdr->wnd) > pcb->snd_wnd)) {
 3802              		.loc 1 1156 13 discriminator 1
 3803 007c 7B68     		ldr	r3, [r7, #4]
 3804 007e 9A6D     		ldr	r2, [r3, #88]
 3805              		.loc 1 1156 23 discriminator 1
 3806 0080 904B     		ldr	r3, .L351+24
 3807 0082 1B68     		ldr	r3, [r3]
1155:Middlewares/Third_Party/LwIP/src/core/tcp_in.c ****         (pcb->snd_wl1 == seqno && TCP_SEQ_LT(pcb->snd_wl2, ackno)) ||
 3808              		.loc 1 1155 68 discriminator 1
 3809 0084 9A42     		cmp	r2, r3
 3810 0086 25D1     		bne	.L240
 3811              		.loc 1 1156 42
 3812 0088 8F4B     		ldr	r3, .L351+28
 3813 008a 1B68     		ldr	r3, [r3]
 3814 008c DB89     		ldrh	r3, [r3, #14]	@ unaligned
 3815 008e 9AB2     		uxth	r2, r3
 3816              		.loc 1 1156 79
 3817 0090 7B68     		ldr	r3, [r7, #4]
 3818 0092 B3F86030 		ldrh	r3, [r3, #96]
 3819              		.loc 1 1156 32
 3820 0096 9A42     		cmp	r2, r3
 3821 0098 1CD9     		bls	.L240
 3822              	.L238:
1157:Middlewares/Third_Party/LwIP/src/core/tcp_in.c ****       pcb->snd_wnd = SND_WND_SCALE(pcb, tcphdr->wnd);
 3823              		.loc 1 1157 22
 3824 009a 8B4B     		ldr	r3, .L351+28
 3825 009c 1B68     		ldr	r3, [r3]
 3826 009e DB89     		ldrh	r3, [r3, #14]	@ unaligned
 3827 00a0 9AB2     		uxth	r2, r3
 3828              		.loc 1 1157 20
 3829 00a2 7B68     		ldr	r3, [r7, #4]
 3830 00a4 A3F86020 		strh	r2, [r3, #96]	@ movhi
1158:Middlewares/Third_Party/LwIP/src/core/tcp_in.c ****       /* keep track of the biggest window announced by the remote host to calculate
1159:Middlewares/Third_Party/LwIP/src/core/tcp_in.c ****          the maximum segment size */
1160:Middlewares/Third_Party/LwIP/src/core/tcp_in.c ****       if (pcb->snd_wnd_max < pcb->snd_wnd) {
 3831              		.loc 1 1160 14
 3832 00a8 7B68     		ldr	r3, [r7, #4]
 3833 00aa B3F86220 		ldrh	r2, [r3, #98]
 3834              		.loc 1 1160 33
 3835 00ae 7B68     		ldr	r3, [r7, #4]
 3836 00b0 B3F86030 		ldrh	r3, [r3, #96]
 3837              		.loc 1 1160 10
 3838 00b4 9A42     		cmp	r2, r3
 3839 00b6 05D2     		bcs	.L241
1161:Middlewares/Third_Party/LwIP/src/core/tcp_in.c ****         pcb->snd_wnd_max = pcb->snd_wnd;
 3840              		.loc 1 1161 31
 3841 00b8 7B68     		ldr	r3, [r7, #4]
 3842 00ba B3F86020 		ldrh	r2, [r3, #96]
 3843              		.loc 1 1161 26
 3844 00be 7B68     		ldr	r3, [r7, #4]
 3845 00c0 A3F86220 		strh	r2, [r3, #98]	@ movhi
 3846              	.L241:
ARM GAS  /tmp/ccWqLOXK.s 			page 93


1162:Middlewares/Third_Party/LwIP/src/core/tcp_in.c ****       }
1163:Middlewares/Third_Party/LwIP/src/core/tcp_in.c ****       pcb->snd_wl1 = seqno;
 3847              		.loc 1 1163 20
 3848 00c4 7E4B     		ldr	r3, .L351+20
 3849 00c6 1A68     		ldr	r2, [r3]
 3850 00c8 7B68     		ldr	r3, [r7, #4]
 3851 00ca 5A65     		str	r2, [r3, #84]
1164:Middlewares/Third_Party/LwIP/src/core/tcp_in.c ****       pcb->snd_wl2 = ackno;
 3852              		.loc 1 1164 20
 3853 00cc 7D4B     		ldr	r3, .L351+24
 3854 00ce 1A68     		ldr	r2, [r3]
 3855 00d0 7B68     		ldr	r3, [r7, #4]
 3856 00d2 9A65     		str	r2, [r3, #88]
 3857              	.L240:
1165:Middlewares/Third_Party/LwIP/src/core/tcp_in.c ****       LWIP_DEBUGF(TCP_WND_DEBUG, ("tcp_receive: window update %"TCPWNDSIZE_F"\n", pcb->snd_wnd));
1166:Middlewares/Third_Party/LwIP/src/core/tcp_in.c **** #if TCP_WND_DEBUG
1167:Middlewares/Third_Party/LwIP/src/core/tcp_in.c ****     } else {
1168:Middlewares/Third_Party/LwIP/src/core/tcp_in.c ****       if (pcb->snd_wnd != (tcpwnd_size_t)SND_WND_SCALE(pcb, tcphdr->wnd)) {
1169:Middlewares/Third_Party/LwIP/src/core/tcp_in.c ****         LWIP_DEBUGF(TCP_WND_DEBUG,
1170:Middlewares/Third_Party/LwIP/src/core/tcp_in.c ****                     ("tcp_receive: no window update lastack %"U32_F" ackno %"
1171:Middlewares/Third_Party/LwIP/src/core/tcp_in.c ****                      U32_F" wl1 %"U32_F" seqno %"U32_F" wl2 %"U32_F"\n",
1172:Middlewares/Third_Party/LwIP/src/core/tcp_in.c ****                      pcb->lastack, ackno, pcb->snd_wl1, seqno, pcb->snd_wl2));
1173:Middlewares/Third_Party/LwIP/src/core/tcp_in.c ****       }
1174:Middlewares/Third_Party/LwIP/src/core/tcp_in.c **** #endif /* TCP_WND_DEBUG */
1175:Middlewares/Third_Party/LwIP/src/core/tcp_in.c ****     }
1176:Middlewares/Third_Party/LwIP/src/core/tcp_in.c **** 
1177:Middlewares/Third_Party/LwIP/src/core/tcp_in.c ****     /* (From Stevens TCP/IP Illustrated Vol II, p970.) Its only a
1178:Middlewares/Third_Party/LwIP/src/core/tcp_in.c ****      * duplicate ack if:
1179:Middlewares/Third_Party/LwIP/src/core/tcp_in.c ****      * 1) It doesn't ACK new data
1180:Middlewares/Third_Party/LwIP/src/core/tcp_in.c ****      * 2) length of received packet is zero (i.e. no payload)
1181:Middlewares/Third_Party/LwIP/src/core/tcp_in.c ****      * 3) the advertised window hasn't changed
1182:Middlewares/Third_Party/LwIP/src/core/tcp_in.c ****      * 4) There is outstanding unacknowledged data (retransmission timer running)
1183:Middlewares/Third_Party/LwIP/src/core/tcp_in.c ****      * 5) The ACK is == biggest ACK sequence number so far seen (snd_una)
1184:Middlewares/Third_Party/LwIP/src/core/tcp_in.c ****      *
1185:Middlewares/Third_Party/LwIP/src/core/tcp_in.c ****      * If it passes all five, should process as a dupack:
1186:Middlewares/Third_Party/LwIP/src/core/tcp_in.c ****      * a) dupacks < 3: do nothing
1187:Middlewares/Third_Party/LwIP/src/core/tcp_in.c ****      * b) dupacks == 3: fast retransmit
1188:Middlewares/Third_Party/LwIP/src/core/tcp_in.c ****      * c) dupacks > 3: increase cwnd
1189:Middlewares/Third_Party/LwIP/src/core/tcp_in.c ****      *
1190:Middlewares/Third_Party/LwIP/src/core/tcp_in.c ****      * If it only passes 1-3, should reset dupack counter (and add to
1191:Middlewares/Third_Party/LwIP/src/core/tcp_in.c ****      * stats, which we don't do in lwIP)
1192:Middlewares/Third_Party/LwIP/src/core/tcp_in.c ****      *
1193:Middlewares/Third_Party/LwIP/src/core/tcp_in.c ****      * If it only passes 1, should reset dupack counter
1194:Middlewares/Third_Party/LwIP/src/core/tcp_in.c ****      *
1195:Middlewares/Third_Party/LwIP/src/core/tcp_in.c ****      */
1196:Middlewares/Third_Party/LwIP/src/core/tcp_in.c **** 
1197:Middlewares/Third_Party/LwIP/src/core/tcp_in.c ****     /* Clause 1 */
1198:Middlewares/Third_Party/LwIP/src/core/tcp_in.c ****     if (TCP_SEQ_LEQ(ackno, pcb->lastack)) {
 3858              		.loc 1 1198 9
 3859 00d4 7B4B     		ldr	r3, .L351+24
 3860 00d6 1A68     		ldr	r2, [r3]
 3861 00d8 7B68     		ldr	r3, [r7, #4]
 3862 00da 5B6C     		ldr	r3, [r3, #68]
 3863 00dc D31A     		subs	r3, r2, r3
 3864              		.loc 1 1198 8
 3865 00de 002B     		cmp	r3, #0
 3866 00e0 58DC     		bgt	.L242
ARM GAS  /tmp/ccWqLOXK.s 			page 94


1199:Middlewares/Third_Party/LwIP/src/core/tcp_in.c ****       /* Clause 2 */
1200:Middlewares/Third_Party/LwIP/src/core/tcp_in.c ****       if (tcplen == 0) {
 3867              		.loc 1 1200 18
 3868 00e2 7A4B     		ldr	r3, .L351+32
 3869 00e4 1B88     		ldrh	r3, [r3]
 3870              		.loc 1 1200 10
 3871 00e6 002B     		cmp	r3, #0
 3872 00e8 4BD1     		bne	.L243
1201:Middlewares/Third_Party/LwIP/src/core/tcp_in.c ****         /* Clause 3 */
1202:Middlewares/Third_Party/LwIP/src/core/tcp_in.c ****         if (pcb->snd_wl2 + pcb->snd_wnd == right_wnd_edge) {
 3873              		.loc 1 1202 16
 3874 00ea 7B68     		ldr	r3, [r7, #4]
 3875 00ec 9B6D     		ldr	r3, [r3, #88]
 3876              		.loc 1 1202 31
 3877 00ee 7A68     		ldr	r2, [r7, #4]
 3878 00f0 B2F86020 		ldrh	r2, [r2, #96]
 3879              		.loc 1 1202 26
 3880 00f4 1344     		add	r3, r3, r2
 3881              		.loc 1 1202 12
 3882 00f6 3A6B     		ldr	r2, [r7, #48]
 3883 00f8 9A42     		cmp	r2, r3
 3884 00fa 42D1     		bne	.L243
1203:Middlewares/Third_Party/LwIP/src/core/tcp_in.c ****           /* Clause 4 */
1204:Middlewares/Third_Party/LwIP/src/core/tcp_in.c ****           if (pcb->rtime >= 0) {
 3885              		.loc 1 1204 18
 3886 00fc 7B68     		ldr	r3, [r7, #4]
 3887 00fe B3F93030 		ldrsh	r3, [r3, #48]
 3888              		.loc 1 1204 14
 3889 0102 002B     		cmp	r3, #0
 3890 0104 3DDB     		blt	.L243
1205:Middlewares/Third_Party/LwIP/src/core/tcp_in.c ****             /* Clause 5 */
1206:Middlewares/Third_Party/LwIP/src/core/tcp_in.c ****             if (pcb->lastack == ackno) {
 3891              		.loc 1 1206 20
 3892 0106 7B68     		ldr	r3, [r7, #4]
 3893 0108 5A6C     		ldr	r2, [r3, #68]
 3894              		.loc 1 1206 30
 3895 010a 6E4B     		ldr	r3, .L351+24
 3896 010c 1B68     		ldr	r3, [r3]
 3897              		.loc 1 1206 16
 3898 010e 9A42     		cmp	r2, r3
 3899 0110 37D1     		bne	.L243
1207:Middlewares/Third_Party/LwIP/src/core/tcp_in.c ****               found_dupack = 1;
 3900              		.loc 1 1207 28
 3901 0112 0123     		movs	r3, #1
 3902 0114 BB64     		str	r3, [r7, #72]
1208:Middlewares/Third_Party/LwIP/src/core/tcp_in.c ****               if ((u8_t)(pcb->dupacks + 1) > pcb->dupacks) {
 3903              		.loc 1 1208 29
 3904 0116 7B68     		ldr	r3, [r7, #4]
 3905 0118 93F84330 		ldrb	r3, [r3, #67]	@ zero_extendqisi2
 3906              		.loc 1 1208 18
 3907 011c FF2B     		cmp	r3, #255
 3908 011e 07D0     		beq	.L244
1209:Middlewares/Third_Party/LwIP/src/core/tcp_in.c ****                 ++pcb->dupacks;
 3909              		.loc 1 1209 22
 3910 0120 7B68     		ldr	r3, [r7, #4]
 3911 0122 93F84330 		ldrb	r3, [r3, #67]	@ zero_extendqisi2
 3912              		.loc 1 1209 17
ARM GAS  /tmp/ccWqLOXK.s 			page 95


 3913 0126 0133     		adds	r3, r3, #1
 3914 0128 DAB2     		uxtb	r2, r3
 3915 012a 7B68     		ldr	r3, [r7, #4]
 3916 012c 83F84320 		strb	r2, [r3, #67]
 3917              	.L244:
1210:Middlewares/Third_Party/LwIP/src/core/tcp_in.c ****               }
1211:Middlewares/Third_Party/LwIP/src/core/tcp_in.c ****               if (pcb->dupacks > 3) {
 3918              		.loc 1 1211 22
 3919 0130 7B68     		ldr	r3, [r7, #4]
 3920 0132 93F84330 		ldrb	r3, [r3, #67]	@ zero_extendqisi2
 3921              		.loc 1 1211 18
 3922 0136 032B     		cmp	r3, #3
 3923 0138 1BD9     		bls	.L245
1212:Middlewares/Third_Party/LwIP/src/core/tcp_in.c ****                 /* Inflate the congestion window */
1213:Middlewares/Third_Party/LwIP/src/core/tcp_in.c ****                 TCP_WND_INC(pcb->cwnd, pcb->mss);
 3924              		.loc 1 1213 17
 3925 013a 7B68     		ldr	r3, [r7, #4]
 3926 013c B3F84820 		ldrh	r2, [r3, #72]
 3927 0140 7B68     		ldr	r3, [r7, #4]
 3928 0142 5B8E     		ldrh	r3, [r3, #50]
 3929 0144 1344     		add	r3, r3, r2
 3930 0146 9AB2     		uxth	r2, r3
 3931 0148 7B68     		ldr	r3, [r7, #4]
 3932 014a B3F84830 		ldrh	r3, [r3, #72]
 3933 014e 9A42     		cmp	r2, r3
 3934 0150 0AD3     		bcc	.L246
 3935              		.loc 1 1213 17 is_stmt 0 discriminator 1
 3936 0152 7B68     		ldr	r3, [r7, #4]
 3937 0154 B3F84820 		ldrh	r2, [r3, #72]
 3938 0158 7B68     		ldr	r3, [r7, #4]
 3939 015a 5B8E     		ldrh	r3, [r3, #50]
 3940 015c 1344     		add	r3, r3, r2
 3941 015e 9AB2     		uxth	r2, r3
 3942 0160 7B68     		ldr	r3, [r7, #4]
 3943 0162 A3F84820 		strh	r2, [r3, #72]	@ movhi
 3944 0166 04E0     		b	.L245
 3945              	.L246:
 3946              		.loc 1 1213 17 discriminator 2
 3947 0168 7B68     		ldr	r3, [r7, #4]
 3948 016a 4FF6FF72 		movw	r2, #65535
 3949 016e A3F84820 		strh	r2, [r3, #72]	@ movhi
 3950              	.L245:
1214:Middlewares/Third_Party/LwIP/src/core/tcp_in.c ****               }
1215:Middlewares/Third_Party/LwIP/src/core/tcp_in.c ****               if (pcb->dupacks >= 3) {
 3951              		.loc 1 1215 22 is_stmt 1
 3952 0172 7B68     		ldr	r3, [r7, #4]
 3953 0174 93F84330 		ldrb	r3, [r3, #67]	@ zero_extendqisi2
 3954              		.loc 1 1215 18
 3955 0178 022B     		cmp	r3, #2
 3956 017a 02D9     		bls	.L243
1216:Middlewares/Third_Party/LwIP/src/core/tcp_in.c ****                 /* Do fast retransmit (checked via TF_INFR, not via dupacks count) */
1217:Middlewares/Third_Party/LwIP/src/core/tcp_in.c ****                 tcp_rexmit_fast(pcb);
 3957              		.loc 1 1217 17
 3958 017c 7868     		ldr	r0, [r7, #4]
 3959 017e FFF7FEFF 		bl	tcp_rexmit_fast
 3960              	.L243:
1218:Middlewares/Third_Party/LwIP/src/core/tcp_in.c ****               }
ARM GAS  /tmp/ccWqLOXK.s 			page 96


1219:Middlewares/Third_Party/LwIP/src/core/tcp_in.c ****             }
1220:Middlewares/Third_Party/LwIP/src/core/tcp_in.c ****           }
1221:Middlewares/Third_Party/LwIP/src/core/tcp_in.c ****         }
1222:Middlewares/Third_Party/LwIP/src/core/tcp_in.c ****       }
1223:Middlewares/Third_Party/LwIP/src/core/tcp_in.c ****       /* If Clause (1) or more is true, but not a duplicate ack, reset
1224:Middlewares/Third_Party/LwIP/src/core/tcp_in.c ****        * count of consecutive duplicate acks */
1225:Middlewares/Third_Party/LwIP/src/core/tcp_in.c ****       if (!found_dupack) {
 3961              		.loc 1 1225 10
 3962 0182 BB6C     		ldr	r3, [r7, #72]
 3963 0184 002B     		cmp	r3, #0
 3964 0186 40F06081 		bne	.L248
1226:Middlewares/Third_Party/LwIP/src/core/tcp_in.c ****         pcb->dupacks = 0;
 3965              		.loc 1 1226 22
 3966 018a 7B68     		ldr	r3, [r7, #4]
 3967 018c 0022     		movs	r2, #0
 3968 018e 83F84320 		strb	r2, [r3, #67]
 3969 0192 5AE1     		b	.L248
 3970              	.L242:
1227:Middlewares/Third_Party/LwIP/src/core/tcp_in.c ****       }
1228:Middlewares/Third_Party/LwIP/src/core/tcp_in.c ****     } else if (TCP_SEQ_BETWEEN(ackno, pcb->lastack + 1, pcb->snd_nxt)) {
 3971              		.loc 1 1228 16
 3972 0194 4B4B     		ldr	r3, .L351+24
 3973 0196 1A68     		ldr	r2, [r3]
 3974 0198 7B68     		ldr	r3, [r7, #4]
 3975 019a 5B6C     		ldr	r3, [r3, #68]
 3976 019c D31A     		subs	r3, r2, r3
 3977 019e 013B     		subs	r3, r3, #1
 3978              		.loc 1 1228 15
 3979 01a0 002B     		cmp	r3, #0
 3980 01a2 C0F24D81 		blt	.L249
 3981              		.loc 1 1228 16 discriminator 1
 3982 01a6 474B     		ldr	r3, .L351+24
 3983 01a8 1A68     		ldr	r2, [r3]
 3984 01aa 7B68     		ldr	r3, [r7, #4]
 3985 01ac 1B6D     		ldr	r3, [r3, #80]
 3986 01ae D31A     		subs	r3, r2, r3
 3987 01b0 002B     		cmp	r3, #0
 3988 01b2 00F34581 		bgt	.L249
 3989              	.LBB10:
1229:Middlewares/Third_Party/LwIP/src/core/tcp_in.c ****       /* We come here when the ACK acknowledges new data. */
1230:Middlewares/Third_Party/LwIP/src/core/tcp_in.c ****       tcpwnd_size_t acked;
1231:Middlewares/Third_Party/LwIP/src/core/tcp_in.c **** 
1232:Middlewares/Third_Party/LwIP/src/core/tcp_in.c ****       /* Reset the "IN Fast Retransmit" flag, since we are no longer
1233:Middlewares/Third_Party/LwIP/src/core/tcp_in.c ****          in fast retransmit. Also reset the congestion window to the
1234:Middlewares/Third_Party/LwIP/src/core/tcp_in.c ****          slow start threshold. */
1235:Middlewares/Third_Party/LwIP/src/core/tcp_in.c ****       if (pcb->flags & TF_INFR) {
 3990              		.loc 1 1235 14
 3991 01b6 7B68     		ldr	r3, [r7, #4]
 3992 01b8 5B8B     		ldrh	r3, [r3, #26]
 3993              		.loc 1 1235 22
 3994 01ba 03F00403 		and	r3, r3, #4
 3995              		.loc 1 1235 10
 3996 01be 002B     		cmp	r3, #0
 3997 01c0 10D0     		beq	.L250
1236:Middlewares/Third_Party/LwIP/src/core/tcp_in.c ****         tcp_clear_flags(pcb, TF_INFR);
 3998              		.loc 1 1236 9
 3999 01c2 7B68     		ldr	r3, [r7, #4]
ARM GAS  /tmp/ccWqLOXK.s 			page 97


 4000 01c4 5B8B     		ldrh	r3, [r3, #26]
 4001 01c6 23F00403 		bic	r3, r3, #4
 4002 01ca 9AB2     		uxth	r2, r3
 4003 01cc 7B68     		ldr	r3, [r7, #4]
 4004 01ce 5A83     		strh	r2, [r3, #26]	@ movhi
1237:Middlewares/Third_Party/LwIP/src/core/tcp_in.c ****         pcb->cwnd = pcb->ssthresh;
 4005              		.loc 1 1237 24
 4006 01d0 7B68     		ldr	r3, [r7, #4]
 4007 01d2 B3F84A20 		ldrh	r2, [r3, #74]
 4008              		.loc 1 1237 19
 4009 01d6 7B68     		ldr	r3, [r7, #4]
 4010 01d8 A3F84820 		strh	r2, [r3, #72]	@ movhi
1238:Middlewares/Third_Party/LwIP/src/core/tcp_in.c ****         pcb->bytes_acked = 0;
 4011              		.loc 1 1238 26
 4012 01dc 7B68     		ldr	r3, [r7, #4]
 4013 01de 0022     		movs	r2, #0
 4014 01e0 A3F86A20 		strh	r2, [r3, #106]	@ movhi
 4015              	.L250:
1239:Middlewares/Third_Party/LwIP/src/core/tcp_in.c ****       }
1240:Middlewares/Third_Party/LwIP/src/core/tcp_in.c **** 
1241:Middlewares/Third_Party/LwIP/src/core/tcp_in.c ****       /* Reset the number of retransmissions. */
1242:Middlewares/Third_Party/LwIP/src/core/tcp_in.c ****       pcb->nrtx = 0;
 4016              		.loc 1 1242 17
 4017 01e4 7B68     		ldr	r3, [r7, #4]
 4018 01e6 0022     		movs	r2, #0
 4019 01e8 83F84220 		strb	r2, [r3, #66]
1243:Middlewares/Third_Party/LwIP/src/core/tcp_in.c **** 
1244:Middlewares/Third_Party/LwIP/src/core/tcp_in.c ****       /* Reset the retransmission time-out. */
1245:Middlewares/Third_Party/LwIP/src/core/tcp_in.c ****       pcb->rto = (s16_t)((pcb->sa >> 3) + pcb->sv);
 4020              		.loc 1 1245 30
 4021 01ec 7B68     		ldr	r3, [r7, #4]
 4022 01ee B3F93C30 		ldrsh	r3, [r3, #60]
 4023              		.loc 1 1245 41
 4024 01f2 DB10     		asrs	r3, r3, #3
 4025 01f4 1BB2     		sxth	r3, r3
 4026 01f6 9AB2     		uxth	r2, r3
 4027              		.loc 1 1245 46
 4028 01f8 7B68     		ldr	r3, [r7, #4]
 4029 01fa B3F93E30 		ldrsh	r3, [r3, #62]
 4030 01fe 9BB2     		uxth	r3, r3
 4031              		.loc 1 1245 41
 4032 0200 1344     		add	r3, r3, r2
 4033 0202 9BB2     		uxth	r3, r3
 4034              		.loc 1 1245 18
 4035 0204 1AB2     		sxth	r2, r3
 4036              		.loc 1 1245 16
 4037 0206 7B68     		ldr	r3, [r7, #4]
 4038 0208 A3F84020 		strh	r2, [r3, #64]	@ movhi
1246:Middlewares/Third_Party/LwIP/src/core/tcp_in.c **** 
1247:Middlewares/Third_Party/LwIP/src/core/tcp_in.c ****       /* Record how much data this ACK acks */
1248:Middlewares/Third_Party/LwIP/src/core/tcp_in.c ****       acked = (tcpwnd_size_t)(ackno - pcb->lastack);
 4039              		.loc 1 1248 15
 4040 020c 2D4B     		ldr	r3, .L351+24
 4041 020e 1B68     		ldr	r3, [r3]
 4042 0210 9AB2     		uxth	r2, r3
 4043              		.loc 1 1248 42
 4044 0212 7B68     		ldr	r3, [r7, #4]
ARM GAS  /tmp/ccWqLOXK.s 			page 98


 4045 0214 5B6C     		ldr	r3, [r3, #68]
 4046              		.loc 1 1248 15
 4047 0216 9BB2     		uxth	r3, r3
 4048              		.loc 1 1248 13
 4049 0218 D31A     		subs	r3, r2, r3
 4050 021a FB85     		strh	r3, [r7, #46]	@ movhi
1249:Middlewares/Third_Party/LwIP/src/core/tcp_in.c **** 
1250:Middlewares/Third_Party/LwIP/src/core/tcp_in.c ****       /* Reset the fast retransmit variables. */
1251:Middlewares/Third_Party/LwIP/src/core/tcp_in.c ****       pcb->dupacks = 0;
 4051              		.loc 1 1251 20
 4052 021c 7B68     		ldr	r3, [r7, #4]
 4053 021e 0022     		movs	r2, #0
 4054 0220 83F84320 		strb	r2, [r3, #67]
1252:Middlewares/Third_Party/LwIP/src/core/tcp_in.c ****       pcb->lastack = ackno;
 4055              		.loc 1 1252 20
 4056 0224 274B     		ldr	r3, .L351+24
 4057 0226 1A68     		ldr	r2, [r3]
 4058 0228 7B68     		ldr	r3, [r7, #4]
 4059 022a 5A64     		str	r2, [r3, #68]
1253:Middlewares/Third_Party/LwIP/src/core/tcp_in.c **** 
1254:Middlewares/Third_Party/LwIP/src/core/tcp_in.c ****       /* Update the congestion control variables (cwnd and
1255:Middlewares/Third_Party/LwIP/src/core/tcp_in.c ****          ssthresh). */
1256:Middlewares/Third_Party/LwIP/src/core/tcp_in.c ****       if (pcb->state >= ESTABLISHED) {
 4060              		.loc 1 1256 14
 4061 022c 7B68     		ldr	r3, [r7, #4]
 4062 022e 1B7D     		ldrb	r3, [r3, #20]	@ zero_extendqisi2
 4063              		.loc 1 1256 10
 4064 0230 032B     		cmp	r3, #3
 4065 0232 40F29680 		bls	.L251
1257:Middlewares/Third_Party/LwIP/src/core/tcp_in.c ****         if (pcb->cwnd < pcb->ssthresh) {
 4066              		.loc 1 1257 16
 4067 0236 7B68     		ldr	r3, [r7, #4]
 4068 0238 B3F84820 		ldrh	r2, [r3, #72]
 4069              		.loc 1 1257 28
 4070 023c 7B68     		ldr	r3, [r7, #4]
 4071 023e B3F84A30 		ldrh	r3, [r3, #74]
 4072              		.loc 1 1257 12
 4073 0242 9A42     		cmp	r2, r3
 4074 0244 44D2     		bcs	.L252
 4075              	.LBB11:
1258:Middlewares/Third_Party/LwIP/src/core/tcp_in.c ****           tcpwnd_size_t increase;
1259:Middlewares/Third_Party/LwIP/src/core/tcp_in.c ****           /* limit to 1 SMSS segment during period following RTO */
1260:Middlewares/Third_Party/LwIP/src/core/tcp_in.c ****           u8_t num_seg = (pcb->flags & TF_RTO) ? 1 : 2;
 4076              		.loc 1 1260 30
 4077 0246 7B68     		ldr	r3, [r7, #4]
 4078 0248 5B8B     		ldrh	r3, [r3, #26]
 4079              		.loc 1 1260 38
 4080 024a 03F40063 		and	r3, r3, #2048
 4081              		.loc 1 1260 16
 4082 024e 002B     		cmp	r3, #0
 4083 0250 01D0     		beq	.L253
 4084              		.loc 1 1260 16 is_stmt 0 discriminator 1
 4085 0252 0123     		movs	r3, #1
 4086 0254 00E0     		b	.L254
 4087              	.L253:
 4088              		.loc 1 1260 16 discriminator 2
 4089 0256 0223     		movs	r3, #2
ARM GAS  /tmp/ccWqLOXK.s 			page 99


 4090              	.L254:
 4091              		.loc 1 1260 16 discriminator 4
 4092 0258 87F82D30 		strb	r3, [r7, #45]
1261:Middlewares/Third_Party/LwIP/src/core/tcp_in.c ****           /* RFC 3465, section 2.2 Slow Start */
1262:Middlewares/Third_Party/LwIP/src/core/tcp_in.c ****           increase = LWIP_MIN(acked, (tcpwnd_size_t)(num_seg * pcb->mss));
 4093              		.loc 1 1262 22 is_stmt 1 discriminator 4
 4094 025c 97F82D30 		ldrb	r3, [r7, #45]	@ zero_extendqisi2
 4095 0260 9AB2     		uxth	r2, r3
 4096 0262 7B68     		ldr	r3, [r7, #4]
 4097 0264 5B8E     		ldrh	r3, [r3, #50]
 4098 0266 12FB03F3 		smulbb	r3, r2, r3
 4099 026a 9BB2     		uxth	r3, r3
 4100              		.loc 1 1262 20 discriminator 4
 4101 026c FA8D     		ldrh	r2, [r7, #46]
 4102 026e 9342     		cmp	r3, r2
 4103 0270 28BF     		it	cs
 4104 0272 1346     		movcs	r3, r2
 4105 0274 7B85     		strh	r3, [r7, #42]	@ movhi
1263:Middlewares/Third_Party/LwIP/src/core/tcp_in.c ****           TCP_WND_INC(pcb->cwnd, increase);
 4106              		.loc 1 1263 11 discriminator 4
 4107 0276 7B68     		ldr	r3, [r7, #4]
 4108 0278 B3F84820 		ldrh	r2, [r3, #72]
 4109 027c 7B8D     		ldrh	r3, [r7, #42]	@ movhi
 4110 027e 1344     		add	r3, r3, r2
 4111 0280 9AB2     		uxth	r2, r3
 4112 0282 7B68     		ldr	r3, [r7, #4]
 4113 0284 B3F84830 		ldrh	r3, [r3, #72]
 4114 0288 9A42     		cmp	r2, r3
 4115 028a 09D3     		bcc	.L255
 4116              		.loc 1 1263 11 is_stmt 0 discriminator 1
 4117 028c 7B68     		ldr	r3, [r7, #4]
 4118 028e B3F84820 		ldrh	r2, [r3, #72]
 4119 0292 7B8D     		ldrh	r3, [r7, #42]	@ movhi
 4120 0294 1344     		add	r3, r3, r2
 4121 0296 9AB2     		uxth	r2, r3
 4122 0298 7B68     		ldr	r3, [r7, #4]
 4123 029a A3F84820 		strh	r2, [r3, #72]	@ movhi
 4124 029e 60E0     		b	.L251
 4125              	.L255:
 4126              		.loc 1 1263 11 discriminator 2
 4127 02a0 7B68     		ldr	r3, [r7, #4]
 4128 02a2 4FF6FF72 		movw	r2, #65535
 4129 02a6 A3F84820 		strh	r2, [r3, #72]	@ movhi
 4130 02aa 5AE0     		b	.L251
 4131              	.L352:
 4132              		.align	2
 4133              	.L351:
 4134 02ac 00000000 		.word	.LC0
 4135 02b0 2C030000 		.word	.LC24
 4136 02b4 48000000 		.word	.LC2
 4137 02b8 48030000 		.word	.LC25
 4138 02bc 00000000 		.word	flags
 4139 02c0 00000000 		.word	seqno
 4140 02c4 00000000 		.word	ackno
 4141 02c8 00000000 		.word	tcphdr
 4142 02cc 00000000 		.word	tcplen
 4143              	.L252:
ARM GAS  /tmp/ccWqLOXK.s 			page 100


 4144              	.LBE11:
1264:Middlewares/Third_Party/LwIP/src/core/tcp_in.c ****           LWIP_DEBUGF(TCP_CWND_DEBUG, ("tcp_receive: slow start cwnd %"TCPWNDSIZE_F"\n", pcb->cwnd)
1265:Middlewares/Third_Party/LwIP/src/core/tcp_in.c ****         } else {
1266:Middlewares/Third_Party/LwIP/src/core/tcp_in.c ****           /* RFC 3465, section 2.1 Congestion Avoidance */
1267:Middlewares/Third_Party/LwIP/src/core/tcp_in.c ****           TCP_WND_INC(pcb->bytes_acked, acked);
 4145              		.loc 1 1267 11 is_stmt 1
 4146 02d0 7B68     		ldr	r3, [r7, #4]
 4147 02d2 B3F86A20 		ldrh	r2, [r3, #106]
 4148 02d6 FB8D     		ldrh	r3, [r7, #46]	@ movhi
 4149 02d8 1344     		add	r3, r3, r2
 4150 02da 9AB2     		uxth	r2, r3
 4151 02dc 7B68     		ldr	r3, [r7, #4]
 4152 02de B3F86A30 		ldrh	r3, [r3, #106]
 4153 02e2 9A42     		cmp	r2, r3
 4154 02e4 09D3     		bcc	.L257
 4155              		.loc 1 1267 11 is_stmt 0 discriminator 1
 4156 02e6 7B68     		ldr	r3, [r7, #4]
 4157 02e8 B3F86A20 		ldrh	r2, [r3, #106]
 4158 02ec FB8D     		ldrh	r3, [r7, #46]	@ movhi
 4159 02ee 1344     		add	r3, r3, r2
 4160 02f0 9AB2     		uxth	r2, r3
 4161 02f2 7B68     		ldr	r3, [r7, #4]
 4162 02f4 A3F86A20 		strh	r2, [r3, #106]	@ movhi
 4163 02f8 04E0     		b	.L258
 4164              	.L257:
 4165              		.loc 1 1267 11 discriminator 2
 4166 02fa 7B68     		ldr	r3, [r7, #4]
 4167 02fc 4FF6FF72 		movw	r2, #65535
 4168 0300 A3F86A20 		strh	r2, [r3, #106]	@ movhi
 4169              	.L258:
1268:Middlewares/Third_Party/LwIP/src/core/tcp_in.c ****           if (pcb->bytes_acked >= pcb->cwnd) {
 4170              		.loc 1 1268 18 is_stmt 1
 4171 0304 7B68     		ldr	r3, [r7, #4]
 4172 0306 B3F86A20 		ldrh	r2, [r3, #106]
 4173              		.loc 1 1268 38
 4174 030a 7B68     		ldr	r3, [r7, #4]
 4175 030c B3F84830 		ldrh	r3, [r3, #72]
 4176              		.loc 1 1268 14
 4177 0310 9A42     		cmp	r2, r3
 4178 0312 26D3     		bcc	.L251
1269:Middlewares/Third_Party/LwIP/src/core/tcp_in.c ****             pcb->bytes_acked = (tcpwnd_size_t)(pcb->bytes_acked - pcb->cwnd);
 4179              		.loc 1 1269 51
 4180 0314 7B68     		ldr	r3, [r7, #4]
 4181 0316 B3F86A20 		ldrh	r2, [r3, #106]
 4182              		.loc 1 1269 70
 4183 031a 7B68     		ldr	r3, [r7, #4]
 4184 031c B3F84830 		ldrh	r3, [r3, #72]
 4185              		.loc 1 1269 32
 4186 0320 D31A     		subs	r3, r2, r3
 4187 0322 9AB2     		uxth	r2, r3
 4188              		.loc 1 1269 30
 4189 0324 7B68     		ldr	r3, [r7, #4]
 4190 0326 A3F86A20 		strh	r2, [r3, #106]	@ movhi
1270:Middlewares/Third_Party/LwIP/src/core/tcp_in.c ****             TCP_WND_INC(pcb->cwnd, pcb->mss);
 4191              		.loc 1 1270 13
 4192 032a 7B68     		ldr	r3, [r7, #4]
 4193 032c B3F84820 		ldrh	r2, [r3, #72]
ARM GAS  /tmp/ccWqLOXK.s 			page 101


 4194 0330 7B68     		ldr	r3, [r7, #4]
 4195 0332 5B8E     		ldrh	r3, [r3, #50]
 4196 0334 1344     		add	r3, r3, r2
 4197 0336 9AB2     		uxth	r2, r3
 4198 0338 7B68     		ldr	r3, [r7, #4]
 4199 033a B3F84830 		ldrh	r3, [r3, #72]
 4200 033e 9A42     		cmp	r2, r3
 4201 0340 0AD3     		bcc	.L259
 4202              		.loc 1 1270 13 is_stmt 0 discriminator 1
 4203 0342 7B68     		ldr	r3, [r7, #4]
 4204 0344 B3F84820 		ldrh	r2, [r3, #72]
 4205 0348 7B68     		ldr	r3, [r7, #4]
 4206 034a 5B8E     		ldrh	r3, [r3, #50]
 4207 034c 1344     		add	r3, r3, r2
 4208 034e 9AB2     		uxth	r2, r3
 4209 0350 7B68     		ldr	r3, [r7, #4]
 4210 0352 A3F84820 		strh	r2, [r3, #72]	@ movhi
 4211 0356 04E0     		b	.L251
 4212              	.L259:
 4213              		.loc 1 1270 13 discriminator 2
 4214 0358 7B68     		ldr	r3, [r7, #4]
 4215 035a 4FF6FF72 		movw	r2, #65535
 4216 035e A3F84820 		strh	r2, [r3, #72]	@ movhi
 4217              	.L251:
1271:Middlewares/Third_Party/LwIP/src/core/tcp_in.c ****           }
1272:Middlewares/Third_Party/LwIP/src/core/tcp_in.c ****           LWIP_DEBUGF(TCP_CWND_DEBUG, ("tcp_receive: congestion avoidance cwnd %"TCPWNDSIZE_F"\n", 
1273:Middlewares/Third_Party/LwIP/src/core/tcp_in.c ****         }
1274:Middlewares/Third_Party/LwIP/src/core/tcp_in.c ****       }
1275:Middlewares/Third_Party/LwIP/src/core/tcp_in.c ****       LWIP_DEBUGF(TCP_INPUT_DEBUG, ("tcp_receive: ACK for %"U32_F", unacked->seqno %"U32_F":%"U32_F
1276:Middlewares/Third_Party/LwIP/src/core/tcp_in.c ****                                     ackno,
1277:Middlewares/Third_Party/LwIP/src/core/tcp_in.c ****                                     pcb->unacked != NULL ?
1278:Middlewares/Third_Party/LwIP/src/core/tcp_in.c ****                                     lwip_ntohl(pcb->unacked->tcphdr->seqno) : 0,
1279:Middlewares/Third_Party/LwIP/src/core/tcp_in.c ****                                     pcb->unacked != NULL ?
1280:Middlewares/Third_Party/LwIP/src/core/tcp_in.c ****                                     lwip_ntohl(pcb->unacked->tcphdr->seqno) + TCP_TCPLEN(pcb->unack
1281:Middlewares/Third_Party/LwIP/src/core/tcp_in.c **** 
1282:Middlewares/Third_Party/LwIP/src/core/tcp_in.c ****       /* Remove segment from the unacknowledged list if the incoming
1283:Middlewares/Third_Party/LwIP/src/core/tcp_in.c ****          ACK acknowledges them. */
1284:Middlewares/Third_Party/LwIP/src/core/tcp_in.c ****       pcb->unacked = tcp_free_acked_segments(pcb, pcb->unacked, "unacked", pcb->unsent);
 4218              		.loc 1 1284 22 is_stmt 1
 4219 0362 7B68     		ldr	r3, [r7, #4]
 4220 0364 196F     		ldr	r1, [r3, #112]
 4221 0366 7B68     		ldr	r3, [r7, #4]
 4222 0368 DB6E     		ldr	r3, [r3, #108]
 4223 036a 984A     		ldr	r2, .L353
 4224 036c 7868     		ldr	r0, [r7, #4]
 4225 036e FFF7FEFF 		bl	tcp_free_acked_segments
 4226 0372 0246     		mov	r2, r0
 4227              		.loc 1 1284 20
 4228 0374 7B68     		ldr	r3, [r7, #4]
 4229 0376 1A67     		str	r2, [r3, #112]
1285:Middlewares/Third_Party/LwIP/src/core/tcp_in.c ****       /* We go through the ->unsent list to see if any of the segments
1286:Middlewares/Third_Party/LwIP/src/core/tcp_in.c ****          on the list are acknowledged by the ACK. This may seem
1287:Middlewares/Third_Party/LwIP/src/core/tcp_in.c ****          strange since an "unsent" segment shouldn't be acked. The
1288:Middlewares/Third_Party/LwIP/src/core/tcp_in.c ****          rationale is that lwIP puts all outstanding segments on the
1289:Middlewares/Third_Party/LwIP/src/core/tcp_in.c ****          ->unsent list after a retransmission, so these segments may
1290:Middlewares/Third_Party/LwIP/src/core/tcp_in.c ****          in fact have been sent once. */
1291:Middlewares/Third_Party/LwIP/src/core/tcp_in.c ****       pcb->unsent = tcp_free_acked_segments(pcb, pcb->unsent, "unsent", pcb->unacked);
ARM GAS  /tmp/ccWqLOXK.s 			page 102


 4230              		.loc 1 1291 21
 4231 0378 7B68     		ldr	r3, [r7, #4]
 4232 037a D96E     		ldr	r1, [r3, #108]
 4233 037c 7B68     		ldr	r3, [r7, #4]
 4234 037e 1B6F     		ldr	r3, [r3, #112]
 4235 0380 934A     		ldr	r2, .L353+4
 4236 0382 7868     		ldr	r0, [r7, #4]
 4237 0384 FFF7FEFF 		bl	tcp_free_acked_segments
 4238 0388 0246     		mov	r2, r0
 4239              		.loc 1 1291 19
 4240 038a 7B68     		ldr	r3, [r7, #4]
 4241 038c DA66     		str	r2, [r3, #108]
1292:Middlewares/Third_Party/LwIP/src/core/tcp_in.c **** 
1293:Middlewares/Third_Party/LwIP/src/core/tcp_in.c ****       /* If there's nothing left to acknowledge, stop the retransmit
1294:Middlewares/Third_Party/LwIP/src/core/tcp_in.c ****          timer, otherwise reset it to start again */
1295:Middlewares/Third_Party/LwIP/src/core/tcp_in.c ****       if (pcb->unacked == NULL) {
 4242              		.loc 1 1295 14
 4243 038e 7B68     		ldr	r3, [r7, #4]
 4244 0390 1B6F     		ldr	r3, [r3, #112]
 4245              		.loc 1 1295 10
 4246 0392 002B     		cmp	r3, #0
 4247 0394 04D1     		bne	.L260
1296:Middlewares/Third_Party/LwIP/src/core/tcp_in.c ****         pcb->rtime = -1;
 4248              		.loc 1 1296 20
 4249 0396 7B68     		ldr	r3, [r7, #4]
 4250 0398 4FF6FF72 		movw	r2, #65535
 4251 039c 1A86     		strh	r2, [r3, #48]	@ movhi
 4252 039e 02E0     		b	.L261
 4253              	.L260:
1297:Middlewares/Third_Party/LwIP/src/core/tcp_in.c ****       } else {
1298:Middlewares/Third_Party/LwIP/src/core/tcp_in.c ****         pcb->rtime = 0;
 4254              		.loc 1 1298 20
 4255 03a0 7B68     		ldr	r3, [r7, #4]
 4256 03a2 0022     		movs	r2, #0
 4257 03a4 1A86     		strh	r2, [r3, #48]	@ movhi
 4258              	.L261:
1299:Middlewares/Third_Party/LwIP/src/core/tcp_in.c ****       }
1300:Middlewares/Third_Party/LwIP/src/core/tcp_in.c **** 
1301:Middlewares/Third_Party/LwIP/src/core/tcp_in.c ****       pcb->polltmr = 0;
 4259              		.loc 1 1301 20
 4260 03a6 7B68     		ldr	r3, [r7, #4]
 4261 03a8 0022     		movs	r2, #0
 4262 03aa 1A77     		strb	r2, [r3, #28]
1302:Middlewares/Third_Party/LwIP/src/core/tcp_in.c **** 
1303:Middlewares/Third_Party/LwIP/src/core/tcp_in.c **** #if TCP_OVERSIZE
1304:Middlewares/Third_Party/LwIP/src/core/tcp_in.c ****       if (pcb->unsent == NULL) {
 4263              		.loc 1 1304 14
 4264 03ac 7B68     		ldr	r3, [r7, #4]
 4265 03ae DB6E     		ldr	r3, [r3, #108]
 4266              		.loc 1 1304 10
 4267 03b0 002B     		cmp	r3, #0
 4268 03b2 03D1     		bne	.L262
1305:Middlewares/Third_Party/LwIP/src/core/tcp_in.c ****         pcb->unsent_oversize = 0;
 4269              		.loc 1 1305 30
 4270 03b4 7B68     		ldr	r3, [r7, #4]
 4271 03b6 0022     		movs	r2, #0
 4272 03b8 A3F86820 		strh	r2, [r3, #104]	@ movhi
ARM GAS  /tmp/ccWqLOXK.s 			page 103


 4273              	.L262:
1306:Middlewares/Third_Party/LwIP/src/core/tcp_in.c ****       }
1307:Middlewares/Third_Party/LwIP/src/core/tcp_in.c **** #endif /* TCP_OVERSIZE */
1308:Middlewares/Third_Party/LwIP/src/core/tcp_in.c **** 
1309:Middlewares/Third_Party/LwIP/src/core/tcp_in.c **** #if LWIP_IPV6 && LWIP_ND6_TCP_REACHABILITY_HINTS
1310:Middlewares/Third_Party/LwIP/src/core/tcp_in.c ****       if (ip_current_is_v6()) {
1311:Middlewares/Third_Party/LwIP/src/core/tcp_in.c ****         /* Inform neighbor reachability of forward progress. */
1312:Middlewares/Third_Party/LwIP/src/core/tcp_in.c ****         nd6_reachability_hint(ip6_current_src_addr());
1313:Middlewares/Third_Party/LwIP/src/core/tcp_in.c ****       }
1314:Middlewares/Third_Party/LwIP/src/core/tcp_in.c **** #endif /* LWIP_IPV6 && LWIP_ND6_TCP_REACHABILITY_HINTS*/
1315:Middlewares/Third_Party/LwIP/src/core/tcp_in.c **** 
1316:Middlewares/Third_Party/LwIP/src/core/tcp_in.c ****       pcb->snd_buf = (tcpwnd_size_t)(pcb->snd_buf + recv_acked);
 4274              		.loc 1 1316 41
 4275 03bc 7B68     		ldr	r3, [r7, #4]
 4276 03be B3F86420 		ldrh	r2, [r3, #100]
 4277              		.loc 1 1316 22
 4278 03c2 844B     		ldr	r3, .L353+8
 4279 03c4 1B88     		ldrh	r3, [r3]
 4280 03c6 1344     		add	r3, r3, r2
 4281 03c8 9AB2     		uxth	r2, r3
 4282              		.loc 1 1316 20
 4283 03ca 7B68     		ldr	r3, [r7, #4]
 4284 03cc A3F86420 		strh	r2, [r3, #100]	@ movhi
1317:Middlewares/Third_Party/LwIP/src/core/tcp_in.c ****       /* check if this ACK ends our retransmission of in-flight data */
1318:Middlewares/Third_Party/LwIP/src/core/tcp_in.c ****       if (pcb->flags & TF_RTO) {
 4285              		.loc 1 1318 14
 4286 03d0 7B68     		ldr	r3, [r7, #4]
 4287 03d2 5B8B     		ldrh	r3, [r3, #26]
 4288              		.loc 1 1318 22
 4289 03d4 03F40063 		and	r3, r3, #2048
 4290              		.loc 1 1318 10
 4291 03d8 002B     		cmp	r3, #0
 4292 03da 35D0     		beq	.L343
1319:Middlewares/Third_Party/LwIP/src/core/tcp_in.c ****         /* RTO is done if
1320:Middlewares/Third_Party/LwIP/src/core/tcp_in.c ****             1) both queues are empty or
1321:Middlewares/Third_Party/LwIP/src/core/tcp_in.c ****             2) unacked is empty and unsent head contains data not part of RTO or
1322:Middlewares/Third_Party/LwIP/src/core/tcp_in.c ****             3) unacked head contains data not part of RTO */
1323:Middlewares/Third_Party/LwIP/src/core/tcp_in.c ****         if (pcb->unacked == NULL) {
 4293              		.loc 1 1323 16
 4294 03dc 7B68     		ldr	r3, [r7, #4]
 4295 03de 1B6F     		ldr	r3, [r3, #112]
 4296              		.loc 1 1323 12
 4297 03e0 002B     		cmp	r3, #0
 4298 03e2 18D1     		bne	.L264
1324:Middlewares/Third_Party/LwIP/src/core/tcp_in.c ****           if ((pcb->unsent == NULL) ||
 4299              		.loc 1 1324 19
 4300 03e4 7B68     		ldr	r3, [r7, #4]
 4301 03e6 DB6E     		ldr	r3, [r3, #108]
 4302              		.loc 1 1324 14
 4303 03e8 002B     		cmp	r3, #0
 4304 03ea 0CD0     		beq	.L265
1325:Middlewares/Third_Party/LwIP/src/core/tcp_in.c ****               (TCP_SEQ_LEQ(pcb->rto_end, lwip_ntohl(pcb->unsent->tcphdr->seqno)))) {
 4305              		.loc 1 1325 16 discriminator 1
 4306 03ec 7B68     		ldr	r3, [r7, #4]
 4307 03ee DC6C     		ldr	r4, [r3, #76]
 4308 03f0 7B68     		ldr	r3, [r7, #4]
 4309 03f2 DB6E     		ldr	r3, [r3, #108]
ARM GAS  /tmp/ccWqLOXK.s 			page 104


 4310 03f4 DB68     		ldr	r3, [r3, #12]
 4311 03f6 5B68     		ldr	r3, [r3, #4]	@ unaligned
 4312 03f8 1846     		mov	r0, r3
 4313 03fa FFF7FEFF 		bl	lwip_htonl
 4314 03fe 0346     		mov	r3, r0
 4315 0400 E31A     		subs	r3, r4, r3
1324:Middlewares/Third_Party/LwIP/src/core/tcp_in.c ****           if ((pcb->unsent == NULL) ||
 4316              		.loc 1 1324 37 discriminator 1
 4317 0402 002B     		cmp	r3, #0
 4318 0404 20DC     		bgt	.L343
 4319              	.L265:
1326:Middlewares/Third_Party/LwIP/src/core/tcp_in.c ****             tcp_clear_flags(pcb, TF_RTO);
 4320              		.loc 1 1326 13
 4321 0406 7B68     		ldr	r3, [r7, #4]
 4322 0408 5B8B     		ldrh	r3, [r3, #26]
 4323 040a 23F40063 		bic	r3, r3, #2048
 4324 040e 9AB2     		uxth	r2, r3
 4325 0410 7B68     		ldr	r3, [r7, #4]
 4326 0412 5A83     		strh	r2, [r3, #26]	@ movhi
 4327              	.LBE10:
1228:Middlewares/Third_Party/LwIP/src/core/tcp_in.c ****       /* We come here when the ACK acknowledges new data. */
 4328              		.loc 1 1228 72
 4329 0414 18E0     		b	.L343
 4330              	.L264:
 4331              	.LBB12:
1327:Middlewares/Third_Party/LwIP/src/core/tcp_in.c ****           }
1328:Middlewares/Third_Party/LwIP/src/core/tcp_in.c ****         } else if (TCP_SEQ_LEQ(pcb->rto_end, lwip_ntohl(pcb->unacked->tcphdr->seqno))) {
 4332              		.loc 1 1328 20
 4333 0416 7B68     		ldr	r3, [r7, #4]
 4334 0418 DC6C     		ldr	r4, [r3, #76]
 4335 041a 7B68     		ldr	r3, [r7, #4]
 4336 041c 1B6F     		ldr	r3, [r3, #112]
 4337 041e DB68     		ldr	r3, [r3, #12]
 4338 0420 5B68     		ldr	r3, [r3, #4]	@ unaligned
 4339 0422 1846     		mov	r0, r3
 4340 0424 FFF7FEFF 		bl	lwip_htonl
 4341 0428 0346     		mov	r3, r0
 4342 042a E31A     		subs	r3, r4, r3
 4343              		.loc 1 1328 19
 4344 042c 002B     		cmp	r3, #0
 4345 042e 0BDC     		bgt	.L343
1329:Middlewares/Third_Party/LwIP/src/core/tcp_in.c ****           tcp_clear_flags(pcb, TF_RTO);
 4346              		.loc 1 1329 11
 4347 0430 7B68     		ldr	r3, [r7, #4]
 4348 0432 5B8B     		ldrh	r3, [r3, #26]
 4349 0434 23F40063 		bic	r3, r3, #2048
 4350 0438 9AB2     		uxth	r2, r3
 4351 043a 7B68     		ldr	r3, [r7, #4]
 4352 043c 5A83     		strh	r2, [r3, #26]	@ movhi
 4353              	.LBE12:
1228:Middlewares/Third_Party/LwIP/src/core/tcp_in.c ****       /* We come here when the ACK acknowledges new data. */
 4354              		.loc 1 1228 72
 4355 043e 03E0     		b	.L343
 4356              	.L249:
1330:Middlewares/Third_Party/LwIP/src/core/tcp_in.c ****         }
1331:Middlewares/Third_Party/LwIP/src/core/tcp_in.c ****       }
1332:Middlewares/Third_Party/LwIP/src/core/tcp_in.c ****       /* End of ACK for new data processing. */
ARM GAS  /tmp/ccWqLOXK.s 			page 105


1333:Middlewares/Third_Party/LwIP/src/core/tcp_in.c ****     } else {
1334:Middlewares/Third_Party/LwIP/src/core/tcp_in.c ****       /* Out of sequence ACK, didn't really ack anything */
1335:Middlewares/Third_Party/LwIP/src/core/tcp_in.c ****       tcp_send_empty_ack(pcb);
 4357              		.loc 1 1335 7
 4358 0440 7868     		ldr	r0, [r7, #4]
 4359 0442 FFF7FEFF 		bl	tcp_send_empty_ack
 4360 0446 00E0     		b	.L248
 4361              	.L343:
1228:Middlewares/Third_Party/LwIP/src/core/tcp_in.c ****       /* We come here when the ACK acknowledges new data. */
 4362              		.loc 1 1228 72
 4363 0448 00BF     		nop
 4364              	.L248:
1336:Middlewares/Third_Party/LwIP/src/core/tcp_in.c ****     }
1337:Middlewares/Third_Party/LwIP/src/core/tcp_in.c **** 
1338:Middlewares/Third_Party/LwIP/src/core/tcp_in.c ****     LWIP_DEBUGF(TCP_RTO_DEBUG, ("tcp_receive: pcb->rttest %"U32_F" rtseq %"U32_F" ackno %"U32_F"\n"
1339:Middlewares/Third_Party/LwIP/src/core/tcp_in.c ****                                 pcb->rttest, pcb->rtseq, ackno));
1340:Middlewares/Third_Party/LwIP/src/core/tcp_in.c **** 
1341:Middlewares/Third_Party/LwIP/src/core/tcp_in.c ****     /* RTT estimation calculations. This is done by checking if the
1342:Middlewares/Third_Party/LwIP/src/core/tcp_in.c ****        incoming segment acknowledges the segment we use to take a
1343:Middlewares/Third_Party/LwIP/src/core/tcp_in.c ****        round-trip time measurement. */
1344:Middlewares/Third_Party/LwIP/src/core/tcp_in.c ****     if (pcb->rttest && TCP_SEQ_LT(pcb->rtseq, ackno)) {
 4365              		.loc 1 1344 12
 4366 044a 7B68     		ldr	r3, [r7, #4]
 4367 044c 5B6B     		ldr	r3, [r3, #52]
 4368              		.loc 1 1344 8
 4369 044e 002B     		cmp	r3, #0
 4370 0450 5BD0     		beq	.L237
 4371              		.loc 1 1344 24 discriminator 1
 4372 0452 7B68     		ldr	r3, [r7, #4]
 4373 0454 9A6B     		ldr	r2, [r3, #56]
 4374 0456 604B     		ldr	r3, .L353+12
 4375 0458 1B68     		ldr	r3, [r3]
 4376 045a D31A     		subs	r3, r2, r3
 4377              		.loc 1 1344 21 discriminator 1
 4378 045c 002B     		cmp	r3, #0
 4379 045e 54DA     		bge	.L237
1345:Middlewares/Third_Party/LwIP/src/core/tcp_in.c ****       /* diff between this shouldn't exceed 32K since this are tcp timer ticks
1346:Middlewares/Third_Party/LwIP/src/core/tcp_in.c ****          and a round-trip shouldn't be that long... */
1347:Middlewares/Third_Party/LwIP/src/core/tcp_in.c ****       m = (s16_t)(tcp_ticks - pcb->rttest);
 4380              		.loc 1 1347 29
 4381 0460 5E4B     		ldr	r3, .L353+16
 4382 0462 1B68     		ldr	r3, [r3]
 4383 0464 9AB2     		uxth	r2, r3
 4384              		.loc 1 1347 34
 4385 0466 7B68     		ldr	r3, [r7, #4]
 4386 0468 5B6B     		ldr	r3, [r3, #52]
 4387              		.loc 1 1347 29
 4388 046a 9BB2     		uxth	r3, r3
 4389 046c D31A     		subs	r3, r2, r3
 4390 046e 9BB2     		uxth	r3, r3
 4391              		.loc 1 1347 9
 4392 0470 A7F84E30 		strh	r3, [r7, #78]	@ movhi
1348:Middlewares/Third_Party/LwIP/src/core/tcp_in.c **** 
1349:Middlewares/Third_Party/LwIP/src/core/tcp_in.c ****       LWIP_DEBUGF(TCP_RTO_DEBUG, ("tcp_receive: experienced rtt %"U16_F" ticks (%"U16_F" msec).\n",
1350:Middlewares/Third_Party/LwIP/src/core/tcp_in.c ****                                   m, (u16_t)(m * TCP_SLOW_INTERVAL)));
1351:Middlewares/Third_Party/LwIP/src/core/tcp_in.c **** 
1352:Middlewares/Third_Party/LwIP/src/core/tcp_in.c ****       /* This is taken directly from VJs original code in his paper */
ARM GAS  /tmp/ccWqLOXK.s 			page 106


1353:Middlewares/Third_Party/LwIP/src/core/tcp_in.c ****       m = (s16_t)(m - (pcb->sa >> 3));
 4393              		.loc 1 1353 21
 4394 0474 B7F84E20 		ldrh	r2, [r7, #78]
 4395              		.loc 1 1353 27
 4396 0478 7B68     		ldr	r3, [r7, #4]
 4397 047a B3F93C30 		ldrsh	r3, [r3, #60]
 4398              		.loc 1 1353 21
 4399 047e DB10     		asrs	r3, r3, #3
 4400 0480 1BB2     		sxth	r3, r3
 4401 0482 9BB2     		uxth	r3, r3
 4402 0484 D31A     		subs	r3, r2, r3
 4403 0486 9BB2     		uxth	r3, r3
 4404              		.loc 1 1353 9
 4405 0488 A7F84E30 		strh	r3, [r7, #78]	@ movhi
1354:Middlewares/Third_Party/LwIP/src/core/tcp_in.c ****       pcb->sa = (s16_t)(pcb->sa + m);
 4406              		.loc 1 1354 28
 4407 048c 7B68     		ldr	r3, [r7, #4]
 4408 048e B3F93C30 		ldrsh	r3, [r3, #60]
 4409 0492 9AB2     		uxth	r2, r3
 4410              		.loc 1 1354 33
 4411 0494 B7F84E30 		ldrh	r3, [r7, #78]
 4412 0498 1344     		add	r3, r3, r2
 4413 049a 9BB2     		uxth	r3, r3
 4414              		.loc 1 1354 17
 4415 049c 1AB2     		sxth	r2, r3
 4416              		.loc 1 1354 15
 4417 049e 7B68     		ldr	r3, [r7, #4]
 4418 04a0 9A87     		strh	r2, [r3, #60]	@ movhi
1355:Middlewares/Third_Party/LwIP/src/core/tcp_in.c ****       if (m < 0) {
 4419              		.loc 1 1355 10
 4420 04a2 B7F94E30 		ldrsh	r3, [r7, #78]
 4421 04a6 002B     		cmp	r3, #0
 4422 04a8 05DA     		bge	.L267
1356:Middlewares/Third_Party/LwIP/src/core/tcp_in.c ****         m = (s16_t) - m;
 4423              		.loc 1 1356 13
 4424 04aa B7F84E30 		ldrh	r3, [r7, #78]
 4425 04ae 5B42     		rsbs	r3, r3, #0
 4426 04b0 9BB2     		uxth	r3, r3
 4427              		.loc 1 1356 11
 4428 04b2 A7F84E30 		strh	r3, [r7, #78]	@ movhi
 4429              	.L267:
1357:Middlewares/Third_Party/LwIP/src/core/tcp_in.c ****       }
1358:Middlewares/Third_Party/LwIP/src/core/tcp_in.c ****       m = (s16_t)(m - (pcb->sv >> 2));
 4430              		.loc 1 1358 21
 4431 04b6 B7F84E20 		ldrh	r2, [r7, #78]
 4432              		.loc 1 1358 27
 4433 04ba 7B68     		ldr	r3, [r7, #4]
 4434 04bc B3F93E30 		ldrsh	r3, [r3, #62]
 4435              		.loc 1 1358 21
 4436 04c0 9B10     		asrs	r3, r3, #2
 4437 04c2 1BB2     		sxth	r3, r3
 4438 04c4 9BB2     		uxth	r3, r3
 4439 04c6 D31A     		subs	r3, r2, r3
 4440 04c8 9BB2     		uxth	r3, r3
 4441              		.loc 1 1358 9
 4442 04ca A7F84E30 		strh	r3, [r7, #78]	@ movhi
1359:Middlewares/Third_Party/LwIP/src/core/tcp_in.c ****       pcb->sv = (s16_t)(pcb->sv + m);
ARM GAS  /tmp/ccWqLOXK.s 			page 107


 4443              		.loc 1 1359 28
 4444 04ce 7B68     		ldr	r3, [r7, #4]
 4445 04d0 B3F93E30 		ldrsh	r3, [r3, #62]
 4446 04d4 9AB2     		uxth	r2, r3
 4447              		.loc 1 1359 33
 4448 04d6 B7F84E30 		ldrh	r3, [r7, #78]
 4449 04da 1344     		add	r3, r3, r2
 4450 04dc 9BB2     		uxth	r3, r3
 4451              		.loc 1 1359 17
 4452 04de 1AB2     		sxth	r2, r3
 4453              		.loc 1 1359 15
 4454 04e0 7B68     		ldr	r3, [r7, #4]
 4455 04e2 DA87     		strh	r2, [r3, #62]	@ movhi
1360:Middlewares/Third_Party/LwIP/src/core/tcp_in.c ****       pcb->rto = (s16_t)((pcb->sa >> 3) + pcb->sv);
 4456              		.loc 1 1360 30
 4457 04e4 7B68     		ldr	r3, [r7, #4]
 4458 04e6 B3F93C30 		ldrsh	r3, [r3, #60]
 4459              		.loc 1 1360 41
 4460 04ea DB10     		asrs	r3, r3, #3
 4461 04ec 1BB2     		sxth	r3, r3
 4462 04ee 9AB2     		uxth	r2, r3
 4463              		.loc 1 1360 46
 4464 04f0 7B68     		ldr	r3, [r7, #4]
 4465 04f2 B3F93E30 		ldrsh	r3, [r3, #62]
 4466 04f6 9BB2     		uxth	r3, r3
 4467              		.loc 1 1360 41
 4468 04f8 1344     		add	r3, r3, r2
 4469 04fa 9BB2     		uxth	r3, r3
 4470              		.loc 1 1360 18
 4471 04fc 1AB2     		sxth	r2, r3
 4472              		.loc 1 1360 16
 4473 04fe 7B68     		ldr	r3, [r7, #4]
 4474 0500 A3F84020 		strh	r2, [r3, #64]	@ movhi
1361:Middlewares/Third_Party/LwIP/src/core/tcp_in.c **** 
1362:Middlewares/Third_Party/LwIP/src/core/tcp_in.c ****       LWIP_DEBUGF(TCP_RTO_DEBUG, ("tcp_receive: RTO %"U16_F" (%"U16_F" milliseconds)\n",
1363:Middlewares/Third_Party/LwIP/src/core/tcp_in.c ****                                   pcb->rto, (u16_t)(pcb->rto * TCP_SLOW_INTERVAL)));
1364:Middlewares/Third_Party/LwIP/src/core/tcp_in.c **** 
1365:Middlewares/Third_Party/LwIP/src/core/tcp_in.c ****       pcb->rttest = 0;
 4475              		.loc 1 1365 19
 4476 0504 7B68     		ldr	r3, [r7, #4]
 4477 0506 0022     		movs	r2, #0
 4478 0508 5A63     		str	r2, [r3, #52]
 4479              	.L237:
1366:Middlewares/Third_Party/LwIP/src/core/tcp_in.c ****     }
1367:Middlewares/Third_Party/LwIP/src/core/tcp_in.c ****   }
1368:Middlewares/Third_Party/LwIP/src/core/tcp_in.c **** 
1369:Middlewares/Third_Party/LwIP/src/core/tcp_in.c ****   /* If the incoming segment contains data, we must process it
1370:Middlewares/Third_Party/LwIP/src/core/tcp_in.c ****      further unless the pcb already received a FIN.
1371:Middlewares/Third_Party/LwIP/src/core/tcp_in.c ****      (RFC 793, chapter 3.9, "SEGMENT ARRIVES" in states CLOSE-WAIT, CLOSING,
1372:Middlewares/Third_Party/LwIP/src/core/tcp_in.c ****      LAST-ACK and TIME-WAIT: "Ignore the segment text.") */
1373:Middlewares/Third_Party/LwIP/src/core/tcp_in.c ****   if ((tcplen > 0) && (pcb->state < CLOSE_WAIT)) {
 4480              		.loc 1 1373 15
 4481 050a 354B     		ldr	r3, .L353+20
 4482 050c 1B88     		ldrh	r3, [r3]
 4483              		.loc 1 1373 6
 4484 050e 002B     		cmp	r3, #0
 4485 0510 00F0E184 		beq	.L268
ARM GAS  /tmp/ccWqLOXK.s 			page 108


 4486              		.loc 1 1373 27 discriminator 1
 4487 0514 7B68     		ldr	r3, [r7, #4]
 4488 0516 1B7D     		ldrb	r3, [r3, #20]	@ zero_extendqisi2
 4489              		.loc 1 1373 20 discriminator 1
 4490 0518 062B     		cmp	r3, #6
 4491 051a 00F2DC84 		bhi	.L268
1374:Middlewares/Third_Party/LwIP/src/core/tcp_in.c ****     /* This code basically does three things:
1375:Middlewares/Third_Party/LwIP/src/core/tcp_in.c **** 
1376:Middlewares/Third_Party/LwIP/src/core/tcp_in.c ****     +) If the incoming segment contains data that is the next
1377:Middlewares/Third_Party/LwIP/src/core/tcp_in.c ****     in-sequence data, this data is passed to the application. This
1378:Middlewares/Third_Party/LwIP/src/core/tcp_in.c ****     might involve trimming the first edge of the data. The rcv_nxt
1379:Middlewares/Third_Party/LwIP/src/core/tcp_in.c ****     variable and the advertised window are adjusted.
1380:Middlewares/Third_Party/LwIP/src/core/tcp_in.c **** 
1381:Middlewares/Third_Party/LwIP/src/core/tcp_in.c ****     +) If the incoming segment has data that is above the next
1382:Middlewares/Third_Party/LwIP/src/core/tcp_in.c ****     sequence number expected (->rcv_nxt), the segment is placed on
1383:Middlewares/Third_Party/LwIP/src/core/tcp_in.c ****     the ->ooseq queue. This is done by finding the appropriate
1384:Middlewares/Third_Party/LwIP/src/core/tcp_in.c ****     place in the ->ooseq queue (which is ordered by sequence
1385:Middlewares/Third_Party/LwIP/src/core/tcp_in.c ****     number) and trim the segment in both ends if needed. An
1386:Middlewares/Third_Party/LwIP/src/core/tcp_in.c ****     immediate ACK is sent to indicate that we received an
1387:Middlewares/Third_Party/LwIP/src/core/tcp_in.c ****     out-of-sequence segment.
1388:Middlewares/Third_Party/LwIP/src/core/tcp_in.c **** 
1389:Middlewares/Third_Party/LwIP/src/core/tcp_in.c ****     +) Finally, we check if the first segment on the ->ooseq queue
1390:Middlewares/Third_Party/LwIP/src/core/tcp_in.c ****     now is in sequence (i.e., if rcv_nxt >= ooseq->seqno). If
1391:Middlewares/Third_Party/LwIP/src/core/tcp_in.c ****     rcv_nxt > ooseq->seqno, we must trim the first edge of the
1392:Middlewares/Third_Party/LwIP/src/core/tcp_in.c ****     segment on ->ooseq before we adjust rcv_nxt. The data in the
1393:Middlewares/Third_Party/LwIP/src/core/tcp_in.c ****     segments that are now on sequence are chained onto the
1394:Middlewares/Third_Party/LwIP/src/core/tcp_in.c ****     incoming segment so that we only need to call the application
1395:Middlewares/Third_Party/LwIP/src/core/tcp_in.c ****     once.
1396:Middlewares/Third_Party/LwIP/src/core/tcp_in.c ****     */
1397:Middlewares/Third_Party/LwIP/src/core/tcp_in.c **** 
1398:Middlewares/Third_Party/LwIP/src/core/tcp_in.c ****     /* First, we check if we must trim the first edge. We have to do
1399:Middlewares/Third_Party/LwIP/src/core/tcp_in.c ****        this if the sequence number of the incoming segment is less
1400:Middlewares/Third_Party/LwIP/src/core/tcp_in.c ****        than rcv_nxt, and the sequence number plus the length of the
1401:Middlewares/Third_Party/LwIP/src/core/tcp_in.c ****        segment is larger than rcv_nxt. */
1402:Middlewares/Third_Party/LwIP/src/core/tcp_in.c ****     /*    if (TCP_SEQ_LT(seqno, pcb->rcv_nxt)) {
1403:Middlewares/Third_Party/LwIP/src/core/tcp_in.c ****           if (TCP_SEQ_LT(pcb->rcv_nxt, seqno + tcplen)) {*/
1404:Middlewares/Third_Party/LwIP/src/core/tcp_in.c ****     if (TCP_SEQ_BETWEEN(pcb->rcv_nxt, seqno + 1, seqno + tcplen - 1)) {
 4492              		.loc 1 1404 9
 4493 051e 7B68     		ldr	r3, [r7, #4]
 4494 0520 5A6A     		ldr	r2, [r3, #36]
 4495 0522 304B     		ldr	r3, .L353+24
 4496 0524 1B68     		ldr	r3, [r3]
 4497 0526 D31A     		subs	r3, r2, r3
 4498 0528 013B     		subs	r3, r3, #1
 4499              		.loc 1 1404 8
 4500 052a 002B     		cmp	r3, #0
 4501 052c C0F28E80 		blt	.L269
 4502              		.loc 1 1404 9 discriminator 1
 4503 0530 7B68     		ldr	r3, [r7, #4]
 4504 0532 5A6A     		ldr	r2, [r3, #36]
 4505 0534 2A4B     		ldr	r3, .L353+20
 4506 0536 1B88     		ldrh	r3, [r3]
 4507 0538 1946     		mov	r1, r3
 4508 053a 2A4B     		ldr	r3, .L353+24
 4509 053c 1B68     		ldr	r3, [r3]
 4510 053e 0B44     		add	r3, r3, r1
 4511 0540 D31A     		subs	r3, r2, r3
ARM GAS  /tmp/ccWqLOXK.s 			page 109


 4512 0542 0133     		adds	r3, r3, #1
 4513 0544 002B     		cmp	r3, #0
 4514 0546 00F38180 		bgt	.L269
 4515              	.LBB13:
1405:Middlewares/Third_Party/LwIP/src/core/tcp_in.c ****       /* Trimming the first edge is done by pushing the payload
1406:Middlewares/Third_Party/LwIP/src/core/tcp_in.c ****          pointer in the pbuf downwards. This is somewhat tricky since
1407:Middlewares/Third_Party/LwIP/src/core/tcp_in.c ****          we do not want to discard the full contents of the pbuf up to
1408:Middlewares/Third_Party/LwIP/src/core/tcp_in.c ****          the new starting point of the data since we have to keep the
1409:Middlewares/Third_Party/LwIP/src/core/tcp_in.c ****          TCP header which is present in the first pbuf in the chain.
1410:Middlewares/Third_Party/LwIP/src/core/tcp_in.c **** 
1411:Middlewares/Third_Party/LwIP/src/core/tcp_in.c ****          What is done is really quite a nasty hack: the first pbuf in
1412:Middlewares/Third_Party/LwIP/src/core/tcp_in.c ****          the pbuf chain is pointed to by inseg.p. Since we need to be
1413:Middlewares/Third_Party/LwIP/src/core/tcp_in.c ****          able to deallocate the whole pbuf, we cannot change this
1414:Middlewares/Third_Party/LwIP/src/core/tcp_in.c ****          inseg.p pointer to point to any of the later pbufs in the
1415:Middlewares/Third_Party/LwIP/src/core/tcp_in.c ****          chain. Instead, we point the ->payload pointer in the first
1416:Middlewares/Third_Party/LwIP/src/core/tcp_in.c ****          pbuf to data in one of the later pbufs. We also set the
1417:Middlewares/Third_Party/LwIP/src/core/tcp_in.c ****          inseg.data pointer to point to the right place. This way, the
1418:Middlewares/Third_Party/LwIP/src/core/tcp_in.c ****          ->p pointer will still point to the first pbuf, but the
1419:Middlewares/Third_Party/LwIP/src/core/tcp_in.c ****          ->p->payload pointer will point to data in another pbuf.
1420:Middlewares/Third_Party/LwIP/src/core/tcp_in.c **** 
1421:Middlewares/Third_Party/LwIP/src/core/tcp_in.c ****          After we are done with adjusting the pbuf pointers we must
1422:Middlewares/Third_Party/LwIP/src/core/tcp_in.c ****          adjust the ->data pointer in the seg and the segment
1423:Middlewares/Third_Party/LwIP/src/core/tcp_in.c ****          length.*/
1424:Middlewares/Third_Party/LwIP/src/core/tcp_in.c **** 
1425:Middlewares/Third_Party/LwIP/src/core/tcp_in.c ****       struct pbuf *p = inseg.p;
 4516              		.loc 1 1425 20
 4517 054a 274B     		ldr	r3, .L353+28
 4518 054c 5B68     		ldr	r3, [r3, #4]
 4519 054e 7B64     		str	r3, [r7, #68]
1426:Middlewares/Third_Party/LwIP/src/core/tcp_in.c ****       u32_t off32 = pcb->rcv_nxt - seqno;
 4520              		.loc 1 1426 24
 4521 0550 7B68     		ldr	r3, [r7, #4]
 4522 0552 5A6A     		ldr	r2, [r3, #36]
 4523              		.loc 1 1426 34
 4524 0554 234B     		ldr	r3, .L353+24
 4525 0556 1B68     		ldr	r3, [r3]
 4526              		.loc 1 1426 13
 4527 0558 D31A     		subs	r3, r2, r3
 4528 055a 7B62     		str	r3, [r7, #36]
1427:Middlewares/Third_Party/LwIP/src/core/tcp_in.c ****       u16_t new_tot_len, off;
1428:Middlewares/Third_Party/LwIP/src/core/tcp_in.c ****       LWIP_ASSERT("inseg.p != NULL", inseg.p);
 4529              		.loc 1 1428 7
 4530 055c 224B     		ldr	r3, .L353+28
 4531 055e 5B68     		ldr	r3, [r3, #4]
 4532 0560 002B     		cmp	r3, #0
 4533 0562 06D1     		bne	.L270
 4534              		.loc 1 1428 7 is_stmt 0 discriminator 1
 4535 0564 214B     		ldr	r3, .L353+32
 4536 0566 40F29452 		movw	r2, #1428
 4537 056a 2149     		ldr	r1, .L353+36
 4538 056c 2148     		ldr	r0, .L353+40
 4539 056e FFF7FEFF 		bl	printf
 4540              	.L270:
1429:Middlewares/Third_Party/LwIP/src/core/tcp_in.c ****       LWIP_ASSERT("insane offset!", (off32 < 0xffff));
 4541              		.loc 1 1429 7 is_stmt 1
 4542 0572 7B6A     		ldr	r3, [r7, #36]
 4543 0574 4FF6FE72 		movw	r2, #65534
ARM GAS  /tmp/ccWqLOXK.s 			page 110


 4544 0578 9342     		cmp	r3, r2
 4545 057a 06D9     		bls	.L271
 4546              		.loc 1 1429 7 is_stmt 0 discriminator 1
 4547 057c 1B4B     		ldr	r3, .L353+32
 4548 057e 40F29552 		movw	r2, #1429
 4549 0582 1D49     		ldr	r1, .L353+44
 4550 0584 1B48     		ldr	r0, .L353+40
 4551 0586 FFF7FEFF 		bl	printf
 4552              	.L271:
1430:Middlewares/Third_Party/LwIP/src/core/tcp_in.c ****       off = (u16_t)off32;
 4553              		.loc 1 1430 11 is_stmt 1
 4554 058a 7B6A     		ldr	r3, [r7, #36]
 4555 058c A7F84230 		strh	r3, [r7, #66]	@ movhi
1431:Middlewares/Third_Party/LwIP/src/core/tcp_in.c ****       LWIP_ASSERT("pbuf too short!", (((s32_t)inseg.p->tot_len) >= off));
 4556              		.loc 1 1431 7
 4557 0590 154B     		ldr	r3, .L353+28
 4558 0592 5B68     		ldr	r3, [r3, #4]
 4559 0594 1B89     		ldrh	r3, [r3, #8]
 4560 0596 B7F84220 		ldrh	r2, [r7, #66]
 4561 059a 9A42     		cmp	r2, r3
 4562 059c 06D9     		bls	.L272
 4563              		.loc 1 1431 7 is_stmt 0 discriminator 1
 4564 059e 134B     		ldr	r3, .L353+32
 4565 05a0 40F29752 		movw	r2, #1431
 4566 05a4 1549     		ldr	r1, .L353+48
 4567 05a6 1348     		ldr	r0, .L353+40
 4568 05a8 FFF7FEFF 		bl	printf
 4569              	.L272:
1432:Middlewares/Third_Party/LwIP/src/core/tcp_in.c ****       inseg.len -= off;
 4570              		.loc 1 1432 17 is_stmt 1
 4571 05ac 0E4B     		ldr	r3, .L353+28
 4572 05ae 1A89     		ldrh	r2, [r3, #8]
 4573 05b0 B7F84230 		ldrh	r3, [r7, #66]	@ movhi
 4574 05b4 D31A     		subs	r3, r2, r3
 4575 05b6 9AB2     		uxth	r2, r3
 4576 05b8 0B4B     		ldr	r3, .L353+28
 4577 05ba 1A81     		strh	r2, [r3, #8]	@ movhi
1433:Middlewares/Third_Party/LwIP/src/core/tcp_in.c ****       new_tot_len = (u16_t)(inseg.p->tot_len - off);
 4578              		.loc 1 1433 34
 4579 05bc 0A4B     		ldr	r3, .L353+28
 4580 05be 5B68     		ldr	r3, [r3, #4]
 4581              		.loc 1 1433 36
 4582 05c0 1A89     		ldrh	r2, [r3, #8]
 4583              		.loc 1 1433 19
 4584 05c2 B7F84230 		ldrh	r3, [r7, #66]	@ movhi
 4585 05c6 D31A     		subs	r3, r2, r3
 4586 05c8 7B84     		strh	r3, [r7, #34]	@ movhi
1434:Middlewares/Third_Party/LwIP/src/core/tcp_in.c ****       while (p->len < off) {
 4587              		.loc 1 1434 13
 4588 05ca 29E0     		b	.L273
 4589              	.L354:
 4590              		.align	2
 4591              	.L353:
 4592 05cc 64030000 		.word	.LC26
 4593 05d0 6C030000 		.word	.LC27
 4594 05d4 00000000 		.word	recv_acked
 4595 05d8 00000000 		.word	ackno
ARM GAS  /tmp/ccWqLOXK.s 			page 111


 4596 05dc 00000000 		.word	tcp_ticks
 4597 05e0 00000000 		.word	tcplen
 4598 05e4 00000000 		.word	seqno
 4599 05e8 00000000 		.word	inseg
 4600 05ec 00000000 		.word	.LC0
 4601 05f0 74030000 		.word	.LC28
 4602 05f4 48000000 		.word	.LC2
 4603 05f8 84030000 		.word	.LC29
 4604 05fc 94030000 		.word	.LC30
 4605              	.L274:
1435:Middlewares/Third_Party/LwIP/src/core/tcp_in.c ****         off -= p->len;
 4606              		.loc 1 1435 17
 4607 0600 7B6C     		ldr	r3, [r7, #68]
 4608 0602 5B89     		ldrh	r3, [r3, #10]
 4609              		.loc 1 1435 13
 4610 0604 B7F84220 		ldrh	r2, [r7, #66]	@ movhi
 4611 0608 D31A     		subs	r3, r2, r3
 4612 060a A7F84230 		strh	r3, [r7, #66]	@ movhi
1436:Middlewares/Third_Party/LwIP/src/core/tcp_in.c ****         /* all pbufs up to and including this one have len==0, so tot_len is equal */
1437:Middlewares/Third_Party/LwIP/src/core/tcp_in.c ****         p->tot_len = new_tot_len;
 4613              		.loc 1 1437 20
 4614 060e 7B6C     		ldr	r3, [r7, #68]
 4615 0610 7A8C     		ldrh	r2, [r7, #34]	@ movhi
 4616 0612 1A81     		strh	r2, [r3, #8]	@ movhi
1438:Middlewares/Third_Party/LwIP/src/core/tcp_in.c ****         p->len = 0;
 4617              		.loc 1 1438 16
 4618 0614 7B6C     		ldr	r3, [r7, #68]
 4619 0616 0022     		movs	r2, #0
 4620 0618 5A81     		strh	r2, [r3, #10]	@ movhi
1439:Middlewares/Third_Party/LwIP/src/core/tcp_in.c ****         p = p->next;
 4621              		.loc 1 1439 11
 4622 061a 7B6C     		ldr	r3, [r7, #68]
 4623 061c 1B68     		ldr	r3, [r3]
 4624 061e 7B64     		str	r3, [r7, #68]
 4625              	.L273:
1434:Middlewares/Third_Party/LwIP/src/core/tcp_in.c ****         off -= p->len;
 4626              		.loc 1 1434 15
 4627 0620 7B6C     		ldr	r3, [r7, #68]
 4628 0622 5B89     		ldrh	r3, [r3, #10]
1434:Middlewares/Third_Party/LwIP/src/core/tcp_in.c ****         off -= p->len;
 4629              		.loc 1 1434 13
 4630 0624 B7F84220 		ldrh	r2, [r7, #66]
 4631 0628 9A42     		cmp	r2, r3
 4632 062a E9D8     		bhi	.L274
1440:Middlewares/Third_Party/LwIP/src/core/tcp_in.c ****       }
1441:Middlewares/Third_Party/LwIP/src/core/tcp_in.c ****       /* cannot fail... */
1442:Middlewares/Third_Party/LwIP/src/core/tcp_in.c ****       pbuf_remove_header(p, off);
 4633              		.loc 1 1442 7
 4634 062c B7F84230 		ldrh	r3, [r7, #66]
 4635 0630 1946     		mov	r1, r3
 4636 0632 786C     		ldr	r0, [r7, #68]
 4637 0634 FFF7FEFF 		bl	pbuf_remove_header
1443:Middlewares/Third_Party/LwIP/src/core/tcp_in.c ****       inseg.tcphdr->seqno = seqno = pcb->rcv_nxt;
 4638              		.loc 1 1443 40
 4639 0638 7B68     		ldr	r3, [r7, #4]
 4640 063a 5B6A     		ldr	r3, [r3, #36]
 4641              		.loc 1 1443 35
ARM GAS  /tmp/ccWqLOXK.s 			page 112


 4642 063c 914A     		ldr	r2, .L355
 4643 063e 1360     		str	r3, [r2]
 4644              		.loc 1 1443 12
 4645 0640 914B     		ldr	r3, .L355+4
 4646 0642 DB68     		ldr	r3, [r3, #12]
 4647              		.loc 1 1443 27
 4648 0644 8F4A     		ldr	r2, .L355
 4649 0646 1268     		ldr	r2, [r2]
 4650 0648 5A60     		str	r2, [r3, #4]	@ unaligned
 4651              	.LBE13:
1404:Middlewares/Third_Party/LwIP/src/core/tcp_in.c ****       /* Trimming the first edge is done by pushing the payload
 4652              		.loc 1 1404 71
 4653 064a 0DE0     		b	.L275
 4654              	.L269:
1444:Middlewares/Third_Party/LwIP/src/core/tcp_in.c ****     } else {
1445:Middlewares/Third_Party/LwIP/src/core/tcp_in.c ****       if (TCP_SEQ_LT(seqno, pcb->rcv_nxt)) {
 4655              		.loc 1 1445 11
 4656 064c 8D4B     		ldr	r3, .L355
 4657 064e 1A68     		ldr	r2, [r3]
 4658 0650 7B68     		ldr	r3, [r7, #4]
 4659 0652 5B6A     		ldr	r3, [r3, #36]
 4660 0654 D31A     		subs	r3, r2, r3
 4661              		.loc 1 1445 10
 4662 0656 002B     		cmp	r3, #0
 4663 0658 06DA     		bge	.L275
1446:Middlewares/Third_Party/LwIP/src/core/tcp_in.c ****         /* the whole segment is < rcv_nxt */
1447:Middlewares/Third_Party/LwIP/src/core/tcp_in.c ****         /* must be a duplicate of a packet that has already been correctly handled */
1448:Middlewares/Third_Party/LwIP/src/core/tcp_in.c **** 
1449:Middlewares/Third_Party/LwIP/src/core/tcp_in.c ****         LWIP_DEBUGF(TCP_INPUT_DEBUG, ("tcp_receive: duplicate seqno %"U32_F"\n", seqno));
1450:Middlewares/Third_Party/LwIP/src/core/tcp_in.c ****         tcp_ack_now(pcb);
 4664              		.loc 1 1450 9
 4665 065a 7B68     		ldr	r3, [r7, #4]
 4666 065c 5B8B     		ldrh	r3, [r3, #26]
 4667 065e 43F00203 		orr	r3, r3, #2
 4668 0662 9AB2     		uxth	r2, r3
 4669 0664 7B68     		ldr	r3, [r7, #4]
 4670 0666 5A83     		strh	r2, [r3, #26]	@ movhi
 4671              	.L275:
1451:Middlewares/Third_Party/LwIP/src/core/tcp_in.c ****       }
1452:Middlewares/Third_Party/LwIP/src/core/tcp_in.c ****     }
1453:Middlewares/Third_Party/LwIP/src/core/tcp_in.c **** 
1454:Middlewares/Third_Party/LwIP/src/core/tcp_in.c ****     /* The sequence number must be within the window (above rcv_nxt
1455:Middlewares/Third_Party/LwIP/src/core/tcp_in.c ****        and below rcv_nxt + rcv_wnd) in order to be further
1456:Middlewares/Third_Party/LwIP/src/core/tcp_in.c ****        processed. */
1457:Middlewares/Third_Party/LwIP/src/core/tcp_in.c ****     if (TCP_SEQ_BETWEEN(seqno, pcb->rcv_nxt,
 4672              		.loc 1 1457 9
 4673 0668 864B     		ldr	r3, .L355
 4674 066a 1A68     		ldr	r2, [r3]
 4675 066c 7B68     		ldr	r3, [r7, #4]
 4676 066e 5B6A     		ldr	r3, [r3, #36]
 4677 0670 D31A     		subs	r3, r2, r3
 4678              		.loc 1 1457 8
 4679 0672 002B     		cmp	r3, #0
 4680 0674 C0F22A84 		blt	.L276
 4681              		.loc 1 1457 9 discriminator 1
 4682 0678 824B     		ldr	r3, .L355
 4683 067a 1A68     		ldr	r2, [r3]
ARM GAS  /tmp/ccWqLOXK.s 			page 113


 4684 067c 7B68     		ldr	r3, [r7, #4]
 4685 067e 5B6A     		ldr	r3, [r3, #36]
 4686 0680 7968     		ldr	r1, [r7, #4]
 4687 0682 098D     		ldrh	r1, [r1, #40]
 4688 0684 0B44     		add	r3, r3, r1
 4689 0686 D31A     		subs	r3, r2, r3
 4690 0688 0133     		adds	r3, r3, #1
 4691 068a 002B     		cmp	r3, #0
 4692 068c 00F31E84 		bgt	.L276
1458:Middlewares/Third_Party/LwIP/src/core/tcp_in.c ****                         pcb->rcv_nxt + pcb->rcv_wnd - 1)) {
1459:Middlewares/Third_Party/LwIP/src/core/tcp_in.c ****       if (pcb->rcv_nxt == seqno) {
 4693              		.loc 1 1459 14
 4694 0690 7B68     		ldr	r3, [r7, #4]
 4695 0692 5A6A     		ldr	r2, [r3, #36]
 4696              		.loc 1 1459 24
 4697 0694 7B4B     		ldr	r3, .L355
 4698 0696 1B68     		ldr	r3, [r3]
 4699              		.loc 1 1459 10
 4700 0698 9A42     		cmp	r2, r3
 4701 069a 40F09A82 		bne	.L277
1460:Middlewares/Third_Party/LwIP/src/core/tcp_in.c ****         /* The incoming segment is the next in sequence. We check if
1461:Middlewares/Third_Party/LwIP/src/core/tcp_in.c ****            we have to trim the end of the segment and update rcv_nxt
1462:Middlewares/Third_Party/LwIP/src/core/tcp_in.c ****            and pass the data to the application. */
1463:Middlewares/Third_Party/LwIP/src/core/tcp_in.c ****         tcplen = TCP_TCPLEN(&inseg);
 4702              		.loc 1 1463 18
 4703 069e 7A4B     		ldr	r3, .L355+4
 4704 06a0 1C89     		ldrh	r4, [r3, #8]
 4705 06a2 794B     		ldr	r3, .L355+4
 4706 06a4 DB68     		ldr	r3, [r3, #12]
 4707 06a6 9B89     		ldrh	r3, [r3, #12]	@ unaligned
 4708 06a8 9BB2     		uxth	r3, r3
 4709 06aa 1846     		mov	r0, r3
 4710 06ac FFF7FEFF 		bl	lwip_htons
 4711 06b0 0346     		mov	r3, r0
 4712 06b2 DBB2     		uxtb	r3, r3
 4713 06b4 03F00303 		and	r3, r3, #3
 4714 06b8 002B     		cmp	r3, #0
 4715 06ba 01D0     		beq	.L278
 4716              		.loc 1 1463 18 is_stmt 0 discriminator 1
 4717 06bc 0123     		movs	r3, #1
 4718 06be 00E0     		b	.L279
 4719              	.L278:
 4720              		.loc 1 1463 18 discriminator 2
 4721 06c0 0023     		movs	r3, #0
 4722              	.L279:
 4723              		.loc 1 1463 18 discriminator 4
 4724 06c2 2344     		add	r3, r3, r4
 4725 06c4 9AB2     		uxth	r2, r3
 4726              		.loc 1 1463 16 is_stmt 1 discriminator 4
 4727 06c6 714B     		ldr	r3, .L355+8
 4728 06c8 1A80     		strh	r2, [r3]	@ movhi
1464:Middlewares/Third_Party/LwIP/src/core/tcp_in.c **** 
1465:Middlewares/Third_Party/LwIP/src/core/tcp_in.c ****         if (tcplen > pcb->rcv_wnd) {
 4729              		.loc 1 1465 25 discriminator 4
 4730 06ca 7B68     		ldr	r3, [r7, #4]
 4731 06cc 1A8D     		ldrh	r2, [r3, #40]
 4732              		.loc 1 1465 20 discriminator 4
ARM GAS  /tmp/ccWqLOXK.s 			page 114


 4733 06ce 6F4B     		ldr	r3, .L355+8
 4734 06d0 1B88     		ldrh	r3, [r3]
 4735              		.loc 1 1465 12 discriminator 4
 4736 06d2 9A42     		cmp	r2, r3
 4737 06d4 75D2     		bcs	.L280
1466:Middlewares/Third_Party/LwIP/src/core/tcp_in.c ****           LWIP_DEBUGF(TCP_INPUT_DEBUG,
1467:Middlewares/Third_Party/LwIP/src/core/tcp_in.c ****                       ("tcp_receive: other end overran receive window"
1468:Middlewares/Third_Party/LwIP/src/core/tcp_in.c ****                        "seqno %"U32_F" len %"U16_F" right edge %"U32_F"\n",
1469:Middlewares/Third_Party/LwIP/src/core/tcp_in.c ****                        seqno, tcplen, pcb->rcv_nxt + pcb->rcv_wnd));
1470:Middlewares/Third_Party/LwIP/src/core/tcp_in.c ****           if (TCPH_FLAGS(inseg.tcphdr) & TCP_FIN) {
 4738              		.loc 1 1470 15
 4739 06d6 6C4B     		ldr	r3, .L355+4
 4740 06d8 DB68     		ldr	r3, [r3, #12]
 4741 06da 9B89     		ldrh	r3, [r3, #12]	@ unaligned
 4742 06dc 9BB2     		uxth	r3, r3
 4743 06de 1846     		mov	r0, r3
 4744 06e0 FFF7FEFF 		bl	lwip_htons
 4745 06e4 0346     		mov	r3, r0
 4746 06e6 DBB2     		uxtb	r3, r3
 4747              		.loc 1 1470 40
 4748 06e8 03F00103 		and	r3, r3, #1
 4749              		.loc 1 1470 14
 4750 06ec 002B     		cmp	r3, #0
 4751 06ee 1FD0     		beq	.L281
1471:Middlewares/Third_Party/LwIP/src/core/tcp_in.c ****             /* Must remove the FIN from the header as we're trimming
1472:Middlewares/Third_Party/LwIP/src/core/tcp_in.c ****              * that byte of sequence-space from the packet */
1473:Middlewares/Third_Party/LwIP/src/core/tcp_in.c ****             TCPH_FLAGS_SET(inseg.tcphdr, TCPH_FLAGS(inseg.tcphdr) & ~(unsigned int)TCP_FIN);
 4752              		.loc 1 1473 13
 4753 06f0 654B     		ldr	r3, .L355+4
 4754 06f2 DB68     		ldr	r3, [r3, #12]
 4755 06f4 9B89     		ldrh	r3, [r3, #12]	@ unaligned
 4756 06f6 9BB2     		uxth	r3, r3
 4757 06f8 1BB2     		sxth	r3, r3
 4758 06fa 23F47C53 		bic	r3, r3, #16128
 4759 06fe 1CB2     		sxth	r4, r3
 4760 0700 614B     		ldr	r3, .L355+4
 4761 0702 DB68     		ldr	r3, [r3, #12]
 4762 0704 9B89     		ldrh	r3, [r3, #12]	@ unaligned
 4763 0706 9BB2     		uxth	r3, r3
 4764 0708 1846     		mov	r0, r3
 4765 070a FFF7FEFF 		bl	lwip_htons
 4766 070e 0346     		mov	r3, r0
 4767 0710 DBB2     		uxtb	r3, r3
 4768 0712 9BB2     		uxth	r3, r3
 4769 0714 03F03E03 		and	r3, r3, #62
 4770 0718 9BB2     		uxth	r3, r3
 4771 071a 1846     		mov	r0, r3
 4772 071c FFF7FEFF 		bl	lwip_htons
 4773 0720 0346     		mov	r3, r0
 4774 0722 1BB2     		sxth	r3, r3
 4775 0724 2343     		orrs	r3, r3, r4
 4776 0726 1AB2     		sxth	r2, r3
 4777 0728 574B     		ldr	r3, .L355+4
 4778 072a DB68     		ldr	r3, [r3, #12]
 4779 072c 92B2     		uxth	r2, r2
 4780 072e 9A81     		strh	r2, [r3, #12]	@ unaligned
 4781              	.L281:
ARM GAS  /tmp/ccWqLOXK.s 			page 115


1474:Middlewares/Third_Party/LwIP/src/core/tcp_in.c ****           }
1475:Middlewares/Third_Party/LwIP/src/core/tcp_in.c ****           /* Adjust length of segment to fit in the window. */
1476:Middlewares/Third_Party/LwIP/src/core/tcp_in.c ****           TCPWND_CHECK16(pcb->rcv_wnd);
1477:Middlewares/Third_Party/LwIP/src/core/tcp_in.c ****           inseg.len = (u16_t)pcb->rcv_wnd;
 4782              		.loc 1 1477 33
 4783 0730 7B68     		ldr	r3, [r7, #4]
 4784 0732 1A8D     		ldrh	r2, [r3, #40]
 4785              		.loc 1 1477 21
 4786 0734 544B     		ldr	r3, .L355+4
 4787 0736 1A81     		strh	r2, [r3, #8]	@ movhi
1478:Middlewares/Third_Party/LwIP/src/core/tcp_in.c ****           if (TCPH_FLAGS(inseg.tcphdr) & TCP_SYN) {
 4788              		.loc 1 1478 15
 4789 0738 534B     		ldr	r3, .L355+4
 4790 073a DB68     		ldr	r3, [r3, #12]
 4791 073c 9B89     		ldrh	r3, [r3, #12]	@ unaligned
 4792 073e 9BB2     		uxth	r3, r3
 4793 0740 1846     		mov	r0, r3
 4794 0742 FFF7FEFF 		bl	lwip_htons
 4795 0746 0346     		mov	r3, r0
 4796 0748 DBB2     		uxtb	r3, r3
 4797              		.loc 1 1478 40
 4798 074a 03F00203 		and	r3, r3, #2
 4799              		.loc 1 1478 14
 4800 074e 002B     		cmp	r3, #0
 4801 0750 05D0     		beq	.L282
1479:Middlewares/Third_Party/LwIP/src/core/tcp_in.c ****             inseg.len -= 1;
 4802              		.loc 1 1479 23
 4803 0752 4D4B     		ldr	r3, .L355+4
 4804 0754 1B89     		ldrh	r3, [r3, #8]
 4805 0756 013B     		subs	r3, r3, #1
 4806 0758 9AB2     		uxth	r2, r3
 4807 075a 4B4B     		ldr	r3, .L355+4
 4808 075c 1A81     		strh	r2, [r3, #8]	@ movhi
 4809              	.L282:
1480:Middlewares/Third_Party/LwIP/src/core/tcp_in.c ****           }
1481:Middlewares/Third_Party/LwIP/src/core/tcp_in.c ****           pbuf_realloc(inseg.p, inseg.len);
 4810              		.loc 1 1481 11
 4811 075e 4A4B     		ldr	r3, .L355+4
 4812 0760 5A68     		ldr	r2, [r3, #4]
 4813 0762 494B     		ldr	r3, .L355+4
 4814 0764 1B89     		ldrh	r3, [r3, #8]
 4815 0766 1946     		mov	r1, r3
 4816 0768 1046     		mov	r0, r2
 4817 076a FFF7FEFF 		bl	pbuf_realloc
1482:Middlewares/Third_Party/LwIP/src/core/tcp_in.c ****           tcplen = TCP_TCPLEN(&inseg);
 4818              		.loc 1 1482 20
 4819 076e 464B     		ldr	r3, .L355+4
 4820 0770 1C89     		ldrh	r4, [r3, #8]
 4821 0772 454B     		ldr	r3, .L355+4
 4822 0774 DB68     		ldr	r3, [r3, #12]
 4823 0776 9B89     		ldrh	r3, [r3, #12]	@ unaligned
 4824 0778 9BB2     		uxth	r3, r3
 4825 077a 1846     		mov	r0, r3
 4826 077c FFF7FEFF 		bl	lwip_htons
 4827 0780 0346     		mov	r3, r0
 4828 0782 DBB2     		uxtb	r3, r3
 4829 0784 03F00303 		and	r3, r3, #3
ARM GAS  /tmp/ccWqLOXK.s 			page 116


 4830 0788 002B     		cmp	r3, #0
 4831 078a 01D0     		beq	.L283
 4832              		.loc 1 1482 20 is_stmt 0 discriminator 1
 4833 078c 0123     		movs	r3, #1
 4834 078e 00E0     		b	.L284
 4835              	.L283:
 4836              		.loc 1 1482 20 discriminator 2
 4837 0790 0023     		movs	r3, #0
 4838              	.L284:
 4839              		.loc 1 1482 20 discriminator 4
 4840 0792 2344     		add	r3, r3, r4
 4841 0794 9AB2     		uxth	r2, r3
 4842              		.loc 1 1482 18 is_stmt 1 discriminator 4
 4843 0796 3D4B     		ldr	r3, .L355+8
 4844 0798 1A80     		strh	r2, [r3]	@ movhi
1483:Middlewares/Third_Party/LwIP/src/core/tcp_in.c ****           LWIP_ASSERT("tcp_receive: segment not trimmed correctly to rcv_wnd\n",
 4845              		.loc 1 1483 11 discriminator 4
 4846 079a 3C4B     		ldr	r3, .L355+8
 4847 079c 1B88     		ldrh	r3, [r3]
 4848 079e 1A46     		mov	r2, r3
 4849 07a0 384B     		ldr	r3, .L355
 4850 07a2 1B68     		ldr	r3, [r3]
 4851 07a4 1A44     		add	r2, r2, r3
 4852 07a6 7B68     		ldr	r3, [r7, #4]
 4853 07a8 5B6A     		ldr	r3, [r3, #36]
 4854 07aa 7968     		ldr	r1, [r7, #4]
 4855 07ac 098D     		ldrh	r1, [r1, #40]
 4856 07ae 0B44     		add	r3, r3, r1
 4857 07b0 9A42     		cmp	r2, r3
 4858 07b2 06D0     		beq	.L280
 4859              		.loc 1 1483 11 is_stmt 0 discriminator 1
 4860 07b4 364B     		ldr	r3, .L355+12
 4861 07b6 40F2CC52 		movw	r2, #1484
 4862 07ba 3649     		ldr	r1, .L355+16
 4863 07bc 3648     		ldr	r0, .L355+20
 4864 07be FFF7FEFF 		bl	printf
 4865              	.L280:
1484:Middlewares/Third_Party/LwIP/src/core/tcp_in.c ****                       (seqno + tcplen) == (pcb->rcv_nxt + pcb->rcv_wnd));
1485:Middlewares/Third_Party/LwIP/src/core/tcp_in.c ****         }
1486:Middlewares/Third_Party/LwIP/src/core/tcp_in.c **** #if TCP_QUEUE_OOSEQ
1487:Middlewares/Third_Party/LwIP/src/core/tcp_in.c ****         /* Received in-sequence data, adjust ooseq data if:
1488:Middlewares/Third_Party/LwIP/src/core/tcp_in.c ****            - FIN has been received or
1489:Middlewares/Third_Party/LwIP/src/core/tcp_in.c ****            - inseq overlaps with ooseq */
1490:Middlewares/Third_Party/LwIP/src/core/tcp_in.c ****         if (pcb->ooseq != NULL) {
 4866              		.loc 1 1490 16 is_stmt 1
 4867 07c2 7B68     		ldr	r3, [r7, #4]
 4868 07c4 5B6F     		ldr	r3, [r3, #116]
 4869              		.loc 1 1490 12
 4870 07c6 002B     		cmp	r3, #0
 4871 07c8 00F0E780 		beq	.L285
1491:Middlewares/Third_Party/LwIP/src/core/tcp_in.c ****           if (TCPH_FLAGS(inseg.tcphdr) & TCP_FIN) {
 4872              		.loc 1 1491 15
 4873 07cc 2E4B     		ldr	r3, .L355+4
 4874 07ce DB68     		ldr	r3, [r3, #12]
 4875 07d0 9B89     		ldrh	r3, [r3, #12]	@ unaligned
 4876 07d2 9BB2     		uxth	r3, r3
 4877 07d4 1846     		mov	r0, r3
ARM GAS  /tmp/ccWqLOXK.s 			page 117


 4878 07d6 FFF7FEFF 		bl	lwip_htons
 4879 07da 0346     		mov	r3, r0
 4880 07dc DBB2     		uxtb	r3, r3
 4881              		.loc 1 1491 40
 4882 07de 03F00103 		and	r3, r3, #1
 4883              		.loc 1 1491 14
 4884 07e2 002B     		cmp	r3, #0
 4885 07e4 10D0     		beq	.L286
1492:Middlewares/Third_Party/LwIP/src/core/tcp_in.c ****             LWIP_DEBUGF(TCP_INPUT_DEBUG,
1493:Middlewares/Third_Party/LwIP/src/core/tcp_in.c ****                         ("tcp_receive: received in-order FIN, binning ooseq queue\n"));
1494:Middlewares/Third_Party/LwIP/src/core/tcp_in.c ****             /* Received in-order FIN means anything that was received
1495:Middlewares/Third_Party/LwIP/src/core/tcp_in.c ****              * out of order must now have been received in-order, so
1496:Middlewares/Third_Party/LwIP/src/core/tcp_in.c ****              * bin the ooseq queue */
1497:Middlewares/Third_Party/LwIP/src/core/tcp_in.c ****             while (pcb->ooseq != NULL) {
 4886              		.loc 1 1497 19
 4887 07e6 0AE0     		b	.L287
 4888              	.L288:
 4889              	.LBB14:
1498:Middlewares/Third_Party/LwIP/src/core/tcp_in.c ****               struct tcp_seg *old_ooseq = pcb->ooseq;
 4890              		.loc 1 1498 31
 4891 07e8 7B68     		ldr	r3, [r7, #4]
 4892 07ea 5B6F     		ldr	r3, [r3, #116]
 4893 07ec FB61     		str	r3, [r7, #28]
1499:Middlewares/Third_Party/LwIP/src/core/tcp_in.c ****               pcb->ooseq = pcb->ooseq->next;
 4894              		.loc 1 1499 31
 4895 07ee 7B68     		ldr	r3, [r7, #4]
 4896 07f0 5B6F     		ldr	r3, [r3, #116]
 4897              		.loc 1 1499 38
 4898 07f2 1A68     		ldr	r2, [r3]
 4899              		.loc 1 1499 26
 4900 07f4 7B68     		ldr	r3, [r7, #4]
 4901 07f6 5A67     		str	r2, [r3, #116]
1500:Middlewares/Third_Party/LwIP/src/core/tcp_in.c ****               tcp_seg_free(old_ooseq);
 4902              		.loc 1 1500 15
 4903 07f8 F869     		ldr	r0, [r7, #28]
 4904 07fa FFF7FEFF 		bl	tcp_seg_free
 4905              	.L287:
 4906              	.LBE14:
1497:Middlewares/Third_Party/LwIP/src/core/tcp_in.c ****               struct tcp_seg *old_ooseq = pcb->ooseq;
 4907              		.loc 1 1497 23
 4908 07fe 7B68     		ldr	r3, [r7, #4]
 4909 0800 5B6F     		ldr	r3, [r3, #116]
1497:Middlewares/Third_Party/LwIP/src/core/tcp_in.c ****               struct tcp_seg *old_ooseq = pcb->ooseq;
 4910              		.loc 1 1497 19
 4911 0802 002B     		cmp	r3, #0
 4912 0804 F0D1     		bne	.L288
 4913 0806 C8E0     		b	.L285
 4914              	.L286:
 4915              	.LBB15:
1501:Middlewares/Third_Party/LwIP/src/core/tcp_in.c ****             }
1502:Middlewares/Third_Party/LwIP/src/core/tcp_in.c ****           } else {
1503:Middlewares/Third_Party/LwIP/src/core/tcp_in.c ****             struct tcp_seg *next = pcb->ooseq;
 4916              		.loc 1 1503 29
 4917 0808 7B68     		ldr	r3, [r7, #4]
 4918 080a 5B6F     		ldr	r3, [r3, #116]
 4919 080c FB63     		str	r3, [r7, #60]
1504:Middlewares/Third_Party/LwIP/src/core/tcp_in.c ****             /* Remove all segments on ooseq that are covered by inseg already.
ARM GAS  /tmp/ccWqLOXK.s 			page 118


1505:Middlewares/Third_Party/LwIP/src/core/tcp_in.c ****              * FIN is copied from ooseq to inseg if present. */
1506:Middlewares/Third_Party/LwIP/src/core/tcp_in.c ****             while (next &&
 4920              		.loc 1 1506 19
 4921 080e 52E0     		b	.L289
 4922              	.L294:
 4923              	.LBB16:
1507:Middlewares/Third_Party/LwIP/src/core/tcp_in.c ****                    TCP_SEQ_GEQ(seqno + tcplen,
1508:Middlewares/Third_Party/LwIP/src/core/tcp_in.c ****                                next->tcphdr->seqno + next->len)) {
1509:Middlewares/Third_Party/LwIP/src/core/tcp_in.c ****               struct tcp_seg *tmp;
1510:Middlewares/Third_Party/LwIP/src/core/tcp_in.c ****               /* inseg cannot have FIN here (already processed above) */
1511:Middlewares/Third_Party/LwIP/src/core/tcp_in.c ****               if ((TCPH_FLAGS(next->tcphdr) & TCP_FIN) != 0 &&
 4924              		.loc 1 1511 20
 4925 0810 FB6B     		ldr	r3, [r7, #60]
 4926 0812 DB68     		ldr	r3, [r3, #12]
 4927 0814 9B89     		ldrh	r3, [r3, #12]	@ unaligned
 4928 0816 9BB2     		uxth	r3, r3
 4929 0818 1846     		mov	r0, r3
 4930 081a FFF7FEFF 		bl	lwip_htons
 4931 081e 0346     		mov	r3, r0
 4932 0820 DBB2     		uxtb	r3, r3
 4933              		.loc 1 1511 45
 4934 0822 03F00103 		and	r3, r3, #1
 4935              		.loc 1 1511 18
 4936 0826 002B     		cmp	r3, #0
 4937 0828 3DD0     		beq	.L290
1512:Middlewares/Third_Party/LwIP/src/core/tcp_in.c ****                   (TCPH_FLAGS(inseg.tcphdr) & TCP_SYN) == 0) {
 4938              		.loc 1 1512 20 discriminator 1
 4939 082a 174B     		ldr	r3, .L355+4
 4940 082c DB68     		ldr	r3, [r3, #12]
 4941 082e 9B89     		ldrh	r3, [r3, #12]	@ unaligned
 4942 0830 9BB2     		uxth	r3, r3
 4943 0832 1846     		mov	r0, r3
 4944 0834 FFF7FEFF 		bl	lwip_htons
 4945 0838 0346     		mov	r3, r0
 4946 083a DBB2     		uxtb	r3, r3
 4947              		.loc 1 1512 45 discriminator 1
 4948 083c 03F00203 		and	r3, r3, #2
1511:Middlewares/Third_Party/LwIP/src/core/tcp_in.c ****                   (TCPH_FLAGS(inseg.tcphdr) & TCP_SYN) == 0) {
 4949              		.loc 1 1511 61 discriminator 1
 4950 0840 002B     		cmp	r3, #0
 4951 0842 30D1     		bne	.L290
1513:Middlewares/Third_Party/LwIP/src/core/tcp_in.c ****                 TCPH_SET_FLAG(inseg.tcphdr, TCP_FIN);
 4952              		.loc 1 1513 17
 4953 0844 104B     		ldr	r3, .L355+4
 4954 0846 DB68     		ldr	r3, [r3, #12]
 4955 0848 9B89     		ldrh	r3, [r3, #12]	@ unaligned
 4956 084a 9CB2     		uxth	r4, r3
 4957 084c 0120     		movs	r0, #1
 4958 084e FFF7FEFF 		bl	lwip_htons
 4959 0852 0346     		mov	r3, r0
 4960 0854 1A46     		mov	r2, r3
 4961 0856 0C4B     		ldr	r3, .L355+4
 4962 0858 DB68     		ldr	r3, [r3, #12]
 4963 085a 2243     		orrs	r2, r2, r4
 4964 085c 92B2     		uxth	r2, r2
 4965 085e 9A81     		strh	r2, [r3, #12]	@ unaligned
1514:Middlewares/Third_Party/LwIP/src/core/tcp_in.c ****                 tcplen = TCP_TCPLEN(&inseg);
ARM GAS  /tmp/ccWqLOXK.s 			page 119


 4966              		.loc 1 1514 26
 4967 0860 094B     		ldr	r3, .L355+4
 4968 0862 1C89     		ldrh	r4, [r3, #8]
 4969 0864 084B     		ldr	r3, .L355+4
 4970 0866 DB68     		ldr	r3, [r3, #12]
 4971 0868 9B89     		ldrh	r3, [r3, #12]	@ unaligned
 4972 086a 9BB2     		uxth	r3, r3
 4973 086c 1846     		mov	r0, r3
 4974 086e FFF7FEFF 		bl	lwip_htons
 4975 0872 0346     		mov	r3, r0
 4976 0874 DBB2     		uxtb	r3, r3
 4977 0876 03F00303 		and	r3, r3, #3
 4978 087a 002B     		cmp	r3, #0
 4979 087c 0ED0     		beq	.L291
 4980              		.loc 1 1514 26 is_stmt 0 discriminator 1
 4981 087e 0123     		movs	r3, #1
 4982 0880 0DE0     		b	.L292
 4983              	.L356:
 4984 0882 00BF     		.align	2
 4985              	.L355:
 4986 0884 00000000 		.word	seqno
 4987 0888 00000000 		.word	inseg
 4988 088c 00000000 		.word	tcplen
 4989 0890 00000000 		.word	.LC0
 4990 0894 A4030000 		.word	.LC31
 4991 0898 48000000 		.word	.LC2
 4992              	.L291:
 4993              		.loc 1 1514 26 discriminator 2
 4994 089c 0023     		movs	r3, #0
 4995              	.L292:
 4996              		.loc 1 1514 26 discriminator 4
 4997 089e 2344     		add	r3, r3, r4
 4998 08a0 9AB2     		uxth	r2, r3
 4999              		.loc 1 1514 24 is_stmt 1 discriminator 4
 5000 08a2 984B     		ldr	r3, .L357
 5001 08a4 1A80     		strh	r2, [r3]	@ movhi
 5002              	.L290:
1515:Middlewares/Third_Party/LwIP/src/core/tcp_in.c ****               }
1516:Middlewares/Third_Party/LwIP/src/core/tcp_in.c ****               tmp = next;
 5003              		.loc 1 1516 19
 5004 08a6 FB6B     		ldr	r3, [r7, #60]
 5005 08a8 BB61     		str	r3, [r7, #24]
1517:Middlewares/Third_Party/LwIP/src/core/tcp_in.c ****               next = next->next;
 5006              		.loc 1 1517 20
 5007 08aa FB6B     		ldr	r3, [r7, #60]
 5008 08ac 1B68     		ldr	r3, [r3]
 5009 08ae FB63     		str	r3, [r7, #60]
1518:Middlewares/Third_Party/LwIP/src/core/tcp_in.c ****               tcp_seg_free(tmp);
 5010              		.loc 1 1518 15
 5011 08b0 B869     		ldr	r0, [r7, #24]
 5012 08b2 FFF7FEFF 		bl	tcp_seg_free
 5013              	.L289:
 5014              	.LBE16:
1506:Middlewares/Third_Party/LwIP/src/core/tcp_in.c ****                    TCP_SEQ_GEQ(seqno + tcplen,
 5015              		.loc 1 1506 19
 5016 08b6 FB6B     		ldr	r3, [r7, #60]
 5017 08b8 002B     		cmp	r3, #0
ARM GAS  /tmp/ccWqLOXK.s 			page 120


 5018 08ba 0ED0     		beq	.L293
1507:Middlewares/Third_Party/LwIP/src/core/tcp_in.c ****                                next->tcphdr->seqno + next->len)) {
 5019              		.loc 1 1507 20 discriminator 1
 5020 08bc 914B     		ldr	r3, .L357
 5021 08be 1B88     		ldrh	r3, [r3]
 5022 08c0 1A46     		mov	r2, r3
 5023 08c2 914B     		ldr	r3, .L357+4
 5024 08c4 1B68     		ldr	r3, [r3]
 5025 08c6 1A44     		add	r2, r2, r3
 5026 08c8 FB6B     		ldr	r3, [r7, #60]
 5027 08ca DB68     		ldr	r3, [r3, #12]
 5028 08cc 5B68     		ldr	r3, [r3, #4]	@ unaligned
 5029 08ce F96B     		ldr	r1, [r7, #60]
 5030 08d0 0989     		ldrh	r1, [r1, #8]
 5031 08d2 0B44     		add	r3, r3, r1
 5032 08d4 D31A     		subs	r3, r2, r3
1506:Middlewares/Third_Party/LwIP/src/core/tcp_in.c ****                    TCP_SEQ_GEQ(seqno + tcplen,
 5033              		.loc 1 1506 25 discriminator 1
 5034 08d6 002B     		cmp	r3, #0
 5035 08d8 9ADA     		bge	.L294
 5036              	.L293:
1519:Middlewares/Third_Party/LwIP/src/core/tcp_in.c ****             }
1520:Middlewares/Third_Party/LwIP/src/core/tcp_in.c ****             /* Now trim right side of inseg if it overlaps with the first
1521:Middlewares/Third_Party/LwIP/src/core/tcp_in.c ****              * segment on ooseq */
1522:Middlewares/Third_Party/LwIP/src/core/tcp_in.c ****             if (next &&
 5037              		.loc 1 1522 16
 5038 08da FB6B     		ldr	r3, [r7, #60]
 5039 08dc 002B     		cmp	r3, #0
 5040 08de 59D0     		beq	.L295
1523:Middlewares/Third_Party/LwIP/src/core/tcp_in.c ****                 TCP_SEQ_GT(seqno + tcplen,
 5041              		.loc 1 1523 17 discriminator 1
 5042 08e0 884B     		ldr	r3, .L357
 5043 08e2 1B88     		ldrh	r3, [r3]
 5044 08e4 1A46     		mov	r2, r3
 5045 08e6 884B     		ldr	r3, .L357+4
 5046 08e8 1B68     		ldr	r3, [r3]
 5047 08ea 1A44     		add	r2, r2, r3
 5048 08ec FB6B     		ldr	r3, [r7, #60]
 5049 08ee DB68     		ldr	r3, [r3, #12]
 5050 08f0 5B68     		ldr	r3, [r3, #4]	@ unaligned
 5051 08f2 D31A     		subs	r3, r2, r3
1522:Middlewares/Third_Party/LwIP/src/core/tcp_in.c ****                 TCP_SEQ_GT(seqno + tcplen,
 5052              		.loc 1 1522 22 discriminator 1
 5053 08f4 002B     		cmp	r3, #0
 5054 08f6 4DDD     		ble	.L295
1524:Middlewares/Third_Party/LwIP/src/core/tcp_in.c ****                            next->tcphdr->seqno)) {
1525:Middlewares/Third_Party/LwIP/src/core/tcp_in.c ****               /* inseg cannot have FIN here (already processed above) */
1526:Middlewares/Third_Party/LwIP/src/core/tcp_in.c ****               inseg.len = (u16_t)(next->tcphdr->seqno - seqno);
 5055              		.loc 1 1526 39
 5056 08f8 FB6B     		ldr	r3, [r7, #60]
 5057 08fa DB68     		ldr	r3, [r3, #12]
 5058              		.loc 1 1526 47
 5059 08fc 5B68     		ldr	r3, [r3, #4]	@ unaligned
 5060              		.loc 1 1526 27
 5061 08fe 9AB2     		uxth	r2, r3
 5062 0900 814B     		ldr	r3, .L357+4
 5063 0902 1B68     		ldr	r3, [r3]
ARM GAS  /tmp/ccWqLOXK.s 			page 121


 5064 0904 9BB2     		uxth	r3, r3
 5065 0906 D31A     		subs	r3, r2, r3
 5066 0908 9AB2     		uxth	r2, r3
 5067              		.loc 1 1526 25
 5068 090a 804B     		ldr	r3, .L357+8
 5069 090c 1A81     		strh	r2, [r3, #8]	@ movhi
1527:Middlewares/Third_Party/LwIP/src/core/tcp_in.c ****               if (TCPH_FLAGS(inseg.tcphdr) & TCP_SYN) {
 5070              		.loc 1 1527 19
 5071 090e 7F4B     		ldr	r3, .L357+8
 5072 0910 DB68     		ldr	r3, [r3, #12]
 5073 0912 9B89     		ldrh	r3, [r3, #12]	@ unaligned
 5074 0914 9BB2     		uxth	r3, r3
 5075 0916 1846     		mov	r0, r3
 5076 0918 FFF7FEFF 		bl	lwip_htons
 5077 091c 0346     		mov	r3, r0
 5078 091e DBB2     		uxtb	r3, r3
 5079              		.loc 1 1527 44
 5080 0920 03F00203 		and	r3, r3, #2
 5081              		.loc 1 1527 18
 5082 0924 002B     		cmp	r3, #0
 5083 0926 05D0     		beq	.L296
1528:Middlewares/Third_Party/LwIP/src/core/tcp_in.c ****                 inseg.len -= 1;
 5084              		.loc 1 1528 27
 5085 0928 784B     		ldr	r3, .L357+8
 5086 092a 1B89     		ldrh	r3, [r3, #8]
 5087 092c 013B     		subs	r3, r3, #1
 5088 092e 9AB2     		uxth	r2, r3
 5089 0930 764B     		ldr	r3, .L357+8
 5090 0932 1A81     		strh	r2, [r3, #8]	@ movhi
 5091              	.L296:
1529:Middlewares/Third_Party/LwIP/src/core/tcp_in.c ****               }
1530:Middlewares/Third_Party/LwIP/src/core/tcp_in.c ****               pbuf_realloc(inseg.p, inseg.len);
 5092              		.loc 1 1530 15
 5093 0934 754B     		ldr	r3, .L357+8
 5094 0936 5A68     		ldr	r2, [r3, #4]
 5095 0938 744B     		ldr	r3, .L357+8
 5096 093a 1B89     		ldrh	r3, [r3, #8]
 5097 093c 1946     		mov	r1, r3
 5098 093e 1046     		mov	r0, r2
 5099 0940 FFF7FEFF 		bl	pbuf_realloc
1531:Middlewares/Third_Party/LwIP/src/core/tcp_in.c ****               tcplen = TCP_TCPLEN(&inseg);
 5100              		.loc 1 1531 24
 5101 0944 714B     		ldr	r3, .L357+8
 5102 0946 1C89     		ldrh	r4, [r3, #8]
 5103 0948 704B     		ldr	r3, .L357+8
 5104 094a DB68     		ldr	r3, [r3, #12]
 5105 094c 9B89     		ldrh	r3, [r3, #12]	@ unaligned
 5106 094e 9BB2     		uxth	r3, r3
 5107 0950 1846     		mov	r0, r3
 5108 0952 FFF7FEFF 		bl	lwip_htons
 5109 0956 0346     		mov	r3, r0
 5110 0958 DBB2     		uxtb	r3, r3
 5111 095a 03F00303 		and	r3, r3, #3
 5112 095e 002B     		cmp	r3, #0
 5113 0960 01D0     		beq	.L297
 5114              		.loc 1 1531 24 is_stmt 0 discriminator 1
 5115 0962 0123     		movs	r3, #1
ARM GAS  /tmp/ccWqLOXK.s 			page 122


 5116 0964 00E0     		b	.L298
 5117              	.L297:
 5118              		.loc 1 1531 24 discriminator 2
 5119 0966 0023     		movs	r3, #0
 5120              	.L298:
 5121              		.loc 1 1531 24 discriminator 4
 5122 0968 2344     		add	r3, r3, r4
 5123 096a 9AB2     		uxth	r2, r3
 5124              		.loc 1 1531 22 is_stmt 1 discriminator 4
 5125 096c 654B     		ldr	r3, .L357
 5126 096e 1A80     		strh	r2, [r3]	@ movhi
1532:Middlewares/Third_Party/LwIP/src/core/tcp_in.c ****               LWIP_ASSERT("tcp_receive: segment not trimmed correctly to ooseq queue\n",
 5127              		.loc 1 1532 15 discriminator 4
 5128 0970 644B     		ldr	r3, .L357
 5129 0972 1B88     		ldrh	r3, [r3]
 5130 0974 1A46     		mov	r2, r3
 5131 0976 644B     		ldr	r3, .L357+4
 5132 0978 1B68     		ldr	r3, [r3]
 5133 097a 1A44     		add	r2, r2, r3
 5134 097c FB6B     		ldr	r3, [r7, #60]
 5135 097e DB68     		ldr	r3, [r3, #12]
 5136 0980 5B68     		ldr	r3, [r3, #4]	@ unaligned
 5137 0982 9A42     		cmp	r2, r3
 5138 0984 06D0     		beq	.L295
 5139              		.loc 1 1532 15 is_stmt 0 discriminator 1
 5140 0986 624B     		ldr	r3, .L357+12
 5141 0988 40F2FD52 		movw	r2, #1533
 5142 098c 6149     		ldr	r1, .L357+16
 5143 098e 6248     		ldr	r0, .L357+20
 5144 0990 FFF7FEFF 		bl	printf
 5145              	.L295:
1533:Middlewares/Third_Party/LwIP/src/core/tcp_in.c ****                           (seqno + tcplen) == next->tcphdr->seqno);
1534:Middlewares/Third_Party/LwIP/src/core/tcp_in.c ****             }
1535:Middlewares/Third_Party/LwIP/src/core/tcp_in.c ****             pcb->ooseq = next;
 5146              		.loc 1 1535 24 is_stmt 1
 5147 0994 7B68     		ldr	r3, [r7, #4]
 5148 0996 FA6B     		ldr	r2, [r7, #60]
 5149 0998 5A67     		str	r2, [r3, #116]
 5150              	.L285:
 5151              	.LBE15:
1536:Middlewares/Third_Party/LwIP/src/core/tcp_in.c ****           }
1537:Middlewares/Third_Party/LwIP/src/core/tcp_in.c ****         }
1538:Middlewares/Third_Party/LwIP/src/core/tcp_in.c **** #endif /* TCP_QUEUE_OOSEQ */
1539:Middlewares/Third_Party/LwIP/src/core/tcp_in.c **** 
1540:Middlewares/Third_Party/LwIP/src/core/tcp_in.c ****         pcb->rcv_nxt = seqno + tcplen;
 5152              		.loc 1 1540 30
 5153 099a 5A4B     		ldr	r3, .L357
 5154 099c 1B88     		ldrh	r3, [r3]
 5155 099e 1A46     		mov	r2, r3
 5156 09a0 594B     		ldr	r3, .L357+4
 5157 09a2 1B68     		ldr	r3, [r3]
 5158 09a4 1A44     		add	r2, r2, r3
 5159              		.loc 1 1540 22
 5160 09a6 7B68     		ldr	r3, [r7, #4]
 5161 09a8 5A62     		str	r2, [r3, #36]
1541:Middlewares/Third_Party/LwIP/src/core/tcp_in.c **** 
1542:Middlewares/Third_Party/LwIP/src/core/tcp_in.c ****         /* Update the receiver's (our) window. */
ARM GAS  /tmp/ccWqLOXK.s 			page 123


1543:Middlewares/Third_Party/LwIP/src/core/tcp_in.c ****         LWIP_ASSERT("tcp_receive: tcplen > rcv_wnd\n", pcb->rcv_wnd >= tcplen);
 5162              		.loc 1 1543 9
 5163 09aa 7B68     		ldr	r3, [r7, #4]
 5164 09ac 1A8D     		ldrh	r2, [r3, #40]
 5165 09ae 554B     		ldr	r3, .L357
 5166 09b0 1B88     		ldrh	r3, [r3]
 5167 09b2 9A42     		cmp	r2, r3
 5168 09b4 06D2     		bcs	.L299
 5169              		.loc 1 1543 9 is_stmt 0 discriminator 1
 5170 09b6 564B     		ldr	r3, .L357+12
 5171 09b8 40F20762 		movw	r2, #1543
 5172 09bc 5749     		ldr	r1, .L357+24
 5173 09be 5648     		ldr	r0, .L357+20
 5174 09c0 FFF7FEFF 		bl	printf
 5175              	.L299:
1544:Middlewares/Third_Party/LwIP/src/core/tcp_in.c ****         pcb->rcv_wnd -= tcplen;
 5176              		.loc 1 1544 22 is_stmt 1
 5177 09c4 7B68     		ldr	r3, [r7, #4]
 5178 09c6 1A8D     		ldrh	r2, [r3, #40]
 5179 09c8 4E4B     		ldr	r3, .L357
 5180 09ca 1B88     		ldrh	r3, [r3]
 5181 09cc D31A     		subs	r3, r2, r3
 5182 09ce 9AB2     		uxth	r2, r3
 5183 09d0 7B68     		ldr	r3, [r7, #4]
 5184 09d2 1A85     		strh	r2, [r3, #40]	@ movhi
1545:Middlewares/Third_Party/LwIP/src/core/tcp_in.c **** 
1546:Middlewares/Third_Party/LwIP/src/core/tcp_in.c ****         tcp_update_rcv_ann_wnd(pcb);
 5185              		.loc 1 1546 9
 5186 09d4 7868     		ldr	r0, [r7, #4]
 5187 09d6 FFF7FEFF 		bl	tcp_update_rcv_ann_wnd
1547:Middlewares/Third_Party/LwIP/src/core/tcp_in.c **** 
1548:Middlewares/Third_Party/LwIP/src/core/tcp_in.c ****         /* If there is data in the segment, we make preparations to
1549:Middlewares/Third_Party/LwIP/src/core/tcp_in.c ****            pass this up to the application. The ->recv_data variable
1550:Middlewares/Third_Party/LwIP/src/core/tcp_in.c ****            is used for holding the pbuf that goes to the
1551:Middlewares/Third_Party/LwIP/src/core/tcp_in.c ****            application. The code for reassembling out-of-sequence data
1552:Middlewares/Third_Party/LwIP/src/core/tcp_in.c ****            chains its data on this pbuf as well.
1553:Middlewares/Third_Party/LwIP/src/core/tcp_in.c **** 
1554:Middlewares/Third_Party/LwIP/src/core/tcp_in.c ****            If the segment was a FIN, we set the TF_GOT_FIN flag that will
1555:Middlewares/Third_Party/LwIP/src/core/tcp_in.c ****            be used to indicate to the application that the remote side has
1556:Middlewares/Third_Party/LwIP/src/core/tcp_in.c ****            closed its end of the connection. */
1557:Middlewares/Third_Party/LwIP/src/core/tcp_in.c ****         if (inseg.p->tot_len > 0) {
 5188              		.loc 1 1557 18
 5189 09da 4C4B     		ldr	r3, .L357+8
 5190 09dc 5B68     		ldr	r3, [r3, #4]
 5191              		.loc 1 1557 20
 5192 09de 1B89     		ldrh	r3, [r3, #8]
 5193              		.loc 1 1557 12
 5194 09e0 002B     		cmp	r3, #0
 5195 09e2 06D0     		beq	.L300
1558:Middlewares/Third_Party/LwIP/src/core/tcp_in.c ****           recv_data = inseg.p;
 5196              		.loc 1 1558 28
 5197 09e4 494B     		ldr	r3, .L357+8
 5198 09e6 5B68     		ldr	r3, [r3, #4]
 5199              		.loc 1 1558 21
 5200 09e8 4D4A     		ldr	r2, .L357+28
 5201 09ea 1360     		str	r3, [r2]
1559:Middlewares/Third_Party/LwIP/src/core/tcp_in.c ****           /* Since this pbuf now is the responsibility of the
ARM GAS  /tmp/ccWqLOXK.s 			page 124


1560:Middlewares/Third_Party/LwIP/src/core/tcp_in.c ****              application, we delete our reference to it so that we won't
1561:Middlewares/Third_Party/LwIP/src/core/tcp_in.c ****              (mistakingly) deallocate it. */
1562:Middlewares/Third_Party/LwIP/src/core/tcp_in.c ****           inseg.p = NULL;
 5202              		.loc 1 1562 19
 5203 09ec 474B     		ldr	r3, .L357+8
 5204 09ee 0022     		movs	r2, #0
 5205 09f0 5A60     		str	r2, [r3, #4]
 5206              	.L300:
1563:Middlewares/Third_Party/LwIP/src/core/tcp_in.c ****         }
1564:Middlewares/Third_Party/LwIP/src/core/tcp_in.c ****         if (TCPH_FLAGS(inseg.tcphdr) & TCP_FIN) {
 5207              		.loc 1 1564 13
 5208 09f2 464B     		ldr	r3, .L357+8
 5209 09f4 DB68     		ldr	r3, [r3, #12]
 5210 09f6 9B89     		ldrh	r3, [r3, #12]	@ unaligned
 5211 09f8 9BB2     		uxth	r3, r3
 5212 09fa 1846     		mov	r0, r3
 5213 09fc FFF7FEFF 		bl	lwip_htons
 5214 0a00 0346     		mov	r3, r0
 5215 0a02 DBB2     		uxtb	r3, r3
 5216              		.loc 1 1564 38
 5217 0a04 03F00103 		and	r3, r3, #1
 5218              		.loc 1 1564 12
 5219 0a08 002B     		cmp	r3, #0
 5220 0a0a 00F0B880 		beq	.L302
1565:Middlewares/Third_Party/LwIP/src/core/tcp_in.c ****           LWIP_DEBUGF(TCP_INPUT_DEBUG, ("tcp_receive: received FIN.\n"));
1566:Middlewares/Third_Party/LwIP/src/core/tcp_in.c ****           recv_flags |= TF_GOT_FIN;
 5221              		.loc 1 1566 22
 5222 0a0e 454B     		ldr	r3, .L357+32
 5223 0a10 1B78     		ldrb	r3, [r3]	@ zero_extendqisi2
 5224 0a12 43F02003 		orr	r3, r3, #32
 5225 0a16 DAB2     		uxtb	r2, r3
 5226 0a18 424B     		ldr	r3, .L357+32
 5227 0a1a 1A70     		strb	r2, [r3]
1567:Middlewares/Third_Party/LwIP/src/core/tcp_in.c ****         }
1568:Middlewares/Third_Party/LwIP/src/core/tcp_in.c **** 
1569:Middlewares/Third_Party/LwIP/src/core/tcp_in.c **** #if TCP_QUEUE_OOSEQ
1570:Middlewares/Third_Party/LwIP/src/core/tcp_in.c ****         /* We now check if we have segments on the ->ooseq queue that
1571:Middlewares/Third_Party/LwIP/src/core/tcp_in.c ****            are now in sequence. */
1572:Middlewares/Third_Party/LwIP/src/core/tcp_in.c ****         while (pcb->ooseq != NULL &&
 5228              		.loc 1 1572 15
 5229 0a1c AFE0     		b	.L302
 5230              	.L315:
 5231              	.LBB17:
1573:Middlewares/Third_Party/LwIP/src/core/tcp_in.c ****                pcb->ooseq->tcphdr->seqno == pcb->rcv_nxt) {
1574:Middlewares/Third_Party/LwIP/src/core/tcp_in.c **** 
1575:Middlewares/Third_Party/LwIP/src/core/tcp_in.c ****           struct tcp_seg *cseg = pcb->ooseq;
 5232              		.loc 1 1575 27
 5233 0a1e 7B68     		ldr	r3, [r7, #4]
 5234 0a20 5B6F     		ldr	r3, [r3, #116]
 5235 0a22 7B61     		str	r3, [r7, #20]
1576:Middlewares/Third_Party/LwIP/src/core/tcp_in.c ****           seqno = pcb->ooseq->tcphdr->seqno;
 5236              		.loc 1 1576 22
 5237 0a24 7B68     		ldr	r3, [r7, #4]
 5238 0a26 5B6F     		ldr	r3, [r3, #116]
 5239              		.loc 1 1576 29
 5240 0a28 DB68     		ldr	r3, [r3, #12]
 5241              		.loc 1 1576 37
ARM GAS  /tmp/ccWqLOXK.s 			page 125


 5242 0a2a 5B68     		ldr	r3, [r3, #4]	@ unaligned
 5243              		.loc 1 1576 17
 5244 0a2c 364A     		ldr	r2, .L357+4
 5245 0a2e 1360     		str	r3, [r2]
1577:Middlewares/Third_Party/LwIP/src/core/tcp_in.c **** 
1578:Middlewares/Third_Party/LwIP/src/core/tcp_in.c ****           pcb->rcv_nxt += TCP_TCPLEN(cseg);
 5246              		.loc 1 1578 27
 5247 0a30 7B69     		ldr	r3, [r7, #20]
 5248 0a32 1B89     		ldrh	r3, [r3, #8]
 5249 0a34 1C46     		mov	r4, r3
 5250 0a36 7B69     		ldr	r3, [r7, #20]
 5251 0a38 DB68     		ldr	r3, [r3, #12]
 5252 0a3a 9B89     		ldrh	r3, [r3, #12]	@ unaligned
 5253 0a3c 9BB2     		uxth	r3, r3
 5254 0a3e 1846     		mov	r0, r3
 5255 0a40 FFF7FEFF 		bl	lwip_htons
 5256 0a44 0346     		mov	r3, r0
 5257 0a46 DBB2     		uxtb	r3, r3
 5258 0a48 03F00303 		and	r3, r3, #3
 5259 0a4c 002B     		cmp	r3, #0
 5260 0a4e 01D0     		beq	.L303
 5261              		.loc 1 1578 27 is_stmt 0 discriminator 1
 5262 0a50 0123     		movs	r3, #1
 5263 0a52 00E0     		b	.L304
 5264              	.L303:
 5265              		.loc 1 1578 27 discriminator 2
 5266 0a54 0023     		movs	r3, #0
 5267              	.L304:
 5268              		.loc 1 1578 27 discriminator 4
 5269 0a56 1A19     		adds	r2, r3, r4
 5270              		.loc 1 1578 24 is_stmt 1 discriminator 4
 5271 0a58 7B68     		ldr	r3, [r7, #4]
 5272 0a5a 5B6A     		ldr	r3, [r3, #36]
 5273 0a5c 1A44     		add	r2, r2, r3
 5274 0a5e 7B68     		ldr	r3, [r7, #4]
 5275 0a60 5A62     		str	r2, [r3, #36]
1579:Middlewares/Third_Party/LwIP/src/core/tcp_in.c ****           LWIP_ASSERT("tcp_receive: ooseq tcplen > rcv_wnd\n",
 5276              		.loc 1 1579 11 discriminator 4
 5277 0a62 7B68     		ldr	r3, [r7, #4]
 5278 0a64 1B8D     		ldrh	r3, [r3, #40]
 5279 0a66 1C46     		mov	r4, r3
 5280 0a68 7B69     		ldr	r3, [r7, #20]
 5281 0a6a 1B89     		ldrh	r3, [r3, #8]
 5282 0a6c 1D46     		mov	r5, r3
 5283 0a6e 7B69     		ldr	r3, [r7, #20]
 5284 0a70 DB68     		ldr	r3, [r3, #12]
 5285 0a72 9B89     		ldrh	r3, [r3, #12]	@ unaligned
 5286 0a74 9BB2     		uxth	r3, r3
 5287 0a76 1846     		mov	r0, r3
 5288 0a78 FFF7FEFF 		bl	lwip_htons
 5289 0a7c 0346     		mov	r3, r0
 5290 0a7e DBB2     		uxtb	r3, r3
 5291 0a80 03F00303 		and	r3, r3, #3
 5292 0a84 002B     		cmp	r3, #0
 5293 0a86 01D0     		beq	.L305
 5294              		.loc 1 1579 11 is_stmt 0 discriminator 1
 5295 0a88 0123     		movs	r3, #1
ARM GAS  /tmp/ccWqLOXK.s 			page 126


 5296 0a8a 00E0     		b	.L306
 5297              	.L305:
 5298              		.loc 1 1579 11 discriminator 2
 5299 0a8c 0023     		movs	r3, #0
 5300              	.L306:
 5301              		.loc 1 1579 11 discriminator 4
 5302 0a8e 2B44     		add	r3, r3, r5
 5303 0a90 9C42     		cmp	r4, r3
 5304 0a92 06D2     		bcs	.L307
 5305              		.loc 1 1579 11 discriminator 5
 5306 0a94 1E4B     		ldr	r3, .L357+12
 5307 0a96 40F22C62 		movw	r2, #1580
 5308 0a9a 2349     		ldr	r1, .L357+36
 5309 0a9c 1E48     		ldr	r0, .L357+20
 5310 0a9e FFF7FEFF 		bl	printf
 5311              	.L307:
1580:Middlewares/Third_Party/LwIP/src/core/tcp_in.c ****                       pcb->rcv_wnd >= TCP_TCPLEN(cseg));
1581:Middlewares/Third_Party/LwIP/src/core/tcp_in.c ****           pcb->rcv_wnd -= TCP_TCPLEN(cseg);
 5312              		.loc 1 1581 27 is_stmt 1
 5313 0aa2 7B69     		ldr	r3, [r7, #20]
 5314 0aa4 1B89     		ldrh	r3, [r3, #8]
 5315 0aa6 1C46     		mov	r4, r3
 5316 0aa8 7B69     		ldr	r3, [r7, #20]
 5317 0aaa DB68     		ldr	r3, [r3, #12]
 5318 0aac 9B89     		ldrh	r3, [r3, #12]	@ unaligned
 5319 0aae 9BB2     		uxth	r3, r3
 5320 0ab0 1846     		mov	r0, r3
 5321 0ab2 FFF7FEFF 		bl	lwip_htons
 5322 0ab6 0346     		mov	r3, r0
 5323 0ab8 DBB2     		uxtb	r3, r3
 5324 0aba 03F00303 		and	r3, r3, #3
 5325 0abe 002B     		cmp	r3, #0
 5326 0ac0 01D0     		beq	.L308
 5327              		.loc 1 1581 27 is_stmt 0 discriminator 1
 5328 0ac2 0123     		movs	r3, #1
 5329 0ac4 00E0     		b	.L309
 5330              	.L308:
 5331              		.loc 1 1581 27 discriminator 2
 5332 0ac6 0023     		movs	r3, #0
 5333              	.L309:
 5334              		.loc 1 1581 27 discriminator 4
 5335 0ac8 1919     		adds	r1, r3, r4
 5336              		.loc 1 1581 24 is_stmt 1 discriminator 4
 5337 0aca 7B68     		ldr	r3, [r7, #4]
 5338 0acc 1A8D     		ldrh	r2, [r3, #40]
 5339 0ace 8BB2     		uxth	r3, r1
 5340 0ad0 D31A     		subs	r3, r2, r3
 5341 0ad2 9AB2     		uxth	r2, r3
 5342 0ad4 7B68     		ldr	r3, [r7, #4]
 5343 0ad6 1A85     		strh	r2, [r3, #40]	@ movhi
1582:Middlewares/Third_Party/LwIP/src/core/tcp_in.c **** 
1583:Middlewares/Third_Party/LwIP/src/core/tcp_in.c ****           tcp_update_rcv_ann_wnd(pcb);
 5344              		.loc 1 1583 11 discriminator 4
 5345 0ad8 7868     		ldr	r0, [r7, #4]
 5346 0ada FFF7FEFF 		bl	tcp_update_rcv_ann_wnd
1584:Middlewares/Third_Party/LwIP/src/core/tcp_in.c **** 
1585:Middlewares/Third_Party/LwIP/src/core/tcp_in.c ****           if (cseg->p->tot_len > 0) {
ARM GAS  /tmp/ccWqLOXK.s 			page 127


 5347              		.loc 1 1585 19 discriminator 4
 5348 0ade 7B69     		ldr	r3, [r7, #20]
 5349 0ae0 5B68     		ldr	r3, [r3, #4]
 5350              		.loc 1 1585 22 discriminator 4
 5351 0ae2 1B89     		ldrh	r3, [r3, #8]
 5352              		.loc 1 1585 14 discriminator 4
 5353 0ae4 002B     		cmp	r3, #0
 5354 0ae6 28D0     		beq	.L310
1586:Middlewares/Third_Party/LwIP/src/core/tcp_in.c ****             /* Chain this pbuf onto the pbuf that we will pass to
1587:Middlewares/Third_Party/LwIP/src/core/tcp_in.c ****                the application. */
1588:Middlewares/Third_Party/LwIP/src/core/tcp_in.c ****             /* With window scaling, this can overflow recv_data->tot_len, but
1589:Middlewares/Third_Party/LwIP/src/core/tcp_in.c ****                that's not a problem since we explicitly fix that before passing
1590:Middlewares/Third_Party/LwIP/src/core/tcp_in.c ****                recv_data to the application. */
1591:Middlewares/Third_Party/LwIP/src/core/tcp_in.c ****             if (recv_data) {
 5355              		.loc 1 1591 17
 5356 0ae8 0D4B     		ldr	r3, .L357+28
 5357 0aea 1B68     		ldr	r3, [r3]
 5358              		.loc 1 1591 16
 5359 0aec 002B     		cmp	r3, #0
 5360 0aee 1DD0     		beq	.L311
1592:Middlewares/Third_Party/LwIP/src/core/tcp_in.c ****               pbuf_cat(recv_data, cseg->p);
 5361              		.loc 1 1592 15
 5362 0af0 0B4B     		ldr	r3, .L357+28
 5363 0af2 1A68     		ldr	r2, [r3]
 5364 0af4 7B69     		ldr	r3, [r7, #20]
 5365 0af6 5B68     		ldr	r3, [r3, #4]
 5366 0af8 1946     		mov	r1, r3
 5367 0afa 1046     		mov	r0, r2
 5368 0afc FFF7FEFF 		bl	pbuf_cat
 5369 0b00 18E0     		b	.L312
 5370              	.L358:
 5371 0b02 00BF     		.align	2
 5372              	.L357:
 5373 0b04 00000000 		.word	tcplen
 5374 0b08 00000000 		.word	seqno
 5375 0b0c 00000000 		.word	inseg
 5376 0b10 00000000 		.word	.LC0
 5377 0b14 DC030000 		.word	.LC32
 5378 0b18 48000000 		.word	.LC2
 5379 0b1c 18040000 		.word	.LC33
 5380 0b20 00000000 		.word	recv_data
 5381 0b24 00000000 		.word	recv_flags
 5382 0b28 38040000 		.word	.LC34
 5383              	.L311:
1593:Middlewares/Third_Party/LwIP/src/core/tcp_in.c ****             } else {
1594:Middlewares/Third_Party/LwIP/src/core/tcp_in.c ****               recv_data = cseg->p;
 5384              		.loc 1 1594 31
 5385 0b2c 7B69     		ldr	r3, [r7, #20]
 5386 0b2e 5B68     		ldr	r3, [r3, #4]
 5387              		.loc 1 1594 25
 5388 0b30 704A     		ldr	r2, .L359
 5389 0b32 1360     		str	r3, [r2]
 5390              	.L312:
1595:Middlewares/Third_Party/LwIP/src/core/tcp_in.c ****             }
1596:Middlewares/Third_Party/LwIP/src/core/tcp_in.c ****             cseg->p = NULL;
 5391              		.loc 1 1596 21
 5392 0b34 7B69     		ldr	r3, [r7, #20]
ARM GAS  /tmp/ccWqLOXK.s 			page 128


 5393 0b36 0022     		movs	r2, #0
 5394 0b38 5A60     		str	r2, [r3, #4]
 5395              	.L310:
1597:Middlewares/Third_Party/LwIP/src/core/tcp_in.c ****           }
1598:Middlewares/Third_Party/LwIP/src/core/tcp_in.c ****           if (TCPH_FLAGS(cseg->tcphdr) & TCP_FIN) {
 5396              		.loc 1 1598 15
 5397 0b3a 7B69     		ldr	r3, [r7, #20]
 5398 0b3c DB68     		ldr	r3, [r3, #12]
 5399 0b3e 9B89     		ldrh	r3, [r3, #12]	@ unaligned
 5400 0b40 9BB2     		uxth	r3, r3
 5401 0b42 1846     		mov	r0, r3
 5402 0b44 FFF7FEFF 		bl	lwip_htons
 5403 0b48 0346     		mov	r3, r0
 5404 0b4a DBB2     		uxtb	r3, r3
 5405              		.loc 1 1598 40
 5406 0b4c 03F00103 		and	r3, r3, #1
 5407              		.loc 1 1598 14
 5408 0b50 002B     		cmp	r3, #0
 5409 0b52 0DD0     		beq	.L313
1599:Middlewares/Third_Party/LwIP/src/core/tcp_in.c ****             LWIP_DEBUGF(TCP_INPUT_DEBUG, ("tcp_receive: dequeued FIN.\n"));
1600:Middlewares/Third_Party/LwIP/src/core/tcp_in.c ****             recv_flags |= TF_GOT_FIN;
 5410              		.loc 1 1600 24
 5411 0b54 684B     		ldr	r3, .L359+4
 5412 0b56 1B78     		ldrb	r3, [r3]	@ zero_extendqisi2
 5413 0b58 43F02003 		orr	r3, r3, #32
 5414 0b5c DAB2     		uxtb	r2, r3
 5415 0b5e 664B     		ldr	r3, .L359+4
 5416 0b60 1A70     		strb	r2, [r3]
1601:Middlewares/Third_Party/LwIP/src/core/tcp_in.c ****             if (pcb->state == ESTABLISHED) { /* force passive close or we can move to active close 
 5417              		.loc 1 1601 20
 5418 0b62 7B68     		ldr	r3, [r7, #4]
 5419 0b64 1B7D     		ldrb	r3, [r3, #20]	@ zero_extendqisi2
 5420              		.loc 1 1601 16
 5421 0b66 042B     		cmp	r3, #4
 5422 0b68 02D1     		bne	.L313
1602:Middlewares/Third_Party/LwIP/src/core/tcp_in.c ****               pcb->state = CLOSE_WAIT;
 5423              		.loc 1 1602 26
 5424 0b6a 7B68     		ldr	r3, [r7, #4]
 5425 0b6c 0722     		movs	r2, #7
 5426 0b6e 1A75     		strb	r2, [r3, #20]
 5427              	.L313:
1603:Middlewares/Third_Party/LwIP/src/core/tcp_in.c ****             }
1604:Middlewares/Third_Party/LwIP/src/core/tcp_in.c ****           }
1605:Middlewares/Third_Party/LwIP/src/core/tcp_in.c **** 
1606:Middlewares/Third_Party/LwIP/src/core/tcp_in.c ****           pcb->ooseq = cseg->next;
 5428              		.loc 1 1606 28
 5429 0b70 7B69     		ldr	r3, [r7, #20]
 5430 0b72 1A68     		ldr	r2, [r3]
 5431              		.loc 1 1606 22
 5432 0b74 7B68     		ldr	r3, [r7, #4]
 5433 0b76 5A67     		str	r2, [r3, #116]
1607:Middlewares/Third_Party/LwIP/src/core/tcp_in.c ****           tcp_seg_free(cseg);
 5434              		.loc 1 1607 11
 5435 0b78 7869     		ldr	r0, [r7, #20]
 5436 0b7a FFF7FEFF 		bl	tcp_seg_free
 5437              	.L302:
 5438              	.LBE17:
ARM GAS  /tmp/ccWqLOXK.s 			page 129


1572:Middlewares/Third_Party/LwIP/src/core/tcp_in.c ****                pcb->ooseq->tcphdr->seqno == pcb->rcv_nxt) {
 5439              		.loc 1 1572 19
 5440 0b7e 7B68     		ldr	r3, [r7, #4]
 5441 0b80 5B6F     		ldr	r3, [r3, #116]
1572:Middlewares/Third_Party/LwIP/src/core/tcp_in.c ****                pcb->ooseq->tcphdr->seqno == pcb->rcv_nxt) {
 5442              		.loc 1 1572 15
 5443 0b82 002B     		cmp	r3, #0
 5444 0b84 08D0     		beq	.L314
1573:Middlewares/Third_Party/LwIP/src/core/tcp_in.c **** 
 5445              		.loc 1 1573 19 discriminator 1
 5446 0b86 7B68     		ldr	r3, [r7, #4]
 5447 0b88 5B6F     		ldr	r3, [r3, #116]
1573:Middlewares/Third_Party/LwIP/src/core/tcp_in.c **** 
 5448              		.loc 1 1573 26 discriminator 1
 5449 0b8a DB68     		ldr	r3, [r3, #12]
1573:Middlewares/Third_Party/LwIP/src/core/tcp_in.c **** 
 5450              		.loc 1 1573 34 discriminator 1
 5451 0b8c 5A68     		ldr	r2, [r3, #4]	@ unaligned
1573:Middlewares/Third_Party/LwIP/src/core/tcp_in.c **** 
 5452              		.loc 1 1573 48 discriminator 1
 5453 0b8e 7B68     		ldr	r3, [r7, #4]
 5454 0b90 5B6A     		ldr	r3, [r3, #36]
1572:Middlewares/Third_Party/LwIP/src/core/tcp_in.c ****                pcb->ooseq->tcphdr->seqno == pcb->rcv_nxt) {
 5455              		.loc 1 1572 35 discriminator 1
 5456 0b92 9A42     		cmp	r2, r3
 5457 0b94 3FF443AF 		beq	.L315
 5458              	.L314:
1608:Middlewares/Third_Party/LwIP/src/core/tcp_in.c ****         }
1609:Middlewares/Third_Party/LwIP/src/core/tcp_in.c **** #if LWIP_TCP_SACK_OUT
1610:Middlewares/Third_Party/LwIP/src/core/tcp_in.c ****         if (pcb->flags & TF_SACK) {
1611:Middlewares/Third_Party/LwIP/src/core/tcp_in.c ****           if (pcb->ooseq != NULL) {
1612:Middlewares/Third_Party/LwIP/src/core/tcp_in.c ****             /* Some segments may have been removed from ooseq, let's remove all SACKs that
1613:Middlewares/Third_Party/LwIP/src/core/tcp_in.c ****                describe anything before the new beginning of that list. */
1614:Middlewares/Third_Party/LwIP/src/core/tcp_in.c ****             tcp_remove_sacks_lt(pcb, pcb->ooseq->tcphdr->seqno);
1615:Middlewares/Third_Party/LwIP/src/core/tcp_in.c ****           } else if (LWIP_TCP_SACK_VALID(pcb, 0)) {
1616:Middlewares/Third_Party/LwIP/src/core/tcp_in.c ****             /* ooseq has been cleared. Nothing to SACK */
1617:Middlewares/Third_Party/LwIP/src/core/tcp_in.c ****             memset(pcb->rcv_sacks, 0, sizeof(pcb->rcv_sacks));
1618:Middlewares/Third_Party/LwIP/src/core/tcp_in.c ****           }
1619:Middlewares/Third_Party/LwIP/src/core/tcp_in.c ****         }
1620:Middlewares/Third_Party/LwIP/src/core/tcp_in.c **** #endif /* LWIP_TCP_SACK_OUT */
1621:Middlewares/Third_Party/LwIP/src/core/tcp_in.c **** #endif /* TCP_QUEUE_OOSEQ */
1622:Middlewares/Third_Party/LwIP/src/core/tcp_in.c **** 
1623:Middlewares/Third_Party/LwIP/src/core/tcp_in.c **** 
1624:Middlewares/Third_Party/LwIP/src/core/tcp_in.c ****         /* Acknowledge the segment(s). */
1625:Middlewares/Third_Party/LwIP/src/core/tcp_in.c ****         tcp_ack(pcb);
 5459              		.loc 1 1625 9
 5460 0b98 7B68     		ldr	r3, [r7, #4]
 5461 0b9a 5B8B     		ldrh	r3, [r3, #26]
 5462 0b9c 03F00103 		and	r3, r3, #1
 5463 0ba0 002B     		cmp	r3, #0
 5464 0ba2 0ED0     		beq	.L316
 5465              		.loc 1 1625 9 is_stmt 0 discriminator 1
 5466 0ba4 7B68     		ldr	r3, [r7, #4]
 5467 0ba6 5B8B     		ldrh	r3, [r3, #26]
 5468 0ba8 23F00103 		bic	r3, r3, #1
 5469 0bac 9AB2     		uxth	r2, r3
 5470 0bae 7B68     		ldr	r3, [r7, #4]
ARM GAS  /tmp/ccWqLOXK.s 			page 130


 5471 0bb0 5A83     		strh	r2, [r3, #26]	@ movhi
 5472 0bb2 7B68     		ldr	r3, [r7, #4]
 5473 0bb4 5B8B     		ldrh	r3, [r3, #26]
 5474 0bb6 43F00203 		orr	r3, r3, #2
 5475 0bba 9AB2     		uxth	r2, r3
 5476 0bbc 7B68     		ldr	r3, [r7, #4]
 5477 0bbe 5A83     		strh	r2, [r3, #26]	@ movhi
1459:Middlewares/Third_Party/LwIP/src/core/tcp_in.c ****         /* The incoming segment is the next in sequence. We check if
 5478              		.loc 1 1459 10 is_stmt 1 discriminator 1
 5479 0bc0 88E1     		b	.L340
 5480              	.L316:
 5481              		.loc 1 1625 9 discriminator 2
 5482 0bc2 7B68     		ldr	r3, [r7, #4]
 5483 0bc4 5B8B     		ldrh	r3, [r3, #26]
 5484 0bc6 43F00103 		orr	r3, r3, #1
 5485 0bca 9AB2     		uxth	r2, r3
 5486 0bcc 7B68     		ldr	r3, [r7, #4]
 5487 0bce 5A83     		strh	r2, [r3, #26]	@ movhi
1459:Middlewares/Third_Party/LwIP/src/core/tcp_in.c ****         /* The incoming segment is the next in sequence. We check if
 5488              		.loc 1 1459 10 discriminator 2
 5489 0bd0 80E1     		b	.L340
 5490              	.L277:
1626:Middlewares/Third_Party/LwIP/src/core/tcp_in.c **** 
1627:Middlewares/Third_Party/LwIP/src/core/tcp_in.c **** #if LWIP_TCP_SACK_OUT
1628:Middlewares/Third_Party/LwIP/src/core/tcp_in.c ****         if (LWIP_TCP_SACK_VALID(pcb, 0)) {
1629:Middlewares/Third_Party/LwIP/src/core/tcp_in.c ****           /* Normally the ACK for the data received could be piggy-backed on a data packet,
1630:Middlewares/Third_Party/LwIP/src/core/tcp_in.c ****              but lwIP currently does not support including SACKs in data packets. So we force
1631:Middlewares/Third_Party/LwIP/src/core/tcp_in.c ****              it to respond with an empty ACK packet (only if there is at least one SACK to be sent)
1632:Middlewares/Third_Party/LwIP/src/core/tcp_in.c ****              NOTE: tcp_send_empty_ack() on success clears the ACK flags (set by tcp_ack()) */
1633:Middlewares/Third_Party/LwIP/src/core/tcp_in.c ****           tcp_send_empty_ack(pcb);
1634:Middlewares/Third_Party/LwIP/src/core/tcp_in.c ****         }
1635:Middlewares/Third_Party/LwIP/src/core/tcp_in.c **** #endif /* LWIP_TCP_SACK_OUT */
1636:Middlewares/Third_Party/LwIP/src/core/tcp_in.c **** 
1637:Middlewares/Third_Party/LwIP/src/core/tcp_in.c **** #if LWIP_IPV6 && LWIP_ND6_TCP_REACHABILITY_HINTS
1638:Middlewares/Third_Party/LwIP/src/core/tcp_in.c ****         if (ip_current_is_v6()) {
1639:Middlewares/Third_Party/LwIP/src/core/tcp_in.c ****           /* Inform neighbor reachability of forward progress. */
1640:Middlewares/Third_Party/LwIP/src/core/tcp_in.c ****           nd6_reachability_hint(ip6_current_src_addr());
1641:Middlewares/Third_Party/LwIP/src/core/tcp_in.c ****         }
1642:Middlewares/Third_Party/LwIP/src/core/tcp_in.c **** #endif /* LWIP_IPV6 && LWIP_ND6_TCP_REACHABILITY_HINTS*/
1643:Middlewares/Third_Party/LwIP/src/core/tcp_in.c **** 
1644:Middlewares/Third_Party/LwIP/src/core/tcp_in.c ****       } else {
1645:Middlewares/Third_Party/LwIP/src/core/tcp_in.c ****         /* We get here if the incoming segment is out-of-sequence. */
1646:Middlewares/Third_Party/LwIP/src/core/tcp_in.c **** 
1647:Middlewares/Third_Party/LwIP/src/core/tcp_in.c **** #if TCP_QUEUE_OOSEQ
1648:Middlewares/Third_Party/LwIP/src/core/tcp_in.c ****         /* We queue the segment on the ->ooseq queue. */
1649:Middlewares/Third_Party/LwIP/src/core/tcp_in.c ****         if (pcb->ooseq == NULL) {
 5491              		.loc 1 1649 16
 5492 0bd2 7B68     		ldr	r3, [r7, #4]
 5493 0bd4 5B6F     		ldr	r3, [r3, #116]
 5494              		.loc 1 1649 12
 5495 0bd6 002B     		cmp	r3, #0
 5496 0bd8 06D1     		bne	.L319
1650:Middlewares/Third_Party/LwIP/src/core/tcp_in.c ****           pcb->ooseq = tcp_seg_copy(&inseg);
 5497              		.loc 1 1650 24
 5498 0bda 4848     		ldr	r0, .L359+8
 5499 0bdc FFF7FEFF 		bl	tcp_seg_copy
 5500 0be0 0246     		mov	r2, r0
ARM GAS  /tmp/ccWqLOXK.s 			page 131


 5501              		.loc 1 1650 22
 5502 0be2 7B68     		ldr	r3, [r7, #4]
 5503 0be4 5A67     		str	r2, [r3, #116]
 5504 0be6 6DE1     		b	.L320
 5505              	.L319:
 5506              	.LBB18:
1651:Middlewares/Third_Party/LwIP/src/core/tcp_in.c **** #if LWIP_TCP_SACK_OUT
1652:Middlewares/Third_Party/LwIP/src/core/tcp_in.c ****           if (pcb->flags & TF_SACK) {
1653:Middlewares/Third_Party/LwIP/src/core/tcp_in.c ****             /* All the SACKs should be invalid, so we can simply store the most recent one: */
1654:Middlewares/Third_Party/LwIP/src/core/tcp_in.c ****             pcb->rcv_sacks[0].left = seqno;
1655:Middlewares/Third_Party/LwIP/src/core/tcp_in.c ****             pcb->rcv_sacks[0].right = seqno + inseg.len;
1656:Middlewares/Third_Party/LwIP/src/core/tcp_in.c ****           }
1657:Middlewares/Third_Party/LwIP/src/core/tcp_in.c **** #endif /* LWIP_TCP_SACK_OUT */
1658:Middlewares/Third_Party/LwIP/src/core/tcp_in.c ****         } else {
1659:Middlewares/Third_Party/LwIP/src/core/tcp_in.c ****           /* If the queue is not empty, we walk through the queue and
1660:Middlewares/Third_Party/LwIP/src/core/tcp_in.c ****              try to find a place where the sequence number of the
1661:Middlewares/Third_Party/LwIP/src/core/tcp_in.c ****              incoming segment is between the sequence numbers of the
1662:Middlewares/Third_Party/LwIP/src/core/tcp_in.c ****              previous and the next segment on the ->ooseq queue. That is
1663:Middlewares/Third_Party/LwIP/src/core/tcp_in.c ****              the place where we put the incoming segment. If needed, we
1664:Middlewares/Third_Party/LwIP/src/core/tcp_in.c ****              trim the second edges of the previous and the incoming
1665:Middlewares/Third_Party/LwIP/src/core/tcp_in.c ****              segment so that it will fit into the sequence.
1666:Middlewares/Third_Party/LwIP/src/core/tcp_in.c **** 
1667:Middlewares/Third_Party/LwIP/src/core/tcp_in.c ****              If the incoming segment has the same sequence number as a
1668:Middlewares/Third_Party/LwIP/src/core/tcp_in.c ****              segment on the ->ooseq queue, we discard the segment that
1669:Middlewares/Third_Party/LwIP/src/core/tcp_in.c ****              contains less data. */
1670:Middlewares/Third_Party/LwIP/src/core/tcp_in.c **** 
1671:Middlewares/Third_Party/LwIP/src/core/tcp_in.c **** #if LWIP_TCP_SACK_OUT
1672:Middlewares/Third_Party/LwIP/src/core/tcp_in.c ****           /* This is the left edge of the lowest possible SACK range.
1673:Middlewares/Third_Party/LwIP/src/core/tcp_in.c ****              It may start before the newly received segment (possibly adjusted below). */
1674:Middlewares/Third_Party/LwIP/src/core/tcp_in.c ****           u32_t sackbeg = TCP_SEQ_LT(seqno, pcb->ooseq->tcphdr->seqno) ? seqno : pcb->ooseq->tcphdr
1675:Middlewares/Third_Party/LwIP/src/core/tcp_in.c **** #endif /* LWIP_TCP_SACK_OUT */
1676:Middlewares/Third_Party/LwIP/src/core/tcp_in.c ****           struct tcp_seg *next, *prev = NULL;
 5507              		.loc 1 1676 34
 5508 0be8 0023     		movs	r3, #0
 5509 0bea 7B63     		str	r3, [r7, #52]
1677:Middlewares/Third_Party/LwIP/src/core/tcp_in.c ****           for (next = pcb->ooseq; next != NULL; next = next->next) {
 5510              		.loc 1 1677 21
 5511 0bec 7B68     		ldr	r3, [r7, #4]
 5512 0bee 5B6F     		ldr	r3, [r3, #116]
 5513 0bf0 BB63     		str	r3, [r7, #56]
 5514              		.loc 1 1677 11
 5515 0bf2 57E1     		b	.L321
 5516              	.L339:
1678:Middlewares/Third_Party/LwIP/src/core/tcp_in.c ****             if (seqno == next->tcphdr->seqno) {
 5517              		.loc 1 1678 30
 5518 0bf4 BB6B     		ldr	r3, [r7, #56]
 5519 0bf6 DB68     		ldr	r3, [r3, #12]
 5520              		.loc 1 1678 38
 5521 0bf8 5A68     		ldr	r2, [r3, #4]	@ unaligned
 5522              		.loc 1 1678 23
 5523 0bfa 414B     		ldr	r3, .L359+12
 5524 0bfc 1B68     		ldr	r3, [r3]
 5525              		.loc 1 1678 16
 5526 0bfe 9A42     		cmp	r2, r3
 5527 0c00 1DD1     		bne	.L322
1679:Middlewares/Third_Party/LwIP/src/core/tcp_in.c ****               /* The sequence number of the incoming segment is the
1680:Middlewares/Third_Party/LwIP/src/core/tcp_in.c ****                  same as the sequence number of the segment on
ARM GAS  /tmp/ccWqLOXK.s 			page 132


1681:Middlewares/Third_Party/LwIP/src/core/tcp_in.c ****                  ->ooseq. We check the lengths to see which one to
1682:Middlewares/Third_Party/LwIP/src/core/tcp_in.c ****                  discard. */
1683:Middlewares/Third_Party/LwIP/src/core/tcp_in.c ****               if (inseg.len > next->len) {
 5528              		.loc 1 1683 24
 5529 0c02 3E4B     		ldr	r3, .L359+8
 5530 0c04 1A89     		ldrh	r2, [r3, #8]
 5531              		.loc 1 1683 35
 5532 0c06 BB6B     		ldr	r3, [r7, #56]
 5533 0c08 1B89     		ldrh	r3, [r3, #8]
 5534              		.loc 1 1683 18
 5535 0c0a 9A42     		cmp	r2, r3
 5536 0c0c 40F24F81 		bls	.L344
 5537              	.LBB19:
1684:Middlewares/Third_Party/LwIP/src/core/tcp_in.c ****                 /* The incoming segment is larger than the old
1685:Middlewares/Third_Party/LwIP/src/core/tcp_in.c ****                    segment. We replace some segments with the new
1686:Middlewares/Third_Party/LwIP/src/core/tcp_in.c ****                    one. */
1687:Middlewares/Third_Party/LwIP/src/core/tcp_in.c ****                 struct tcp_seg *cseg = tcp_seg_copy(&inseg);
 5538              		.loc 1 1687 40
 5539 0c10 3A48     		ldr	r0, .L359+8
 5540 0c12 FFF7FEFF 		bl	tcp_seg_copy
 5541 0c16 3861     		str	r0, [r7, #16]
1688:Middlewares/Third_Party/LwIP/src/core/tcp_in.c ****                 if (cseg != NULL) {
 5542              		.loc 1 1688 20
 5543 0c18 3B69     		ldr	r3, [r7, #16]
 5544 0c1a 002B     		cmp	r3, #0
 5545 0c1c 00F04981 		beq	.L345
1689:Middlewares/Third_Party/LwIP/src/core/tcp_in.c ****                   if (prev != NULL) {
 5546              		.loc 1 1689 22
 5547 0c20 7B6B     		ldr	r3, [r7, #52]
 5548 0c22 002B     		cmp	r3, #0
 5549 0c24 03D0     		beq	.L325
1690:Middlewares/Third_Party/LwIP/src/core/tcp_in.c ****                     prev->next = cseg;
 5550              		.loc 1 1690 32
 5551 0c26 7B6B     		ldr	r3, [r7, #52]
 5552 0c28 3A69     		ldr	r2, [r7, #16]
 5553 0c2a 1A60     		str	r2, [r3]
 5554 0c2c 02E0     		b	.L326
 5555              	.L325:
1691:Middlewares/Third_Party/LwIP/src/core/tcp_in.c ****                   } else {
1692:Middlewares/Third_Party/LwIP/src/core/tcp_in.c ****                     pcb->ooseq = cseg;
 5556              		.loc 1 1692 32
 5557 0c2e 7B68     		ldr	r3, [r7, #4]
 5558 0c30 3A69     		ldr	r2, [r7, #16]
 5559 0c32 5A67     		str	r2, [r3, #116]
 5560              	.L326:
1693:Middlewares/Third_Party/LwIP/src/core/tcp_in.c ****                   }
1694:Middlewares/Third_Party/LwIP/src/core/tcp_in.c ****                   tcp_oos_insert_segment(cseg, next);
 5561              		.loc 1 1694 19
 5562 0c34 B96B     		ldr	r1, [r7, #56]
 5563 0c36 3869     		ldr	r0, [r7, #16]
 5564 0c38 FFF7FEFF 		bl	tcp_oos_insert_segment
1695:Middlewares/Third_Party/LwIP/src/core/tcp_in.c ****                 }
1696:Middlewares/Third_Party/LwIP/src/core/tcp_in.c ****                 break;
 5565              		.loc 1 1696 17
 5566 0c3c 39E1     		b	.L345
 5567              	.L322:
 5568              	.LBE19:
ARM GAS  /tmp/ccWqLOXK.s 			page 133


1697:Middlewares/Third_Party/LwIP/src/core/tcp_in.c ****               } else {
1698:Middlewares/Third_Party/LwIP/src/core/tcp_in.c ****                 /* Either the lengths are the same or the incoming
1699:Middlewares/Third_Party/LwIP/src/core/tcp_in.c ****                    segment was smaller than the old one; in either
1700:Middlewares/Third_Party/LwIP/src/core/tcp_in.c ****                    case, we ditch the incoming segment. */
1701:Middlewares/Third_Party/LwIP/src/core/tcp_in.c ****                 break;
1702:Middlewares/Third_Party/LwIP/src/core/tcp_in.c ****               }
1703:Middlewares/Third_Party/LwIP/src/core/tcp_in.c ****             } else {
1704:Middlewares/Third_Party/LwIP/src/core/tcp_in.c ****               if (prev == NULL) {
 5569              		.loc 1 1704 18
 5570 0c3e 7B6B     		ldr	r3, [r7, #52]
 5571 0c40 002B     		cmp	r3, #0
 5572 0c42 17D1     		bne	.L327
1705:Middlewares/Third_Party/LwIP/src/core/tcp_in.c ****                 if (TCP_SEQ_LT(seqno, next->tcphdr->seqno)) {
 5573              		.loc 1 1705 21
 5574 0c44 2E4B     		ldr	r3, .L359+12
 5575 0c46 1A68     		ldr	r2, [r3]
 5576 0c48 BB6B     		ldr	r3, [r7, #56]
 5577 0c4a DB68     		ldr	r3, [r3, #12]
 5578 0c4c 5B68     		ldr	r3, [r3, #4]	@ unaligned
 5579 0c4e D31A     		subs	r3, r2, r3
 5580              		.loc 1 1705 20
 5581 0c50 002B     		cmp	r3, #0
 5582 0c52 57DA     		bge	.L328
 5583              	.LBB20:
1706:Middlewares/Third_Party/LwIP/src/core/tcp_in.c ****                   /* The sequence number of the incoming segment is lower
1707:Middlewares/Third_Party/LwIP/src/core/tcp_in.c ****                      than the sequence number of the first segment on the
1708:Middlewares/Third_Party/LwIP/src/core/tcp_in.c ****                      queue. We put the incoming segment first on the
1709:Middlewares/Third_Party/LwIP/src/core/tcp_in.c ****                      queue. */
1710:Middlewares/Third_Party/LwIP/src/core/tcp_in.c ****                   struct tcp_seg *cseg = tcp_seg_copy(&inseg);
 5584              		.loc 1 1710 42
 5585 0c54 2948     		ldr	r0, .L359+8
 5586 0c56 FFF7FEFF 		bl	tcp_seg_copy
 5587 0c5a F860     		str	r0, [r7, #12]
1711:Middlewares/Third_Party/LwIP/src/core/tcp_in.c ****                   if (cseg != NULL) {
 5588              		.loc 1 1711 22
 5589 0c5c FB68     		ldr	r3, [r7, #12]
 5590 0c5e 002B     		cmp	r3, #0
 5591 0c60 00F02981 		beq	.L346
1712:Middlewares/Third_Party/LwIP/src/core/tcp_in.c ****                     pcb->ooseq = cseg;
 5592              		.loc 1 1712 32
 5593 0c64 7B68     		ldr	r3, [r7, #4]
 5594 0c66 FA68     		ldr	r2, [r7, #12]
 5595 0c68 5A67     		str	r2, [r3, #116]
1713:Middlewares/Third_Party/LwIP/src/core/tcp_in.c ****                     tcp_oos_insert_segment(cseg, next);
 5596              		.loc 1 1713 21
 5597 0c6a B96B     		ldr	r1, [r7, #56]
 5598 0c6c F868     		ldr	r0, [r7, #12]
 5599 0c6e FFF7FEFF 		bl	tcp_oos_insert_segment
1714:Middlewares/Third_Party/LwIP/src/core/tcp_in.c ****                   }
1715:Middlewares/Third_Party/LwIP/src/core/tcp_in.c ****                   break;
 5600              		.loc 1 1715 19
 5601 0c72 20E1     		b	.L346
 5602              	.L327:
 5603              	.LBE20:
1716:Middlewares/Third_Party/LwIP/src/core/tcp_in.c ****                 }
1717:Middlewares/Third_Party/LwIP/src/core/tcp_in.c ****               } else {
1718:Middlewares/Third_Party/LwIP/src/core/tcp_in.c ****                 /*if (TCP_SEQ_LT(prev->tcphdr->seqno, seqno) &&
ARM GAS  /tmp/ccWqLOXK.s 			page 134


1719:Middlewares/Third_Party/LwIP/src/core/tcp_in.c ****                   TCP_SEQ_LT(seqno, next->tcphdr->seqno)) {*/
1720:Middlewares/Third_Party/LwIP/src/core/tcp_in.c ****                 if (TCP_SEQ_BETWEEN(seqno, prev->tcphdr->seqno + 1, next->tcphdr->seqno - 1)) {
 5604              		.loc 1 1720 21
 5605 0c74 224B     		ldr	r3, .L359+12
 5606 0c76 1A68     		ldr	r2, [r3]
 5607 0c78 7B6B     		ldr	r3, [r7, #52]
 5608 0c7a DB68     		ldr	r3, [r3, #12]
 5609 0c7c 5B68     		ldr	r3, [r3, #4]	@ unaligned
 5610 0c7e D31A     		subs	r3, r2, r3
 5611 0c80 013B     		subs	r3, r3, #1
 5612              		.loc 1 1720 20
 5613 0c82 002B     		cmp	r3, #0
 5614 0c84 3EDB     		blt	.L328
 5615              		.loc 1 1720 21 discriminator 1
 5616 0c86 1E4B     		ldr	r3, .L359+12
 5617 0c88 1A68     		ldr	r2, [r3]
 5618 0c8a BB6B     		ldr	r3, [r7, #56]
 5619 0c8c DB68     		ldr	r3, [r3, #12]
 5620 0c8e 5B68     		ldr	r3, [r3, #4]	@ unaligned
 5621 0c90 D31A     		subs	r3, r2, r3
 5622 0c92 0133     		adds	r3, r3, #1
 5623 0c94 002B     		cmp	r3, #0
 5624 0c96 35DC     		bgt	.L328
 5625              	.LBB21:
1721:Middlewares/Third_Party/LwIP/src/core/tcp_in.c ****                   /* The sequence number of the incoming segment is in
1722:Middlewares/Third_Party/LwIP/src/core/tcp_in.c ****                      between the sequence numbers of the previous and
1723:Middlewares/Third_Party/LwIP/src/core/tcp_in.c ****                      the next segment on ->ooseq. We trim trim the previous
1724:Middlewares/Third_Party/LwIP/src/core/tcp_in.c ****                      segment, delete next segments that included in received segment
1725:Middlewares/Third_Party/LwIP/src/core/tcp_in.c ****                      and trim received, if needed. */
1726:Middlewares/Third_Party/LwIP/src/core/tcp_in.c ****                   struct tcp_seg *cseg = tcp_seg_copy(&inseg);
 5626              		.loc 1 1726 42
 5627 0c98 1848     		ldr	r0, .L359+8
 5628 0c9a FFF7FEFF 		bl	tcp_seg_copy
 5629 0c9e B860     		str	r0, [r7, #8]
1727:Middlewares/Third_Party/LwIP/src/core/tcp_in.c ****                   if (cseg != NULL) {
 5630              		.loc 1 1727 22
 5631 0ca0 BB68     		ldr	r3, [r7, #8]
 5632 0ca2 002B     		cmp	r3, #0
 5633 0ca4 00F00981 		beq	.L347
1728:Middlewares/Third_Party/LwIP/src/core/tcp_in.c ****                     if (TCP_SEQ_GT(prev->tcphdr->seqno + prev->len, seqno)) {
 5634              		.loc 1 1728 25
 5635 0ca8 7B6B     		ldr	r3, [r7, #52]
 5636 0caa DB68     		ldr	r3, [r3, #12]
 5637 0cac 5B68     		ldr	r3, [r3, #4]	@ unaligned
 5638 0cae 7A6B     		ldr	r2, [r7, #52]
 5639 0cb0 1289     		ldrh	r2, [r2, #8]
 5640 0cb2 1A44     		add	r2, r2, r3
 5641 0cb4 124B     		ldr	r3, .L359+12
 5642 0cb6 1B68     		ldr	r3, [r3]
 5643 0cb8 D31A     		subs	r3, r2, r3
 5644              		.loc 1 1728 24
 5645 0cba 002B     		cmp	r3, #0
 5646 0cbc 12DD     		ble	.L331
1729:Middlewares/Third_Party/LwIP/src/core/tcp_in.c ****                       /* We need to trim the prev segment. */
1730:Middlewares/Third_Party/LwIP/src/core/tcp_in.c ****                       prev->len = (u16_t)(seqno - prev->tcphdr->seqno);
 5647              		.loc 1 1730 35
 5648 0cbe 104B     		ldr	r3, .L359+12
ARM GAS  /tmp/ccWqLOXK.s 			page 135


 5649 0cc0 1B68     		ldr	r3, [r3]
 5650 0cc2 9AB2     		uxth	r2, r3
 5651              		.loc 1 1730 55
 5652 0cc4 7B6B     		ldr	r3, [r7, #52]
 5653 0cc6 DB68     		ldr	r3, [r3, #12]
 5654              		.loc 1 1730 63
 5655 0cc8 5B68     		ldr	r3, [r3, #4]	@ unaligned
 5656              		.loc 1 1730 35
 5657 0cca 9BB2     		uxth	r3, r3
 5658 0ccc D31A     		subs	r3, r2, r3
 5659 0cce 9AB2     		uxth	r2, r3
 5660              		.loc 1 1730 33
 5661 0cd0 7B6B     		ldr	r3, [r7, #52]
 5662 0cd2 1A81     		strh	r2, [r3, #8]	@ movhi
1731:Middlewares/Third_Party/LwIP/src/core/tcp_in.c ****                       pbuf_realloc(prev->p, prev->len);
 5663              		.loc 1 1731 23
 5664 0cd4 7B6B     		ldr	r3, [r7, #52]
 5665 0cd6 5A68     		ldr	r2, [r3, #4]
 5666 0cd8 7B6B     		ldr	r3, [r7, #52]
 5667 0cda 1B89     		ldrh	r3, [r3, #8]
 5668 0cdc 1946     		mov	r1, r3
 5669 0cde 1046     		mov	r0, r2
 5670 0ce0 FFF7FEFF 		bl	pbuf_realloc
 5671              	.L331:
1732:Middlewares/Third_Party/LwIP/src/core/tcp_in.c ****                     }
1733:Middlewares/Third_Party/LwIP/src/core/tcp_in.c ****                     prev->next = cseg;
 5672              		.loc 1 1733 32
 5673 0ce4 7B6B     		ldr	r3, [r7, #52]
 5674 0ce6 BA68     		ldr	r2, [r7, #8]
 5675 0ce8 1A60     		str	r2, [r3]
1734:Middlewares/Third_Party/LwIP/src/core/tcp_in.c ****                     tcp_oos_insert_segment(cseg, next);
 5676              		.loc 1 1734 21
 5677 0cea B96B     		ldr	r1, [r7, #56]
 5678 0cec B868     		ldr	r0, [r7, #8]
 5679 0cee FFF7FEFF 		bl	tcp_oos_insert_segment
1735:Middlewares/Third_Party/LwIP/src/core/tcp_in.c ****                   }
1736:Middlewares/Third_Party/LwIP/src/core/tcp_in.c ****                   break;
 5680              		.loc 1 1736 19
 5681 0cf2 E2E0     		b	.L347
 5682              	.L360:
 5683              		.align	2
 5684              	.L359:
 5685 0cf4 00000000 		.word	recv_data
 5686 0cf8 00000000 		.word	recv_flags
 5687 0cfc 00000000 		.word	inseg
 5688 0d00 00000000 		.word	seqno
 5689              	.L328:
 5690              	.LBE21:
1737:Middlewares/Third_Party/LwIP/src/core/tcp_in.c ****                 }
1738:Middlewares/Third_Party/LwIP/src/core/tcp_in.c ****               }
1739:Middlewares/Third_Party/LwIP/src/core/tcp_in.c **** 
1740:Middlewares/Third_Party/LwIP/src/core/tcp_in.c **** #if LWIP_TCP_SACK_OUT
1741:Middlewares/Third_Party/LwIP/src/core/tcp_in.c ****               /* The new segment goes after the 'next' one. If there is a "hole" in sequence number
1742:Middlewares/Third_Party/LwIP/src/core/tcp_in.c ****                  between 'prev' and the beginning of 'next', we want to move sackbeg. */
1743:Middlewares/Third_Party/LwIP/src/core/tcp_in.c ****               if (prev != NULL && prev->tcphdr->seqno + prev->len != next->tcphdr->seqno) {
1744:Middlewares/Third_Party/LwIP/src/core/tcp_in.c ****                 sackbeg = next->tcphdr->seqno;
1745:Middlewares/Third_Party/LwIP/src/core/tcp_in.c ****               }
ARM GAS  /tmp/ccWqLOXK.s 			page 136


1746:Middlewares/Third_Party/LwIP/src/core/tcp_in.c **** #endif /* LWIP_TCP_SACK_OUT */
1747:Middlewares/Third_Party/LwIP/src/core/tcp_in.c **** 
1748:Middlewares/Third_Party/LwIP/src/core/tcp_in.c ****               /* We don't use 'prev' below, so let's set it to current 'next'.
1749:Middlewares/Third_Party/LwIP/src/core/tcp_in.c ****                  This way even if we break the loop below, 'prev' will be pointing
1750:Middlewares/Third_Party/LwIP/src/core/tcp_in.c ****                  at the segment right in front of the newly added one. */
1751:Middlewares/Third_Party/LwIP/src/core/tcp_in.c ****               prev = next;
 5691              		.loc 1 1751 20
 5692 0d04 BB6B     		ldr	r3, [r7, #56]
 5693 0d06 7B63     		str	r3, [r7, #52]
1752:Middlewares/Third_Party/LwIP/src/core/tcp_in.c **** 
1753:Middlewares/Third_Party/LwIP/src/core/tcp_in.c ****               /* If the "next" segment is the last segment on the
1754:Middlewares/Third_Party/LwIP/src/core/tcp_in.c ****                  ooseq queue, we add the incoming segment to the end
1755:Middlewares/Third_Party/LwIP/src/core/tcp_in.c ****                  of the list. */
1756:Middlewares/Third_Party/LwIP/src/core/tcp_in.c ****               if (next->next == NULL &&
 5694              		.loc 1 1756 23
 5695 0d08 BB6B     		ldr	r3, [r7, #56]
 5696 0d0a 1B68     		ldr	r3, [r3]
 5697              		.loc 1 1756 18
 5698 0d0c 002B     		cmp	r3, #0
 5699 0d0e 40F0C680 		bne	.L332
1757:Middlewares/Third_Party/LwIP/src/core/tcp_in.c ****                   TCP_SEQ_GT(seqno, next->tcphdr->seqno)) {
 5700              		.loc 1 1757 19 discriminator 1
 5701 0d12 804B     		ldr	r3, .L361
 5702 0d14 1A68     		ldr	r2, [r3]
 5703 0d16 BB6B     		ldr	r3, [r7, #56]
 5704 0d18 DB68     		ldr	r3, [r3, #12]
 5705 0d1a 5B68     		ldr	r3, [r3, #4]	@ unaligned
 5706 0d1c D31A     		subs	r3, r2, r3
1756:Middlewares/Third_Party/LwIP/src/core/tcp_in.c ****                   TCP_SEQ_GT(seqno, next->tcphdr->seqno)) {
 5707              		.loc 1 1756 38 discriminator 1
 5708 0d1e 002B     		cmp	r3, #0
 5709 0d20 40F3BD80 		ble	.L332
1758:Middlewares/Third_Party/LwIP/src/core/tcp_in.c ****                 if (TCPH_FLAGS(next->tcphdr) & TCP_FIN) {
 5710              		.loc 1 1758 21
 5711 0d24 BB6B     		ldr	r3, [r7, #56]
 5712 0d26 DB68     		ldr	r3, [r3, #12]
 5713 0d28 9B89     		ldrh	r3, [r3, #12]	@ unaligned
 5714 0d2a 9BB2     		uxth	r3, r3
 5715 0d2c 1846     		mov	r0, r3
 5716 0d2e FFF7FEFF 		bl	lwip_htons
 5717 0d32 0346     		mov	r3, r0
 5718 0d34 DBB2     		uxtb	r3, r3
 5719              		.loc 1 1758 46
 5720 0d36 03F00103 		and	r3, r3, #1
 5721              		.loc 1 1758 20
 5722 0d3a 002B     		cmp	r3, #0
 5723 0d3c 40F0BF80 		bne	.L348
1759:Middlewares/Third_Party/LwIP/src/core/tcp_in.c ****                   /* segment "next" already contains all data */
1760:Middlewares/Third_Party/LwIP/src/core/tcp_in.c ****                   break;
1761:Middlewares/Third_Party/LwIP/src/core/tcp_in.c ****                 }
1762:Middlewares/Third_Party/LwIP/src/core/tcp_in.c ****                 next->next = tcp_seg_copy(&inseg);
 5724              		.loc 1 1762 30
 5725 0d40 7548     		ldr	r0, .L361+4
 5726 0d42 FFF7FEFF 		bl	tcp_seg_copy
 5727 0d46 0246     		mov	r2, r0
 5728              		.loc 1 1762 28
 5729 0d48 BB6B     		ldr	r3, [r7, #56]
ARM GAS  /tmp/ccWqLOXK.s 			page 137


 5730 0d4a 1A60     		str	r2, [r3]
1763:Middlewares/Third_Party/LwIP/src/core/tcp_in.c ****                 if (next->next != NULL) {
 5731              		.loc 1 1763 25
 5732 0d4c BB6B     		ldr	r3, [r7, #56]
 5733 0d4e 1B68     		ldr	r3, [r3]
 5734              		.loc 1 1763 20
 5735 0d50 002B     		cmp	r3, #0
 5736 0d52 00F0B680 		beq	.L349
1764:Middlewares/Third_Party/LwIP/src/core/tcp_in.c ****                   if (TCP_SEQ_GT(next->tcphdr->seqno + next->len, seqno)) {
 5737              		.loc 1 1764 23
 5738 0d56 BB6B     		ldr	r3, [r7, #56]
 5739 0d58 DB68     		ldr	r3, [r3, #12]
 5740 0d5a 5B68     		ldr	r3, [r3, #4]	@ unaligned
 5741 0d5c BA6B     		ldr	r2, [r7, #56]
 5742 0d5e 1289     		ldrh	r2, [r2, #8]
 5743 0d60 1A44     		add	r2, r2, r3
 5744 0d62 6C4B     		ldr	r3, .L361
 5745 0d64 1B68     		ldr	r3, [r3]
 5746 0d66 D31A     		subs	r3, r2, r3
 5747              		.loc 1 1764 22
 5748 0d68 002B     		cmp	r3, #0
 5749 0d6a 12DD     		ble	.L335
1765:Middlewares/Third_Party/LwIP/src/core/tcp_in.c ****                     /* We need to trim the last segment. */
1766:Middlewares/Third_Party/LwIP/src/core/tcp_in.c ****                     next->len = (u16_t)(seqno - next->tcphdr->seqno);
 5750              		.loc 1 1766 33
 5751 0d6c 694B     		ldr	r3, .L361
 5752 0d6e 1B68     		ldr	r3, [r3]
 5753 0d70 9AB2     		uxth	r2, r3
 5754              		.loc 1 1766 53
 5755 0d72 BB6B     		ldr	r3, [r7, #56]
 5756 0d74 DB68     		ldr	r3, [r3, #12]
 5757              		.loc 1 1766 61
 5758 0d76 5B68     		ldr	r3, [r3, #4]	@ unaligned
 5759              		.loc 1 1766 33
 5760 0d78 9BB2     		uxth	r3, r3
 5761 0d7a D31A     		subs	r3, r2, r3
 5762 0d7c 9AB2     		uxth	r2, r3
 5763              		.loc 1 1766 31
 5764 0d7e BB6B     		ldr	r3, [r7, #56]
 5765 0d80 1A81     		strh	r2, [r3, #8]	@ movhi
1767:Middlewares/Third_Party/LwIP/src/core/tcp_in.c ****                     pbuf_realloc(next->p, next->len);
 5766              		.loc 1 1767 21
 5767 0d82 BB6B     		ldr	r3, [r7, #56]
 5768 0d84 5A68     		ldr	r2, [r3, #4]
 5769 0d86 BB6B     		ldr	r3, [r7, #56]
 5770 0d88 1B89     		ldrh	r3, [r3, #8]
 5771 0d8a 1946     		mov	r1, r3
 5772 0d8c 1046     		mov	r0, r2
 5773 0d8e FFF7FEFF 		bl	pbuf_realloc
 5774              	.L335:
1768:Middlewares/Third_Party/LwIP/src/core/tcp_in.c ****                   }
1769:Middlewares/Third_Party/LwIP/src/core/tcp_in.c ****                   /* check if the remote side overruns our receive window */
1770:Middlewares/Third_Party/LwIP/src/core/tcp_in.c ****                   if (TCP_SEQ_GT((u32_t)tcplen + seqno, pcb->rcv_nxt + (u32_t)pcb->rcv_wnd)) {
 5775              		.loc 1 1770 23
 5776 0d92 624B     		ldr	r3, .L361+8
 5777 0d94 1B88     		ldrh	r3, [r3]
 5778 0d96 1A46     		mov	r2, r3
ARM GAS  /tmp/ccWqLOXK.s 			page 138


 5779 0d98 5E4B     		ldr	r3, .L361
 5780 0d9a 1B68     		ldr	r3, [r3]
 5781 0d9c 1A44     		add	r2, r2, r3
 5782 0d9e 7B68     		ldr	r3, [r7, #4]
 5783 0da0 5B6A     		ldr	r3, [r3, #36]
 5784 0da2 7968     		ldr	r1, [r7, #4]
 5785 0da4 098D     		ldrh	r1, [r1, #40]
 5786 0da6 0B44     		add	r3, r3, r1
 5787 0da8 D31A     		subs	r3, r2, r3
 5788              		.loc 1 1770 22
 5789 0daa 002B     		cmp	r3, #0
 5790 0dac 40F38980 		ble	.L349
1771:Middlewares/Third_Party/LwIP/src/core/tcp_in.c ****                     LWIP_DEBUGF(TCP_INPUT_DEBUG,
1772:Middlewares/Third_Party/LwIP/src/core/tcp_in.c ****                                 ("tcp_receive: other end overran receive window"
1773:Middlewares/Third_Party/LwIP/src/core/tcp_in.c ****                                  "seqno %"U32_F" len %"U16_F" right edge %"U32_F"\n",
1774:Middlewares/Third_Party/LwIP/src/core/tcp_in.c ****                                  seqno, tcplen, pcb->rcv_nxt + pcb->rcv_wnd));
1775:Middlewares/Third_Party/LwIP/src/core/tcp_in.c ****                     if (TCPH_FLAGS(next->next->tcphdr) & TCP_FIN) {
 5791              		.loc 1 1775 25
 5792 0db0 BB6B     		ldr	r3, [r7, #56]
 5793 0db2 1B68     		ldr	r3, [r3]
 5794 0db4 DB68     		ldr	r3, [r3, #12]
 5795 0db6 9B89     		ldrh	r3, [r3, #12]	@ unaligned
 5796 0db8 9BB2     		uxth	r3, r3
 5797 0dba 1846     		mov	r0, r3
 5798 0dbc FFF7FEFF 		bl	lwip_htons
 5799 0dc0 0346     		mov	r3, r0
 5800 0dc2 DBB2     		uxtb	r3, r3
 5801              		.loc 1 1775 56
 5802 0dc4 03F00103 		and	r3, r3, #1
 5803              		.loc 1 1775 24
 5804 0dc8 002B     		cmp	r3, #0
 5805 0dca 22D0     		beq	.L336
1776:Middlewares/Third_Party/LwIP/src/core/tcp_in.c ****                       /* Must remove the FIN from the header as we're trimming
1777:Middlewares/Third_Party/LwIP/src/core/tcp_in.c ****                        * that byte of sequence-space from the packet */
1778:Middlewares/Third_Party/LwIP/src/core/tcp_in.c ****                       TCPH_FLAGS_SET(next->next->tcphdr, TCPH_FLAGS(next->next->tcphdr) & ~TCP_FIN)
 5806              		.loc 1 1778 23
 5807 0dcc BB6B     		ldr	r3, [r7, #56]
 5808 0dce 1B68     		ldr	r3, [r3]
 5809 0dd0 DB68     		ldr	r3, [r3, #12]
 5810 0dd2 9B89     		ldrh	r3, [r3, #12]	@ unaligned
 5811 0dd4 9BB2     		uxth	r3, r3
 5812 0dd6 1BB2     		sxth	r3, r3
 5813 0dd8 23F47C53 		bic	r3, r3, #16128
 5814 0ddc 1CB2     		sxth	r4, r3
 5815 0dde BB6B     		ldr	r3, [r7, #56]
 5816 0de0 1B68     		ldr	r3, [r3]
 5817 0de2 DB68     		ldr	r3, [r3, #12]
 5818 0de4 9B89     		ldrh	r3, [r3, #12]	@ unaligned
 5819 0de6 9BB2     		uxth	r3, r3
 5820 0de8 1846     		mov	r0, r3
 5821 0dea FFF7FEFF 		bl	lwip_htons
 5822 0dee 0346     		mov	r3, r0
 5823 0df0 DBB2     		uxtb	r3, r3
 5824 0df2 9BB2     		uxth	r3, r3
 5825 0df4 03F03E03 		and	r3, r3, #62
 5826 0df8 9BB2     		uxth	r3, r3
 5827 0dfa 1846     		mov	r0, r3
ARM GAS  /tmp/ccWqLOXK.s 			page 139


 5828 0dfc FFF7FEFF 		bl	lwip_htons
 5829 0e00 0346     		mov	r3, r0
 5830 0e02 1BB2     		sxth	r3, r3
 5831 0e04 2343     		orrs	r3, r3, r4
 5832 0e06 1AB2     		sxth	r2, r3
 5833 0e08 BB6B     		ldr	r3, [r7, #56]
 5834 0e0a 1B68     		ldr	r3, [r3]
 5835 0e0c DB68     		ldr	r3, [r3, #12]
 5836 0e0e 92B2     		uxth	r2, r2
 5837 0e10 9A81     		strh	r2, [r3, #12]	@ unaligned
 5838              	.L336:
1779:Middlewares/Third_Party/LwIP/src/core/tcp_in.c ****                     }
1780:Middlewares/Third_Party/LwIP/src/core/tcp_in.c ****                     /* Adjust length of segment to fit in the window. */
1781:Middlewares/Third_Party/LwIP/src/core/tcp_in.c ****                     next->next->len = (u16_t)(pcb->rcv_nxt + pcb->rcv_wnd - seqno);
 5839              		.loc 1 1781 50
 5840 0e12 7B68     		ldr	r3, [r7, #4]
 5841 0e14 5B6A     		ldr	r3, [r3, #36]
 5842              		.loc 1 1781 60
 5843 0e16 9AB2     		uxth	r2, r3
 5844              		.loc 1 1781 65
 5845 0e18 7B68     		ldr	r3, [r7, #4]
 5846 0e1a 1B8D     		ldrh	r3, [r3, #40]
 5847              		.loc 1 1781 60
 5848 0e1c 1344     		add	r3, r3, r2
 5849 0e1e 99B2     		uxth	r1, r3
 5850              		.loc 1 1781 39
 5851 0e20 3C4B     		ldr	r3, .L361
 5852 0e22 1B68     		ldr	r3, [r3]
 5853 0e24 9AB2     		uxth	r2, r3
 5854              		.loc 1 1781 25
 5855 0e26 BB6B     		ldr	r3, [r7, #56]
 5856 0e28 1B68     		ldr	r3, [r3]
 5857              		.loc 1 1781 39
 5858 0e2a 8A1A     		subs	r2, r1, r2
 5859 0e2c 92B2     		uxth	r2, r2
 5860              		.loc 1 1781 37
 5861 0e2e 1A81     		strh	r2, [r3, #8]	@ movhi
1782:Middlewares/Third_Party/LwIP/src/core/tcp_in.c ****                     pbuf_realloc(next->next->p, next->next->len);
 5862              		.loc 1 1782 38
 5863 0e30 BB6B     		ldr	r3, [r7, #56]
 5864 0e32 1B68     		ldr	r3, [r3]
 5865              		.loc 1 1782 21
 5866 0e34 5A68     		ldr	r2, [r3, #4]
 5867              		.loc 1 1782 53
 5868 0e36 BB6B     		ldr	r3, [r7, #56]
 5869 0e38 1B68     		ldr	r3, [r3]
 5870              		.loc 1 1782 21
 5871 0e3a 1B89     		ldrh	r3, [r3, #8]
 5872 0e3c 1946     		mov	r1, r3
 5873 0e3e 1046     		mov	r0, r2
 5874 0e40 FFF7FEFF 		bl	pbuf_realloc
1783:Middlewares/Third_Party/LwIP/src/core/tcp_in.c ****                     tcplen = TCP_TCPLEN(next->next);
 5875              		.loc 1 1783 30
 5876 0e44 BB6B     		ldr	r3, [r7, #56]
 5877 0e46 1B68     		ldr	r3, [r3]
 5878 0e48 1C89     		ldrh	r4, [r3, #8]
 5879 0e4a BB6B     		ldr	r3, [r7, #56]
ARM GAS  /tmp/ccWqLOXK.s 			page 140


 5880 0e4c 1B68     		ldr	r3, [r3]
 5881 0e4e DB68     		ldr	r3, [r3, #12]
 5882 0e50 9B89     		ldrh	r3, [r3, #12]	@ unaligned
 5883 0e52 9BB2     		uxth	r3, r3
 5884 0e54 1846     		mov	r0, r3
 5885 0e56 FFF7FEFF 		bl	lwip_htons
 5886 0e5a 0346     		mov	r3, r0
 5887 0e5c DBB2     		uxtb	r3, r3
 5888 0e5e 03F00303 		and	r3, r3, #3
 5889 0e62 002B     		cmp	r3, #0
 5890 0e64 01D0     		beq	.L337
 5891              		.loc 1 1783 30 is_stmt 0 discriminator 1
 5892 0e66 0123     		movs	r3, #1
 5893 0e68 00E0     		b	.L338
 5894              	.L337:
 5895              		.loc 1 1783 30 discriminator 2
 5896 0e6a 0023     		movs	r3, #0
 5897              	.L338:
 5898              		.loc 1 1783 30 discriminator 4
 5899 0e6c 2344     		add	r3, r3, r4
 5900 0e6e 9AB2     		uxth	r2, r3
 5901              		.loc 1 1783 28 is_stmt 1 discriminator 4
 5902 0e70 2A4B     		ldr	r3, .L361+8
 5903 0e72 1A80     		strh	r2, [r3]	@ movhi
1784:Middlewares/Third_Party/LwIP/src/core/tcp_in.c ****                     LWIP_ASSERT("tcp_receive: segment not trimmed correctly to rcv_wnd\n",
 5904              		.loc 1 1784 21 discriminator 4
 5905 0e74 294B     		ldr	r3, .L361+8
 5906 0e76 1B88     		ldrh	r3, [r3]
 5907 0e78 1A46     		mov	r2, r3
 5908 0e7a 264B     		ldr	r3, .L361
 5909 0e7c 1B68     		ldr	r3, [r3]
 5910 0e7e 1A44     		add	r2, r2, r3
 5911 0e80 7B68     		ldr	r3, [r7, #4]
 5912 0e82 5B6A     		ldr	r3, [r3, #36]
 5913 0e84 7968     		ldr	r1, [r7, #4]
 5914 0e86 098D     		ldrh	r1, [r1, #40]
 5915 0e88 0B44     		add	r3, r3, r1
 5916 0e8a 9A42     		cmp	r2, r3
 5917 0e8c 19D0     		beq	.L349
 5918              		.loc 1 1784 21 is_stmt 0 discriminator 1
 5919 0e8e 244B     		ldr	r3, .L361+12
 5920 0e90 40F2F962 		movw	r2, #1785
 5921 0e94 2349     		ldr	r1, .L361+16
 5922 0e96 2448     		ldr	r0, .L361+20
 5923 0e98 FFF7FEFF 		bl	printf
1785:Middlewares/Third_Party/LwIP/src/core/tcp_in.c ****                                 (seqno + tcplen) == (pcb->rcv_nxt + pcb->rcv_wnd));
1786:Middlewares/Third_Party/LwIP/src/core/tcp_in.c ****                   }
1787:Middlewares/Third_Party/LwIP/src/core/tcp_in.c ****                 }
1788:Middlewares/Third_Party/LwIP/src/core/tcp_in.c ****                 break;
 5924              		.loc 1 1788 17 is_stmt 1 discriminator 1
 5925 0e9c 11E0     		b	.L349
 5926              	.L332:
1677:Middlewares/Third_Party/LwIP/src/core/tcp_in.c ****             if (seqno == next->tcphdr->seqno) {
 5927              		.loc 1 1677 54 discriminator 2
 5928 0e9e BB6B     		ldr	r3, [r7, #56]
 5929 0ea0 1B68     		ldr	r3, [r3]
 5930 0ea2 BB63     		str	r3, [r7, #56]
ARM GAS  /tmp/ccWqLOXK.s 			page 141


 5931              	.L321:
1677:Middlewares/Third_Party/LwIP/src/core/tcp_in.c ****             if (seqno == next->tcphdr->seqno) {
 5932              		.loc 1 1677 11 discriminator 1
 5933 0ea4 BB6B     		ldr	r3, [r7, #56]
 5934 0ea6 002B     		cmp	r3, #0
 5935 0ea8 7FF4A4AE 		bne	.L339
 5936 0eac 0AE0     		b	.L320
 5937              	.L344:
1701:Middlewares/Third_Party/LwIP/src/core/tcp_in.c ****               }
 5938              		.loc 1 1701 17
 5939 0eae 00BF     		nop
 5940 0eb0 08E0     		b	.L320
 5941              	.L345:
 5942              	.LBB22:
1696:Middlewares/Third_Party/LwIP/src/core/tcp_in.c ****               } else {
 5943              		.loc 1 1696 17
 5944 0eb2 00BF     		nop
 5945 0eb4 06E0     		b	.L320
 5946              	.L346:
 5947              	.LBE22:
 5948              	.LBB23:
1715:Middlewares/Third_Party/LwIP/src/core/tcp_in.c ****                 }
 5949              		.loc 1 1715 19
 5950 0eb6 00BF     		nop
 5951 0eb8 04E0     		b	.L320
 5952              	.L347:
 5953              	.LBE23:
 5954              	.LBB24:
1736:Middlewares/Third_Party/LwIP/src/core/tcp_in.c ****                 }
 5955              		.loc 1 1736 19
 5956 0eba 00BF     		nop
 5957 0ebc 02E0     		b	.L320
 5958              	.L348:
 5959              	.LBE24:
1760:Middlewares/Third_Party/LwIP/src/core/tcp_in.c ****                 }
 5960              		.loc 1 1760 19
 5961 0ebe 00BF     		nop
 5962 0ec0 00E0     		b	.L320
 5963              	.L349:
 5964              		.loc 1 1788 17
 5965 0ec2 00BF     		nop
 5966              	.L320:
 5967              	.LBE18:
1789:Middlewares/Third_Party/LwIP/src/core/tcp_in.c ****               }
1790:Middlewares/Third_Party/LwIP/src/core/tcp_in.c ****             }
1791:Middlewares/Third_Party/LwIP/src/core/tcp_in.c ****           }
1792:Middlewares/Third_Party/LwIP/src/core/tcp_in.c **** 
1793:Middlewares/Third_Party/LwIP/src/core/tcp_in.c **** #if LWIP_TCP_SACK_OUT
1794:Middlewares/Third_Party/LwIP/src/core/tcp_in.c ****           if (pcb->flags & TF_SACK) {
1795:Middlewares/Third_Party/LwIP/src/core/tcp_in.c ****             if (prev == NULL) {
1796:Middlewares/Third_Party/LwIP/src/core/tcp_in.c ****               /* The new segment is at the beginning. sackbeg should already be set properly.
1797:Middlewares/Third_Party/LwIP/src/core/tcp_in.c ****                  We need to find the right edge. */
1798:Middlewares/Third_Party/LwIP/src/core/tcp_in.c ****               next = pcb->ooseq;
1799:Middlewares/Third_Party/LwIP/src/core/tcp_in.c ****             } else if (prev->next != NULL) {
1800:Middlewares/Third_Party/LwIP/src/core/tcp_in.c ****               /* The new segment was added after 'prev'. If there is a "hole" between 'prev' and 'p
1801:Middlewares/Third_Party/LwIP/src/core/tcp_in.c ****                  we need to move sackbeg. After that we should find the right edge. */
1802:Middlewares/Third_Party/LwIP/src/core/tcp_in.c ****               next = prev->next;
ARM GAS  /tmp/ccWqLOXK.s 			page 142


1803:Middlewares/Third_Party/LwIP/src/core/tcp_in.c ****               if (prev->tcphdr->seqno + prev->len != next->tcphdr->seqno) {
1804:Middlewares/Third_Party/LwIP/src/core/tcp_in.c ****                 sackbeg = next->tcphdr->seqno;
1805:Middlewares/Third_Party/LwIP/src/core/tcp_in.c ****               }
1806:Middlewares/Third_Party/LwIP/src/core/tcp_in.c ****             } else {
1807:Middlewares/Third_Party/LwIP/src/core/tcp_in.c ****               next = NULL;
1808:Middlewares/Third_Party/LwIP/src/core/tcp_in.c ****             }
1809:Middlewares/Third_Party/LwIP/src/core/tcp_in.c ****             if (next != NULL) {
1810:Middlewares/Third_Party/LwIP/src/core/tcp_in.c ****               u32_t sackend = next->tcphdr->seqno;
1811:Middlewares/Third_Party/LwIP/src/core/tcp_in.c ****               for ( ; (next != NULL) && (sackend == next->tcphdr->seqno); next = next->next) {
1812:Middlewares/Third_Party/LwIP/src/core/tcp_in.c ****                 sackend += next->len;
1813:Middlewares/Third_Party/LwIP/src/core/tcp_in.c ****               }
1814:Middlewares/Third_Party/LwIP/src/core/tcp_in.c ****               tcp_add_sack(pcb, sackbeg, sackend);
1815:Middlewares/Third_Party/LwIP/src/core/tcp_in.c ****             }
1816:Middlewares/Third_Party/LwIP/src/core/tcp_in.c ****           }
1817:Middlewares/Third_Party/LwIP/src/core/tcp_in.c **** #endif /* LWIP_TCP_SACK_OUT */
1818:Middlewares/Third_Party/LwIP/src/core/tcp_in.c ****         }
1819:Middlewares/Third_Party/LwIP/src/core/tcp_in.c **** #if defined(TCP_OOSEQ_BYTES_LIMIT) || defined(TCP_OOSEQ_PBUFS_LIMIT)
1820:Middlewares/Third_Party/LwIP/src/core/tcp_in.c ****         {
1821:Middlewares/Third_Party/LwIP/src/core/tcp_in.c ****           /* Check that the data on ooseq doesn't exceed one of the limits
1822:Middlewares/Third_Party/LwIP/src/core/tcp_in.c ****              and throw away everything above that limit. */
1823:Middlewares/Third_Party/LwIP/src/core/tcp_in.c **** #ifdef TCP_OOSEQ_BYTES_LIMIT
1824:Middlewares/Third_Party/LwIP/src/core/tcp_in.c ****           const u32_t ooseq_max_blen = TCP_OOSEQ_BYTES_LIMIT(pcb);
1825:Middlewares/Third_Party/LwIP/src/core/tcp_in.c ****           u32_t ooseq_blen = 0;
1826:Middlewares/Third_Party/LwIP/src/core/tcp_in.c **** #endif
1827:Middlewares/Third_Party/LwIP/src/core/tcp_in.c **** #ifdef TCP_OOSEQ_PBUFS_LIMIT
1828:Middlewares/Third_Party/LwIP/src/core/tcp_in.c ****           const u16_t ooseq_max_qlen = TCP_OOSEQ_PBUFS_LIMIT(pcb);
1829:Middlewares/Third_Party/LwIP/src/core/tcp_in.c ****           u16_t ooseq_qlen = 0;
1830:Middlewares/Third_Party/LwIP/src/core/tcp_in.c **** #endif
1831:Middlewares/Third_Party/LwIP/src/core/tcp_in.c ****           struct tcp_seg *next, *prev = NULL;
1832:Middlewares/Third_Party/LwIP/src/core/tcp_in.c ****           for (next = pcb->ooseq; next != NULL; prev = next, next = next->next) {
1833:Middlewares/Third_Party/LwIP/src/core/tcp_in.c ****             struct pbuf *p = next->p;
1834:Middlewares/Third_Party/LwIP/src/core/tcp_in.c ****             int stop_here = 0;
1835:Middlewares/Third_Party/LwIP/src/core/tcp_in.c **** #ifdef TCP_OOSEQ_BYTES_LIMIT
1836:Middlewares/Third_Party/LwIP/src/core/tcp_in.c ****             ooseq_blen += p->tot_len;
1837:Middlewares/Third_Party/LwIP/src/core/tcp_in.c ****             if (ooseq_blen > ooseq_max_blen) {
1838:Middlewares/Third_Party/LwIP/src/core/tcp_in.c ****               stop_here = 1;
1839:Middlewares/Third_Party/LwIP/src/core/tcp_in.c ****             }
1840:Middlewares/Third_Party/LwIP/src/core/tcp_in.c **** #endif
1841:Middlewares/Third_Party/LwIP/src/core/tcp_in.c **** #ifdef TCP_OOSEQ_PBUFS_LIMIT
1842:Middlewares/Third_Party/LwIP/src/core/tcp_in.c ****             ooseq_qlen += pbuf_clen(p);
1843:Middlewares/Third_Party/LwIP/src/core/tcp_in.c ****             if (ooseq_qlen > ooseq_max_qlen) {
1844:Middlewares/Third_Party/LwIP/src/core/tcp_in.c ****               stop_here = 1;
1845:Middlewares/Third_Party/LwIP/src/core/tcp_in.c ****             }
1846:Middlewares/Third_Party/LwIP/src/core/tcp_in.c **** #endif
1847:Middlewares/Third_Party/LwIP/src/core/tcp_in.c ****             if (stop_here) {
1848:Middlewares/Third_Party/LwIP/src/core/tcp_in.c **** #if LWIP_TCP_SACK_OUT
1849:Middlewares/Third_Party/LwIP/src/core/tcp_in.c ****               if (pcb->flags & TF_SACK) {
1850:Middlewares/Third_Party/LwIP/src/core/tcp_in.c ****                 /* Let's remove all SACKs from next's seqno up. */
1851:Middlewares/Third_Party/LwIP/src/core/tcp_in.c ****                 tcp_remove_sacks_gt(pcb, next->tcphdr->seqno);
1852:Middlewares/Third_Party/LwIP/src/core/tcp_in.c ****               }
1853:Middlewares/Third_Party/LwIP/src/core/tcp_in.c **** #endif /* LWIP_TCP_SACK_OUT */
1854:Middlewares/Third_Party/LwIP/src/core/tcp_in.c ****               /* too much ooseq data, dump this and everything after it */
1855:Middlewares/Third_Party/LwIP/src/core/tcp_in.c ****               tcp_segs_free(next);
1856:Middlewares/Third_Party/LwIP/src/core/tcp_in.c ****               if (prev == NULL) {
1857:Middlewares/Third_Party/LwIP/src/core/tcp_in.c ****                 /* first ooseq segment is too much, dump the whole queue */
1858:Middlewares/Third_Party/LwIP/src/core/tcp_in.c ****                 pcb->ooseq = NULL;
1859:Middlewares/Third_Party/LwIP/src/core/tcp_in.c ****               } else {
ARM GAS  /tmp/ccWqLOXK.s 			page 143


1860:Middlewares/Third_Party/LwIP/src/core/tcp_in.c ****                 /* just dump 'next' and everything after it */
1861:Middlewares/Third_Party/LwIP/src/core/tcp_in.c ****                 prev->next = NULL;
1862:Middlewares/Third_Party/LwIP/src/core/tcp_in.c ****               }
1863:Middlewares/Third_Party/LwIP/src/core/tcp_in.c ****               break;
1864:Middlewares/Third_Party/LwIP/src/core/tcp_in.c ****             }
1865:Middlewares/Third_Party/LwIP/src/core/tcp_in.c ****           }
1866:Middlewares/Third_Party/LwIP/src/core/tcp_in.c ****         }
1867:Middlewares/Third_Party/LwIP/src/core/tcp_in.c **** #endif /* TCP_OOSEQ_BYTES_LIMIT || TCP_OOSEQ_PBUFS_LIMIT */
1868:Middlewares/Third_Party/LwIP/src/core/tcp_in.c **** #endif /* TCP_QUEUE_OOSEQ */
1869:Middlewares/Third_Party/LwIP/src/core/tcp_in.c **** 
1870:Middlewares/Third_Party/LwIP/src/core/tcp_in.c ****         /* We send the ACK packet after we've (potentially) dealt with SACKs,
1871:Middlewares/Third_Party/LwIP/src/core/tcp_in.c ****            so they can be included in the acknowledgment. */
1872:Middlewares/Third_Party/LwIP/src/core/tcp_in.c ****         tcp_send_empty_ack(pcb);
 5968              		.loc 1 1872 9
 5969 0ec4 7868     		ldr	r0, [r7, #4]
 5970 0ec6 FFF7FEFF 		bl	tcp_send_empty_ack
1459:Middlewares/Third_Party/LwIP/src/core/tcp_in.c ****         /* The incoming segment is the next in sequence. We check if
 5971              		.loc 1 1459 10
 5972 0eca 03E0     		b	.L340
 5973              	.L276:
1873:Middlewares/Third_Party/LwIP/src/core/tcp_in.c ****       }
1874:Middlewares/Third_Party/LwIP/src/core/tcp_in.c ****     } else {
1875:Middlewares/Third_Party/LwIP/src/core/tcp_in.c ****       /* The incoming segment is not within the window. */
1876:Middlewares/Third_Party/LwIP/src/core/tcp_in.c ****       tcp_send_empty_ack(pcb);
 5974              		.loc 1 1876 7
 5975 0ecc 7868     		ldr	r0, [r7, #4]
 5976 0ece FFF7FEFF 		bl	tcp_send_empty_ack
1457:Middlewares/Third_Party/LwIP/src/core/tcp_in.c ****                         pcb->rcv_nxt + pcb->rcv_wnd - 1)) {
 5977              		.loc 1 1457 8
 5978 0ed2 1AE0     		b	.L341
 5979              	.L340:
1457:Middlewares/Third_Party/LwIP/src/core/tcp_in.c ****                         pcb->rcv_nxt + pcb->rcv_wnd - 1)) {
 5980              		.loc 1 1457 8 is_stmt 0 discriminator 3
 5981 0ed4 19E0     		b	.L341
 5982              	.L268:
1877:Middlewares/Third_Party/LwIP/src/core/tcp_in.c ****     }
1878:Middlewares/Third_Party/LwIP/src/core/tcp_in.c ****   } else {
1879:Middlewares/Third_Party/LwIP/src/core/tcp_in.c ****     /* Segments with length 0 is taken care of here. Segments that
1880:Middlewares/Third_Party/LwIP/src/core/tcp_in.c ****        fall out of the window are ACKed. */
1881:Middlewares/Third_Party/LwIP/src/core/tcp_in.c ****     if (!TCP_SEQ_BETWEEN(seqno, pcb->rcv_nxt, pcb->rcv_nxt + pcb->rcv_wnd - 1)) {
 5983              		.loc 1 1881 10 is_stmt 1
 5984 0ed6 0F4B     		ldr	r3, .L361
 5985 0ed8 1A68     		ldr	r2, [r3]
 5986 0eda 7B68     		ldr	r3, [r7, #4]
 5987 0edc 5B6A     		ldr	r3, [r3, #36]
 5988 0ede D31A     		subs	r3, r2, r3
 5989              		.loc 1 1881 8
 5990 0ee0 002B     		cmp	r3, #0
 5991 0ee2 0ADB     		blt	.L342
 5992              		.loc 1 1881 10 discriminator 1
 5993 0ee4 0B4B     		ldr	r3, .L361
 5994 0ee6 1A68     		ldr	r2, [r3]
 5995 0ee8 7B68     		ldr	r3, [r7, #4]
 5996 0eea 5B6A     		ldr	r3, [r3, #36]
 5997 0eec 7968     		ldr	r1, [r7, #4]
 5998 0eee 098D     		ldrh	r1, [r1, #40]
 5999 0ef0 0B44     		add	r3, r3, r1
ARM GAS  /tmp/ccWqLOXK.s 			page 144


 6000 0ef2 D31A     		subs	r3, r2, r3
 6001 0ef4 0133     		adds	r3, r3, #1
 6002              		.loc 1 1881 9 discriminator 1
 6003 0ef6 002B     		cmp	r3, #0
 6004 0ef8 07DD     		ble	.L350
 6005              	.L342:
1882:Middlewares/Third_Party/LwIP/src/core/tcp_in.c ****       tcp_ack_now(pcb);
 6006              		.loc 1 1882 7
 6007 0efa 7B68     		ldr	r3, [r7, #4]
 6008 0efc 5B8B     		ldrh	r3, [r3, #26]
 6009 0efe 43F00203 		orr	r3, r3, #2
 6010 0f02 9AB2     		uxth	r2, r3
 6011 0f04 7B68     		ldr	r3, [r7, #4]
 6012 0f06 5A83     		strh	r2, [r3, #26]	@ movhi
1883:Middlewares/Third_Party/LwIP/src/core/tcp_in.c ****     }
1884:Middlewares/Third_Party/LwIP/src/core/tcp_in.c ****   }
1885:Middlewares/Third_Party/LwIP/src/core/tcp_in.c **** }
 6013              		.loc 1 1885 1
 6014 0f08 FFE7     		b	.L350
 6015              	.L341:
 6016              	.L350:
 6017 0f0a 00BF     		nop
 6018 0f0c 5037     		adds	r7, r7, #80
 6019              	.LCFI38:
 6020              		.cfi_def_cfa_offset 16
 6021 0f0e BD46     		mov	sp, r7
 6022              	.LCFI39:
 6023              		.cfi_def_cfa_register 13
 6024              		@ sp needed
 6025 0f10 B0BD     		pop	{r4, r5, r7, pc}
 6026              	.L362:
 6027 0f12 00BF     		.align	2
 6028              	.L361:
 6029 0f14 00000000 		.word	seqno
 6030 0f18 00000000 		.word	inseg
 6031 0f1c 00000000 		.word	tcplen
 6032 0f20 00000000 		.word	.LC0
 6033 0f24 A4030000 		.word	.LC31
 6034 0f28 48000000 		.word	.LC2
 6035              		.cfi_endproc
 6036              	.LFE140:
 6038              		.section	.text.tcp_get_next_optbyte,"ax",%progbits
 6039              		.align	1
 6040              		.syntax unified
 6041              		.thumb
 6042              		.thumb_func
 6043              		.fpu fpv4-sp-d16
 6045              	tcp_get_next_optbyte:
 6046              	.LFB141:
1886:Middlewares/Third_Party/LwIP/src/core/tcp_in.c **** 
1887:Middlewares/Third_Party/LwIP/src/core/tcp_in.c **** static u8_t
1888:Middlewares/Third_Party/LwIP/src/core/tcp_in.c **** tcp_get_next_optbyte(void)
1889:Middlewares/Third_Party/LwIP/src/core/tcp_in.c **** {
 6047              		.loc 1 1889 1
 6048              		.cfi_startproc
 6049              		@ args = 0, pretend = 0, frame = 8
 6050              		@ frame_needed = 1, uses_anonymous_args = 0
ARM GAS  /tmp/ccWqLOXK.s 			page 145


 6051              		@ link register save eliminated.
 6052 0000 80B4     		push	{r7}
 6053              	.LCFI40:
 6054              		.cfi_def_cfa_offset 4
 6055              		.cfi_offset 7, -4
 6056 0002 83B0     		sub	sp, sp, #12
 6057              	.LCFI41:
 6058              		.cfi_def_cfa_offset 16
 6059 0004 00AF     		add	r7, sp, #0
 6060              	.LCFI42:
 6061              		.cfi_def_cfa_register 7
1890:Middlewares/Third_Party/LwIP/src/core/tcp_in.c ****   u16_t optidx = tcp_optidx++;
 6062              		.loc 1 1890 28
 6063 0006 154B     		ldr	r3, .L367
 6064 0008 1B88     		ldrh	r3, [r3]
 6065 000a 5A1C     		adds	r2, r3, #1
 6066 000c 91B2     		uxth	r1, r2
 6067 000e 134A     		ldr	r2, .L367
 6068 0010 1180     		strh	r1, [r2]	@ movhi
 6069              		.loc 1 1890 9
 6070 0012 FB80     		strh	r3, [r7, #6]	@ movhi
1891:Middlewares/Third_Party/LwIP/src/core/tcp_in.c ****   if ((tcphdr_opt2 == NULL) || (optidx < tcphdr_opt1len)) {
 6071              		.loc 1 1891 20
 6072 0014 124B     		ldr	r3, .L367+4
 6073 0016 1B68     		ldr	r3, [r3]
 6074              		.loc 1 1891 6
 6075 0018 002B     		cmp	r3, #0
 6076 001a 04D0     		beq	.L364
 6077              		.loc 1 1891 40 discriminator 1
 6078 001c 114B     		ldr	r3, .L367+8
 6079 001e 1B88     		ldrh	r3, [r3]
 6080              		.loc 1 1891 29 discriminator 1
 6081 0020 FA88     		ldrh	r2, [r7, #6]
 6082 0022 9A42     		cmp	r2, r3
 6083 0024 08D2     		bcs	.L365
 6084              	.L364:
 6085              	.LBB25:
1892:Middlewares/Third_Party/LwIP/src/core/tcp_in.c ****     u8_t *opts = (u8_t *)tcphdr + TCP_HLEN;
 6086              		.loc 1 1892 18
 6087 0026 104B     		ldr	r3, .L367+12
 6088 0028 1B68     		ldr	r3, [r3]
 6089              		.loc 1 1892 11
 6090 002a 1433     		adds	r3, r3, #20
 6091 002c 3B60     		str	r3, [r7]
1893:Middlewares/Third_Party/LwIP/src/core/tcp_in.c ****     return opts[optidx];
 6092              		.loc 1 1893 16
 6093 002e FB88     		ldrh	r3, [r7, #6]
 6094 0030 3A68     		ldr	r2, [r7]
 6095 0032 1344     		add	r3, r3, r2
 6096 0034 1B78     		ldrb	r3, [r3]	@ zero_extendqisi2
 6097 0036 0BE0     		b	.L366
 6098              	.L365:
 6099              	.LBE25:
 6100              	.LBB26:
1894:Middlewares/Third_Party/LwIP/src/core/tcp_in.c ****   } else {
1895:Middlewares/Third_Party/LwIP/src/core/tcp_in.c ****     u8_t idx = (u8_t)(optidx - tcphdr_opt1len);
 6101              		.loc 1 1895 16
ARM GAS  /tmp/ccWqLOXK.s 			page 146


 6102 0038 FB88     		ldrh	r3, [r7, #6]	@ movhi
 6103 003a DAB2     		uxtb	r2, r3
 6104 003c 094B     		ldr	r3, .L367+8
 6105 003e 1B88     		ldrh	r3, [r3]
 6106 0040 DBB2     		uxtb	r3, r3
 6107              		.loc 1 1895 10
 6108 0042 D31A     		subs	r3, r2, r3
 6109 0044 7B71     		strb	r3, [r7, #5]
1896:Middlewares/Third_Party/LwIP/src/core/tcp_in.c ****     return tcphdr_opt2[idx];
 6110              		.loc 1 1896 23
 6111 0046 064B     		ldr	r3, .L367+4
 6112 0048 1A68     		ldr	r2, [r3]
 6113 004a 7B79     		ldrb	r3, [r7, #5]	@ zero_extendqisi2
 6114 004c 1344     		add	r3, r3, r2
 6115 004e 1B78     		ldrb	r3, [r3]	@ zero_extendqisi2
 6116              	.L366:
 6117              	.LBE26:
1897:Middlewares/Third_Party/LwIP/src/core/tcp_in.c ****   }
1898:Middlewares/Third_Party/LwIP/src/core/tcp_in.c **** }
 6118              		.loc 1 1898 1
 6119 0050 1846     		mov	r0, r3
 6120 0052 0C37     		adds	r7, r7, #12
 6121              	.LCFI43:
 6122              		.cfi_def_cfa_offset 4
 6123 0054 BD46     		mov	sp, r7
 6124              	.LCFI44:
 6125              		.cfi_def_cfa_register 13
 6126              		@ sp needed
 6127 0056 5DF8047B 		ldr	r7, [sp], #4
 6128              	.LCFI45:
 6129              		.cfi_restore 7
 6130              		.cfi_def_cfa_offset 0
 6131 005a 7047     		bx	lr
 6132              	.L368:
 6133              		.align	2
 6134              	.L367:
 6135 005c 00000000 		.word	tcp_optidx
 6136 0060 00000000 		.word	tcphdr_opt2
 6137 0064 00000000 		.word	tcphdr_opt1len
 6138 0068 00000000 		.word	tcphdr
 6139              		.cfi_endproc
 6140              	.LFE141:
 6142              		.section	.rodata
 6143 045d 000000   		.align	2
 6144              	.LC35:
 6145 0460 7463705F 		.ascii	"tcp_parseopt: invalid pcb\000"
 6145      70617273 
 6145      656F7074 
 6145      3A20696E 
 6145      76616C69 
 6146              		.section	.text.tcp_parseopt,"ax",%progbits
 6147              		.align	1
 6148              		.syntax unified
 6149              		.thumb
 6150              		.thumb_func
 6151              		.fpu fpv4-sp-d16
 6153              	tcp_parseopt:
ARM GAS  /tmp/ccWqLOXK.s 			page 147


 6154              	.LFB142:
1899:Middlewares/Third_Party/LwIP/src/core/tcp_in.c **** 
1900:Middlewares/Third_Party/LwIP/src/core/tcp_in.c **** /**
1901:Middlewares/Third_Party/LwIP/src/core/tcp_in.c ****  * Parses the options contained in the incoming segment.
1902:Middlewares/Third_Party/LwIP/src/core/tcp_in.c ****  *
1903:Middlewares/Third_Party/LwIP/src/core/tcp_in.c ****  * Called from tcp_listen_input() and tcp_process().
1904:Middlewares/Third_Party/LwIP/src/core/tcp_in.c ****  * Currently, only the MSS option is supported!
1905:Middlewares/Third_Party/LwIP/src/core/tcp_in.c ****  *
1906:Middlewares/Third_Party/LwIP/src/core/tcp_in.c ****  * @param pcb the tcp_pcb for which a segment arrived
1907:Middlewares/Third_Party/LwIP/src/core/tcp_in.c ****  */
1908:Middlewares/Third_Party/LwIP/src/core/tcp_in.c **** static void
1909:Middlewares/Third_Party/LwIP/src/core/tcp_in.c **** tcp_parseopt(struct tcp_pcb *pcb)
1910:Middlewares/Third_Party/LwIP/src/core/tcp_in.c **** {
 6155              		.loc 1 1910 1
 6156              		.cfi_startproc
 6157              		@ args = 0, pretend = 0, frame = 16
 6158              		@ frame_needed = 1, uses_anonymous_args = 0
 6159 0000 80B5     		push	{r7, lr}
 6160              	.LCFI46:
 6161              		.cfi_def_cfa_offset 8
 6162              		.cfi_offset 7, -8
 6163              		.cfi_offset 14, -4
 6164 0002 84B0     		sub	sp, sp, #16
 6165              	.LCFI47:
 6166              		.cfi_def_cfa_offset 24
 6167 0004 00AF     		add	r7, sp, #0
 6168              	.LCFI48:
 6169              		.cfi_def_cfa_register 7
 6170 0006 7860     		str	r0, [r7, #4]
1911:Middlewares/Third_Party/LwIP/src/core/tcp_in.c ****   u8_t data;
1912:Middlewares/Third_Party/LwIP/src/core/tcp_in.c ****   u16_t mss;
1913:Middlewares/Third_Party/LwIP/src/core/tcp_in.c **** #if LWIP_TCP_TIMESTAMPS
1914:Middlewares/Third_Party/LwIP/src/core/tcp_in.c ****   u32_t tsval;
1915:Middlewares/Third_Party/LwIP/src/core/tcp_in.c **** #endif
1916:Middlewares/Third_Party/LwIP/src/core/tcp_in.c **** 
1917:Middlewares/Third_Party/LwIP/src/core/tcp_in.c ****   LWIP_ASSERT("tcp_parseopt: invalid pcb", pcb != NULL);
 6171              		.loc 1 1917 3
 6172 0008 7B68     		ldr	r3, [r7, #4]
 6173 000a 002B     		cmp	r3, #0
 6174 000c 06D1     		bne	.L370
 6175              		.loc 1 1917 3 is_stmt 0 discriminator 1
 6176 000e 304B     		ldr	r3, .L384
 6177 0010 40F27D72 		movw	r2, #1917
 6178 0014 2F49     		ldr	r1, .L384+4
 6179 0016 3048     		ldr	r0, .L384+8
 6180 0018 FFF7FEFF 		bl	printf
 6181              	.L370:
1918:Middlewares/Third_Party/LwIP/src/core/tcp_in.c **** 
1919:Middlewares/Third_Party/LwIP/src/core/tcp_in.c ****   /* Parse the TCP MSS option, if present. */
1920:Middlewares/Third_Party/LwIP/src/core/tcp_in.c ****   if (tcphdr_optlen != 0) {
 6182              		.loc 1 1920 21 is_stmt 1
 6183 001c 2F4B     		ldr	r3, .L384+12
 6184 001e 1B88     		ldrh	r3, [r3]
 6185              		.loc 1 1920 6
 6186 0020 002B     		cmp	r3, #0
 6187 0022 51D0     		beq	.L369
1921:Middlewares/Third_Party/LwIP/src/core/tcp_in.c ****     for (tcp_optidx = 0; tcp_optidx < tcphdr_optlen; ) {
ARM GAS  /tmp/ccWqLOXK.s 			page 148


 6188              		.loc 1 1921 21
 6189 0024 2E4B     		ldr	r3, .L384+16
 6190 0026 0022     		movs	r2, #0
 6191 0028 1A80     		strh	r2, [r3]	@ movhi
 6192              		.loc 1 1921 5
 6193 002a 43E0     		b	.L372
 6194              	.L381:
 6195              	.LBB27:
1922:Middlewares/Third_Party/LwIP/src/core/tcp_in.c ****       u8_t opt = tcp_get_next_optbyte();
 6196              		.loc 1 1922 18
 6197 002c FFF7FEFF 		bl	tcp_get_next_optbyte
 6198 0030 0346     		mov	r3, r0
 6199 0032 FB73     		strb	r3, [r7, #15]
1923:Middlewares/Third_Party/LwIP/src/core/tcp_in.c ****       switch (opt) {
 6200              		.loc 1 1923 7
 6201 0034 FB7B     		ldrb	r3, [r7, #15]	@ zero_extendqisi2
 6202 0036 012B     		cmp	r3, #1
 6203 0038 3CD0     		beq	.L372
 6204 003a 022B     		cmp	r3, #2
 6205 003c 02D0     		beq	.L374
 6206 003e 002B     		cmp	r3, #0
 6207 0040 27D1     		bne	.L375
1924:Middlewares/Third_Party/LwIP/src/core/tcp_in.c ****         case LWIP_TCP_OPT_EOL:
1925:Middlewares/Third_Party/LwIP/src/core/tcp_in.c ****           /* End of options. */
1926:Middlewares/Third_Party/LwIP/src/core/tcp_in.c ****           LWIP_DEBUGF(TCP_INPUT_DEBUG, ("tcp_parseopt: EOL\n"));
1927:Middlewares/Third_Party/LwIP/src/core/tcp_in.c ****           return;
 6208              		.loc 1 1927 11
 6209 0042 41E0     		b	.L369
 6210              	.L374:
1928:Middlewares/Third_Party/LwIP/src/core/tcp_in.c ****         case LWIP_TCP_OPT_NOP:
1929:Middlewares/Third_Party/LwIP/src/core/tcp_in.c ****           /* NOP option. */
1930:Middlewares/Third_Party/LwIP/src/core/tcp_in.c ****           LWIP_DEBUGF(TCP_INPUT_DEBUG, ("tcp_parseopt: NOP\n"));
1931:Middlewares/Third_Party/LwIP/src/core/tcp_in.c ****           break;
1932:Middlewares/Third_Party/LwIP/src/core/tcp_in.c ****         case LWIP_TCP_OPT_MSS:
1933:Middlewares/Third_Party/LwIP/src/core/tcp_in.c ****           LWIP_DEBUGF(TCP_INPUT_DEBUG, ("tcp_parseopt: MSS\n"));
1934:Middlewares/Third_Party/LwIP/src/core/tcp_in.c ****           if (tcp_get_next_optbyte() != LWIP_TCP_OPT_LEN_MSS || (tcp_optidx - 2 + LWIP_TCP_OPT_LEN_
 6211              		.loc 1 1934 15
 6212 0044 FFF7FEFF 		bl	tcp_get_next_optbyte
 6213 0048 0346     		mov	r3, r0
 6214              		.loc 1 1934 14
 6215 004a 042B     		cmp	r3, #4
 6216 004c 39D1     		bne	.L382
 6217              		.loc 1 1934 105 discriminator 1
 6218 004e 244B     		ldr	r3, .L384+16
 6219 0050 1B88     		ldrh	r3, [r3]
 6220 0052 0133     		adds	r3, r3, #1
 6221 0054 214A     		ldr	r2, .L384+12
 6222 0056 1288     		ldrh	r2, [r2]
 6223              		.loc 1 1934 62 discriminator 1
 6224 0058 9342     		cmp	r3, r2
 6225 005a 32DA     		bge	.L382
1935:Middlewares/Third_Party/LwIP/src/core/tcp_in.c ****             /* Bad length */
1936:Middlewares/Third_Party/LwIP/src/core/tcp_in.c ****             LWIP_DEBUGF(TCP_INPUT_DEBUG, ("tcp_parseopt: bad length\n"));
1937:Middlewares/Third_Party/LwIP/src/core/tcp_in.c ****             return;
1938:Middlewares/Third_Party/LwIP/src/core/tcp_in.c ****           }
1939:Middlewares/Third_Party/LwIP/src/core/tcp_in.c ****           /* An MSS option with the right option length. */
1940:Middlewares/Third_Party/LwIP/src/core/tcp_in.c ****           mss = (u16_t)(tcp_get_next_optbyte() << 8);
ARM GAS  /tmp/ccWqLOXK.s 			page 149


 6226              		.loc 1 1940 25
 6227 005c FFF7FEFF 		bl	tcp_get_next_optbyte
 6228 0060 0346     		mov	r3, r0
 6229 0062 9BB2     		uxth	r3, r3
 6230              		.loc 1 1940 15
 6231 0064 1B02     		lsls	r3, r3, #8
 6232 0066 BB81     		strh	r3, [r7, #12]	@ movhi
1941:Middlewares/Third_Party/LwIP/src/core/tcp_in.c ****           mss |= tcp_get_next_optbyte();
 6233              		.loc 1 1941 18
 6234 0068 FFF7FEFF 		bl	tcp_get_next_optbyte
 6235 006c 0346     		mov	r3, r0
 6236 006e 9AB2     		uxth	r2, r3
 6237              		.loc 1 1941 15
 6238 0070 BB89     		ldrh	r3, [r7, #12]	@ movhi
 6239 0072 1343     		orrs	r3, r3, r2
 6240 0074 BB81     		strh	r3, [r7, #12]	@ movhi
1942:Middlewares/Third_Party/LwIP/src/core/tcp_in.c ****           /* Limit the mss to the configured TCP_MSS and prevent division by zero */
1943:Middlewares/Third_Party/LwIP/src/core/tcp_in.c ****           pcb->mss = ((mss > TCP_MSS) || (mss == 0)) ? TCP_MSS : mss;
 6241              		.loc 1 1943 20
 6242 0076 BB89     		ldrh	r3, [r7, #12]
 6243 0078 B3F5067F 		cmp	r3, #536
 6244 007c 04D8     		bhi	.L378
 6245              		.loc 1 1943 39 discriminator 1
 6246 007e BB89     		ldrh	r3, [r7, #12]
 6247 0080 002B     		cmp	r3, #0
 6248 0082 01D0     		beq	.L378
 6249              		.loc 1 1943 20 discriminator 3
 6250 0084 BA89     		ldrh	r2, [r7, #12]
 6251 0086 01E0     		b	.L379
 6252              	.L378:
 6253              		.loc 1 1943 20 is_stmt 0 discriminator 4
 6254 0088 4FF40672 		mov	r2, #536
 6255              	.L379:
 6256              		.loc 1 1943 20 discriminator 6
 6257 008c 7B68     		ldr	r3, [r7, #4]
 6258 008e 5A86     		strh	r2, [r3, #50]	@ movhi
1944:Middlewares/Third_Party/LwIP/src/core/tcp_in.c ****           break;
 6259              		.loc 1 1944 11 is_stmt 1 discriminator 6
 6260 0090 10E0     		b	.L372
 6261              	.L375:
1945:Middlewares/Third_Party/LwIP/src/core/tcp_in.c **** #if LWIP_WND_SCALE
1946:Middlewares/Third_Party/LwIP/src/core/tcp_in.c ****         case LWIP_TCP_OPT_WS:
1947:Middlewares/Third_Party/LwIP/src/core/tcp_in.c ****           LWIP_DEBUGF(TCP_INPUT_DEBUG, ("tcp_parseopt: WND_SCALE\n"));
1948:Middlewares/Third_Party/LwIP/src/core/tcp_in.c ****           if (tcp_get_next_optbyte() != LWIP_TCP_OPT_LEN_WS || (tcp_optidx - 2 + LWIP_TCP_OPT_LEN_W
1949:Middlewares/Third_Party/LwIP/src/core/tcp_in.c ****             /* Bad length */
1950:Middlewares/Third_Party/LwIP/src/core/tcp_in.c ****             LWIP_DEBUGF(TCP_INPUT_DEBUG, ("tcp_parseopt: bad length\n"));
1951:Middlewares/Third_Party/LwIP/src/core/tcp_in.c ****             return;
1952:Middlewares/Third_Party/LwIP/src/core/tcp_in.c ****           }
1953:Middlewares/Third_Party/LwIP/src/core/tcp_in.c ****           /* An WND_SCALE option with the right option length. */
1954:Middlewares/Third_Party/LwIP/src/core/tcp_in.c ****           data = tcp_get_next_optbyte();
1955:Middlewares/Third_Party/LwIP/src/core/tcp_in.c ****           /* If syn was received with wnd scale option,
1956:Middlewares/Third_Party/LwIP/src/core/tcp_in.c ****              activate wnd scale opt, but only if this is not a retransmission */
1957:Middlewares/Third_Party/LwIP/src/core/tcp_in.c ****           if ((flags & TCP_SYN) && !(pcb->flags & TF_WND_SCALE)) {
1958:Middlewares/Third_Party/LwIP/src/core/tcp_in.c ****             pcb->snd_scale = data;
1959:Middlewares/Third_Party/LwIP/src/core/tcp_in.c ****             if (pcb->snd_scale > 14U) {
1960:Middlewares/Third_Party/LwIP/src/core/tcp_in.c ****               pcb->snd_scale = 14U;
1961:Middlewares/Third_Party/LwIP/src/core/tcp_in.c ****             }
ARM GAS  /tmp/ccWqLOXK.s 			page 150


1962:Middlewares/Third_Party/LwIP/src/core/tcp_in.c ****             pcb->rcv_scale = TCP_RCV_SCALE;
1963:Middlewares/Third_Party/LwIP/src/core/tcp_in.c ****             tcp_set_flags(pcb, TF_WND_SCALE);
1964:Middlewares/Third_Party/LwIP/src/core/tcp_in.c ****             /* window scaling is enabled, we can use the full receive window */
1965:Middlewares/Third_Party/LwIP/src/core/tcp_in.c ****             LWIP_ASSERT("window not at default value", pcb->rcv_wnd == TCPWND_MIN16(TCP_WND));
1966:Middlewares/Third_Party/LwIP/src/core/tcp_in.c ****             LWIP_ASSERT("window not at default value", pcb->rcv_ann_wnd == TCPWND_MIN16(TCP_WND));
1967:Middlewares/Third_Party/LwIP/src/core/tcp_in.c ****             pcb->rcv_wnd = pcb->rcv_ann_wnd = TCP_WND;
1968:Middlewares/Third_Party/LwIP/src/core/tcp_in.c ****           }
1969:Middlewares/Third_Party/LwIP/src/core/tcp_in.c ****           break;
1970:Middlewares/Third_Party/LwIP/src/core/tcp_in.c **** #endif /* LWIP_WND_SCALE */
1971:Middlewares/Third_Party/LwIP/src/core/tcp_in.c **** #if LWIP_TCP_TIMESTAMPS
1972:Middlewares/Third_Party/LwIP/src/core/tcp_in.c ****         case LWIP_TCP_OPT_TS:
1973:Middlewares/Third_Party/LwIP/src/core/tcp_in.c ****           LWIP_DEBUGF(TCP_INPUT_DEBUG, ("tcp_parseopt: TS\n"));
1974:Middlewares/Third_Party/LwIP/src/core/tcp_in.c ****           if (tcp_get_next_optbyte() != LWIP_TCP_OPT_LEN_TS || (tcp_optidx - 2 + LWIP_TCP_OPT_LEN_T
1975:Middlewares/Third_Party/LwIP/src/core/tcp_in.c ****             /* Bad length */
1976:Middlewares/Third_Party/LwIP/src/core/tcp_in.c ****             LWIP_DEBUGF(TCP_INPUT_DEBUG, ("tcp_parseopt: bad length\n"));
1977:Middlewares/Third_Party/LwIP/src/core/tcp_in.c ****             return;
1978:Middlewares/Third_Party/LwIP/src/core/tcp_in.c ****           }
1979:Middlewares/Third_Party/LwIP/src/core/tcp_in.c ****           /* TCP timestamp option with valid length */
1980:Middlewares/Third_Party/LwIP/src/core/tcp_in.c ****           tsval = tcp_get_next_optbyte();
1981:Middlewares/Third_Party/LwIP/src/core/tcp_in.c ****           tsval |= (tcp_get_next_optbyte() << 8);
1982:Middlewares/Third_Party/LwIP/src/core/tcp_in.c ****           tsval |= (tcp_get_next_optbyte() << 16);
1983:Middlewares/Third_Party/LwIP/src/core/tcp_in.c ****           tsval |= (tcp_get_next_optbyte() << 24);
1984:Middlewares/Third_Party/LwIP/src/core/tcp_in.c ****           if (flags & TCP_SYN) {
1985:Middlewares/Third_Party/LwIP/src/core/tcp_in.c ****             pcb->ts_recent = lwip_ntohl(tsval);
1986:Middlewares/Third_Party/LwIP/src/core/tcp_in.c ****             /* Enable sending timestamps in every segment now that we know
1987:Middlewares/Third_Party/LwIP/src/core/tcp_in.c ****                the remote host supports it. */
1988:Middlewares/Third_Party/LwIP/src/core/tcp_in.c ****             tcp_set_flags(pcb, TF_TIMESTAMP);
1989:Middlewares/Third_Party/LwIP/src/core/tcp_in.c ****           } else if (TCP_SEQ_BETWEEN(pcb->ts_lastacksent, seqno, seqno + tcplen)) {
1990:Middlewares/Third_Party/LwIP/src/core/tcp_in.c ****             pcb->ts_recent = lwip_ntohl(tsval);
1991:Middlewares/Third_Party/LwIP/src/core/tcp_in.c ****           }
1992:Middlewares/Third_Party/LwIP/src/core/tcp_in.c ****           /* Advance to next option (6 bytes already read) */
1993:Middlewares/Third_Party/LwIP/src/core/tcp_in.c ****           tcp_optidx += LWIP_TCP_OPT_LEN_TS - 6;
1994:Middlewares/Third_Party/LwIP/src/core/tcp_in.c ****           break;
1995:Middlewares/Third_Party/LwIP/src/core/tcp_in.c **** #endif /* LWIP_TCP_TIMESTAMPS */
1996:Middlewares/Third_Party/LwIP/src/core/tcp_in.c **** #if LWIP_TCP_SACK_OUT
1997:Middlewares/Third_Party/LwIP/src/core/tcp_in.c ****         case LWIP_TCP_OPT_SACK_PERM:
1998:Middlewares/Third_Party/LwIP/src/core/tcp_in.c ****           LWIP_DEBUGF(TCP_INPUT_DEBUG, ("tcp_parseopt: SACK_PERM\n"));
1999:Middlewares/Third_Party/LwIP/src/core/tcp_in.c ****           if (tcp_get_next_optbyte() != LWIP_TCP_OPT_LEN_SACK_PERM || (tcp_optidx - 2 + LWIP_TCP_OP
2000:Middlewares/Third_Party/LwIP/src/core/tcp_in.c ****             /* Bad length */
2001:Middlewares/Third_Party/LwIP/src/core/tcp_in.c ****             LWIP_DEBUGF(TCP_INPUT_DEBUG, ("tcp_parseopt: bad length\n"));
2002:Middlewares/Third_Party/LwIP/src/core/tcp_in.c ****             return;
2003:Middlewares/Third_Party/LwIP/src/core/tcp_in.c ****           }
2004:Middlewares/Third_Party/LwIP/src/core/tcp_in.c ****           /* TCP SACK_PERM option with valid length */
2005:Middlewares/Third_Party/LwIP/src/core/tcp_in.c ****           if (flags & TCP_SYN) {
2006:Middlewares/Third_Party/LwIP/src/core/tcp_in.c ****             /* We only set it if we receive it in a SYN (or SYN+ACK) packet */
2007:Middlewares/Third_Party/LwIP/src/core/tcp_in.c ****             tcp_set_flags(pcb, TF_SACK);
2008:Middlewares/Third_Party/LwIP/src/core/tcp_in.c ****           }
2009:Middlewares/Third_Party/LwIP/src/core/tcp_in.c ****           break;
2010:Middlewares/Third_Party/LwIP/src/core/tcp_in.c **** #endif /* LWIP_TCP_SACK_OUT */
2011:Middlewares/Third_Party/LwIP/src/core/tcp_in.c ****         default:
2012:Middlewares/Third_Party/LwIP/src/core/tcp_in.c ****           LWIP_DEBUGF(TCP_INPUT_DEBUG, ("tcp_parseopt: other\n"));
2013:Middlewares/Third_Party/LwIP/src/core/tcp_in.c ****           data = tcp_get_next_optbyte();
 6262              		.loc 1 2013 18
 6263 0092 FFF7FEFF 		bl	tcp_get_next_optbyte
 6264 0096 0346     		mov	r3, r0
 6265 0098 FB72     		strb	r3, [r7, #11]
2014:Middlewares/Third_Party/LwIP/src/core/tcp_in.c ****           if (data < 2) {
ARM GAS  /tmp/ccWqLOXK.s 			page 151


 6266              		.loc 1 2014 14
 6267 009a FB7A     		ldrb	r3, [r7, #11]	@ zero_extendqisi2
 6268 009c 012B     		cmp	r3, #1
 6269 009e 12D9     		bls	.L383
2015:Middlewares/Third_Party/LwIP/src/core/tcp_in.c ****             LWIP_DEBUGF(TCP_INPUT_DEBUG, ("tcp_parseopt: bad length\n"));
2016:Middlewares/Third_Party/LwIP/src/core/tcp_in.c ****             /* If the length field is zero, the options are malformed
2017:Middlewares/Third_Party/LwIP/src/core/tcp_in.c ****                and we don't process them further. */
2018:Middlewares/Third_Party/LwIP/src/core/tcp_in.c ****             return;
2019:Middlewares/Third_Party/LwIP/src/core/tcp_in.c ****           }
2020:Middlewares/Third_Party/LwIP/src/core/tcp_in.c ****           /* All other options have a length field, so that we easily
2021:Middlewares/Third_Party/LwIP/src/core/tcp_in.c ****              can skip past them. */
2022:Middlewares/Third_Party/LwIP/src/core/tcp_in.c ****           tcp_optidx += data - 2;
 6270              		.loc 1 2022 22
 6271 00a0 FB7A     		ldrb	r3, [r7, #11]	@ zero_extendqisi2
 6272 00a2 9AB2     		uxth	r2, r3
 6273 00a4 0E4B     		ldr	r3, .L384+16
 6274 00a6 1B88     		ldrh	r3, [r3]
 6275 00a8 1344     		add	r3, r3, r2
 6276 00aa 9BB2     		uxth	r3, r3
 6277 00ac 023B     		subs	r3, r3, #2
 6278 00ae 9AB2     		uxth	r2, r3
 6279 00b0 0B4B     		ldr	r3, .L384+16
 6280 00b2 1A80     		strh	r2, [r3]	@ movhi
 6281              	.L372:
 6282              	.LBE27:
1921:Middlewares/Third_Party/LwIP/src/core/tcp_in.c ****       u8_t opt = tcp_get_next_optbyte();
 6283              		.loc 1 1921 37 discriminator 1
 6284 00b4 0A4B     		ldr	r3, .L384+16
 6285 00b6 1A88     		ldrh	r2, [r3]
 6286 00b8 084B     		ldr	r3, .L384+12
 6287 00ba 1B88     		ldrh	r3, [r3]
1921:Middlewares/Third_Party/LwIP/src/core/tcp_in.c ****       u8_t opt = tcp_get_next_optbyte();
 6288              		.loc 1 1921 5 discriminator 1
 6289 00bc 9A42     		cmp	r2, r3
 6290 00be B5D3     		bcc	.L381
 6291 00c0 02E0     		b	.L369
 6292              	.L382:
 6293              	.LBB28:
1937:Middlewares/Third_Party/LwIP/src/core/tcp_in.c ****           }
 6294              		.loc 1 1937 13
 6295 00c2 00BF     		nop
 6296 00c4 00E0     		b	.L369
 6297              	.L383:
2018:Middlewares/Third_Party/LwIP/src/core/tcp_in.c ****           }
 6298              		.loc 1 2018 13
 6299 00c6 00BF     		nop
 6300              	.L369:
 6301              	.LBE28:
2023:Middlewares/Third_Party/LwIP/src/core/tcp_in.c ****       }
2024:Middlewares/Third_Party/LwIP/src/core/tcp_in.c ****     }
2025:Middlewares/Third_Party/LwIP/src/core/tcp_in.c ****   }
2026:Middlewares/Third_Party/LwIP/src/core/tcp_in.c **** }
 6302              		.loc 1 2026 1
 6303 00c8 1037     		adds	r7, r7, #16
 6304              	.LCFI49:
 6305              		.cfi_def_cfa_offset 8
 6306 00ca BD46     		mov	sp, r7
ARM GAS  /tmp/ccWqLOXK.s 			page 152


 6307              	.LCFI50:
 6308              		.cfi_def_cfa_register 13
 6309              		@ sp needed
 6310 00cc 80BD     		pop	{r7, pc}
 6311              	.L385:
 6312 00ce 00BF     		.align	2
 6313              	.L384:
 6314 00d0 00000000 		.word	.LC0
 6315 00d4 60040000 		.word	.LC35
 6316 00d8 48000000 		.word	.LC2
 6317 00dc 00000000 		.word	tcphdr_optlen
 6318 00e0 00000000 		.word	tcp_optidx
 6319              		.cfi_endproc
 6320              	.LFE142:
 6322              		.section	.text.tcp_trigger_input_pcb_close,"ax",%progbits
 6323              		.align	1
 6324              		.global	tcp_trigger_input_pcb_close
 6325              		.syntax unified
 6326              		.thumb
 6327              		.thumb_func
 6328              		.fpu fpv4-sp-d16
 6330              	tcp_trigger_input_pcb_close:
 6331              	.LFB143:
2027:Middlewares/Third_Party/LwIP/src/core/tcp_in.c **** 
2028:Middlewares/Third_Party/LwIP/src/core/tcp_in.c **** void
2029:Middlewares/Third_Party/LwIP/src/core/tcp_in.c **** tcp_trigger_input_pcb_close(void)
2030:Middlewares/Third_Party/LwIP/src/core/tcp_in.c **** {
 6332              		.loc 1 2030 1
 6333              		.cfi_startproc
 6334              		@ args = 0, pretend = 0, frame = 0
 6335              		@ frame_needed = 1, uses_anonymous_args = 0
 6336              		@ link register save eliminated.
 6337 0000 80B4     		push	{r7}
 6338              	.LCFI51:
 6339              		.cfi_def_cfa_offset 4
 6340              		.cfi_offset 7, -4
 6341 0002 00AF     		add	r7, sp, #0
 6342              	.LCFI52:
 6343              		.cfi_def_cfa_register 7
2031:Middlewares/Third_Party/LwIP/src/core/tcp_in.c ****   recv_flags |= TF_CLOSED;
 6344              		.loc 1 2031 14
 6345 0004 054B     		ldr	r3, .L387
 6346 0006 1B78     		ldrb	r3, [r3]	@ zero_extendqisi2
 6347 0008 43F01003 		orr	r3, r3, #16
 6348 000c DAB2     		uxtb	r2, r3
 6349 000e 034B     		ldr	r3, .L387
 6350 0010 1A70     		strb	r2, [r3]
2032:Middlewares/Third_Party/LwIP/src/core/tcp_in.c **** }
 6351              		.loc 1 2032 1
 6352 0012 00BF     		nop
 6353 0014 BD46     		mov	sp, r7
 6354              	.LCFI53:
 6355              		.cfi_def_cfa_register 13
 6356              		@ sp needed
 6357 0016 5DF8047B 		ldr	r7, [sp], #4
 6358              	.LCFI54:
 6359              		.cfi_restore 7
ARM GAS  /tmp/ccWqLOXK.s 			page 153


 6360              		.cfi_def_cfa_offset 0
 6361 001a 7047     		bx	lr
 6362              	.L388:
 6363              		.align	2
 6364              	.L387:
 6365 001c 00000000 		.word	recv_flags
 6366              		.cfi_endproc
 6367              	.LFE143:
 6369              		.text
 6370              	.Letext0:
 6371              		.file 2 "/home/mego-ros2/microros_ws/firmware/toolchain/arm-none-eabi/include/machine/_default_typ
 6372              		.file 3 "/home/mego-ros2/microros_ws/firmware/toolchain/arm-none-eabi/include/sys/_stdint.h"
 6373              		.file 4 "Drivers/CMSIS/Include/core_cm4.h"
 6374              		.file 5 "Drivers/CMSIS/Device/ST/STM32F4xx/Include/system_stm32f4xx.h"
 6375              		.file 6 "Drivers/STM32F4xx_HAL_Driver/Inc/stm32f4xx_hal.h"
 6376              		.file 7 "/home/mego-ros2/microros_ws/firmware/toolchain/lib/gcc/arm-none-eabi/8.3.1/include/stddef
 6377              		.file 8 "/home/mego-ros2/microros_ws/firmware/toolchain/arm-none-eabi/include/sys/_types.h"
 6378              		.file 9 "/home/mego-ros2/microros_ws/firmware/toolchain/arm-none-eabi/include/sys/reent.h"
 6379              		.file 10 "/home/mego-ros2/microros_ws/firmware/toolchain/arm-none-eabi/include/sys/lock.h"
 6380              		.file 11 "/home/mego-ros2/microros_ws/firmware/toolchain/arm-none-eabi/include/stdlib.h"
 6381              		.file 12 "Middlewares/Third_Party/LwIP/src/include/lwip/arch.h"
 6382              		.file 13 "/home/mego-ros2/microros_ws/firmware/toolchain/arm-none-eabi/include/ctype.h"
 6383              		.file 14 "Middlewares/Third_Party/LwIP/src/include/lwip/tcpbase.h"
 6384              		.file 15 "Middlewares/Third_Party/LwIP/src/include/lwip/err.h"
 6385              		.file 16 "Middlewares/Third_Party/LwIP/src/include/lwip/pbuf.h"
 6386              		.file 17 "Middlewares/Third_Party/LwIP/src/include/lwip/ip4_addr.h"
 6387              		.file 18 "Middlewares/Third_Party/LwIP/src/include/lwip/ip_addr.h"
 6388              		.file 19 "Middlewares/Third_Party/LwIP/src/include/lwip/memp.h"
 6389              		.file 20 "Middlewares/Third_Party/LwIP/src/include/lwip/priv/memp_priv.h"
 6390              		.file 21 "Middlewares/Third_Party/LwIP/src/include/lwip/netif.h"
 6391              		.file 22 "Middlewares/Third_Party/LwIP/src/include/lwip/prot/ip4.h"
 6392              		.file 23 "Middlewares/Third_Party/LwIP/src/include/lwip/ip.h"
 6393              		.file 24 "Middlewares/Third_Party/LwIP/src/include/lwip/tcp.h"
 6394              		.file 25 "Middlewares/Third_Party/LwIP/src/include/lwip/priv/tcp_priv.h"
 6395              		.file 26 "Middlewares/Third_Party/LwIP/src/include/lwip/prot/tcp.h"
ARM GAS  /tmp/ccWqLOXK.s 			page 154


DEFINED SYMBOLS
                            *ABS*:0000000000000000 tcp_in.c
     /tmp/ccWqLOXK.s:18     .bss.inseg:0000000000000000 $d
     /tmp/ccWqLOXK.s:21     .bss.inseg:0000000000000000 inseg
     /tmp/ccWqLOXK.s:24     .bss.tcphdr:0000000000000000 $d
     /tmp/ccWqLOXK.s:27     .bss.tcphdr:0000000000000000 tcphdr
     /tmp/ccWqLOXK.s:30     .bss.tcphdr_optlen:0000000000000000 $d
     /tmp/ccWqLOXK.s:33     .bss.tcphdr_optlen:0000000000000000 tcphdr_optlen
     /tmp/ccWqLOXK.s:36     .bss.tcphdr_opt1len:0000000000000000 $d
     /tmp/ccWqLOXK.s:39     .bss.tcphdr_opt1len:0000000000000000 tcphdr_opt1len
     /tmp/ccWqLOXK.s:42     .bss.tcphdr_opt2:0000000000000000 $d
     /tmp/ccWqLOXK.s:45     .bss.tcphdr_opt2:0000000000000000 tcphdr_opt2
     /tmp/ccWqLOXK.s:48     .bss.tcp_optidx:0000000000000000 $d
     /tmp/ccWqLOXK.s:51     .bss.tcp_optidx:0000000000000000 tcp_optidx
     /tmp/ccWqLOXK.s:54     .bss.seqno:0000000000000000 $d
     /tmp/ccWqLOXK.s:57     .bss.seqno:0000000000000000 seqno
     /tmp/ccWqLOXK.s:60     .bss.ackno:0000000000000000 $d
     /tmp/ccWqLOXK.s:63     .bss.ackno:0000000000000000 ackno
     /tmp/ccWqLOXK.s:66     .bss.recv_acked:0000000000000000 $d
     /tmp/ccWqLOXK.s:69     .bss.recv_acked:0000000000000000 recv_acked
     /tmp/ccWqLOXK.s:72     .bss.tcplen:0000000000000000 $d
     /tmp/ccWqLOXK.s:75     .bss.tcplen:0000000000000000 tcplen
     /tmp/ccWqLOXK.s:80     .bss.flags:0000000000000000 flags
     /tmp/ccWqLOXK.s:81     .bss.flags:0000000000000000 $d
     /tmp/ccWqLOXK.s:85     .bss.recv_flags:0000000000000000 recv_flags
     /tmp/ccWqLOXK.s:86     .bss.recv_flags:0000000000000000 $d
     /tmp/ccWqLOXK.s:88     .bss.recv_data:0000000000000000 $d
     /tmp/ccWqLOXK.s:91     .bss.recv_data:0000000000000000 recv_data
                            *COM*:0000000000000004 tcp_input_pcb
     /tmp/ccWqLOXK.s:95     .rodata:0000000000000000 $d
     /tmp/ccWqLOXK.s:135    .text.tcp_input:0000000000000000 $t
     /tmp/ccWqLOXK.s:143    .text.tcp_input:0000000000000000 tcp_input
     /tmp/ccWqLOXK.s:559    .text.tcp_input:0000000000000280 $d
     /tmp/ccWqLOXK.s:580    .text.tcp_input:00000000000002cc $t
     /tmp/ccWqLOXK.s:1881   .text.tcp_timewait_input:0000000000000000 tcp_timewait_input
     /tmp/ccWqLOXK.s:1551   .text.tcp_listen_input:0000000000000000 tcp_listen_input
     /tmp/ccWqLOXK.s:990    .text.tcp_input:0000000000000524 $d
     /tmp/ccWqLOXK.s:1008   .text.tcp_input:0000000000000564 $t
     /tmp/ccWqLOXK.s:2065   .text.tcp_process:0000000000000000 tcp_process
     /tmp/ccWqLOXK.s:1446   .text.tcp_input_delayed_close:0000000000000000 tcp_input_delayed_close
     /tmp/ccWqLOXK.s:1417   .text.tcp_input:00000000000007d8 $d
     /tmp/ccWqLOXK.s:1440   .text.tcp_input_delayed_close:0000000000000000 $t
     /tmp/ccWqLOXK.s:1532   .text.tcp_input_delayed_close:000000000000006c $d
     /tmp/ccWqLOXK.s:1545   .text.tcp_listen_input:0000000000000000 $t
     /tmp/ccWqLOXK.s:6153   .text.tcp_parseopt:0000000000000000 tcp_parseopt
     /tmp/ccWqLOXK.s:1854   .text.tcp_listen_input:00000000000001c8 $d
     /tmp/ccWqLOXK.s:1875   .text.tcp_timewait_input:0000000000000000 $t
     /tmp/ccWqLOXK.s:2028   .text.tcp_timewait_input:00000000000000cc $d
     /tmp/ccWqLOXK.s:2059   .text.tcp_process:0000000000000000 $t
     /tmp/ccWqLOXK.s:2274   .text.tcp_process:0000000000000138 $d
     /tmp/ccWqLOXK.s:2282   .text.tcp_process:0000000000000158 $t
     /tmp/ccWqLOXK.s:2485   .text.tcp_process:00000000000002ac $d
     /tmp/ccWqLOXK.s:2499   .text.tcp_process:00000000000002dc $t
     /tmp/ccWqLOXK.s:3711   .text.tcp_receive:0000000000000000 tcp_receive
     /tmp/ccWqLOXK.s:2931   .text.tcp_process:00000000000005a4 $d
     /tmp/ccWqLOXK.s:2946   .text.tcp_process:00000000000005d8 $t
     /tmp/ccWqLOXK.s:3288   .text.tcp_process:00000000000007c8 $d
ARM GAS  /tmp/ccWqLOXK.s 			page 155


     /tmp/ccWqLOXK.s:3302   .text.tcp_oos_insert_segment:0000000000000000 $t
     /tmp/ccWqLOXK.s:3308   .text.tcp_oos_insert_segment:0000000000000000 tcp_oos_insert_segment
     /tmp/ccWqLOXK.s:3482   .text.tcp_oos_insert_segment:0000000000000100 $d
     /tmp/ccWqLOXK.s:3497   .text.tcp_free_acked_segments:0000000000000000 $t
     /tmp/ccWqLOXK.s:3503   .text.tcp_free_acked_segments:0000000000000000 tcp_free_acked_segments
     /tmp/ccWqLOXK.s:3659   .text.tcp_free_acked_segments:00000000000000e0 $d
     /tmp/ccWqLOXK.s:3705   .text.tcp_receive:0000000000000000 $t
     /tmp/ccWqLOXK.s:4134   .text.tcp_receive:00000000000002ac $d
     /tmp/ccWqLOXK.s:4146   .text.tcp_receive:00000000000002d0 $t
     /tmp/ccWqLOXK.s:4592   .text.tcp_receive:00000000000005cc $d
     /tmp/ccWqLOXK.s:4607   .text.tcp_receive:0000000000000600 $t
     /tmp/ccWqLOXK.s:4986   .text.tcp_receive:0000000000000884 $d
     /tmp/ccWqLOXK.s:4994   .text.tcp_receive:000000000000089c $t
     /tmp/ccWqLOXK.s:5373   .text.tcp_receive:0000000000000b04 $d
     /tmp/ccWqLOXK.s:5385   .text.tcp_receive:0000000000000b2c $t
     /tmp/ccWqLOXK.s:5685   .text.tcp_receive:0000000000000cf4 $d
     /tmp/ccWqLOXK.s:5692   .text.tcp_receive:0000000000000d04 $t
     /tmp/ccWqLOXK.s:6029   .text.tcp_receive:0000000000000f14 $d
     /tmp/ccWqLOXK.s:6039   .text.tcp_get_next_optbyte:0000000000000000 $t
     /tmp/ccWqLOXK.s:6045   .text.tcp_get_next_optbyte:0000000000000000 tcp_get_next_optbyte
     /tmp/ccWqLOXK.s:6135   .text.tcp_get_next_optbyte:000000000000005c $d
     /tmp/ccWqLOXK.s:6147   .text.tcp_parseopt:0000000000000000 $t
     /tmp/ccWqLOXK.s:6314   .text.tcp_parseopt:00000000000000d0 $d
     /tmp/ccWqLOXK.s:6323   .text.tcp_trigger_input_pcb_close:0000000000000000 $t
     /tmp/ccWqLOXK.s:6330   .text.tcp_trigger_input_pcb_close:0000000000000000 tcp_trigger_input_pcb_close
     /tmp/ccWqLOXK.s:6365   .text.tcp_trigger_input_pcb_close:000000000000001c $d

UNDEFINED SYMBOLS
printf
ip4_addr_isbroadcast_u32
lwip_htons
pbuf_remove_header
lwip_htonl
ip_data
tcp_active_pcbs
pbuf_free
tcp_process_refused_data
tcp_send_empty_ack
tcp_tw_pcbs
tcp_listen_pcbs
tcp_pcb_remove
tcp_free
tcp_abort
tcp_recv_null
tcp_output
tcp_rst
tcp_alloc
tcp_next_iss
tcp_timer_needed
ip4_route
tcp_eff_send_mss_netif
tcp_enqueue_flags
tcp_abandon
tcp_active_pcbs_changed
tcp_ticks
tcp_seg_free
tcp_rexmit_rto
ARM GAS  /tmp/ccWqLOXK.s 			page 156


tcp_rexmit
tcp_pcb_purge
tcp_segs_free
pbuf_realloc
pbuf_clen
tcp_rexmit_fast
tcp_update_rcv_ann_wnd
pbuf_cat
tcp_seg_copy
