ARM GAS  /tmp/ccI5hTuN.s 			page 1


   1              		.cpu cortex-m4
   2              		.eabi_attribute 27, 1
   3              		.eabi_attribute 28, 1
   4              		.eabi_attribute 20, 1
   5              		.eabi_attribute 21, 1
   6              		.eabi_attribute 23, 3
   7              		.eabi_attribute 24, 1
   8              		.eabi_attribute 25, 1
   9              		.eabi_attribute 26, 1
  10              		.eabi_attribute 30, 6
  11              		.eabi_attribute 34, 1
  12              		.eabi_attribute 18, 4
  13              		.file	"udp.c"
  14              		.text
  15              	.Ltext0:
  16              		.cfi_sections	.debug_frame
  17              		.section	.data.udp_port,"aw"
  18              		.align	1
  21              	udp_port:
  22 0000 00C0     		.short	-16384
  23              		.comm	udp_pcbs,4,4
  24              		.section	.text.udp_init,"ax",%progbits
  25              		.align	1
  26              		.global	udp_init
  27              		.arch armv7e-m
  28              		.syntax unified
  29              		.thumb
  30              		.thumb_func
  31              		.fpu fpv4-sp-d16
  33              	udp_init:
  34              	.LFB133:
  35              		.file 1 "Middlewares/Third_Party/LwIP/src/core/udp.c"
   1:Middlewares/Third_Party/LwIP/src/core/udp.c **** /**
   2:Middlewares/Third_Party/LwIP/src/core/udp.c ****  * @file
   3:Middlewares/Third_Party/LwIP/src/core/udp.c ****  * User Datagram Protocol module\n
   4:Middlewares/Third_Party/LwIP/src/core/udp.c ****  * The code for the User Datagram Protocol UDP & UDPLite (RFC 3828).\n
   5:Middlewares/Third_Party/LwIP/src/core/udp.c ****  * See also @ref udp_raw
   6:Middlewares/Third_Party/LwIP/src/core/udp.c ****  *
   7:Middlewares/Third_Party/LwIP/src/core/udp.c ****  * @defgroup udp_raw UDP
   8:Middlewares/Third_Party/LwIP/src/core/udp.c ****  * @ingroup callbackstyle_api
   9:Middlewares/Third_Party/LwIP/src/core/udp.c ****  * User Datagram Protocol module\n
  10:Middlewares/Third_Party/LwIP/src/core/udp.c ****  * @see @ref api
  11:Middlewares/Third_Party/LwIP/src/core/udp.c ****  */
  12:Middlewares/Third_Party/LwIP/src/core/udp.c **** 
  13:Middlewares/Third_Party/LwIP/src/core/udp.c **** /*
  14:Middlewares/Third_Party/LwIP/src/core/udp.c ****  * Copyright (c) 2001-2004 Swedish Institute of Computer Science.
  15:Middlewares/Third_Party/LwIP/src/core/udp.c ****  * All rights reserved.
  16:Middlewares/Third_Party/LwIP/src/core/udp.c ****  *
  17:Middlewares/Third_Party/LwIP/src/core/udp.c ****  * Redistribution and use in source and binary forms, with or without modification,
  18:Middlewares/Third_Party/LwIP/src/core/udp.c ****  * are permitted provided that the following conditions are met:
  19:Middlewares/Third_Party/LwIP/src/core/udp.c ****  *
  20:Middlewares/Third_Party/LwIP/src/core/udp.c ****  * 1. Redistributions of source code must retain the above copyright notice,
  21:Middlewares/Third_Party/LwIP/src/core/udp.c ****  *    this list of conditions and the following disclaimer.
  22:Middlewares/Third_Party/LwIP/src/core/udp.c ****  * 2. Redistributions in binary form must reproduce the above copyright notice,
  23:Middlewares/Third_Party/LwIP/src/core/udp.c ****  *    this list of conditions and the following disclaimer in the documentation
  24:Middlewares/Third_Party/LwIP/src/core/udp.c ****  *    and/or other materials provided with the distribution.
  25:Middlewares/Third_Party/LwIP/src/core/udp.c ****  * 3. The name of the author may not be used to endorse or promote products
ARM GAS  /tmp/ccI5hTuN.s 			page 2


  26:Middlewares/Third_Party/LwIP/src/core/udp.c ****  *    derived from this software without specific prior written permission.
  27:Middlewares/Third_Party/LwIP/src/core/udp.c ****  *
  28:Middlewares/Third_Party/LwIP/src/core/udp.c ****  * THIS SOFTWARE IS PROVIDED BY THE AUTHOR ``AS IS'' AND ANY EXPRESS OR IMPLIED
  29:Middlewares/Third_Party/LwIP/src/core/udp.c ****  * WARRANTIES, INCLUDING, BUT NOT LIMITED TO, THE IMPLIED WARRANTIES OF
  30:Middlewares/Third_Party/LwIP/src/core/udp.c ****  * MERCHANTABILITY AND FITNESS FOR A PARTICULAR PURPOSE ARE DISCLAIMED. IN NO EVENT
  31:Middlewares/Third_Party/LwIP/src/core/udp.c ****  * SHALL THE AUTHOR BE LIABLE FOR ANY DIRECT, INDIRECT, INCIDENTAL, SPECIAL,
  32:Middlewares/Third_Party/LwIP/src/core/udp.c ****  * EXEMPLARY, OR CONSEQUENTIAL DAMAGES (INCLUDING, BUT NOT LIMITED TO, PROCUREMENT
  33:Middlewares/Third_Party/LwIP/src/core/udp.c ****  * OF SUBSTITUTE GOODS OR SERVICES; LOSS OF USE, DATA, OR PROFITS; OR BUSINESS
  34:Middlewares/Third_Party/LwIP/src/core/udp.c ****  * INTERRUPTION) HOWEVER CAUSED AND ON ANY THEORY OF LIABILITY, WHETHER IN
  35:Middlewares/Third_Party/LwIP/src/core/udp.c ****  * CONTRACT, STRICT LIABILITY, OR TORT (INCLUDING NEGLIGENCE OR OTHERWISE) ARISING
  36:Middlewares/Third_Party/LwIP/src/core/udp.c ****  * IN ANY WAY OUT OF THE USE OF THIS SOFTWARE, EVEN IF ADVISED OF THE POSSIBILITY
  37:Middlewares/Third_Party/LwIP/src/core/udp.c ****  * OF SUCH DAMAGE.
  38:Middlewares/Third_Party/LwIP/src/core/udp.c ****  *
  39:Middlewares/Third_Party/LwIP/src/core/udp.c ****  * This file is part of the lwIP TCP/IP stack.
  40:Middlewares/Third_Party/LwIP/src/core/udp.c ****  *
  41:Middlewares/Third_Party/LwIP/src/core/udp.c ****  * Author: Adam Dunkels <adam@sics.se>
  42:Middlewares/Third_Party/LwIP/src/core/udp.c ****  *
  43:Middlewares/Third_Party/LwIP/src/core/udp.c ****  */
  44:Middlewares/Third_Party/LwIP/src/core/udp.c **** 
  45:Middlewares/Third_Party/LwIP/src/core/udp.c **** /* @todo Check the use of '(struct udp_pcb).chksum_len_rx'!
  46:Middlewares/Third_Party/LwIP/src/core/udp.c ****  */
  47:Middlewares/Third_Party/LwIP/src/core/udp.c **** 
  48:Middlewares/Third_Party/LwIP/src/core/udp.c **** #include "lwip/opt.h"
  49:Middlewares/Third_Party/LwIP/src/core/udp.c **** 
  50:Middlewares/Third_Party/LwIP/src/core/udp.c **** #if LWIP_UDP /* don't build if not configured for use in lwipopts.h */
  51:Middlewares/Third_Party/LwIP/src/core/udp.c **** 
  52:Middlewares/Third_Party/LwIP/src/core/udp.c **** #include "lwip/udp.h"
  53:Middlewares/Third_Party/LwIP/src/core/udp.c **** #include "lwip/def.h"
  54:Middlewares/Third_Party/LwIP/src/core/udp.c **** #include "lwip/memp.h"
  55:Middlewares/Third_Party/LwIP/src/core/udp.c **** #include "lwip/inet_chksum.h"
  56:Middlewares/Third_Party/LwIP/src/core/udp.c **** #include "lwip/ip_addr.h"
  57:Middlewares/Third_Party/LwIP/src/core/udp.c **** #include "lwip/ip6.h"
  58:Middlewares/Third_Party/LwIP/src/core/udp.c **** #include "lwip/ip6_addr.h"
  59:Middlewares/Third_Party/LwIP/src/core/udp.c **** #include "lwip/netif.h"
  60:Middlewares/Third_Party/LwIP/src/core/udp.c **** #include "lwip/icmp.h"
  61:Middlewares/Third_Party/LwIP/src/core/udp.c **** #include "lwip/icmp6.h"
  62:Middlewares/Third_Party/LwIP/src/core/udp.c **** #include "lwip/stats.h"
  63:Middlewares/Third_Party/LwIP/src/core/udp.c **** #include "lwip/snmp.h"
  64:Middlewares/Third_Party/LwIP/src/core/udp.c **** #include "lwip/dhcp.h"
  65:Middlewares/Third_Party/LwIP/src/core/udp.c **** 
  66:Middlewares/Third_Party/LwIP/src/core/udp.c **** #include <string.h>
  67:Middlewares/Third_Party/LwIP/src/core/udp.c **** 
  68:Middlewares/Third_Party/LwIP/src/core/udp.c **** #ifndef UDP_LOCAL_PORT_RANGE_START
  69:Middlewares/Third_Party/LwIP/src/core/udp.c **** /* From http://www.iana.org/assignments/port-numbers:
  70:Middlewares/Third_Party/LwIP/src/core/udp.c ****    "The Dynamic and/or Private Ports are those from 49152 through 65535" */
  71:Middlewares/Third_Party/LwIP/src/core/udp.c **** #define UDP_LOCAL_PORT_RANGE_START  0xc000
  72:Middlewares/Third_Party/LwIP/src/core/udp.c **** #define UDP_LOCAL_PORT_RANGE_END    0xffff
  73:Middlewares/Third_Party/LwIP/src/core/udp.c **** #define UDP_ENSURE_LOCAL_PORT_RANGE(port) ((u16_t)(((port) & (u16_t)~UDP_LOCAL_PORT_RANGE_START) + 
  74:Middlewares/Third_Party/LwIP/src/core/udp.c **** #endif
  75:Middlewares/Third_Party/LwIP/src/core/udp.c **** 
  76:Middlewares/Third_Party/LwIP/src/core/udp.c **** /* last local UDP port */
  77:Middlewares/Third_Party/LwIP/src/core/udp.c **** static u16_t udp_port = UDP_LOCAL_PORT_RANGE_START;
  78:Middlewares/Third_Party/LwIP/src/core/udp.c **** 
  79:Middlewares/Third_Party/LwIP/src/core/udp.c **** /* The list of UDP PCBs */
  80:Middlewares/Third_Party/LwIP/src/core/udp.c **** /* exported in udp.h (was static) */
  81:Middlewares/Third_Party/LwIP/src/core/udp.c **** struct udp_pcb *udp_pcbs;
  82:Middlewares/Third_Party/LwIP/src/core/udp.c **** 
ARM GAS  /tmp/ccI5hTuN.s 			page 3


  83:Middlewares/Third_Party/LwIP/src/core/udp.c **** /**
  84:Middlewares/Third_Party/LwIP/src/core/udp.c ****  * Initialize this module.
  85:Middlewares/Third_Party/LwIP/src/core/udp.c ****  */
  86:Middlewares/Third_Party/LwIP/src/core/udp.c **** void
  87:Middlewares/Third_Party/LwIP/src/core/udp.c **** udp_init(void)
  88:Middlewares/Third_Party/LwIP/src/core/udp.c **** {
  36              		.loc 1 88 1
  37              		.cfi_startproc
  38              		@ args = 0, pretend = 0, frame = 0
  39              		@ frame_needed = 1, uses_anonymous_args = 0
  40 0000 80B5     		push	{r7, lr}
  41              	.LCFI0:
  42              		.cfi_def_cfa_offset 8
  43              		.cfi_offset 7, -8
  44              		.cfi_offset 14, -4
  45 0002 00AF     		add	r7, sp, #0
  46              	.LCFI1:
  47              		.cfi_def_cfa_register 7
  89:Middlewares/Third_Party/LwIP/src/core/udp.c **** #ifdef LWIP_RAND
  90:Middlewares/Third_Party/LwIP/src/core/udp.c ****   udp_port = UDP_ENSURE_LOCAL_PORT_RANGE(LWIP_RAND());
  48              		.loc 1 90 14
  49 0004 FFF7FEFF 		bl	rand
  50 0008 0346     		mov	r3, r0
  51 000a 9BB2     		uxth	r3, r3
  52 000c C3F30D03 		ubfx	r3, r3, #0, #14
  53 0010 9BB2     		uxth	r3, r3
  54 0012 A3F58043 		sub	r3, r3, #16384
  55 0016 9AB2     		uxth	r2, r3
  56              		.loc 1 90 12
  57 0018 014B     		ldr	r3, .L2
  58 001a 1A80     		strh	r2, [r3]	@ movhi
  91:Middlewares/Third_Party/LwIP/src/core/udp.c **** #endif /* LWIP_RAND */
  92:Middlewares/Third_Party/LwIP/src/core/udp.c **** }
  59              		.loc 1 92 1
  60 001c 00BF     		nop
  61 001e 80BD     		pop	{r7, pc}
  62              	.L3:
  63              		.align	2
  64              	.L2:
  65 0020 00000000 		.word	udp_port
  66              		.cfi_endproc
  67              	.LFE133:
  69              		.section	.text.udp_new_port,"ax",%progbits
  70              		.align	1
  71              		.syntax unified
  72              		.thumb
  73              		.thumb_func
  74              		.fpu fpv4-sp-d16
  76              	udp_new_port:
  77              	.LFB134:
  93:Middlewares/Third_Party/LwIP/src/core/udp.c **** 
  94:Middlewares/Third_Party/LwIP/src/core/udp.c **** /**
  95:Middlewares/Third_Party/LwIP/src/core/udp.c ****  * Allocate a new local UDP port.
  96:Middlewares/Third_Party/LwIP/src/core/udp.c ****  *
  97:Middlewares/Third_Party/LwIP/src/core/udp.c ****  * @return a new (free) local UDP port number
  98:Middlewares/Third_Party/LwIP/src/core/udp.c ****  */
  99:Middlewares/Third_Party/LwIP/src/core/udp.c **** static u16_t
ARM GAS  /tmp/ccI5hTuN.s 			page 4


 100:Middlewares/Third_Party/LwIP/src/core/udp.c **** udp_new_port(void)
 101:Middlewares/Third_Party/LwIP/src/core/udp.c **** {
  78              		.loc 1 101 1
  79              		.cfi_startproc
  80              		@ args = 0, pretend = 0, frame = 8
  81              		@ frame_needed = 1, uses_anonymous_args = 0
  82              		@ link register save eliminated.
  83 0000 80B4     		push	{r7}
  84              	.LCFI2:
  85              		.cfi_def_cfa_offset 4
  86              		.cfi_offset 7, -4
  87 0002 83B0     		sub	sp, sp, #12
  88              	.LCFI3:
  89              		.cfi_def_cfa_offset 16
  90 0004 00AF     		add	r7, sp, #0
  91              	.LCFI4:
  92              		.cfi_def_cfa_register 7
 102:Middlewares/Third_Party/LwIP/src/core/udp.c ****   u16_t n = 0;
  93              		.loc 1 102 9
  94 0006 0023     		movs	r3, #0
  95 0008 FB80     		strh	r3, [r7, #6]	@ movhi
  96              	.L5:
 103:Middlewares/Third_Party/LwIP/src/core/udp.c ****   struct udp_pcb *pcb;
 104:Middlewares/Third_Party/LwIP/src/core/udp.c **** 
 105:Middlewares/Third_Party/LwIP/src/core/udp.c **** again:
 106:Middlewares/Third_Party/LwIP/src/core/udp.c ****   if (udp_port++ == UDP_LOCAL_PORT_RANGE_END) {
  97              		.loc 1 106 15
  98 000a 174B     		ldr	r3, .L12
  99 000c 1B88     		ldrh	r3, [r3]
 100 000e 5A1C     		adds	r2, r3, #1
 101 0010 91B2     		uxth	r1, r2
 102 0012 154A     		ldr	r2, .L12
 103 0014 1180     		strh	r1, [r2]	@ movhi
 104              		.loc 1 106 6
 105 0016 4FF6FF72 		movw	r2, #65535
 106 001a 9342     		cmp	r3, r2
 107 001c 03D1     		bne	.L6
 107:Middlewares/Third_Party/LwIP/src/core/udp.c ****     udp_port = UDP_LOCAL_PORT_RANGE_START;
 108              		.loc 1 107 14
 109 001e 124B     		ldr	r3, .L12
 110 0020 4FF44042 		mov	r2, #49152
 111 0024 1A80     		strh	r2, [r3]	@ movhi
 112              	.L6:
 108:Middlewares/Third_Party/LwIP/src/core/udp.c ****   }
 109:Middlewares/Third_Party/LwIP/src/core/udp.c ****   /* Check all PCBs. */
 110:Middlewares/Third_Party/LwIP/src/core/udp.c ****   for (pcb = udp_pcbs; pcb != NULL; pcb = pcb->next) {
 113              		.loc 1 110 12
 114 0026 114B     		ldr	r3, .L12+4
 115 0028 1B68     		ldr	r3, [r3]
 116 002a 3B60     		str	r3, [r7]
 117              		.loc 1 110 3
 118 002c 11E0     		b	.L7
 119              	.L11:
 111:Middlewares/Third_Party/LwIP/src/core/udp.c ****     if (pcb->local_port == udp_port) {
 120              		.loc 1 111 12
 121 002e 3B68     		ldr	r3, [r7]
 122 0030 5A8A     		ldrh	r2, [r3, #18]
ARM GAS  /tmp/ccI5hTuN.s 			page 5


 123              		.loc 1 111 25
 124 0032 0D4B     		ldr	r3, .L12
 125 0034 1B88     		ldrh	r3, [r3]
 126              		.loc 1 111 8
 127 0036 9A42     		cmp	r2, r3
 128 0038 08D1     		bne	.L8
 112:Middlewares/Third_Party/LwIP/src/core/udp.c ****       if (++n > (UDP_LOCAL_PORT_RANGE_END - UDP_LOCAL_PORT_RANGE_START)) {
 129              		.loc 1 112 10
 130 003a FB88     		ldrh	r3, [r7, #6]	@ movhi
 131 003c 0133     		adds	r3, r3, #1
 132 003e FB80     		strh	r3, [r7, #6]	@ movhi
 133 0040 FB88     		ldrh	r3, [r7, #6]
 134 0042 B3F5804F 		cmp	r3, #16384
 135 0046 E0D3     		bcc	.L5
 113:Middlewares/Third_Party/LwIP/src/core/udp.c ****         return 0;
 136              		.loc 1 113 16
 137 0048 0023     		movs	r3, #0
 138 004a 07E0     		b	.L10
 139              	.L8:
 110:Middlewares/Third_Party/LwIP/src/core/udp.c ****     if (pcb->local_port == udp_port) {
 140              		.loc 1 110 41 discriminator 2
 141 004c 3B68     		ldr	r3, [r7]
 142 004e DB68     		ldr	r3, [r3, #12]
 143 0050 3B60     		str	r3, [r7]
 144              	.L7:
 110:Middlewares/Third_Party/LwIP/src/core/udp.c ****     if (pcb->local_port == udp_port) {
 145              		.loc 1 110 3 discriminator 1
 146 0052 3B68     		ldr	r3, [r7]
 147 0054 002B     		cmp	r3, #0
 148 0056 EAD1     		bne	.L11
 114:Middlewares/Third_Party/LwIP/src/core/udp.c ****       }
 115:Middlewares/Third_Party/LwIP/src/core/udp.c ****       goto again;
 116:Middlewares/Third_Party/LwIP/src/core/udp.c ****     }
 117:Middlewares/Third_Party/LwIP/src/core/udp.c ****   }
 118:Middlewares/Third_Party/LwIP/src/core/udp.c ****   return udp_port;
 149              		.loc 1 118 10
 150 0058 034B     		ldr	r3, .L12
 151 005a 1B88     		ldrh	r3, [r3]
 152              	.L10:
 119:Middlewares/Third_Party/LwIP/src/core/udp.c **** }
 153              		.loc 1 119 1
 154 005c 1846     		mov	r0, r3
 155 005e 0C37     		adds	r7, r7, #12
 156              	.LCFI5:
 157              		.cfi_def_cfa_offset 4
 158 0060 BD46     		mov	sp, r7
 159              	.LCFI6:
 160              		.cfi_def_cfa_register 13
 161              		@ sp needed
 162 0062 5DF8047B 		ldr	r7, [sp], #4
 163              	.LCFI7:
 164              		.cfi_restore 7
 165              		.cfi_def_cfa_offset 0
 166 0066 7047     		bx	lr
 167              	.L13:
 168              		.align	2
 169              	.L12:
ARM GAS  /tmp/ccI5hTuN.s 			page 6


 170 0068 00000000 		.word	udp_port
 171 006c 00000000 		.word	udp_pcbs
 172              		.cfi_endproc
 173              	.LFE134:
 175              		.section	.rodata
 176              		.align	2
 177              	.LC0:
 178 0000 4D696464 		.ascii	"Middlewares/Third_Party/LwIP/src/core/udp.c\000"
 178      6C657761 
 178      7265732F 
 178      54686972 
 178      645F5061 
 179              		.align	2
 180              	.LC1:
 181 002c 7564705F 		.ascii	"udp_input_local_match: invalid pcb\000"
 181      696E7075 
 181      745F6C6F 
 181      63616C5F 
 181      6D617463 
 182 004f 00       		.align	2
 183              	.LC2:
 184 0050 41737365 		.ascii	"Assertion \"%s\" failed at line %d in %s\012\000"
 184      7274696F 
 184      6E202225 
 184      73222066 
 184      61696C65 
 185              		.align	2
 186              	.LC3:
 187 0078 7564705F 		.ascii	"udp_input_local_match: invalid netif\000"
 187      696E7075 
 187      745F6C6F 
 187      63616C5F 
 187      6D617463 
 188              		.section	.text.udp_input_local_match,"ax",%progbits
 189              		.align	1
 190              		.syntax unified
 191              		.thumb
 192              		.thumb_func
 193              		.fpu fpv4-sp-d16
 195              	udp_input_local_match:
 196              	.LFB135:
 120:Middlewares/Third_Party/LwIP/src/core/udp.c **** 
 121:Middlewares/Third_Party/LwIP/src/core/udp.c **** /** Common code to see if the current input packet matches the pcb
 122:Middlewares/Third_Party/LwIP/src/core/udp.c ****  * (current input packet is accessed via ip(4/6)_current_* macros)
 123:Middlewares/Third_Party/LwIP/src/core/udp.c ****  *
 124:Middlewares/Third_Party/LwIP/src/core/udp.c ****  * @param pcb pcb to check
 125:Middlewares/Third_Party/LwIP/src/core/udp.c ****  * @param inp network interface on which the datagram was received (only used for IPv4)
 126:Middlewares/Third_Party/LwIP/src/core/udp.c ****  * @param broadcast 1 if his is an IPv4 broadcast (global or subnet-only), 0 otherwise (only used f
 127:Middlewares/Third_Party/LwIP/src/core/udp.c ****  * @return 1 on match, 0 otherwise
 128:Middlewares/Third_Party/LwIP/src/core/udp.c ****  */
 129:Middlewares/Third_Party/LwIP/src/core/udp.c **** static u8_t
 130:Middlewares/Third_Party/LwIP/src/core/udp.c **** udp_input_local_match(struct udp_pcb *pcb, struct netif *inp, u8_t broadcast)
 131:Middlewares/Third_Party/LwIP/src/core/udp.c **** {
 197              		.loc 1 131 1
 198              		.cfi_startproc
 199              		@ args = 0, pretend = 0, frame = 16
 200              		@ frame_needed = 1, uses_anonymous_args = 0
ARM GAS  /tmp/ccI5hTuN.s 			page 7


 201 0000 80B5     		push	{r7, lr}
 202              	.LCFI8:
 203              		.cfi_def_cfa_offset 8
 204              		.cfi_offset 7, -8
 205              		.cfi_offset 14, -4
 206 0002 84B0     		sub	sp, sp, #16
 207              	.LCFI9:
 208              		.cfi_def_cfa_offset 24
 209 0004 00AF     		add	r7, sp, #0
 210              	.LCFI10:
 211              		.cfi_def_cfa_register 7
 212 0006 F860     		str	r0, [r7, #12]
 213 0008 B960     		str	r1, [r7, #8]
 214 000a 1346     		mov	r3, r2
 215 000c FB71     		strb	r3, [r7, #7]
 132:Middlewares/Third_Party/LwIP/src/core/udp.c ****   LWIP_UNUSED_ARG(inp);       /* in IPv6 only case */
 133:Middlewares/Third_Party/LwIP/src/core/udp.c ****   LWIP_UNUSED_ARG(broadcast); /* in IPv6 only case */
 134:Middlewares/Third_Party/LwIP/src/core/udp.c **** 
 135:Middlewares/Third_Party/LwIP/src/core/udp.c ****   LWIP_ASSERT("udp_input_local_match: invalid pcb", pcb != NULL);
 216              		.loc 1 135 3
 217 000e FB68     		ldr	r3, [r7, #12]
 218 0010 002B     		cmp	r3, #0
 219 0012 05D1     		bne	.L15
 220              		.loc 1 135 3 is_stmt 0 discriminator 1
 221 0014 274B     		ldr	r3, .L23
 222 0016 8722     		movs	r2, #135
 223 0018 2749     		ldr	r1, .L23+4
 224 001a 2848     		ldr	r0, .L23+8
 225 001c FFF7FEFF 		bl	printf
 226              	.L15:
 136:Middlewares/Third_Party/LwIP/src/core/udp.c ****   LWIP_ASSERT("udp_input_local_match: invalid netif", inp != NULL);
 227              		.loc 1 136 3 is_stmt 1
 228 0020 BB68     		ldr	r3, [r7, #8]
 229 0022 002B     		cmp	r3, #0
 230 0024 05D1     		bne	.L16
 231              		.loc 1 136 3 is_stmt 0 discriminator 1
 232 0026 234B     		ldr	r3, .L23
 233 0028 8822     		movs	r2, #136
 234 002a 2549     		ldr	r1, .L23+12
 235 002c 2348     		ldr	r0, .L23+8
 236 002e FFF7FEFF 		bl	printf
 237              	.L16:
 137:Middlewares/Third_Party/LwIP/src/core/udp.c **** 
 138:Middlewares/Third_Party/LwIP/src/core/udp.c ****   /* check if PCB is bound to specific netif */
 139:Middlewares/Third_Party/LwIP/src/core/udp.c ****   if ((pcb->netif_idx != NETIF_NO_INDEX) &&
 238              		.loc 1 139 11 is_stmt 1
 239 0032 FB68     		ldr	r3, [r7, #12]
 240 0034 1B7A     		ldrb	r3, [r3, #8]	@ zero_extendqisi2
 241              		.loc 1 139 6
 242 0036 002B     		cmp	r3, #0
 243 0038 0BD0     		beq	.L17
 140:Middlewares/Third_Party/LwIP/src/core/udp.c ****       (pcb->netif_idx != netif_get_index(ip_data.current_input_netif))) {
 244              		.loc 1 140 11 discriminator 1
 245 003a FB68     		ldr	r3, [r7, #12]
 246 003c 1A7A     		ldrb	r2, [r3, #8]	@ zero_extendqisi2
 247              		.loc 1 140 26 discriminator 1
 248 003e 214B     		ldr	r3, .L23+16
ARM GAS  /tmp/ccI5hTuN.s 			page 8


 249 0040 5B68     		ldr	r3, [r3, #4]
 250 0042 93F83430 		ldrb	r3, [r3, #52]	@ zero_extendqisi2
 251 0046 0133     		adds	r3, r3, #1
 252 0048 DBB2     		uxtb	r3, r3
 139:Middlewares/Third_Party/LwIP/src/core/udp.c ****       (pcb->netif_idx != netif_get_index(ip_data.current_input_netif))) {
 253              		.loc 1 139 42 discriminator 1
 254 004a 9A42     		cmp	r2, r3
 255 004c 01D0     		beq	.L17
 141:Middlewares/Third_Party/LwIP/src/core/udp.c ****     return 0;
 256              		.loc 1 141 12
 257 004e 0023     		movs	r3, #0
 258 0050 2BE0     		b	.L18
 259              	.L17:
 142:Middlewares/Third_Party/LwIP/src/core/udp.c ****   }
 143:Middlewares/Third_Party/LwIP/src/core/udp.c **** 
 144:Middlewares/Third_Party/LwIP/src/core/udp.c ****   /* Dual-stack: PCBs listening to any IP type also listen to any IP address */
 145:Middlewares/Third_Party/LwIP/src/core/udp.c ****   if (IP_IS_ANY_TYPE_VAL(pcb->local_ip)) {
 146:Middlewares/Third_Party/LwIP/src/core/udp.c **** #if LWIP_IPV4 && IP_SOF_BROADCAST_RECV
 147:Middlewares/Third_Party/LwIP/src/core/udp.c ****     if ((broadcast != 0) && !ip_get_option(pcb, SOF_BROADCAST)) {
 148:Middlewares/Third_Party/LwIP/src/core/udp.c ****       return 0;
 149:Middlewares/Third_Party/LwIP/src/core/udp.c ****     }
 150:Middlewares/Third_Party/LwIP/src/core/udp.c **** #endif /* LWIP_IPV4 && IP_SOF_BROADCAST_RECV */
 151:Middlewares/Third_Party/LwIP/src/core/udp.c ****     return 1;
 152:Middlewares/Third_Party/LwIP/src/core/udp.c ****   }
 153:Middlewares/Third_Party/LwIP/src/core/udp.c **** 
 154:Middlewares/Third_Party/LwIP/src/core/udp.c ****   /* Only need to check PCB if incoming IP version matches PCB IP version */
 155:Middlewares/Third_Party/LwIP/src/core/udp.c ****   if (IP_ADDR_PCB_VERSION_MATCH_EXACT(pcb, ip_current_dest_addr())) {
 156:Middlewares/Third_Party/LwIP/src/core/udp.c **** #if LWIP_IPV4
 157:Middlewares/Third_Party/LwIP/src/core/udp.c ****     /* Special case: IPv4 broadcast: all or broadcasts in my subnet
 158:Middlewares/Third_Party/LwIP/src/core/udp.c ****      * Note: broadcast variable can only be 1 if it is an IPv4 broadcast */
 159:Middlewares/Third_Party/LwIP/src/core/udp.c ****     if (broadcast != 0) {
 260              		.loc 1 159 8
 261 0052 FB79     		ldrb	r3, [r7, #7]	@ zero_extendqisi2
 262 0054 002B     		cmp	r3, #0
 263 0056 18D0     		beq	.L19
 160:Middlewares/Third_Party/LwIP/src/core/udp.c **** #if IP_SOF_BROADCAST_RECV
 161:Middlewares/Third_Party/LwIP/src/core/udp.c ****       if (ip_get_option(pcb, SOF_BROADCAST))
 162:Middlewares/Third_Party/LwIP/src/core/udp.c **** #endif /* IP_SOF_BROADCAST_RECV */
 163:Middlewares/Third_Party/LwIP/src/core/udp.c ****       {
 164:Middlewares/Third_Party/LwIP/src/core/udp.c ****         if (ip4_addr_isany(ip_2_ip4(&pcb->local_ip)) ||
 264              		.loc 1 164 13
 265 0058 FB68     		ldr	r3, [r7, #12]
 266              		.loc 1 164 12
 267 005a 002B     		cmp	r3, #0
 268 005c 13D0     		beq	.L20
 269              		.loc 1 164 13 discriminator 1
 270 005e FB68     		ldr	r3, [r7, #12]
 271 0060 1B68     		ldr	r3, [r3]
 272 0062 002B     		cmp	r3, #0
 273 0064 0FD0     		beq	.L20
 165:Middlewares/Third_Party/LwIP/src/core/udp.c ****             ((ip4_current_dest_addr()->addr == IPADDR_BROADCAST)) ||
 274              		.loc 1 165 38 discriminator 2
 275 0066 174B     		ldr	r3, .L23+16
 276 0068 5B69     		ldr	r3, [r3, #20]
 164:Middlewares/Third_Party/LwIP/src/core/udp.c ****             ((ip4_current_dest_addr()->addr == IPADDR_BROADCAST)) ||
 277              		.loc 1 164 54 discriminator 2
 278 006a B3F1FF3F 		cmp	r3, #-1
ARM GAS  /tmp/ccI5hTuN.s 			page 9


 279 006e 0AD0     		beq	.L20
 166:Middlewares/Third_Party/LwIP/src/core/udp.c ****             ip4_addr_netcmp(ip_2_ip4(&pcb->local_ip), ip4_current_dest_addr(), netif_ip4_netmask(in
 280              		.loc 1 166 13
 281 0070 FB68     		ldr	r3, [r7, #12]
 282 0072 1A68     		ldr	r2, [r3]
 283 0074 134B     		ldr	r3, .L23+16
 284 0076 5B69     		ldr	r3, [r3, #20]
 285 0078 5A40     		eors	r2, r2, r3
 286 007a BB68     		ldr	r3, [r7, #8]
 287 007c 0833     		adds	r3, r3, #8
 288 007e 1B68     		ldr	r3, [r3]
 289 0080 1340     		ands	r3, r3, r2
 165:Middlewares/Third_Party/LwIP/src/core/udp.c ****             ((ip4_current_dest_addr()->addr == IPADDR_BROADCAST)) ||
 290              		.loc 1 165 67
 291 0082 002B     		cmp	r3, #0
 292 0084 10D1     		bne	.L21
 293              	.L20:
 167:Middlewares/Third_Party/LwIP/src/core/udp.c ****           return 1;
 294              		.loc 1 167 18
 295 0086 0123     		movs	r3, #1
 296 0088 0FE0     		b	.L18
 297              	.L19:
 168:Middlewares/Third_Party/LwIP/src/core/udp.c ****         }
 169:Middlewares/Third_Party/LwIP/src/core/udp.c ****       }
 170:Middlewares/Third_Party/LwIP/src/core/udp.c ****     } else
 171:Middlewares/Third_Party/LwIP/src/core/udp.c **** #endif /* LWIP_IPV4 */
 172:Middlewares/Third_Party/LwIP/src/core/udp.c ****       /* Handle IPv4 and IPv6: all or exact match */
 173:Middlewares/Third_Party/LwIP/src/core/udp.c ****       if (ip_addr_isany(&pcb->local_ip) || ip_addr_cmp(&pcb->local_ip, ip_current_dest_addr())) {
 298              		.loc 1 173 11
 299 008a FB68     		ldr	r3, [r7, #12]
 300              		.loc 1 173 10
 301 008c 002B     		cmp	r3, #0
 302 008e 09D0     		beq	.L22
 303              		.loc 1 173 11 discriminator 1
 304 0090 FB68     		ldr	r3, [r7, #12]
 305 0092 1B68     		ldr	r3, [r3]
 306 0094 002B     		cmp	r3, #0
 307 0096 05D0     		beq	.L22
 308              		.loc 1 173 44 discriminator 2
 309 0098 FB68     		ldr	r3, [r7, #12]
 310 009a 1A68     		ldr	r2, [r3]
 311 009c 094B     		ldr	r3, .L23+16
 312 009e 5B69     		ldr	r3, [r3, #20]
 313              		.loc 1 173 41 discriminator 2
 314 00a0 9A42     		cmp	r2, r3
 315 00a2 01D1     		bne	.L21
 316              	.L22:
 174:Middlewares/Third_Party/LwIP/src/core/udp.c ****         return 1;
 317              		.loc 1 174 16
 318 00a4 0123     		movs	r3, #1
 319 00a6 00E0     		b	.L18
 320              	.L21:
 175:Middlewares/Third_Party/LwIP/src/core/udp.c ****       }
 176:Middlewares/Third_Party/LwIP/src/core/udp.c ****   }
 177:Middlewares/Third_Party/LwIP/src/core/udp.c **** 
 178:Middlewares/Third_Party/LwIP/src/core/udp.c ****   return 0;
 321              		.loc 1 178 10
ARM GAS  /tmp/ccI5hTuN.s 			page 10


 322 00a8 0023     		movs	r3, #0
 323              	.L18:
 179:Middlewares/Third_Party/LwIP/src/core/udp.c **** }
 324              		.loc 1 179 1
 325 00aa 1846     		mov	r0, r3
 326 00ac 1037     		adds	r7, r7, #16
 327              	.LCFI11:
 328              		.cfi_def_cfa_offset 8
 329 00ae BD46     		mov	sp, r7
 330              	.LCFI12:
 331              		.cfi_def_cfa_register 13
 332              		@ sp needed
 333 00b0 80BD     		pop	{r7, pc}
 334              	.L24:
 335 00b2 00BF     		.align	2
 336              	.L23:
 337 00b4 00000000 		.word	.LC0
 338 00b8 2C000000 		.word	.LC1
 339 00bc 50000000 		.word	.LC2
 340 00c0 78000000 		.word	.LC3
 341 00c4 00000000 		.word	ip_data
 342              		.cfi_endproc
 343              	.LFE135:
 345              		.section	.rodata
 346 009d 000000   		.align	2
 347              	.LC4:
 348 00a0 7564705F 		.ascii	"udp_input: invalid pbuf\000"
 348      696E7075 
 348      743A2069 
 348      6E76616C 
 348      69642070 
 349              		.align	2
 350              	.LC5:
 351 00b8 7564705F 		.ascii	"udp_input: invalid netif\000"
 351      696E7075 
 351      743A2069 
 351      6E76616C 
 351      6964206E 
 352 00d1 000000   		.align	2
 353              	.LC6:
 354 00d4 70627566 		.ascii	"pbuf_remove_header failed\012\000"
 354      5F72656D 
 354      6F76655F 
 354      68656164 
 354      65722066 
 355              		.section	.text.udp_input,"ax",%progbits
 356              		.align	1
 357              		.global	udp_input
 358              		.syntax unified
 359              		.thumb
 360              		.thumb_func
 361              		.fpu fpv4-sp-d16
 363              	udp_input:
 364              	.LFB136:
 180:Middlewares/Third_Party/LwIP/src/core/udp.c **** 
 181:Middlewares/Third_Party/LwIP/src/core/udp.c **** /**
 182:Middlewares/Third_Party/LwIP/src/core/udp.c ****  * Process an incoming UDP datagram.
ARM GAS  /tmp/ccI5hTuN.s 			page 11


 183:Middlewares/Third_Party/LwIP/src/core/udp.c ****  *
 184:Middlewares/Third_Party/LwIP/src/core/udp.c ****  * Given an incoming UDP datagram (as a chain of pbufs) this function
 185:Middlewares/Third_Party/LwIP/src/core/udp.c ****  * finds a corresponding UDP PCB and hands over the pbuf to the pcbs
 186:Middlewares/Third_Party/LwIP/src/core/udp.c ****  * recv function. If no pcb is found or the datagram is incorrect, the
 187:Middlewares/Third_Party/LwIP/src/core/udp.c ****  * pbuf is freed.
 188:Middlewares/Third_Party/LwIP/src/core/udp.c ****  *
 189:Middlewares/Third_Party/LwIP/src/core/udp.c ****  * @param p pbuf to be demultiplexed to a UDP PCB (p->payload pointing to the UDP header)
 190:Middlewares/Third_Party/LwIP/src/core/udp.c ****  * @param inp network interface on which the datagram was received.
 191:Middlewares/Third_Party/LwIP/src/core/udp.c ****  *
 192:Middlewares/Third_Party/LwIP/src/core/udp.c ****  */
 193:Middlewares/Third_Party/LwIP/src/core/udp.c **** void
 194:Middlewares/Third_Party/LwIP/src/core/udp.c **** udp_input(struct pbuf *p, struct netif *inp)
 195:Middlewares/Third_Party/LwIP/src/core/udp.c **** {
 365              		.loc 1 195 1
 366              		.cfi_startproc
 367              		@ args = 0, pretend = 0, frame = 40
 368              		@ frame_needed = 1, uses_anonymous_args = 0
 369 0000 90B5     		push	{r4, r7, lr}
 370              	.LCFI13:
 371              		.cfi_def_cfa_offset 12
 372              		.cfi_offset 4, -12
 373              		.cfi_offset 7, -8
 374              		.cfi_offset 14, -4
 375 0002 8DB0     		sub	sp, sp, #52
 376              	.LCFI14:
 377              		.cfi_def_cfa_offset 64
 378 0004 02AF     		add	r7, sp, #8
 379              	.LCFI15:
 380              		.cfi_def_cfa 7, 56
 381 0006 7860     		str	r0, [r7, #4]
 382 0008 3960     		str	r1, [r7]
 196:Middlewares/Third_Party/LwIP/src/core/udp.c ****   struct udp_hdr *udphdr;
 197:Middlewares/Third_Party/LwIP/src/core/udp.c ****   struct udp_pcb *pcb, *prev;
 198:Middlewares/Third_Party/LwIP/src/core/udp.c ****   struct udp_pcb *uncon_pcb;
 199:Middlewares/Third_Party/LwIP/src/core/udp.c ****   u16_t src, dest;
 200:Middlewares/Third_Party/LwIP/src/core/udp.c ****   u8_t broadcast;
 201:Middlewares/Third_Party/LwIP/src/core/udp.c ****   u8_t for_us = 0;
 383              		.loc 1 201 8
 384 000a 0023     		movs	r3, #0
 385 000c FB76     		strb	r3, [r7, #27]
 202:Middlewares/Third_Party/LwIP/src/core/udp.c **** 
 203:Middlewares/Third_Party/LwIP/src/core/udp.c ****   LWIP_UNUSED_ARG(inp);
 204:Middlewares/Third_Party/LwIP/src/core/udp.c **** 
 205:Middlewares/Third_Party/LwIP/src/core/udp.c ****   LWIP_ASSERT_CORE_LOCKED();
 206:Middlewares/Third_Party/LwIP/src/core/udp.c **** 
 207:Middlewares/Third_Party/LwIP/src/core/udp.c ****   LWIP_ASSERT("udp_input: invalid pbuf", p != NULL);
 386              		.loc 1 207 3
 387 000e 7B68     		ldr	r3, [r7, #4]
 388 0010 002B     		cmp	r3, #0
 389 0012 05D1     		bne	.L26
 390              		.loc 1 207 3 is_stmt 0 discriminator 1
 391 0014 7C4B     		ldr	r3, .L49
 392 0016 CF22     		movs	r2, #207
 393 0018 7C49     		ldr	r1, .L49+4
 394 001a 7D48     		ldr	r0, .L49+8
 395 001c FFF7FEFF 		bl	printf
 396              	.L26:
ARM GAS  /tmp/ccI5hTuN.s 			page 12


 208:Middlewares/Third_Party/LwIP/src/core/udp.c ****   LWIP_ASSERT("udp_input: invalid netif", inp != NULL);
 397              		.loc 1 208 3 is_stmt 1
 398 0020 3B68     		ldr	r3, [r7]
 399 0022 002B     		cmp	r3, #0
 400 0024 05D1     		bne	.L27
 401              		.loc 1 208 3 is_stmt 0 discriminator 1
 402 0026 784B     		ldr	r3, .L49
 403 0028 D022     		movs	r2, #208
 404 002a 7A49     		ldr	r1, .L49+12
 405 002c 7848     		ldr	r0, .L49+8
 406 002e FFF7FEFF 		bl	printf
 407              	.L27:
 209:Middlewares/Third_Party/LwIP/src/core/udp.c **** 
 210:Middlewares/Third_Party/LwIP/src/core/udp.c ****   PERF_START;
 211:Middlewares/Third_Party/LwIP/src/core/udp.c **** 
 212:Middlewares/Third_Party/LwIP/src/core/udp.c ****   UDP_STATS_INC(udp.recv);
 213:Middlewares/Third_Party/LwIP/src/core/udp.c **** 
 214:Middlewares/Third_Party/LwIP/src/core/udp.c ****   /* Check minimum length (UDP header) */
 215:Middlewares/Third_Party/LwIP/src/core/udp.c ****   if (p->len < UDP_HLEN) {
 408              		.loc 1 215 8 is_stmt 1
 409 0032 7B68     		ldr	r3, [r7, #4]
 410 0034 5B89     		ldrh	r3, [r3, #10]
 411              		.loc 1 215 6
 412 0036 072B     		cmp	r3, #7
 413 0038 03D8     		bhi	.L28
 216:Middlewares/Third_Party/LwIP/src/core/udp.c ****     /* drop short packets */
 217:Middlewares/Third_Party/LwIP/src/core/udp.c ****     LWIP_DEBUGF(UDP_DEBUG,
 218:Middlewares/Third_Party/LwIP/src/core/udp.c ****                 ("udp_input: short UDP datagram (%"U16_F" bytes) discarded\n", p->tot_len));
 219:Middlewares/Third_Party/LwIP/src/core/udp.c ****     UDP_STATS_INC(udp.lenerr);
 220:Middlewares/Third_Party/LwIP/src/core/udp.c ****     UDP_STATS_INC(udp.drop);
 221:Middlewares/Third_Party/LwIP/src/core/udp.c ****     MIB2_STATS_INC(mib2.udpinerrors);
 222:Middlewares/Third_Party/LwIP/src/core/udp.c ****     pbuf_free(p);
 414              		.loc 1 222 5
 415 003a 7868     		ldr	r0, [r7, #4]
 416 003c FFF7FEFF 		bl	pbuf_free
 223:Middlewares/Third_Party/LwIP/src/core/udp.c ****     goto end;
 417              		.loc 1 223 5
 418 0040 DEE0     		b	.L29
 419              	.L28:
 224:Middlewares/Third_Party/LwIP/src/core/udp.c ****   }
 225:Middlewares/Third_Party/LwIP/src/core/udp.c **** 
 226:Middlewares/Third_Party/LwIP/src/core/udp.c ****   udphdr = (struct udp_hdr *)p->payload;
 420              		.loc 1 226 10
 421 0042 7B68     		ldr	r3, [r7, #4]
 422 0044 5B68     		ldr	r3, [r3, #4]
 423 0046 7B61     		str	r3, [r7, #20]
 227:Middlewares/Third_Party/LwIP/src/core/udp.c **** 
 228:Middlewares/Third_Party/LwIP/src/core/udp.c ****   /* is broadcast packet ? */
 229:Middlewares/Third_Party/LwIP/src/core/udp.c ****   broadcast = ip_addr_isbroadcast(ip_current_dest_addr(), ip_current_netif());
 424              		.loc 1 229 15
 425 0048 734B     		ldr	r3, .L49+16
 426 004a 5A69     		ldr	r2, [r3, #20]
 427 004c 724B     		ldr	r3, .L49+16
 428 004e 1B68     		ldr	r3, [r3]
 429 0050 1946     		mov	r1, r3
 430 0052 1046     		mov	r0, r2
 431 0054 FFF7FEFF 		bl	ip4_addr_isbroadcast_u32
ARM GAS  /tmp/ccI5hTuN.s 			page 13


 432 0058 0346     		mov	r3, r0
 433 005a FB74     		strb	r3, [r7, #19]
 230:Middlewares/Third_Party/LwIP/src/core/udp.c **** 
 231:Middlewares/Third_Party/LwIP/src/core/udp.c ****   LWIP_DEBUGF(UDP_DEBUG, ("udp_input: received datagram of length %"U16_F"\n", p->tot_len));
 232:Middlewares/Third_Party/LwIP/src/core/udp.c **** 
 233:Middlewares/Third_Party/LwIP/src/core/udp.c ****   /* convert src and dest ports to host byte order */
 234:Middlewares/Third_Party/LwIP/src/core/udp.c ****   src = lwip_ntohs(udphdr->src);
 434              		.loc 1 234 9
 435 005c 7B69     		ldr	r3, [r7, #20]
 436 005e 1B88     		ldrh	r3, [r3]	@ unaligned
 437 0060 9BB2     		uxth	r3, r3
 438 0062 1846     		mov	r0, r3
 439 0064 FFF7FEFF 		bl	lwip_htons
 440 0068 0346     		mov	r3, r0
 441 006a 3B82     		strh	r3, [r7, #16]	@ movhi
 235:Middlewares/Third_Party/LwIP/src/core/udp.c ****   dest = lwip_ntohs(udphdr->dest);
 442              		.loc 1 235 10
 443 006c 7B69     		ldr	r3, [r7, #20]
 444 006e 5B88     		ldrh	r3, [r3, #2]	@ unaligned
 445 0070 9BB2     		uxth	r3, r3
 446 0072 1846     		mov	r0, r3
 447 0074 FFF7FEFF 		bl	lwip_htons
 448 0078 0346     		mov	r3, r0
 449 007a FB81     		strh	r3, [r7, #14]	@ movhi
 236:Middlewares/Third_Party/LwIP/src/core/udp.c **** 
 237:Middlewares/Third_Party/LwIP/src/core/udp.c ****   udp_debug_print(udphdr);
 238:Middlewares/Third_Party/LwIP/src/core/udp.c **** 
 239:Middlewares/Third_Party/LwIP/src/core/udp.c ****   /* print the UDP source and destination */
 240:Middlewares/Third_Party/LwIP/src/core/udp.c ****   LWIP_DEBUGF(UDP_DEBUG, ("udp ("));
 241:Middlewares/Third_Party/LwIP/src/core/udp.c ****   ip_addr_debug_print_val(UDP_DEBUG, *ip_current_dest_addr());
 242:Middlewares/Third_Party/LwIP/src/core/udp.c ****   LWIP_DEBUGF(UDP_DEBUG, (", %"U16_F") <-- (", lwip_ntohs(udphdr->dest)));
 243:Middlewares/Third_Party/LwIP/src/core/udp.c ****   ip_addr_debug_print_val(UDP_DEBUG, *ip_current_src_addr());
 244:Middlewares/Third_Party/LwIP/src/core/udp.c ****   LWIP_DEBUGF(UDP_DEBUG, (", %"U16_F")\n", lwip_ntohs(udphdr->src)));
 245:Middlewares/Third_Party/LwIP/src/core/udp.c **** 
 246:Middlewares/Third_Party/LwIP/src/core/udp.c ****   pcb = NULL;
 450              		.loc 1 246 7
 451 007c 0023     		movs	r3, #0
 452 007e 7B62     		str	r3, [r7, #36]
 247:Middlewares/Third_Party/LwIP/src/core/udp.c ****   prev = NULL;
 453              		.loc 1 247 8
 454 0080 0023     		movs	r3, #0
 455 0082 3B62     		str	r3, [r7, #32]
 248:Middlewares/Third_Party/LwIP/src/core/udp.c ****   uncon_pcb = NULL;
 456              		.loc 1 248 13
 457 0084 0023     		movs	r3, #0
 458 0086 FB61     		str	r3, [r7, #28]
 249:Middlewares/Third_Party/LwIP/src/core/udp.c ****   /* Iterate through the UDP pcb list for a matching pcb.
 250:Middlewares/Third_Party/LwIP/src/core/udp.c ****    * 'Perfect match' pcbs (connected to the remote port & ip address) are
 251:Middlewares/Third_Party/LwIP/src/core/udp.c ****    * preferred. If no perfect match is found, the first unconnected pcb that
 252:Middlewares/Third_Party/LwIP/src/core/udp.c ****    * matches the local port and ip address gets the datagram. */
 253:Middlewares/Third_Party/LwIP/src/core/udp.c ****   for (pcb = udp_pcbs; pcb != NULL; pcb = pcb->next) {
 459              		.loc 1 253 12
 460 0088 644B     		ldr	r3, .L49+20
 461 008a 1B68     		ldr	r3, [r3]
 462 008c 7B62     		str	r3, [r7, #36]
 463              		.loc 1 253 3
 464 008e 54E0     		b	.L30
ARM GAS  /tmp/ccI5hTuN.s 			page 14


 465              	.L37:
 254:Middlewares/Third_Party/LwIP/src/core/udp.c ****     /* print the PCB local and remote address */
 255:Middlewares/Third_Party/LwIP/src/core/udp.c ****     LWIP_DEBUGF(UDP_DEBUG, ("pcb ("));
 256:Middlewares/Third_Party/LwIP/src/core/udp.c ****     ip_addr_debug_print_val(UDP_DEBUG, pcb->local_ip);
 257:Middlewares/Third_Party/LwIP/src/core/udp.c ****     LWIP_DEBUGF(UDP_DEBUG, (", %"U16_F") <-- (", pcb->local_port));
 258:Middlewares/Third_Party/LwIP/src/core/udp.c ****     ip_addr_debug_print_val(UDP_DEBUG, pcb->remote_ip);
 259:Middlewares/Third_Party/LwIP/src/core/udp.c ****     LWIP_DEBUGF(UDP_DEBUG, (", %"U16_F")\n", pcb->remote_port));
 260:Middlewares/Third_Party/LwIP/src/core/udp.c **** 
 261:Middlewares/Third_Party/LwIP/src/core/udp.c ****     /* compare PCB local addr+port to UDP destination addr+port */
 262:Middlewares/Third_Party/LwIP/src/core/udp.c ****     if ((pcb->local_port == dest) &&
 466              		.loc 1 262 13
 467 0090 7B6A     		ldr	r3, [r7, #36]
 468 0092 5B8A     		ldrh	r3, [r3, #18]
 469              		.loc 1 262 8
 470 0094 FA89     		ldrh	r2, [r7, #14]
 471 0096 9A42     		cmp	r2, r3
 472 0098 4AD1     		bne	.L31
 263:Middlewares/Third_Party/LwIP/src/core/udp.c ****         (udp_input_local_match(pcb, inp, broadcast) != 0)) {
 473              		.loc 1 263 10 discriminator 1
 474 009a FB7C     		ldrb	r3, [r7, #19]	@ zero_extendqisi2
 475 009c 1A46     		mov	r2, r3
 476 009e 3968     		ldr	r1, [r7]
 477 00a0 786A     		ldr	r0, [r7, #36]
 478 00a2 FFF7FEFF 		bl	udp_input_local_match
 479 00a6 0346     		mov	r3, r0
 262:Middlewares/Third_Party/LwIP/src/core/udp.c ****         (udp_input_local_match(pcb, inp, broadcast) != 0)) {
 480              		.loc 1 262 35 discriminator 1
 481 00a8 002B     		cmp	r3, #0
 482 00aa 41D0     		beq	.L31
 264:Middlewares/Third_Party/LwIP/src/core/udp.c ****       if ((pcb->flags & UDP_FLAGS_CONNECTED) == 0) {
 483              		.loc 1 264 15
 484 00ac 7B6A     		ldr	r3, [r7, #36]
 485 00ae 1B7C     		ldrb	r3, [r3, #16]	@ zero_extendqisi2
 486              		.loc 1 264 23
 487 00b0 03F00403 		and	r3, r3, #4
 488              		.loc 1 264 10
 489 00b4 002B     		cmp	r3, #0
 490 00b6 1DD1     		bne	.L32
 265:Middlewares/Third_Party/LwIP/src/core/udp.c ****         if (uncon_pcb == NULL) {
 491              		.loc 1 265 12
 492 00b8 FB69     		ldr	r3, [r7, #28]
 493 00ba 002B     		cmp	r3, #0
 494 00bc 02D1     		bne	.L33
 266:Middlewares/Third_Party/LwIP/src/core/udp.c ****           /* the first unconnected matching PCB */
 267:Middlewares/Third_Party/LwIP/src/core/udp.c ****           uncon_pcb = pcb;
 495              		.loc 1 267 21
 496 00be 7B6A     		ldr	r3, [r7, #36]
 497 00c0 FB61     		str	r3, [r7, #28]
 498 00c2 17E0     		b	.L32
 499              	.L33:
 268:Middlewares/Third_Party/LwIP/src/core/udp.c **** #if LWIP_IPV4
 269:Middlewares/Third_Party/LwIP/src/core/udp.c ****         } else if (broadcast && ip4_current_dest_addr()->addr == IPADDR_BROADCAST) {
 500              		.loc 1 269 19
 501 00c4 FB7C     		ldrb	r3, [r7, #19]	@ zero_extendqisi2
 502 00c6 002B     		cmp	r3, #0
 503 00c8 14D0     		beq	.L32
 504              		.loc 1 269 56 discriminator 1
ARM GAS  /tmp/ccI5hTuN.s 			page 15


 505 00ca 534B     		ldr	r3, .L49+16
 506 00cc 5B69     		ldr	r3, [r3, #20]
 507              		.loc 1 269 30 discriminator 1
 508 00ce B3F1FF3F 		cmp	r3, #-1
 509 00d2 0FD1     		bne	.L32
 270:Middlewares/Third_Party/LwIP/src/core/udp.c ****           /* global broadcast address (only valid for IPv4; match was checked before) */
 271:Middlewares/Third_Party/LwIP/src/core/udp.c ****           if (!IP_IS_V4_VAL(uncon_pcb->local_ip) || !ip4_addr_cmp(ip_2_ip4(&uncon_pcb->local_ip), n
 510              		.loc 1 271 54
 511 00d4 FB69     		ldr	r3, [r7, #28]
 512 00d6 1A68     		ldr	r2, [r3]
 513 00d8 3B68     		ldr	r3, [r7]
 514 00da 0433     		adds	r3, r3, #4
 515 00dc 1B68     		ldr	r3, [r3]
 516              		.loc 1 271 14
 517 00de 9A42     		cmp	r2, r3
 518 00e0 08D0     		beq	.L32
 272:Middlewares/Third_Party/LwIP/src/core/udp.c ****             /* uncon_pcb does not match the input netif, check this pcb */
 273:Middlewares/Third_Party/LwIP/src/core/udp.c ****             if (IP_IS_V4_VAL(pcb->local_ip) && ip4_addr_cmp(ip_2_ip4(&pcb->local_ip), netif_ip4_add
 519              		.loc 1 273 48
 520 00e2 7B6A     		ldr	r3, [r7, #36]
 521 00e4 1A68     		ldr	r2, [r3]
 522 00e6 3B68     		ldr	r3, [r7]
 523 00e8 0433     		adds	r3, r3, #4
 524 00ea 1B68     		ldr	r3, [r3]
 525              		.loc 1 273 16
 526 00ec 9A42     		cmp	r2, r3
 527 00ee 01D1     		bne	.L32
 274:Middlewares/Third_Party/LwIP/src/core/udp.c ****               /* better match */
 275:Middlewares/Third_Party/LwIP/src/core/udp.c ****               uncon_pcb = pcb;
 528              		.loc 1 275 25
 529 00f0 7B6A     		ldr	r3, [r7, #36]
 530 00f2 FB61     		str	r3, [r7, #28]
 531              	.L32:
 276:Middlewares/Third_Party/LwIP/src/core/udp.c ****             }
 277:Middlewares/Third_Party/LwIP/src/core/udp.c ****           }
 278:Middlewares/Third_Party/LwIP/src/core/udp.c **** #endif /* LWIP_IPV4 */
 279:Middlewares/Third_Party/LwIP/src/core/udp.c ****         }
 280:Middlewares/Third_Party/LwIP/src/core/udp.c **** #if SO_REUSE
 281:Middlewares/Third_Party/LwIP/src/core/udp.c ****         else if (!ip_addr_isany(&pcb->local_ip)) {
 282:Middlewares/Third_Party/LwIP/src/core/udp.c ****           /* prefer specific IPs over catch-all */
 283:Middlewares/Third_Party/LwIP/src/core/udp.c ****           uncon_pcb = pcb;
 284:Middlewares/Third_Party/LwIP/src/core/udp.c ****         }
 285:Middlewares/Third_Party/LwIP/src/core/udp.c **** #endif /* SO_REUSE */
 286:Middlewares/Third_Party/LwIP/src/core/udp.c ****       }
 287:Middlewares/Third_Party/LwIP/src/core/udp.c **** 
 288:Middlewares/Third_Party/LwIP/src/core/udp.c ****       /* compare PCB remote addr+port to UDP source addr+port */
 289:Middlewares/Third_Party/LwIP/src/core/udp.c ****       if ((pcb->remote_port == src) &&
 532              		.loc 1 289 15
 533 00f4 7B6A     		ldr	r3, [r7, #36]
 534 00f6 9B8A     		ldrh	r3, [r3, #20]
 535              		.loc 1 289 10
 536 00f8 3A8A     		ldrh	r2, [r7, #16]
 537 00fa 9A42     		cmp	r2, r3
 538 00fc 18D1     		bne	.L31
 290:Middlewares/Third_Party/LwIP/src/core/udp.c ****           (ip_addr_isany_val(pcb->remote_ip) ||
 539              		.loc 1 290 12 discriminator 1
 540 00fe 7B6A     		ldr	r3, [r7, #36]
ARM GAS  /tmp/ccI5hTuN.s 			page 16


 541 0100 5B68     		ldr	r3, [r3, #4]
 289:Middlewares/Third_Party/LwIP/src/core/udp.c ****           (ip_addr_isany_val(pcb->remote_ip) ||
 542              		.loc 1 289 37 discriminator 1
 543 0102 002B     		cmp	r3, #0
 544 0104 05D0     		beq	.L34
 291:Middlewares/Third_Party/LwIP/src/core/udp.c ****            ip_addr_cmp(&pcb->remote_ip, ip_current_src_addr()))) {
 545              		.loc 1 291 12
 546 0106 7B6A     		ldr	r3, [r7, #36]
 547 0108 5A68     		ldr	r2, [r3, #4]
 548 010a 434B     		ldr	r3, .L49+16
 549 010c 1B69     		ldr	r3, [r3, #16]
 290:Middlewares/Third_Party/LwIP/src/core/udp.c ****           (ip_addr_isany_val(pcb->remote_ip) ||
 550              		.loc 1 290 46
 551 010e 9A42     		cmp	r2, r3
 552 0110 0ED1     		bne	.L31
 553              	.L34:
 292:Middlewares/Third_Party/LwIP/src/core/udp.c ****         /* the first fully matching PCB */
 293:Middlewares/Third_Party/LwIP/src/core/udp.c ****         if (prev != NULL) {
 554              		.loc 1 293 12
 555 0112 3B6A     		ldr	r3, [r7, #32]
 556 0114 002B     		cmp	r3, #0
 557 0116 14D0     		beq	.L48
 294:Middlewares/Third_Party/LwIP/src/core/udp.c ****           /* move the pcb to the front of udp_pcbs so that is
 295:Middlewares/Third_Party/LwIP/src/core/udp.c ****              found faster next time */
 296:Middlewares/Third_Party/LwIP/src/core/udp.c ****           prev->next = pcb->next;
 558              		.loc 1 296 27
 559 0118 7B6A     		ldr	r3, [r7, #36]
 560 011a DA68     		ldr	r2, [r3, #12]
 561              		.loc 1 296 22
 562 011c 3B6A     		ldr	r3, [r7, #32]
 563 011e DA60     		str	r2, [r3, #12]
 297:Middlewares/Third_Party/LwIP/src/core/udp.c ****           pcb->next = udp_pcbs;
 564              		.loc 1 297 21
 565 0120 3E4B     		ldr	r3, .L49+20
 566 0122 1A68     		ldr	r2, [r3]
 567 0124 7B6A     		ldr	r3, [r7, #36]
 568 0126 DA60     		str	r2, [r3, #12]
 298:Middlewares/Third_Party/LwIP/src/core/udp.c ****           udp_pcbs = pcb;
 569              		.loc 1 298 20
 570 0128 3C4A     		ldr	r2, .L49+20
 571 012a 7B6A     		ldr	r3, [r7, #36]
 572 012c 1360     		str	r3, [r2]
 299:Middlewares/Third_Party/LwIP/src/core/udp.c ****         } else {
 300:Middlewares/Third_Party/LwIP/src/core/udp.c ****           UDP_STATS_INC(udp.cachehit);
 301:Middlewares/Third_Party/LwIP/src/core/udp.c ****         }
 302:Middlewares/Third_Party/LwIP/src/core/udp.c ****         break;
 573              		.loc 1 302 9
 574 012e 08E0     		b	.L48
 575              	.L31:
 303:Middlewares/Third_Party/LwIP/src/core/udp.c ****       }
 304:Middlewares/Third_Party/LwIP/src/core/udp.c ****     }
 305:Middlewares/Third_Party/LwIP/src/core/udp.c **** 
 306:Middlewares/Third_Party/LwIP/src/core/udp.c ****     prev = pcb;
 576              		.loc 1 306 10 discriminator 2
 577 0130 7B6A     		ldr	r3, [r7, #36]
 578 0132 3B62     		str	r3, [r7, #32]
 253:Middlewares/Third_Party/LwIP/src/core/udp.c ****     /* print the PCB local and remote address */
ARM GAS  /tmp/ccI5hTuN.s 			page 17


 579              		.loc 1 253 41 discriminator 2
 580 0134 7B6A     		ldr	r3, [r7, #36]
 581 0136 DB68     		ldr	r3, [r3, #12]
 582 0138 7B62     		str	r3, [r7, #36]
 583              	.L30:
 253:Middlewares/Third_Party/LwIP/src/core/udp.c ****     /* print the PCB local and remote address */
 584              		.loc 1 253 3 discriminator 1
 585 013a 7B6A     		ldr	r3, [r7, #36]
 586 013c 002B     		cmp	r3, #0
 587 013e A7D1     		bne	.L37
 588 0140 00E0     		b	.L36
 589              	.L48:
 302:Middlewares/Third_Party/LwIP/src/core/udp.c ****       }
 590              		.loc 1 302 9
 591 0142 00BF     		nop
 592              	.L36:
 307:Middlewares/Third_Party/LwIP/src/core/udp.c ****   }
 308:Middlewares/Third_Party/LwIP/src/core/udp.c ****   /* no fully matching pcb found? then look for an unconnected pcb */
 309:Middlewares/Third_Party/LwIP/src/core/udp.c ****   if (pcb == NULL) {
 593              		.loc 1 309 6
 594 0144 7B6A     		ldr	r3, [r7, #36]
 595 0146 002B     		cmp	r3, #0
 596 0148 01D1     		bne	.L38
 310:Middlewares/Third_Party/LwIP/src/core/udp.c ****     pcb = uncon_pcb;
 597              		.loc 1 310 9
 598 014a FB69     		ldr	r3, [r7, #28]
 599 014c 7B62     		str	r3, [r7, #36]
 600              	.L38:
 311:Middlewares/Third_Party/LwIP/src/core/udp.c ****   }
 312:Middlewares/Third_Party/LwIP/src/core/udp.c **** 
 313:Middlewares/Third_Party/LwIP/src/core/udp.c ****   /* Check checksum if this is a match or if it was directed at us. */
 314:Middlewares/Third_Party/LwIP/src/core/udp.c ****   if (pcb != NULL) {
 601              		.loc 1 314 6
 602 014e 7B6A     		ldr	r3, [r7, #36]
 603 0150 002B     		cmp	r3, #0
 604 0152 02D0     		beq	.L39
 315:Middlewares/Third_Party/LwIP/src/core/udp.c ****     for_us = 1;
 605              		.loc 1 315 12
 606 0154 0123     		movs	r3, #1
 607 0156 FB76     		strb	r3, [r7, #27]
 608 0158 0AE0     		b	.L40
 609              	.L39:
 316:Middlewares/Third_Party/LwIP/src/core/udp.c ****   } else {
 317:Middlewares/Third_Party/LwIP/src/core/udp.c **** #if LWIP_IPV6
 318:Middlewares/Third_Party/LwIP/src/core/udp.c ****     if (ip_current_is_v6()) {
 319:Middlewares/Third_Party/LwIP/src/core/udp.c ****       for_us = netif_get_ip6_addr_match(inp, ip6_current_dest_addr()) >= 0;
 320:Middlewares/Third_Party/LwIP/src/core/udp.c ****     }
 321:Middlewares/Third_Party/LwIP/src/core/udp.c **** #endif /* LWIP_IPV6 */
 322:Middlewares/Third_Party/LwIP/src/core/udp.c **** #if LWIP_IPV4
 323:Middlewares/Third_Party/LwIP/src/core/udp.c ****     if (!ip_current_is_v6()) {
 324:Middlewares/Third_Party/LwIP/src/core/udp.c ****       for_us = ip4_addr_cmp(netif_ip4_addr(inp), ip4_current_dest_addr());
 610              		.loc 1 324 16
 611 015a 3B68     		ldr	r3, [r7]
 612 015c 0433     		adds	r3, r3, #4
 613 015e 1A68     		ldr	r2, [r3]
 614 0160 2D4B     		ldr	r3, .L49+16
 615 0162 5B69     		ldr	r3, [r3, #20]
ARM GAS  /tmp/ccI5hTuN.s 			page 18


 616 0164 9A42     		cmp	r2, r3
 617 0166 0CBF     		ite	eq
 618 0168 0123     		moveq	r3, #1
 619 016a 0023     		movne	r3, #0
 620 016c DBB2     		uxtb	r3, r3
 621              		.loc 1 324 14
 622 016e FB76     		strb	r3, [r7, #27]
 623              	.L40:
 325:Middlewares/Third_Party/LwIP/src/core/udp.c ****     }
 326:Middlewares/Third_Party/LwIP/src/core/udp.c **** #endif /* LWIP_IPV4 */
 327:Middlewares/Third_Party/LwIP/src/core/udp.c ****   }
 328:Middlewares/Third_Party/LwIP/src/core/udp.c **** 
 329:Middlewares/Third_Party/LwIP/src/core/udp.c ****   if (for_us) {
 624              		.loc 1 329 6
 625 0170 FB7E     		ldrb	r3, [r7, #27]	@ zero_extendqisi2
 626 0172 002B     		cmp	r3, #0
 627 0174 41D0     		beq	.L41
 330:Middlewares/Third_Party/LwIP/src/core/udp.c ****     LWIP_DEBUGF(UDP_DEBUG | LWIP_DBG_TRACE, ("udp_input: calculating checksum\n"));
 331:Middlewares/Third_Party/LwIP/src/core/udp.c **** #if CHECKSUM_CHECK_UDP
 332:Middlewares/Third_Party/LwIP/src/core/udp.c ****     IF__NETIF_CHECKSUM_ENABLED(inp, NETIF_CHECKSUM_CHECK_UDP) {
 333:Middlewares/Third_Party/LwIP/src/core/udp.c **** #if LWIP_UDPLITE
 334:Middlewares/Third_Party/LwIP/src/core/udp.c ****       if (ip_current_header_proto() == IP_PROTO_UDPLITE) {
 335:Middlewares/Third_Party/LwIP/src/core/udp.c ****         /* Do the UDP Lite checksum */
 336:Middlewares/Third_Party/LwIP/src/core/udp.c ****         u16_t chklen = lwip_ntohs(udphdr->len);
 337:Middlewares/Third_Party/LwIP/src/core/udp.c ****         if (chklen < sizeof(struct udp_hdr)) {
 338:Middlewares/Third_Party/LwIP/src/core/udp.c ****           if (chklen == 0) {
 339:Middlewares/Third_Party/LwIP/src/core/udp.c ****             /* For UDP-Lite, checksum length of 0 means checksum
 340:Middlewares/Third_Party/LwIP/src/core/udp.c ****                over the complete packet (See RFC 3828 chap. 3.1) */
 341:Middlewares/Third_Party/LwIP/src/core/udp.c ****             chklen = p->tot_len;
 342:Middlewares/Third_Party/LwIP/src/core/udp.c ****           } else {
 343:Middlewares/Third_Party/LwIP/src/core/udp.c ****             /* At least the UDP-Lite header must be covered by the
 344:Middlewares/Third_Party/LwIP/src/core/udp.c ****                checksum! (Again, see RFC 3828 chap. 3.1) */
 345:Middlewares/Third_Party/LwIP/src/core/udp.c ****             goto chkerr;
 346:Middlewares/Third_Party/LwIP/src/core/udp.c ****           }
 347:Middlewares/Third_Party/LwIP/src/core/udp.c ****         }
 348:Middlewares/Third_Party/LwIP/src/core/udp.c ****         if (ip_chksum_pseudo_partial(p, IP_PROTO_UDPLITE,
 349:Middlewares/Third_Party/LwIP/src/core/udp.c ****                                      p->tot_len, chklen,
 350:Middlewares/Third_Party/LwIP/src/core/udp.c ****                                      ip_current_src_addr(), ip_current_dest_addr()) != 0) {
 351:Middlewares/Third_Party/LwIP/src/core/udp.c ****           goto chkerr;
 352:Middlewares/Third_Party/LwIP/src/core/udp.c ****         }
 353:Middlewares/Third_Party/LwIP/src/core/udp.c ****       } else
 354:Middlewares/Third_Party/LwIP/src/core/udp.c **** #endif /* LWIP_UDPLITE */
 355:Middlewares/Third_Party/LwIP/src/core/udp.c ****       {
 356:Middlewares/Third_Party/LwIP/src/core/udp.c ****         if (udphdr->chksum != 0) {
 357:Middlewares/Third_Party/LwIP/src/core/udp.c ****           if (ip_chksum_pseudo(p, IP_PROTO_UDP, p->tot_len,
 358:Middlewares/Third_Party/LwIP/src/core/udp.c ****                                ip_current_src_addr(),
 359:Middlewares/Third_Party/LwIP/src/core/udp.c ****                                ip_current_dest_addr()) != 0) {
 360:Middlewares/Third_Party/LwIP/src/core/udp.c ****             goto chkerr;
 361:Middlewares/Third_Party/LwIP/src/core/udp.c ****           }
 362:Middlewares/Third_Party/LwIP/src/core/udp.c ****         }
 363:Middlewares/Third_Party/LwIP/src/core/udp.c ****       }
 364:Middlewares/Third_Party/LwIP/src/core/udp.c ****     }
 365:Middlewares/Third_Party/LwIP/src/core/udp.c **** #endif /* CHECKSUM_CHECK_UDP */
 366:Middlewares/Third_Party/LwIP/src/core/udp.c ****     if (pbuf_remove_header(p, UDP_HLEN)) {
 628              		.loc 1 366 9
 629 0176 0821     		movs	r1, #8
 630 0178 7868     		ldr	r0, [r7, #4]
ARM GAS  /tmp/ccI5hTuN.s 			page 19


 631 017a FFF7FEFF 		bl	pbuf_remove_header
 632 017e 0346     		mov	r3, r0
 633              		.loc 1 366 8
 634 0180 002B     		cmp	r3, #0
 635 0182 0AD0     		beq	.L42
 367:Middlewares/Third_Party/LwIP/src/core/udp.c ****       /* Can we cope with this failing? Just assert for now */
 368:Middlewares/Third_Party/LwIP/src/core/udp.c ****       LWIP_ASSERT("pbuf_remove_header failed\n", 0);
 636              		.loc 1 368 7 discriminator 1
 637 0184 204B     		ldr	r3, .L49
 638 0186 4FF4B872 		mov	r2, #368
 639 018a 2549     		ldr	r1, .L49+24
 640 018c 2048     		ldr	r0, .L49+8
 641 018e FFF7FEFF 		bl	printf
 369:Middlewares/Third_Party/LwIP/src/core/udp.c ****       UDP_STATS_INC(udp.drop);
 370:Middlewares/Third_Party/LwIP/src/core/udp.c ****       MIB2_STATS_INC(mib2.udpinerrors);
 371:Middlewares/Third_Party/LwIP/src/core/udp.c ****       pbuf_free(p);
 642              		.loc 1 371 7 discriminator 1
 643 0192 7868     		ldr	r0, [r7, #4]
 644 0194 FFF7FEFF 		bl	pbuf_free
 372:Middlewares/Third_Party/LwIP/src/core/udp.c ****       goto end;
 645              		.loc 1 372 7 discriminator 1
 646 0198 32E0     		b	.L29
 647              	.L42:
 373:Middlewares/Third_Party/LwIP/src/core/udp.c ****     }
 374:Middlewares/Third_Party/LwIP/src/core/udp.c **** 
 375:Middlewares/Third_Party/LwIP/src/core/udp.c ****     if (pcb != NULL) {
 648              		.loc 1 375 8
 649 019a 7B6A     		ldr	r3, [r7, #36]
 650 019c 002B     		cmp	r3, #0
 651 019e 12D0     		beq	.L43
 376:Middlewares/Third_Party/LwIP/src/core/udp.c ****       MIB2_STATS_INC(mib2.udpindatagrams);
 377:Middlewares/Third_Party/LwIP/src/core/udp.c **** #if SO_REUSE && SO_REUSE_RXTOALL
 378:Middlewares/Third_Party/LwIP/src/core/udp.c ****       if (ip_get_option(pcb, SOF_REUSEADDR) &&
 379:Middlewares/Third_Party/LwIP/src/core/udp.c ****           (broadcast || ip_addr_ismulticast(ip_current_dest_addr()))) {
 380:Middlewares/Third_Party/LwIP/src/core/udp.c ****         /* pass broadcast- or multicast packets to all multicast pcbs
 381:Middlewares/Third_Party/LwIP/src/core/udp.c ****            if SOF_REUSEADDR is set on the first match */
 382:Middlewares/Third_Party/LwIP/src/core/udp.c ****         struct udp_pcb *mpcb;
 383:Middlewares/Third_Party/LwIP/src/core/udp.c ****         for (mpcb = udp_pcbs; mpcb != NULL; mpcb = mpcb->next) {
 384:Middlewares/Third_Party/LwIP/src/core/udp.c ****           if (mpcb != pcb) {
 385:Middlewares/Third_Party/LwIP/src/core/udp.c ****             /* compare PCB local addr+port to UDP destination addr+port */
 386:Middlewares/Third_Party/LwIP/src/core/udp.c ****             if ((mpcb->local_port == dest) &&
 387:Middlewares/Third_Party/LwIP/src/core/udp.c ****                 (udp_input_local_match(mpcb, inp, broadcast) != 0)) {
 388:Middlewares/Third_Party/LwIP/src/core/udp.c ****               /* pass a copy of the packet to all local matches */
 389:Middlewares/Third_Party/LwIP/src/core/udp.c ****               if (mpcb->recv != NULL) {
 390:Middlewares/Third_Party/LwIP/src/core/udp.c ****                 struct pbuf *q;
 391:Middlewares/Third_Party/LwIP/src/core/udp.c ****                 q = pbuf_clone(PBUF_RAW, PBUF_POOL, p);
 392:Middlewares/Third_Party/LwIP/src/core/udp.c ****                 if (q != NULL) {
 393:Middlewares/Third_Party/LwIP/src/core/udp.c ****                   mpcb->recv(mpcb->recv_arg, mpcb, q, ip_current_src_addr(), src);
 394:Middlewares/Third_Party/LwIP/src/core/udp.c ****                 }
 395:Middlewares/Third_Party/LwIP/src/core/udp.c ****               }
 396:Middlewares/Third_Party/LwIP/src/core/udp.c ****             }
 397:Middlewares/Third_Party/LwIP/src/core/udp.c ****           }
 398:Middlewares/Third_Party/LwIP/src/core/udp.c ****         }
 399:Middlewares/Third_Party/LwIP/src/core/udp.c ****       }
 400:Middlewares/Third_Party/LwIP/src/core/udp.c **** #endif /* SO_REUSE && SO_REUSE_RXTOALL */
 401:Middlewares/Third_Party/LwIP/src/core/udp.c ****       /* callback */
 402:Middlewares/Third_Party/LwIP/src/core/udp.c ****       if (pcb->recv != NULL) {
ARM GAS  /tmp/ccI5hTuN.s 			page 20


 652              		.loc 1 402 14
 653 01a0 7B6A     		ldr	r3, [r7, #36]
 654 01a2 9B69     		ldr	r3, [r3, #24]
 655              		.loc 1 402 10
 656 01a4 002B     		cmp	r3, #0
 657 01a6 0AD0     		beq	.L44
 403:Middlewares/Third_Party/LwIP/src/core/udp.c ****         /* now the recv function is responsible for freeing p */
 404:Middlewares/Third_Party/LwIP/src/core/udp.c ****         pcb->recv(pcb->recv_arg, pcb, p, ip_current_src_addr(), src);
 658              		.loc 1 404 12
 659 01a8 7B6A     		ldr	r3, [r7, #36]
 660 01aa 9C69     		ldr	r4, [r3, #24]
 661              		.loc 1 404 9
 662 01ac 7B6A     		ldr	r3, [r7, #36]
 663 01ae D869     		ldr	r0, [r3, #28]
 664 01b0 3B8A     		ldrh	r3, [r7, #16]
 665 01b2 0093     		str	r3, [sp]
 666 01b4 1B4B     		ldr	r3, .L49+28
 667 01b6 7A68     		ldr	r2, [r7, #4]
 668 01b8 796A     		ldr	r1, [r7, #36]
 669 01ba A047     		blx	r4
 670              	.LVL0:
 405:Middlewares/Third_Party/LwIP/src/core/udp.c ****       } else {
 406:Middlewares/Third_Party/LwIP/src/core/udp.c ****         /* no recv function registered? then we have to free the pbuf! */
 407:Middlewares/Third_Party/LwIP/src/core/udp.c ****         pbuf_free(p);
 408:Middlewares/Third_Party/LwIP/src/core/udp.c ****         goto end;
 409:Middlewares/Third_Party/LwIP/src/core/udp.c ****       }
 410:Middlewares/Third_Party/LwIP/src/core/udp.c ****     } else {
 411:Middlewares/Third_Party/LwIP/src/core/udp.c ****       LWIP_DEBUGF(UDP_DEBUG | LWIP_DBG_TRACE, ("udp_input: not for us.\n"));
 412:Middlewares/Third_Party/LwIP/src/core/udp.c **** 
 413:Middlewares/Third_Party/LwIP/src/core/udp.c **** #if LWIP_ICMP || LWIP_ICMP6
 414:Middlewares/Third_Party/LwIP/src/core/udp.c ****       /* No match was found, send ICMP destination port unreachable unless
 415:Middlewares/Third_Party/LwIP/src/core/udp.c ****          destination address was broadcast/multicast. */
 416:Middlewares/Third_Party/LwIP/src/core/udp.c ****       if (!broadcast && !ip_addr_ismulticast(ip_current_dest_addr())) {
 417:Middlewares/Third_Party/LwIP/src/core/udp.c ****         /* move payload pointer back to ip header */
 418:Middlewares/Third_Party/LwIP/src/core/udp.c ****         pbuf_header_force(p, (s16_t)(ip_current_header_tot_len() + UDP_HLEN));
 419:Middlewares/Third_Party/LwIP/src/core/udp.c ****         icmp_port_unreach(ip_current_is_v6(), p);
 420:Middlewares/Third_Party/LwIP/src/core/udp.c ****       }
 421:Middlewares/Third_Party/LwIP/src/core/udp.c **** #endif /* LWIP_ICMP || LWIP_ICMP6 */
 422:Middlewares/Third_Party/LwIP/src/core/udp.c ****       UDP_STATS_INC(udp.proterr);
 423:Middlewares/Third_Party/LwIP/src/core/udp.c ****       UDP_STATS_INC(udp.drop);
 424:Middlewares/Third_Party/LwIP/src/core/udp.c ****       MIB2_STATS_INC(mib2.udpnoports);
 425:Middlewares/Third_Party/LwIP/src/core/udp.c ****       pbuf_free(p);
 426:Middlewares/Third_Party/LwIP/src/core/udp.c ****     }
 427:Middlewares/Third_Party/LwIP/src/core/udp.c ****   } else {
 428:Middlewares/Third_Party/LwIP/src/core/udp.c ****     pbuf_free(p);
 429:Middlewares/Third_Party/LwIP/src/core/udp.c ****   }
 430:Middlewares/Third_Party/LwIP/src/core/udp.c **** end:
 431:Middlewares/Third_Party/LwIP/src/core/udp.c ****   PERF_STOP("udp_input");
 432:Middlewares/Third_Party/LwIP/src/core/udp.c ****   return;
 671              		.loc 1 432 3
 672 01bc 21E0     		b	.L25
 673              	.L44:
 407:Middlewares/Third_Party/LwIP/src/core/udp.c ****         goto end;
 674              		.loc 1 407 9
 675 01be 7868     		ldr	r0, [r7, #4]
 676 01c0 FFF7FEFF 		bl	pbuf_free
 408:Middlewares/Third_Party/LwIP/src/core/udp.c ****       }
ARM GAS  /tmp/ccI5hTuN.s 			page 21


 677              		.loc 1 408 9
 678 01c4 1CE0     		b	.L29
 679              	.L43:
 416:Middlewares/Third_Party/LwIP/src/core/udp.c ****         /* move payload pointer back to ip header */
 680              		.loc 1 416 10
 681 01c6 FB7C     		ldrb	r3, [r7, #19]	@ zero_extendqisi2
 682 01c8 002B     		cmp	r3, #0
 683 01ca 12D1     		bne	.L46
 416:Middlewares/Third_Party/LwIP/src/core/udp.c ****         /* move payload pointer back to ip header */
 684              		.loc 1 416 26 discriminator 1
 685 01cc 124B     		ldr	r3, .L49+16
 686 01ce 5B69     		ldr	r3, [r3, #20]
 687 01d0 03F0F003 		and	r3, r3, #240
 416:Middlewares/Third_Party/LwIP/src/core/udp.c ****         /* move payload pointer back to ip header */
 688              		.loc 1 416 22 discriminator 1
 689 01d4 E02B     		cmp	r3, #224
 690 01d6 0CD0     		beq	.L46
 418:Middlewares/Third_Party/LwIP/src/core/udp.c ****         icmp_port_unreach(ip_current_is_v6(), p);
 691              		.loc 1 418 38
 692 01d8 0F4B     		ldr	r3, .L49+16
 693 01da 9B89     		ldrh	r3, [r3, #12]
 418:Middlewares/Third_Party/LwIP/src/core/udp.c ****         icmp_port_unreach(ip_current_is_v6(), p);
 694              		.loc 1 418 66
 695 01dc 0833     		adds	r3, r3, #8
 696 01de 9BB2     		uxth	r3, r3
 418:Middlewares/Third_Party/LwIP/src/core/udp.c ****         icmp_port_unreach(ip_current_is_v6(), p);
 697              		.loc 1 418 9
 698 01e0 1BB2     		sxth	r3, r3
 699 01e2 1946     		mov	r1, r3
 700 01e4 7868     		ldr	r0, [r7, #4]
 701 01e6 FFF7FEFF 		bl	pbuf_header_force
 419:Middlewares/Third_Party/LwIP/src/core/udp.c ****       }
 702              		.loc 1 419 9
 703 01ea 0321     		movs	r1, #3
 704 01ec 7868     		ldr	r0, [r7, #4]
 705 01ee FFF7FEFF 		bl	icmp_dest_unreach
 706              	.L46:
 425:Middlewares/Third_Party/LwIP/src/core/udp.c ****     }
 707              		.loc 1 425 7
 708 01f2 7868     		ldr	r0, [r7, #4]
 709 01f4 FFF7FEFF 		bl	pbuf_free
 710              		.loc 1 432 3
 711 01f8 03E0     		b	.L25
 712              	.L41:
 428:Middlewares/Third_Party/LwIP/src/core/udp.c ****   }
 713              		.loc 1 428 5
 714 01fa 7868     		ldr	r0, [r7, #4]
 715 01fc FFF7FEFF 		bl	pbuf_free
 716              	.L29:
 717              		.loc 1 432 3
 718 0200 00BF     		nop
 719              	.L25:
 433:Middlewares/Third_Party/LwIP/src/core/udp.c **** #if CHECKSUM_CHECK_UDP
 434:Middlewares/Third_Party/LwIP/src/core/udp.c **** chkerr:
 435:Middlewares/Third_Party/LwIP/src/core/udp.c ****   LWIP_DEBUGF(UDP_DEBUG | LWIP_DBG_LEVEL_SERIOUS,
 436:Middlewares/Third_Party/LwIP/src/core/udp.c ****               ("udp_input: UDP (or UDP Lite) datagram discarded due to failing checksum\n"));
 437:Middlewares/Third_Party/LwIP/src/core/udp.c ****   UDP_STATS_INC(udp.chkerr);
ARM GAS  /tmp/ccI5hTuN.s 			page 22


 438:Middlewares/Third_Party/LwIP/src/core/udp.c ****   UDP_STATS_INC(udp.drop);
 439:Middlewares/Third_Party/LwIP/src/core/udp.c ****   MIB2_STATS_INC(mib2.udpinerrors);
 440:Middlewares/Third_Party/LwIP/src/core/udp.c ****   pbuf_free(p);
 441:Middlewares/Third_Party/LwIP/src/core/udp.c ****   PERF_STOP("udp_input");
 442:Middlewares/Third_Party/LwIP/src/core/udp.c **** #endif /* CHECKSUM_CHECK_UDP */
 443:Middlewares/Third_Party/LwIP/src/core/udp.c **** }
 720              		.loc 1 443 1
 721 0202 2C37     		adds	r7, r7, #44
 722              	.LCFI16:
 723              		.cfi_def_cfa_offset 12
 724 0204 BD46     		mov	sp, r7
 725              	.LCFI17:
 726              		.cfi_def_cfa_register 13
 727              		@ sp needed
 728 0206 90BD     		pop	{r4, r7, pc}
 729              	.L50:
 730              		.align	2
 731              	.L49:
 732 0208 00000000 		.word	.LC0
 733 020c A0000000 		.word	.LC4
 734 0210 50000000 		.word	.LC2
 735 0214 B8000000 		.word	.LC5
 736 0218 00000000 		.word	ip_data
 737 021c 00000000 		.word	udp_pcbs
 738 0220 D4000000 		.word	.LC6
 739 0224 10000000 		.word	ip_data+16
 740              		.cfi_endproc
 741              	.LFE136:
 743              		.section	.rodata
 744 00ef 00       		.align	2
 745              	.LC7:
 746 00f0 7564705F 		.ascii	"udp_send: invalid pcb\000"
 746      73656E64 
 746      3A20696E 
 746      76616C69 
 746      64207063 
 747 0106 0000     		.align	2
 748              	.LC8:
 749 0108 7564705F 		.ascii	"udp_send: invalid pbuf\000"
 749      73656E64 
 749      3A20696E 
 749      76616C69 
 749      64207062 
 750              		.section	.text.udp_send,"ax",%progbits
 751              		.align	1
 752              		.global	udp_send
 753              		.syntax unified
 754              		.thumb
 755              		.thumb_func
 756              		.fpu fpv4-sp-d16
 758              	udp_send:
 759              	.LFB137:
 444:Middlewares/Third_Party/LwIP/src/core/udp.c **** 
 445:Middlewares/Third_Party/LwIP/src/core/udp.c **** /**
 446:Middlewares/Third_Party/LwIP/src/core/udp.c ****  * @ingroup udp_raw
 447:Middlewares/Third_Party/LwIP/src/core/udp.c ****  * Sends the pbuf p using UDP. The pbuf is not deallocated.
 448:Middlewares/Third_Party/LwIP/src/core/udp.c ****  *
ARM GAS  /tmp/ccI5hTuN.s 			page 23


 449:Middlewares/Third_Party/LwIP/src/core/udp.c ****  *
 450:Middlewares/Third_Party/LwIP/src/core/udp.c ****  * @param pcb UDP PCB used to send the data.
 451:Middlewares/Third_Party/LwIP/src/core/udp.c ****  * @param p chain of pbuf's to be sent.
 452:Middlewares/Third_Party/LwIP/src/core/udp.c ****  *
 453:Middlewares/Third_Party/LwIP/src/core/udp.c ****  * The datagram will be sent to the current remote_ip & remote_port
 454:Middlewares/Third_Party/LwIP/src/core/udp.c ****  * stored in pcb. If the pcb is not bound to a port, it will
 455:Middlewares/Third_Party/LwIP/src/core/udp.c ****  * automatically be bound to a random port.
 456:Middlewares/Third_Party/LwIP/src/core/udp.c ****  *
 457:Middlewares/Third_Party/LwIP/src/core/udp.c ****  * @return lwIP error code.
 458:Middlewares/Third_Party/LwIP/src/core/udp.c ****  * - ERR_OK. Successful. No error occurred.
 459:Middlewares/Third_Party/LwIP/src/core/udp.c ****  * - ERR_MEM. Out of memory.
 460:Middlewares/Third_Party/LwIP/src/core/udp.c ****  * - ERR_RTE. Could not find route to destination address.
 461:Middlewares/Third_Party/LwIP/src/core/udp.c ****  * - ERR_VAL. No PCB or PCB is dual-stack
 462:Middlewares/Third_Party/LwIP/src/core/udp.c ****  * - More errors could be returned by lower protocol layers.
 463:Middlewares/Third_Party/LwIP/src/core/udp.c ****  *
 464:Middlewares/Third_Party/LwIP/src/core/udp.c ****  * @see udp_disconnect() udp_sendto()
 465:Middlewares/Third_Party/LwIP/src/core/udp.c ****  */
 466:Middlewares/Third_Party/LwIP/src/core/udp.c **** err_t
 467:Middlewares/Third_Party/LwIP/src/core/udp.c **** udp_send(struct udp_pcb *pcb, struct pbuf *p)
 468:Middlewares/Third_Party/LwIP/src/core/udp.c **** {
 760              		.loc 1 468 1
 761              		.cfi_startproc
 762              		@ args = 0, pretend = 0, frame = 8
 763              		@ frame_needed = 1, uses_anonymous_args = 0
 764 0000 80B5     		push	{r7, lr}
 765              	.LCFI18:
 766              		.cfi_def_cfa_offset 8
 767              		.cfi_offset 7, -8
 768              		.cfi_offset 14, -4
 769 0002 82B0     		sub	sp, sp, #8
 770              	.LCFI19:
 771              		.cfi_def_cfa_offset 16
 772 0004 00AF     		add	r7, sp, #0
 773              	.LCFI20:
 774              		.cfi_def_cfa_register 7
 775 0006 7860     		str	r0, [r7, #4]
 776 0008 3960     		str	r1, [r7]
 469:Middlewares/Third_Party/LwIP/src/core/udp.c ****   LWIP_ERROR("udp_send: invalid pcb", pcb != NULL, return ERR_ARG);
 777              		.loc 1 469 3
 778 000a 7B68     		ldr	r3, [r7, #4]
 779 000c 002B     		cmp	r3, #0
 780 000e 09D1     		bne	.L52
 781              		.loc 1 469 3 is_stmt 0 discriminator 1
 782 0010 114B     		ldr	r3, .L55
 783 0012 40F2D512 		movw	r2, #469
 784 0016 1149     		ldr	r1, .L55+4
 785 0018 1148     		ldr	r0, .L55+8
 786 001a FFF7FEFF 		bl	printf
 787 001e 6FF00F03 		mvn	r3, #15
 788 0022 15E0     		b	.L53
 789              	.L52:
 470:Middlewares/Third_Party/LwIP/src/core/udp.c ****   LWIP_ERROR("udp_send: invalid pbuf", p != NULL, return ERR_ARG);
 790              		.loc 1 470 3 is_stmt 1
 791 0024 3B68     		ldr	r3, [r7]
 792 0026 002B     		cmp	r3, #0
 793 0028 09D1     		bne	.L54
 794              		.loc 1 470 3 is_stmt 0 discriminator 1
ARM GAS  /tmp/ccI5hTuN.s 			page 24


 795 002a 0B4B     		ldr	r3, .L55
 796 002c 4FF4EB72 		mov	r2, #470
 797 0030 0C49     		ldr	r1, .L55+12
 798 0032 0B48     		ldr	r0, .L55+8
 799 0034 FFF7FEFF 		bl	printf
 800 0038 6FF00F03 		mvn	r3, #15
 801 003c 08E0     		b	.L53
 802              	.L54:
 471:Middlewares/Third_Party/LwIP/src/core/udp.c **** 
 472:Middlewares/Third_Party/LwIP/src/core/udp.c ****   if (IP_IS_ANY_TYPE_VAL(pcb->remote_ip)) {
 473:Middlewares/Third_Party/LwIP/src/core/udp.c ****     return ERR_VAL;
 474:Middlewares/Third_Party/LwIP/src/core/udp.c ****   }
 475:Middlewares/Third_Party/LwIP/src/core/udp.c **** 
 476:Middlewares/Third_Party/LwIP/src/core/udp.c ****   /* send to the packet using remote ip and port stored in the pcb */
 477:Middlewares/Third_Party/LwIP/src/core/udp.c ****   return udp_sendto(pcb, p, &pcb->remote_ip, pcb->remote_port);
 803              		.loc 1 477 29 is_stmt 1
 804 003e 7B68     		ldr	r3, [r7, #4]
 805 0040 1A1D     		adds	r2, r3, #4
 806              		.loc 1 477 10
 807 0042 7B68     		ldr	r3, [r7, #4]
 808 0044 9B8A     		ldrh	r3, [r3, #20]
 809 0046 3968     		ldr	r1, [r7]
 810 0048 7868     		ldr	r0, [r7, #4]
 811 004a FFF7FEFF 		bl	udp_sendto
 812 004e 0346     		mov	r3, r0
 813              	.L53:
 478:Middlewares/Third_Party/LwIP/src/core/udp.c **** }
 814              		.loc 1 478 1
 815 0050 1846     		mov	r0, r3
 816 0052 0837     		adds	r7, r7, #8
 817              	.LCFI21:
 818              		.cfi_def_cfa_offset 8
 819 0054 BD46     		mov	sp, r7
 820              	.LCFI22:
 821              		.cfi_def_cfa_register 13
 822              		@ sp needed
 823 0056 80BD     		pop	{r7, pc}
 824              	.L56:
 825              		.align	2
 826              	.L55:
 827 0058 00000000 		.word	.LC0
 828 005c F0000000 		.word	.LC7
 829 0060 50000000 		.word	.LC2
 830 0064 08010000 		.word	.LC8
 831              		.cfi_endproc
 832              	.LFE137:
 834              		.section	.rodata
 835 011f 00       		.align	2
 836              	.LC9:
 837 0120 7564705F 		.ascii	"udp_sendto: invalid pcb\000"
 837      73656E64 
 837      746F3A20 
 837      696E7661 
 837      6C696420 
 838              		.align	2
 839              	.LC10:
 840 0138 7564705F 		.ascii	"udp_sendto: invalid pbuf\000"
ARM GAS  /tmp/ccI5hTuN.s 			page 25


 840      73656E64 
 840      746F3A20 
 840      696E7661 
 840      6C696420 
 841 0151 000000   		.align	2
 842              	.LC11:
 843 0154 7564705F 		.ascii	"udp_sendto: invalid dst_ip\000"
 843      73656E64 
 843      746F3A20 
 843      696E7661 
 843      6C696420 
 844              		.section	.text.udp_sendto,"ax",%progbits
 845              		.align	1
 846              		.global	udp_sendto
 847              		.syntax unified
 848              		.thumb
 849              		.thumb_func
 850              		.fpu fpv4-sp-d16
 852              	udp_sendto:
 853              	.LFB138:
 479:Middlewares/Third_Party/LwIP/src/core/udp.c **** 
 480:Middlewares/Third_Party/LwIP/src/core/udp.c **** #if LWIP_CHECKSUM_ON_COPY && CHECKSUM_GEN_UDP
 481:Middlewares/Third_Party/LwIP/src/core/udp.c **** /** @ingroup udp_raw
 482:Middlewares/Third_Party/LwIP/src/core/udp.c ****  * Same as udp_send() but with checksum
 483:Middlewares/Third_Party/LwIP/src/core/udp.c ****  */
 484:Middlewares/Third_Party/LwIP/src/core/udp.c **** err_t
 485:Middlewares/Third_Party/LwIP/src/core/udp.c **** udp_send_chksum(struct udp_pcb *pcb, struct pbuf *p,
 486:Middlewares/Third_Party/LwIP/src/core/udp.c ****                 u8_t have_chksum, u16_t chksum)
 487:Middlewares/Third_Party/LwIP/src/core/udp.c **** {
 488:Middlewares/Third_Party/LwIP/src/core/udp.c ****   LWIP_ERROR("udp_send_chksum: invalid pcb", pcb != NULL, return ERR_ARG);
 489:Middlewares/Third_Party/LwIP/src/core/udp.c ****   LWIP_ERROR("udp_send_chksum: invalid pbuf", p != NULL, return ERR_ARG);
 490:Middlewares/Third_Party/LwIP/src/core/udp.c **** 
 491:Middlewares/Third_Party/LwIP/src/core/udp.c ****   if (IP_IS_ANY_TYPE_VAL(pcb->remote_ip)) {
 492:Middlewares/Third_Party/LwIP/src/core/udp.c ****     return ERR_VAL;
 493:Middlewares/Third_Party/LwIP/src/core/udp.c ****   }
 494:Middlewares/Third_Party/LwIP/src/core/udp.c **** 
 495:Middlewares/Third_Party/LwIP/src/core/udp.c ****   /* send to the packet using remote ip and port stored in the pcb */
 496:Middlewares/Third_Party/LwIP/src/core/udp.c ****   return udp_sendto_chksum(pcb, p, &pcb->remote_ip, pcb->remote_port,
 497:Middlewares/Third_Party/LwIP/src/core/udp.c ****                            have_chksum, chksum);
 498:Middlewares/Third_Party/LwIP/src/core/udp.c **** }
 499:Middlewares/Third_Party/LwIP/src/core/udp.c **** #endif /* LWIP_CHECKSUM_ON_COPY && CHECKSUM_GEN_UDP */
 500:Middlewares/Third_Party/LwIP/src/core/udp.c **** 
 501:Middlewares/Third_Party/LwIP/src/core/udp.c **** /**
 502:Middlewares/Third_Party/LwIP/src/core/udp.c ****  * @ingroup udp_raw
 503:Middlewares/Third_Party/LwIP/src/core/udp.c ****  * Send data to a specified address using UDP.
 504:Middlewares/Third_Party/LwIP/src/core/udp.c ****  *
 505:Middlewares/Third_Party/LwIP/src/core/udp.c ****  * @param pcb UDP PCB used to send the data.
 506:Middlewares/Third_Party/LwIP/src/core/udp.c ****  * @param p chain of pbuf's to be sent.
 507:Middlewares/Third_Party/LwIP/src/core/udp.c ****  * @param dst_ip Destination IP address.
 508:Middlewares/Third_Party/LwIP/src/core/udp.c ****  * @param dst_port Destination UDP port.
 509:Middlewares/Third_Party/LwIP/src/core/udp.c ****  *
 510:Middlewares/Third_Party/LwIP/src/core/udp.c ****  * dst_ip & dst_port are expected to be in the same byte order as in the pcb.
 511:Middlewares/Third_Party/LwIP/src/core/udp.c ****  *
 512:Middlewares/Third_Party/LwIP/src/core/udp.c ****  * If the PCB already has a remote address association, it will
 513:Middlewares/Third_Party/LwIP/src/core/udp.c ****  * be restored after the data is sent.
 514:Middlewares/Third_Party/LwIP/src/core/udp.c ****  *
 515:Middlewares/Third_Party/LwIP/src/core/udp.c ****  * @return lwIP error code (@see udp_send for possible error codes)
ARM GAS  /tmp/ccI5hTuN.s 			page 26


 516:Middlewares/Third_Party/LwIP/src/core/udp.c ****  *
 517:Middlewares/Third_Party/LwIP/src/core/udp.c ****  * @see udp_disconnect() udp_send()
 518:Middlewares/Third_Party/LwIP/src/core/udp.c ****  */
 519:Middlewares/Third_Party/LwIP/src/core/udp.c **** err_t
 520:Middlewares/Third_Party/LwIP/src/core/udp.c **** udp_sendto(struct udp_pcb *pcb, struct pbuf *p,
 521:Middlewares/Third_Party/LwIP/src/core/udp.c ****            const ip_addr_t *dst_ip, u16_t dst_port)
 522:Middlewares/Third_Party/LwIP/src/core/udp.c **** {
 854              		.loc 1 522 1
 855              		.cfi_startproc
 856              		@ args = 0, pretend = 0, frame = 24
 857              		@ frame_needed = 1, uses_anonymous_args = 0
 858 0000 80B5     		push	{r7, lr}
 859              	.LCFI23:
 860              		.cfi_def_cfa_offset 8
 861              		.cfi_offset 7, -8
 862              		.cfi_offset 14, -4
 863 0002 88B0     		sub	sp, sp, #32
 864              	.LCFI24:
 865              		.cfi_def_cfa_offset 40
 866 0004 02AF     		add	r7, sp, #8
 867              	.LCFI25:
 868              		.cfi_def_cfa 7, 32
 869 0006 F860     		str	r0, [r7, #12]
 870 0008 B960     		str	r1, [r7, #8]
 871 000a 7A60     		str	r2, [r7, #4]
 872 000c 7B80     		strh	r3, [r7, #2]	@ movhi
 523:Middlewares/Third_Party/LwIP/src/core/udp.c **** #if LWIP_CHECKSUM_ON_COPY && CHECKSUM_GEN_UDP
 524:Middlewares/Third_Party/LwIP/src/core/udp.c ****   return udp_sendto_chksum(pcb, p, dst_ip, dst_port, 0, 0);
 525:Middlewares/Third_Party/LwIP/src/core/udp.c **** }
 526:Middlewares/Third_Party/LwIP/src/core/udp.c **** 
 527:Middlewares/Third_Party/LwIP/src/core/udp.c **** /** @ingroup udp_raw
 528:Middlewares/Third_Party/LwIP/src/core/udp.c ****  * Same as udp_sendto(), but with checksum */
 529:Middlewares/Third_Party/LwIP/src/core/udp.c **** err_t
 530:Middlewares/Third_Party/LwIP/src/core/udp.c **** udp_sendto_chksum(struct udp_pcb *pcb, struct pbuf *p, const ip_addr_t *dst_ip,
 531:Middlewares/Third_Party/LwIP/src/core/udp.c ****                   u16_t dst_port, u8_t have_chksum, u16_t chksum)
 532:Middlewares/Third_Party/LwIP/src/core/udp.c **** {
 533:Middlewares/Third_Party/LwIP/src/core/udp.c **** #endif /* LWIP_CHECKSUM_ON_COPY && CHECKSUM_GEN_UDP */
 534:Middlewares/Third_Party/LwIP/src/core/udp.c ****   struct netif *netif;
 535:Middlewares/Third_Party/LwIP/src/core/udp.c **** 
 536:Middlewares/Third_Party/LwIP/src/core/udp.c ****   LWIP_ERROR("udp_sendto: invalid pcb", pcb != NULL, return ERR_ARG);
 873              		.loc 1 536 3
 874 000e FB68     		ldr	r3, [r7, #12]
 875 0010 002B     		cmp	r3, #0
 876 0012 09D1     		bne	.L58
 877              		.loc 1 536 3 is_stmt 0 discriminator 1
 878 0014 234B     		ldr	r3, .L65
 879 0016 4FF40672 		mov	r2, #536
 880 001a 2349     		ldr	r1, .L65+4
 881 001c 2348     		ldr	r0, .L65+8
 882 001e FFF7FEFF 		bl	printf
 883 0022 6FF00F03 		mvn	r3, #15
 884 0026 38E0     		b	.L59
 885              	.L58:
 537:Middlewares/Third_Party/LwIP/src/core/udp.c ****   LWIP_ERROR("udp_sendto: invalid pbuf", p != NULL, return ERR_ARG);
 886              		.loc 1 537 3 is_stmt 1
 887 0028 BB68     		ldr	r3, [r7, #8]
 888 002a 002B     		cmp	r3, #0
ARM GAS  /tmp/ccI5hTuN.s 			page 27


 889 002c 09D1     		bne	.L60
 890              		.loc 1 537 3 is_stmt 0 discriminator 1
 891 002e 1D4B     		ldr	r3, .L65
 892 0030 40F21922 		movw	r2, #537
 893 0034 1E49     		ldr	r1, .L65+12
 894 0036 1D48     		ldr	r0, .L65+8
 895 0038 FFF7FEFF 		bl	printf
 896 003c 6FF00F03 		mvn	r3, #15
 897 0040 2BE0     		b	.L59
 898              	.L60:
 538:Middlewares/Third_Party/LwIP/src/core/udp.c ****   LWIP_ERROR("udp_sendto: invalid dst_ip", dst_ip != NULL, return ERR_ARG);
 899              		.loc 1 538 3 is_stmt 1
 900 0042 7B68     		ldr	r3, [r7, #4]
 901 0044 002B     		cmp	r3, #0
 902 0046 09D1     		bne	.L61
 903              		.loc 1 538 3 is_stmt 0 discriminator 1
 904 0048 164B     		ldr	r3, .L65
 905 004a 40F21A22 		movw	r2, #538
 906 004e 1949     		ldr	r1, .L65+16
 907 0050 1648     		ldr	r0, .L65+8
 908 0052 FFF7FEFF 		bl	printf
 909 0056 6FF00F03 		mvn	r3, #15
 910 005a 1EE0     		b	.L59
 911              	.L61:
 539:Middlewares/Third_Party/LwIP/src/core/udp.c **** 
 540:Middlewares/Third_Party/LwIP/src/core/udp.c ****   if (!IP_ADDR_PCB_VERSION_MATCH(pcb, dst_ip)) {
 541:Middlewares/Third_Party/LwIP/src/core/udp.c ****     return ERR_VAL;
 542:Middlewares/Third_Party/LwIP/src/core/udp.c ****   }
 543:Middlewares/Third_Party/LwIP/src/core/udp.c **** 
 544:Middlewares/Third_Party/LwIP/src/core/udp.c ****   LWIP_DEBUGF(UDP_DEBUG | LWIP_DBG_TRACE, ("udp_send\n"));
 545:Middlewares/Third_Party/LwIP/src/core/udp.c **** 
 546:Middlewares/Third_Party/LwIP/src/core/udp.c ****   if (pcb->netif_idx != NETIF_NO_INDEX) {
 912              		.loc 1 546 10 is_stmt 1
 913 005c FB68     		ldr	r3, [r7, #12]
 914 005e 1B7A     		ldrb	r3, [r3, #8]	@ zero_extendqisi2
 915              		.loc 1 546 6
 916 0060 002B     		cmp	r3, #0
 917 0062 06D0     		beq	.L62
 547:Middlewares/Third_Party/LwIP/src/core/udp.c ****     netif = netif_get_by_index(pcb->netif_idx);
 918              		.loc 1 547 13
 919 0064 FB68     		ldr	r3, [r7, #12]
 920 0066 1B7A     		ldrb	r3, [r3, #8]	@ zero_extendqisi2
 921 0068 1846     		mov	r0, r3
 922 006a FFF7FEFF 		bl	netif_get_by_index
 923 006e 7861     		str	r0, [r7, #20]
 924 0070 03E0     		b	.L63
 925              	.L62:
 548:Middlewares/Third_Party/LwIP/src/core/udp.c ****   } else {
 549:Middlewares/Third_Party/LwIP/src/core/udp.c **** #if LWIP_MULTICAST_TX_OPTIONS
 550:Middlewares/Third_Party/LwIP/src/core/udp.c ****     netif = NULL;
 551:Middlewares/Third_Party/LwIP/src/core/udp.c ****     if (ip_addr_ismulticast(dst_ip)) {
 552:Middlewares/Third_Party/LwIP/src/core/udp.c ****       /* For IPv6, the interface to use for packets with a multicast destination
 553:Middlewares/Third_Party/LwIP/src/core/udp.c ****        * is specified using an interface index. The same approach may be used for
 554:Middlewares/Third_Party/LwIP/src/core/udp.c ****        * IPv4 as well, in which case it overrides the IPv4 multicast override
 555:Middlewares/Third_Party/LwIP/src/core/udp.c ****        * address below. Here we have to look up the netif by going through the
 556:Middlewares/Third_Party/LwIP/src/core/udp.c ****        * list, but by doing so we skip a route lookup. If the interface index has
 557:Middlewares/Third_Party/LwIP/src/core/udp.c ****        * gone stale, we fall through and do the regular route lookup after all. */
ARM GAS  /tmp/ccI5hTuN.s 			page 28


 558:Middlewares/Third_Party/LwIP/src/core/udp.c ****       if (pcb->mcast_ifindex != NETIF_NO_INDEX) {
 559:Middlewares/Third_Party/LwIP/src/core/udp.c ****         netif = netif_get_by_index(pcb->mcast_ifindex);
 560:Middlewares/Third_Party/LwIP/src/core/udp.c ****       }
 561:Middlewares/Third_Party/LwIP/src/core/udp.c **** #if LWIP_IPV4
 562:Middlewares/Third_Party/LwIP/src/core/udp.c ****       else
 563:Middlewares/Third_Party/LwIP/src/core/udp.c **** #if LWIP_IPV6
 564:Middlewares/Third_Party/LwIP/src/core/udp.c ****         if (IP_IS_V4(dst_ip))
 565:Middlewares/Third_Party/LwIP/src/core/udp.c **** #endif /* LWIP_IPV6 */
 566:Middlewares/Third_Party/LwIP/src/core/udp.c ****         {
 567:Middlewares/Third_Party/LwIP/src/core/udp.c ****           /* IPv4 does not use source-based routing by default, so we use an
 568:Middlewares/Third_Party/LwIP/src/core/udp.c ****              administratively selected interface for multicast by default.
 569:Middlewares/Third_Party/LwIP/src/core/udp.c ****              However, this can be overridden by setting an interface address
 570:Middlewares/Third_Party/LwIP/src/core/udp.c ****              in pcb->mcast_ip4 that is used for routing. If this routing lookup
 571:Middlewares/Third_Party/LwIP/src/core/udp.c ****              fails, we try regular routing as though no override was set. */
 572:Middlewares/Third_Party/LwIP/src/core/udp.c ****           if (!ip4_addr_isany_val(pcb->mcast_ip4) &&
 573:Middlewares/Third_Party/LwIP/src/core/udp.c ****               !ip4_addr_cmp(&pcb->mcast_ip4, IP4_ADDR_BROADCAST)) {
 574:Middlewares/Third_Party/LwIP/src/core/udp.c ****             netif = ip4_route_src(ip_2_ip4(&pcb->local_ip), &pcb->mcast_ip4);
 575:Middlewares/Third_Party/LwIP/src/core/udp.c ****           }
 576:Middlewares/Third_Party/LwIP/src/core/udp.c ****         }
 577:Middlewares/Third_Party/LwIP/src/core/udp.c **** #endif /* LWIP_IPV4 */
 578:Middlewares/Third_Party/LwIP/src/core/udp.c ****     }
 579:Middlewares/Third_Party/LwIP/src/core/udp.c **** 
 580:Middlewares/Third_Party/LwIP/src/core/udp.c ****     if (netif == NULL)
 581:Middlewares/Third_Party/LwIP/src/core/udp.c **** #endif /* LWIP_MULTICAST_TX_OPTIONS */
 582:Middlewares/Third_Party/LwIP/src/core/udp.c ****     {
 583:Middlewares/Third_Party/LwIP/src/core/udp.c ****       /* find the outgoing network interface for this packet */
 584:Middlewares/Third_Party/LwIP/src/core/udp.c ****       netif = ip_route(&pcb->local_ip, dst_ip);
 926              		.loc 1 584 15
 927 0072 7868     		ldr	r0, [r7, #4]
 928 0074 FFF7FEFF 		bl	ip4_route
 929 0078 7861     		str	r0, [r7, #20]
 930              	.L63:
 585:Middlewares/Third_Party/LwIP/src/core/udp.c ****     }
 586:Middlewares/Third_Party/LwIP/src/core/udp.c ****   }
 587:Middlewares/Third_Party/LwIP/src/core/udp.c **** 
 588:Middlewares/Third_Party/LwIP/src/core/udp.c ****   /* no outgoing network interface could be found? */
 589:Middlewares/Third_Party/LwIP/src/core/udp.c ****   if (netif == NULL) {
 931              		.loc 1 589 6
 932 007a 7B69     		ldr	r3, [r7, #20]
 933 007c 002B     		cmp	r3, #0
 934 007e 02D1     		bne	.L64
 590:Middlewares/Third_Party/LwIP/src/core/udp.c ****     LWIP_DEBUGF(UDP_DEBUG | LWIP_DBG_LEVEL_SERIOUS, ("udp_send: No route to "));
 591:Middlewares/Third_Party/LwIP/src/core/udp.c ****     ip_addr_debug_print(UDP_DEBUG | LWIP_DBG_LEVEL_SERIOUS, dst_ip);
 592:Middlewares/Third_Party/LwIP/src/core/udp.c ****     LWIP_DEBUGF(UDP_DEBUG, ("\n"));
 593:Middlewares/Third_Party/LwIP/src/core/udp.c ****     UDP_STATS_INC(udp.rterr);
 594:Middlewares/Third_Party/LwIP/src/core/udp.c ****     return ERR_RTE;
 935              		.loc 1 594 12
 936 0080 6FF00303 		mvn	r3, #3
 937 0084 09E0     		b	.L59
 938              	.L64:
 595:Middlewares/Third_Party/LwIP/src/core/udp.c ****   }
 596:Middlewares/Third_Party/LwIP/src/core/udp.c **** #if LWIP_CHECKSUM_ON_COPY && CHECKSUM_GEN_UDP
 597:Middlewares/Third_Party/LwIP/src/core/udp.c ****   return udp_sendto_if_chksum(pcb, p, dst_ip, dst_port, netif, have_chksum, chksum);
 598:Middlewares/Third_Party/LwIP/src/core/udp.c **** #else /* LWIP_CHECKSUM_ON_COPY && CHECKSUM_GEN_UDP */
 599:Middlewares/Third_Party/LwIP/src/core/udp.c ****   return udp_sendto_if(pcb, p, dst_ip, dst_port, netif);
 939              		.loc 1 599 10
 940 0086 7A88     		ldrh	r2, [r7, #2]
ARM GAS  /tmp/ccI5hTuN.s 			page 29


 941 0088 7B69     		ldr	r3, [r7, #20]
 942 008a 0093     		str	r3, [sp]
 943 008c 1346     		mov	r3, r2
 944 008e 7A68     		ldr	r2, [r7, #4]
 945 0090 B968     		ldr	r1, [r7, #8]
 946 0092 F868     		ldr	r0, [r7, #12]
 947 0094 FFF7FEFF 		bl	udp_sendto_if
 948 0098 0346     		mov	r3, r0
 949              	.L59:
 600:Middlewares/Third_Party/LwIP/src/core/udp.c **** #endif /* LWIP_CHECKSUM_ON_COPY && CHECKSUM_GEN_UDP */
 601:Middlewares/Third_Party/LwIP/src/core/udp.c **** }
 950              		.loc 1 601 1
 951 009a 1846     		mov	r0, r3
 952 009c 1837     		adds	r7, r7, #24
 953              	.LCFI26:
 954              		.cfi_def_cfa_offset 8
 955 009e BD46     		mov	sp, r7
 956              	.LCFI27:
 957              		.cfi_def_cfa_register 13
 958              		@ sp needed
 959 00a0 80BD     		pop	{r7, pc}
 960              	.L66:
 961 00a2 00BF     		.align	2
 962              	.L65:
 963 00a4 00000000 		.word	.LC0
 964 00a8 20010000 		.word	.LC9
 965 00ac 50000000 		.word	.LC2
 966 00b0 38010000 		.word	.LC10
 967 00b4 54010000 		.word	.LC11
 968              		.cfi_endproc
 969              	.LFE138:
 971              		.section	.rodata
 972 016f 00       		.align	2
 973              	.LC12:
 974 0170 7564705F 		.ascii	"udp_sendto_if: invalid pcb\000"
 974      73656E64 
 974      746F5F69 
 974      663A2069 
 974      6E76616C 
 975 018b 00       		.align	2
 976              	.LC13:
 977 018c 7564705F 		.ascii	"udp_sendto_if: invalid pbuf\000"
 977      73656E64 
 977      746F5F69 
 977      663A2069 
 977      6E76616C 
 978              		.align	2
 979              	.LC14:
 980 01a8 7564705F 		.ascii	"udp_sendto_if: invalid dst_ip\000"
 980      73656E64 
 980      746F5F69 
 980      663A2069 
 980      6E76616C 
 981 01c6 0000     		.align	2
 982              	.LC15:
 983 01c8 7564705F 		.ascii	"udp_sendto_if: invalid netif\000"
 983      73656E64 
ARM GAS  /tmp/ccI5hTuN.s 			page 30


 983      746F5F69 
 983      663A2069 
 983      6E76616C 
 984              		.section	.text.udp_sendto_if,"ax",%progbits
 985              		.align	1
 986              		.global	udp_sendto_if
 987              		.syntax unified
 988              		.thumb
 989              		.thumb_func
 990              		.fpu fpv4-sp-d16
 992              	udp_sendto_if:
 993              	.LFB139:
 602:Middlewares/Third_Party/LwIP/src/core/udp.c **** 
 603:Middlewares/Third_Party/LwIP/src/core/udp.c **** /**
 604:Middlewares/Third_Party/LwIP/src/core/udp.c ****  * @ingroup udp_raw
 605:Middlewares/Third_Party/LwIP/src/core/udp.c ****  * Send data to a specified address using UDP.
 606:Middlewares/Third_Party/LwIP/src/core/udp.c ****  * The netif used for sending can be specified.
 607:Middlewares/Third_Party/LwIP/src/core/udp.c ****  *
 608:Middlewares/Third_Party/LwIP/src/core/udp.c ****  * This function exists mainly for DHCP, to be able to send UDP packets
 609:Middlewares/Third_Party/LwIP/src/core/udp.c ****  * on a netif that is still down.
 610:Middlewares/Third_Party/LwIP/src/core/udp.c ****  *
 611:Middlewares/Third_Party/LwIP/src/core/udp.c ****  * @param pcb UDP PCB used to send the data.
 612:Middlewares/Third_Party/LwIP/src/core/udp.c ****  * @param p chain of pbuf's to be sent.
 613:Middlewares/Third_Party/LwIP/src/core/udp.c ****  * @param dst_ip Destination IP address.
 614:Middlewares/Third_Party/LwIP/src/core/udp.c ****  * @param dst_port Destination UDP port.
 615:Middlewares/Third_Party/LwIP/src/core/udp.c ****  * @param netif the netif used for sending.
 616:Middlewares/Third_Party/LwIP/src/core/udp.c ****  *
 617:Middlewares/Third_Party/LwIP/src/core/udp.c ****  * dst_ip & dst_port are expected to be in the same byte order as in the pcb.
 618:Middlewares/Third_Party/LwIP/src/core/udp.c ****  *
 619:Middlewares/Third_Party/LwIP/src/core/udp.c ****  * @return lwIP error code (@see udp_send for possible error codes)
 620:Middlewares/Third_Party/LwIP/src/core/udp.c ****  *
 621:Middlewares/Third_Party/LwIP/src/core/udp.c ****  * @see udp_disconnect() udp_send()
 622:Middlewares/Third_Party/LwIP/src/core/udp.c ****  */
 623:Middlewares/Third_Party/LwIP/src/core/udp.c **** err_t
 624:Middlewares/Third_Party/LwIP/src/core/udp.c **** udp_sendto_if(struct udp_pcb *pcb, struct pbuf *p,
 625:Middlewares/Third_Party/LwIP/src/core/udp.c ****               const ip_addr_t *dst_ip, u16_t dst_port, struct netif *netif)
 626:Middlewares/Third_Party/LwIP/src/core/udp.c **** {
 994              		.loc 1 626 1
 995              		.cfi_startproc
 996              		@ args = 4, pretend = 0, frame = 24
 997              		@ frame_needed = 1, uses_anonymous_args = 0
 998 0000 80B5     		push	{r7, lr}
 999              	.LCFI28:
 1000              		.cfi_def_cfa_offset 8
 1001              		.cfi_offset 7, -8
 1002              		.cfi_offset 14, -4
 1003 0002 88B0     		sub	sp, sp, #32
 1004              	.LCFI29:
 1005              		.cfi_def_cfa_offset 40
 1006 0004 02AF     		add	r7, sp, #8
 1007              	.LCFI30:
 1008              		.cfi_def_cfa 7, 32
 1009 0006 F860     		str	r0, [r7, #12]
 1010 0008 B960     		str	r1, [r7, #8]
 1011 000a 7A60     		str	r2, [r7, #4]
 1012 000c 7B80     		strh	r3, [r7, #2]	@ movhi
 627:Middlewares/Third_Party/LwIP/src/core/udp.c **** #if LWIP_CHECKSUM_ON_COPY && CHECKSUM_GEN_UDP
ARM GAS  /tmp/ccI5hTuN.s 			page 31


 628:Middlewares/Third_Party/LwIP/src/core/udp.c ****   return udp_sendto_if_chksum(pcb, p, dst_ip, dst_port, netif, 0, 0);
 629:Middlewares/Third_Party/LwIP/src/core/udp.c **** }
 630:Middlewares/Third_Party/LwIP/src/core/udp.c **** 
 631:Middlewares/Third_Party/LwIP/src/core/udp.c **** /** Same as udp_sendto_if(), but with checksum */
 632:Middlewares/Third_Party/LwIP/src/core/udp.c **** err_t
 633:Middlewares/Third_Party/LwIP/src/core/udp.c **** udp_sendto_if_chksum(struct udp_pcb *pcb, struct pbuf *p, const ip_addr_t *dst_ip,
 634:Middlewares/Third_Party/LwIP/src/core/udp.c ****                      u16_t dst_port, struct netif *netif, u8_t have_chksum,
 635:Middlewares/Third_Party/LwIP/src/core/udp.c ****                      u16_t chksum)
 636:Middlewares/Third_Party/LwIP/src/core/udp.c **** {
 637:Middlewares/Third_Party/LwIP/src/core/udp.c **** #endif /* LWIP_CHECKSUM_ON_COPY && CHECKSUM_GEN_UDP */
 638:Middlewares/Third_Party/LwIP/src/core/udp.c ****   const ip_addr_t *src_ip;
 639:Middlewares/Third_Party/LwIP/src/core/udp.c **** 
 640:Middlewares/Third_Party/LwIP/src/core/udp.c ****   LWIP_ERROR("udp_sendto_if: invalid pcb", pcb != NULL, return ERR_ARG);
 1013              		.loc 1 640 3
 1014 000e FB68     		ldr	r3, [r7, #12]
 1015 0010 002B     		cmp	r3, #0
 1016 0012 09D1     		bne	.L68
 1017              		.loc 1 640 3 is_stmt 0 discriminator 1
 1018 0014 2E4B     		ldr	r3, .L77
 1019 0016 4FF42072 		mov	r2, #640
 1020 001a 2E49     		ldr	r1, .L77+4
 1021 001c 2E48     		ldr	r0, .L77+8
 1022 001e FFF7FEFF 		bl	printf
 1023 0022 6FF00F03 		mvn	r3, #15
 1024 0026 4FE0     		b	.L69
 1025              	.L68:
 641:Middlewares/Third_Party/LwIP/src/core/udp.c ****   LWIP_ERROR("udp_sendto_if: invalid pbuf", p != NULL, return ERR_ARG);
 1026              		.loc 1 641 3 is_stmt 1
 1027 0028 BB68     		ldr	r3, [r7, #8]
 1028 002a 002B     		cmp	r3, #0
 1029 002c 09D1     		bne	.L70
 1030              		.loc 1 641 3 is_stmt 0 discriminator 1
 1031 002e 284B     		ldr	r3, .L77
 1032 0030 40F28122 		movw	r2, #641
 1033 0034 2949     		ldr	r1, .L77+12
 1034 0036 2848     		ldr	r0, .L77+8
 1035 0038 FFF7FEFF 		bl	printf
 1036 003c 6FF00F03 		mvn	r3, #15
 1037 0040 42E0     		b	.L69
 1038              	.L70:
 642:Middlewares/Third_Party/LwIP/src/core/udp.c ****   LWIP_ERROR("udp_sendto_if: invalid dst_ip", dst_ip != NULL, return ERR_ARG);
 1039              		.loc 1 642 3 is_stmt 1
 1040 0042 7B68     		ldr	r3, [r7, #4]
 1041 0044 002B     		cmp	r3, #0
 1042 0046 09D1     		bne	.L71
 1043              		.loc 1 642 3 is_stmt 0 discriminator 1
 1044 0048 214B     		ldr	r3, .L77
 1045 004a 40F28222 		movw	r2, #642
 1046 004e 2449     		ldr	r1, .L77+16
 1047 0050 2148     		ldr	r0, .L77+8
 1048 0052 FFF7FEFF 		bl	printf
 1049 0056 6FF00F03 		mvn	r3, #15
 1050 005a 35E0     		b	.L69
 1051              	.L71:
 643:Middlewares/Third_Party/LwIP/src/core/udp.c ****   LWIP_ERROR("udp_sendto_if: invalid netif", netif != NULL, return ERR_ARG);
 1052              		.loc 1 643 3 is_stmt 1
 1053 005c 3B6A     		ldr	r3, [r7, #32]
ARM GAS  /tmp/ccI5hTuN.s 			page 32


 1054 005e 002B     		cmp	r3, #0
 1055 0060 09D1     		bne	.L72
 1056              		.loc 1 643 3 is_stmt 0 discriminator 1
 1057 0062 1B4B     		ldr	r3, .L77
 1058 0064 40F28322 		movw	r2, #643
 1059 0068 1E49     		ldr	r1, .L77+20
 1060 006a 1B48     		ldr	r0, .L77+8
 1061 006c FFF7FEFF 		bl	printf
 1062 0070 6FF00F03 		mvn	r3, #15
 1063 0074 28E0     		b	.L69
 1064              	.L72:
 644:Middlewares/Third_Party/LwIP/src/core/udp.c **** 
 645:Middlewares/Third_Party/LwIP/src/core/udp.c ****   if (!IP_ADDR_PCB_VERSION_MATCH(pcb, dst_ip)) {
 646:Middlewares/Third_Party/LwIP/src/core/udp.c ****     return ERR_VAL;
 647:Middlewares/Third_Party/LwIP/src/core/udp.c ****   }
 648:Middlewares/Third_Party/LwIP/src/core/udp.c **** 
 649:Middlewares/Third_Party/LwIP/src/core/udp.c ****   /* PCB local address is IP_ANY_ADDR or multicast? */
 650:Middlewares/Third_Party/LwIP/src/core/udp.c **** #if LWIP_IPV6
 651:Middlewares/Third_Party/LwIP/src/core/udp.c ****   if (IP_IS_V6(dst_ip)) {
 652:Middlewares/Third_Party/LwIP/src/core/udp.c ****     if (ip6_addr_isany(ip_2_ip6(&pcb->local_ip)) ||
 653:Middlewares/Third_Party/LwIP/src/core/udp.c ****         ip6_addr_ismulticast(ip_2_ip6(&pcb->local_ip))) {
 654:Middlewares/Third_Party/LwIP/src/core/udp.c ****       src_ip = ip6_select_source_address(netif, ip_2_ip6(dst_ip));
 655:Middlewares/Third_Party/LwIP/src/core/udp.c ****       if (src_ip == NULL) {
 656:Middlewares/Third_Party/LwIP/src/core/udp.c ****         /* No suitable source address was found. */
 657:Middlewares/Third_Party/LwIP/src/core/udp.c ****         return ERR_RTE;
 658:Middlewares/Third_Party/LwIP/src/core/udp.c ****       }
 659:Middlewares/Third_Party/LwIP/src/core/udp.c ****     } else {
 660:Middlewares/Third_Party/LwIP/src/core/udp.c ****       /* use UDP PCB local IPv6 address as source address, if still valid. */
 661:Middlewares/Third_Party/LwIP/src/core/udp.c ****       if (netif_get_ip6_addr_match(netif, ip_2_ip6(&pcb->local_ip)) < 0) {
 662:Middlewares/Third_Party/LwIP/src/core/udp.c ****         /* Address isn't valid anymore. */
 663:Middlewares/Third_Party/LwIP/src/core/udp.c ****         return ERR_RTE;
 664:Middlewares/Third_Party/LwIP/src/core/udp.c ****       }
 665:Middlewares/Third_Party/LwIP/src/core/udp.c ****       src_ip = &pcb->local_ip;
 666:Middlewares/Third_Party/LwIP/src/core/udp.c ****     }
 667:Middlewares/Third_Party/LwIP/src/core/udp.c ****   }
 668:Middlewares/Third_Party/LwIP/src/core/udp.c **** #endif /* LWIP_IPV6 */
 669:Middlewares/Third_Party/LwIP/src/core/udp.c **** #if LWIP_IPV4 && LWIP_IPV6
 670:Middlewares/Third_Party/LwIP/src/core/udp.c ****   else
 671:Middlewares/Third_Party/LwIP/src/core/udp.c **** #endif /* LWIP_IPV4 && LWIP_IPV6 */
 672:Middlewares/Third_Party/LwIP/src/core/udp.c **** #if LWIP_IPV4
 673:Middlewares/Third_Party/LwIP/src/core/udp.c ****     if (ip4_addr_isany(ip_2_ip4(&pcb->local_ip)) ||
 1065              		.loc 1 673 9 is_stmt 1
 1066 0076 FB68     		ldr	r3, [r7, #12]
 1067              		.loc 1 673 8
 1068 0078 002B     		cmp	r3, #0
 1069 007a 09D0     		beq	.L73
 1070              		.loc 1 673 9 discriminator 1
 1071 007c FB68     		ldr	r3, [r7, #12]
 1072 007e 1B68     		ldr	r3, [r3]
 1073 0080 002B     		cmp	r3, #0
 1074 0082 05D0     		beq	.L73
 674:Middlewares/Third_Party/LwIP/src/core/udp.c ****         ip4_addr_ismulticast(ip_2_ip4(&pcb->local_ip))) {
 1075              		.loc 1 674 9 discriminator 2
 1076 0084 FB68     		ldr	r3, [r7, #12]
 1077 0086 1B68     		ldr	r3, [r3]
 1078 0088 03F0F003 		and	r3, r3, #240
 673:Middlewares/Third_Party/LwIP/src/core/udp.c ****         ip4_addr_ismulticast(ip_2_ip4(&pcb->local_ip))) {
ARM GAS  /tmp/ccI5hTuN.s 			page 33


 1079              		.loc 1 673 50 discriminator 2
 1080 008c E02B     		cmp	r3, #224
 1081 008e 03D1     		bne	.L74
 1082              	.L73:
 675:Middlewares/Third_Party/LwIP/src/core/udp.c ****       /* if the local_ip is any or multicast
 676:Middlewares/Third_Party/LwIP/src/core/udp.c ****        * use the outgoing network interface IP address as source address */
 677:Middlewares/Third_Party/LwIP/src/core/udp.c ****       src_ip = netif_ip_addr4(netif);
 1083              		.loc 1 677 14
 1084 0090 3B6A     		ldr	r3, [r7, #32]
 1085 0092 0433     		adds	r3, r3, #4
 1086 0094 7B61     		str	r3, [r7, #20]
 1087 0096 0BE0     		b	.L75
 1088              	.L74:
 678:Middlewares/Third_Party/LwIP/src/core/udp.c ****     } else {
 679:Middlewares/Third_Party/LwIP/src/core/udp.c ****       /* check if UDP PCB local IP address is correct
 680:Middlewares/Third_Party/LwIP/src/core/udp.c ****        * this could be an old address if netif->ip_addr has changed */
 681:Middlewares/Third_Party/LwIP/src/core/udp.c ****       if (!ip4_addr_cmp(ip_2_ip4(&(pcb->local_ip)), netif_ip4_addr(netif))) {
 1089              		.loc 1 681 12
 1090 0098 FB68     		ldr	r3, [r7, #12]
 1091 009a 1A68     		ldr	r2, [r3]
 1092 009c 3B6A     		ldr	r3, [r7, #32]
 1093 009e 0433     		adds	r3, r3, #4
 1094 00a0 1B68     		ldr	r3, [r3]
 1095              		.loc 1 681 10
 1096 00a2 9A42     		cmp	r2, r3
 1097 00a4 02D0     		beq	.L76
 682:Middlewares/Third_Party/LwIP/src/core/udp.c ****         /* local_ip doesn't match, drop the packet */
 683:Middlewares/Third_Party/LwIP/src/core/udp.c ****         return ERR_RTE;
 1098              		.loc 1 683 16
 1099 00a6 6FF00303 		mvn	r3, #3
 1100 00aa 0DE0     		b	.L69
 1101              	.L76:
 684:Middlewares/Third_Party/LwIP/src/core/udp.c ****       }
 685:Middlewares/Third_Party/LwIP/src/core/udp.c ****       /* use UDP PCB local IP address as source address */
 686:Middlewares/Third_Party/LwIP/src/core/udp.c ****       src_ip = &pcb->local_ip;
 1102              		.loc 1 686 14
 1103 00ac FB68     		ldr	r3, [r7, #12]
 1104 00ae 7B61     		str	r3, [r7, #20]
 1105              	.L75:
 687:Middlewares/Third_Party/LwIP/src/core/udp.c ****     }
 688:Middlewares/Third_Party/LwIP/src/core/udp.c **** #endif /* LWIP_IPV4 */
 689:Middlewares/Third_Party/LwIP/src/core/udp.c **** #if LWIP_CHECKSUM_ON_COPY && CHECKSUM_GEN_UDP
 690:Middlewares/Third_Party/LwIP/src/core/udp.c ****   return udp_sendto_if_src_chksum(pcb, p, dst_ip, dst_port, netif, have_chksum, chksum, src_ip);
 691:Middlewares/Third_Party/LwIP/src/core/udp.c **** #else /* LWIP_CHECKSUM_ON_COPY && CHECKSUM_GEN_UDP */
 692:Middlewares/Third_Party/LwIP/src/core/udp.c ****   return udp_sendto_if_src(pcb, p, dst_ip, dst_port, netif, src_ip);
 1106              		.loc 1 692 10
 1107 00b0 7A88     		ldrh	r2, [r7, #2]
 1108 00b2 7B69     		ldr	r3, [r7, #20]
 1109 00b4 0193     		str	r3, [sp, #4]
 1110 00b6 3B6A     		ldr	r3, [r7, #32]
 1111 00b8 0093     		str	r3, [sp]
 1112 00ba 1346     		mov	r3, r2
 1113 00bc 7A68     		ldr	r2, [r7, #4]
 1114 00be B968     		ldr	r1, [r7, #8]
 1115 00c0 F868     		ldr	r0, [r7, #12]
 1116 00c2 FFF7FEFF 		bl	udp_sendto_if_src
 1117 00c6 0346     		mov	r3, r0
ARM GAS  /tmp/ccI5hTuN.s 			page 34


 1118              	.L69:
 693:Middlewares/Third_Party/LwIP/src/core/udp.c **** #endif /* LWIP_CHECKSUM_ON_COPY && CHECKSUM_GEN_UDP */
 694:Middlewares/Third_Party/LwIP/src/core/udp.c **** }
 1119              		.loc 1 694 1
 1120 00c8 1846     		mov	r0, r3
 1121 00ca 1837     		adds	r7, r7, #24
 1122              	.LCFI31:
 1123              		.cfi_def_cfa_offset 8
 1124 00cc BD46     		mov	sp, r7
 1125              	.LCFI32:
 1126              		.cfi_def_cfa_register 13
 1127              		@ sp needed
 1128 00ce 80BD     		pop	{r7, pc}
 1129              	.L78:
 1130              		.align	2
 1131              	.L77:
 1132 00d0 00000000 		.word	.LC0
 1133 00d4 70010000 		.word	.LC12
 1134 00d8 50000000 		.word	.LC2
 1135 00dc 8C010000 		.word	.LC13
 1136 00e0 A8010000 		.word	.LC14
 1137 00e4 C8010000 		.word	.LC15
 1138              		.cfi_endproc
 1139              	.LFE139:
 1141              		.section	.rodata
 1142 01e5 000000   		.align	2
 1143              	.LC16:
 1144 01e8 7564705F 		.ascii	"udp_sendto_if_src: invalid pcb\000"
 1144      73656E64 
 1144      746F5F69 
 1144      665F7372 
 1144      633A2069 
 1145 0207 00       		.align	2
 1146              	.LC17:
 1147 0208 7564705F 		.ascii	"udp_sendto_if_src: invalid pbuf\000"
 1147      73656E64 
 1147      746F5F69 
 1147      665F7372 
 1147      633A2069 
 1148              		.align	2
 1149              	.LC18:
 1150 0228 7564705F 		.ascii	"udp_sendto_if_src: invalid dst_ip\000"
 1150      73656E64 
 1150      746F5F69 
 1150      665F7372 
 1150      633A2069 
 1151 024a 0000     		.align	2
 1152              	.LC19:
 1153 024c 7564705F 		.ascii	"udp_sendto_if_src: invalid src_ip\000"
 1153      73656E64 
 1153      746F5F69 
 1153      665F7372 
 1153      633A2069 
 1154 026e 0000     		.align	2
 1155              	.LC20:
 1156 0270 7564705F 		.ascii	"udp_sendto_if_src: invalid netif\000"
 1156      73656E64 
ARM GAS  /tmp/ccI5hTuN.s 			page 35


 1156      746F5F69 
 1156      665F7372 
 1156      633A2069 
 1157 0291 000000   		.align	2
 1158              	.LC21:
 1159 0294 63686563 		.ascii	"check that first pbuf can hold struct udp_hdr\000"
 1159      6B207468 
 1159      61742066 
 1159      69727374 
 1159      20706275 
 1160              		.section	.text.udp_sendto_if_src,"ax",%progbits
 1161              		.align	1
 1162              		.global	udp_sendto_if_src
 1163              		.syntax unified
 1164              		.thumb
 1165              		.thumb_func
 1166              		.fpu fpv4-sp-d16
 1168              	udp_sendto_if_src:
 1169              	.LFB140:
 695:Middlewares/Third_Party/LwIP/src/core/udp.c **** 
 696:Middlewares/Third_Party/LwIP/src/core/udp.c **** /** @ingroup udp_raw
 697:Middlewares/Third_Party/LwIP/src/core/udp.c ****  * Same as @ref udp_sendto_if, but with source address */
 698:Middlewares/Third_Party/LwIP/src/core/udp.c **** err_t
 699:Middlewares/Third_Party/LwIP/src/core/udp.c **** udp_sendto_if_src(struct udp_pcb *pcb, struct pbuf *p,
 700:Middlewares/Third_Party/LwIP/src/core/udp.c ****                   const ip_addr_t *dst_ip, u16_t dst_port, struct netif *netif, const ip_addr_t *sr
 701:Middlewares/Third_Party/LwIP/src/core/udp.c **** {
 1170              		.loc 1 701 1
 1171              		.cfi_startproc
 1172              		@ args = 8, pretend = 0, frame = 32
 1173              		@ frame_needed = 1, uses_anonymous_args = 0
 1174 0000 80B5     		push	{r7, lr}
 1175              	.LCFI33:
 1176              		.cfi_def_cfa_offset 8
 1177              		.cfi_offset 7, -8
 1178              		.cfi_offset 14, -4
 1179 0002 8CB0     		sub	sp, sp, #48
 1180              	.LCFI34:
 1181              		.cfi_def_cfa_offset 56
 1182 0004 04AF     		add	r7, sp, #16
 1183              	.LCFI35:
 1184              		.cfi_def_cfa 7, 40
 1185 0006 F860     		str	r0, [r7, #12]
 1186 0008 B960     		str	r1, [r7, #8]
 1187 000a 7A60     		str	r2, [r7, #4]
 1188 000c 7B80     		strh	r3, [r7, #2]	@ movhi
 702:Middlewares/Third_Party/LwIP/src/core/udp.c **** #if LWIP_CHECKSUM_ON_COPY && CHECKSUM_GEN_UDP
 703:Middlewares/Third_Party/LwIP/src/core/udp.c ****   return udp_sendto_if_src_chksum(pcb, p, dst_ip, dst_port, netif, 0, 0, src_ip);
 704:Middlewares/Third_Party/LwIP/src/core/udp.c **** }
 705:Middlewares/Third_Party/LwIP/src/core/udp.c **** 
 706:Middlewares/Third_Party/LwIP/src/core/udp.c **** /** Same as udp_sendto_if_src(), but with checksum */
 707:Middlewares/Third_Party/LwIP/src/core/udp.c **** err_t
 708:Middlewares/Third_Party/LwIP/src/core/udp.c **** udp_sendto_if_src_chksum(struct udp_pcb *pcb, struct pbuf *p, const ip_addr_t *dst_ip,
 709:Middlewares/Third_Party/LwIP/src/core/udp.c ****                          u16_t dst_port, struct netif *netif, u8_t have_chksum,
 710:Middlewares/Third_Party/LwIP/src/core/udp.c ****                          u16_t chksum, const ip_addr_t *src_ip)
 711:Middlewares/Third_Party/LwIP/src/core/udp.c **** {
 712:Middlewares/Third_Party/LwIP/src/core/udp.c **** #endif /* LWIP_CHECKSUM_ON_COPY && CHECKSUM_GEN_UDP */
 713:Middlewares/Third_Party/LwIP/src/core/udp.c ****   struct udp_hdr *udphdr;
ARM GAS  /tmp/ccI5hTuN.s 			page 36


 714:Middlewares/Third_Party/LwIP/src/core/udp.c ****   err_t err;
 715:Middlewares/Third_Party/LwIP/src/core/udp.c ****   struct pbuf *q; /* q will be sent down the stack */
 716:Middlewares/Third_Party/LwIP/src/core/udp.c ****   u8_t ip_proto;
 717:Middlewares/Third_Party/LwIP/src/core/udp.c ****   u8_t ttl;
 718:Middlewares/Third_Party/LwIP/src/core/udp.c **** 
 719:Middlewares/Third_Party/LwIP/src/core/udp.c ****   LWIP_ASSERT_CORE_LOCKED();
 720:Middlewares/Third_Party/LwIP/src/core/udp.c **** 
 721:Middlewares/Third_Party/LwIP/src/core/udp.c ****   LWIP_ERROR("udp_sendto_if_src: invalid pcb", pcb != NULL, return ERR_ARG);
 1189              		.loc 1 721 3
 1190 000e FB68     		ldr	r3, [r7, #12]
 1191 0010 002B     		cmp	r3, #0
 1192 0012 09D1     		bne	.L80
 1193              		.loc 1 721 3 is_stmt 0 discriminator 1
 1194 0014 654B     		ldr	r3, .L94
 1195 0016 40F2D122 		movw	r2, #721
 1196 001a 6549     		ldr	r1, .L94+4
 1197 001c 6548     		ldr	r0, .L94+8
 1198 001e FFF7FEFF 		bl	printf
 1199 0022 6FF00F03 		mvn	r3, #15
 1200 0026 BCE0     		b	.L81
 1201              	.L80:
 722:Middlewares/Third_Party/LwIP/src/core/udp.c ****   LWIP_ERROR("udp_sendto_if_src: invalid pbuf", p != NULL, return ERR_ARG);
 1202              		.loc 1 722 3 is_stmt 1
 1203 0028 BB68     		ldr	r3, [r7, #8]
 1204 002a 002B     		cmp	r3, #0
 1205 002c 09D1     		bne	.L82
 1206              		.loc 1 722 3 is_stmt 0 discriminator 1
 1207 002e 5F4B     		ldr	r3, .L94
 1208 0030 40F2D222 		movw	r2, #722
 1209 0034 6049     		ldr	r1, .L94+12
 1210 0036 5F48     		ldr	r0, .L94+8
 1211 0038 FFF7FEFF 		bl	printf
 1212 003c 6FF00F03 		mvn	r3, #15
 1213 0040 AFE0     		b	.L81
 1214              	.L82:
 723:Middlewares/Third_Party/LwIP/src/core/udp.c ****   LWIP_ERROR("udp_sendto_if_src: invalid dst_ip", dst_ip != NULL, return ERR_ARG);
 1215              		.loc 1 723 3 is_stmt 1
 1216 0042 7B68     		ldr	r3, [r7, #4]
 1217 0044 002B     		cmp	r3, #0
 1218 0046 09D1     		bne	.L83
 1219              		.loc 1 723 3 is_stmt 0 discriminator 1
 1220 0048 584B     		ldr	r3, .L94
 1221 004a 40F2D322 		movw	r2, #723
 1222 004e 5B49     		ldr	r1, .L94+16
 1223 0050 5848     		ldr	r0, .L94+8
 1224 0052 FFF7FEFF 		bl	printf
 1225 0056 6FF00F03 		mvn	r3, #15
 1226 005a A2E0     		b	.L81
 1227              	.L83:
 724:Middlewares/Third_Party/LwIP/src/core/udp.c ****   LWIP_ERROR("udp_sendto_if_src: invalid src_ip", src_ip != NULL, return ERR_ARG);
 1228              		.loc 1 724 3 is_stmt 1
 1229 005c FB6A     		ldr	r3, [r7, #44]
 1230 005e 002B     		cmp	r3, #0
 1231 0060 09D1     		bne	.L84
 1232              		.loc 1 724 3 is_stmt 0 discriminator 1
 1233 0062 524B     		ldr	r3, .L94
 1234 0064 4FF43572 		mov	r2, #724
ARM GAS  /tmp/ccI5hTuN.s 			page 37


 1235 0068 5549     		ldr	r1, .L94+20
 1236 006a 5248     		ldr	r0, .L94+8
 1237 006c FFF7FEFF 		bl	printf
 1238 0070 6FF00F03 		mvn	r3, #15
 1239 0074 95E0     		b	.L81
 1240              	.L84:
 725:Middlewares/Third_Party/LwIP/src/core/udp.c ****   LWIP_ERROR("udp_sendto_if_src: invalid netif", netif != NULL, return ERR_ARG);
 1241              		.loc 1 725 3 is_stmt 1
 1242 0076 BB6A     		ldr	r3, [r7, #40]
 1243 0078 002B     		cmp	r3, #0
 1244 007a 09D1     		bne	.L85
 1245              		.loc 1 725 3 is_stmt 0 discriminator 1
 1246 007c 4B4B     		ldr	r3, .L94
 1247 007e 40F2D522 		movw	r2, #725
 1248 0082 5049     		ldr	r1, .L94+24
 1249 0084 4B48     		ldr	r0, .L94+8
 1250 0086 FFF7FEFF 		bl	printf
 1251 008a 6FF00F03 		mvn	r3, #15
 1252 008e 88E0     		b	.L81
 1253              	.L85:
 726:Middlewares/Third_Party/LwIP/src/core/udp.c **** 
 727:Middlewares/Third_Party/LwIP/src/core/udp.c ****   if (!IP_ADDR_PCB_VERSION_MATCH(pcb, src_ip) ||
 728:Middlewares/Third_Party/LwIP/src/core/udp.c ****       !IP_ADDR_PCB_VERSION_MATCH(pcb, dst_ip)) {
 729:Middlewares/Third_Party/LwIP/src/core/udp.c ****     return ERR_VAL;
 730:Middlewares/Third_Party/LwIP/src/core/udp.c ****   }
 731:Middlewares/Third_Party/LwIP/src/core/udp.c **** 
 732:Middlewares/Third_Party/LwIP/src/core/udp.c **** #if LWIP_IPV4 && IP_SOF_BROADCAST
 733:Middlewares/Third_Party/LwIP/src/core/udp.c ****   /* broadcast filter? */
 734:Middlewares/Third_Party/LwIP/src/core/udp.c ****   if (!ip_get_option(pcb, SOF_BROADCAST) &&
 735:Middlewares/Third_Party/LwIP/src/core/udp.c **** #if LWIP_IPV6
 736:Middlewares/Third_Party/LwIP/src/core/udp.c ****       IP_IS_V4(dst_ip) &&
 737:Middlewares/Third_Party/LwIP/src/core/udp.c **** #endif /* LWIP_IPV6 */
 738:Middlewares/Third_Party/LwIP/src/core/udp.c ****       ip_addr_isbroadcast(dst_ip, netif)) {
 739:Middlewares/Third_Party/LwIP/src/core/udp.c ****     LWIP_DEBUGF(UDP_DEBUG | LWIP_DBG_LEVEL_SERIOUS,
 740:Middlewares/Third_Party/LwIP/src/core/udp.c ****                 ("udp_sendto_if: SOF_BROADCAST not enabled on pcb %p\n", (void *)pcb));
 741:Middlewares/Third_Party/LwIP/src/core/udp.c ****     return ERR_VAL;
 742:Middlewares/Third_Party/LwIP/src/core/udp.c ****   }
 743:Middlewares/Third_Party/LwIP/src/core/udp.c **** #endif /* LWIP_IPV4 && IP_SOF_BROADCAST */
 744:Middlewares/Third_Party/LwIP/src/core/udp.c **** 
 745:Middlewares/Third_Party/LwIP/src/core/udp.c ****   /* if the PCB is not yet bound to a port, bind it here */
 746:Middlewares/Third_Party/LwIP/src/core/udp.c ****   if (pcb->local_port == 0) {
 1254              		.loc 1 746 10 is_stmt 1
 1255 0090 FB68     		ldr	r3, [r7, #12]
 1256 0092 5B8A     		ldrh	r3, [r3, #18]
 1257              		.loc 1 746 6
 1258 0094 002B     		cmp	r3, #0
 1259 0096 0FD1     		bne	.L86
 747:Middlewares/Third_Party/LwIP/src/core/udp.c ****     LWIP_DEBUGF(UDP_DEBUG | LWIP_DBG_TRACE, ("udp_send: not yet bound to a port, binding now\n"));
 748:Middlewares/Third_Party/LwIP/src/core/udp.c ****     err = udp_bind(pcb, &pcb->local_ip, pcb->local_port);
 1260              		.loc 1 748 25
 1261 0098 F968     		ldr	r1, [r7, #12]
 1262              		.loc 1 748 11
 1263 009a FB68     		ldr	r3, [r7, #12]
 1264 009c 5B8A     		ldrh	r3, [r3, #18]
 1265 009e 1A46     		mov	r2, r3
 1266 00a0 F868     		ldr	r0, [r7, #12]
 1267 00a2 FFF7FEFF 		bl	udp_bind
ARM GAS  /tmp/ccI5hTuN.s 			page 38


 1268 00a6 0346     		mov	r3, r0
 1269 00a8 FB76     		strb	r3, [r7, #27]
 749:Middlewares/Third_Party/LwIP/src/core/udp.c ****     if (err != ERR_OK) {
 1270              		.loc 1 749 8
 1271 00aa 97F91B30 		ldrsb	r3, [r7, #27]
 1272 00ae 002B     		cmp	r3, #0
 1273 00b0 02D0     		beq	.L86
 750:Middlewares/Third_Party/LwIP/src/core/udp.c ****       LWIP_DEBUGF(UDP_DEBUG | LWIP_DBG_TRACE | LWIP_DBG_LEVEL_SERIOUS, ("udp_send: forced port bind
 751:Middlewares/Third_Party/LwIP/src/core/udp.c ****       return err;
 1274              		.loc 1 751 14
 1275 00b2 97F91B30 		ldrsb	r3, [r7, #27]
 1276 00b6 74E0     		b	.L81
 1277              	.L86:
 752:Middlewares/Third_Party/LwIP/src/core/udp.c ****     }
 753:Middlewares/Third_Party/LwIP/src/core/udp.c ****   }
 754:Middlewares/Third_Party/LwIP/src/core/udp.c **** 
 755:Middlewares/Third_Party/LwIP/src/core/udp.c ****   /* packet too large to add a UDP header without causing an overflow? */
 756:Middlewares/Third_Party/LwIP/src/core/udp.c ****   if ((u16_t)(p->tot_len + UDP_HLEN) < p->tot_len) {
 1278              		.loc 1 756 16
 1279 00b8 BB68     		ldr	r3, [r7, #8]
 1280 00ba 1B89     		ldrh	r3, [r3, #8]
 1281              		.loc 1 756 6
 1282 00bc 4FF6F772 		movw	r2, #65527
 1283 00c0 9342     		cmp	r3, r2
 1284 00c2 02D9     		bls	.L87
 757:Middlewares/Third_Party/LwIP/src/core/udp.c ****     return ERR_MEM;
 1285              		.loc 1 757 12
 1286 00c4 4FF0FF33 		mov	r3, #-1
 1287 00c8 6BE0     		b	.L81
 1288              	.L87:
 758:Middlewares/Third_Party/LwIP/src/core/udp.c ****   }
 759:Middlewares/Third_Party/LwIP/src/core/udp.c ****   /* not enough space to add an UDP header to first pbuf in given p chain? */
 760:Middlewares/Third_Party/LwIP/src/core/udp.c ****   if (pbuf_add_header(p, UDP_HLEN)) {
 1289              		.loc 1 760 7
 1290 00ca 0821     		movs	r1, #8
 1291 00cc B868     		ldr	r0, [r7, #8]
 1292 00ce FFF7FEFF 		bl	pbuf_add_header
 1293 00d2 0346     		mov	r3, r0
 1294              		.loc 1 760 6
 1295 00d4 002B     		cmp	r3, #0
 1296 00d6 15D0     		beq	.L88
 761:Middlewares/Third_Party/LwIP/src/core/udp.c ****     /* allocate header in a separate new pbuf */
 762:Middlewares/Third_Party/LwIP/src/core/udp.c ****     q = pbuf_alloc(PBUF_IP, UDP_HLEN, PBUF_RAM);
 1297              		.loc 1 762 9
 1298 00d8 4FF42072 		mov	r2, #640
 1299 00dc 0821     		movs	r1, #8
 1300 00de 2220     		movs	r0, #34
 1301 00e0 FFF7FEFF 		bl	pbuf_alloc
 1302 00e4 F861     		str	r0, [r7, #28]
 763:Middlewares/Third_Party/LwIP/src/core/udp.c ****     /* new header pbuf could not be allocated? */
 764:Middlewares/Third_Party/LwIP/src/core/udp.c ****     if (q == NULL) {
 1303              		.loc 1 764 8
 1304 00e6 FB69     		ldr	r3, [r7, #28]
 1305 00e8 002B     		cmp	r3, #0
 1306 00ea 02D1     		bne	.L89
 765:Middlewares/Third_Party/LwIP/src/core/udp.c ****       LWIP_DEBUGF(UDP_DEBUG | LWIP_DBG_TRACE | LWIP_DBG_LEVEL_SERIOUS, ("udp_send: could not alloca
 766:Middlewares/Third_Party/LwIP/src/core/udp.c ****       return ERR_MEM;
ARM GAS  /tmp/ccI5hTuN.s 			page 39


 1307              		.loc 1 766 14
 1308 00ec 4FF0FF33 		mov	r3, #-1
 1309 00f0 57E0     		b	.L81
 1310              	.L89:
 767:Middlewares/Third_Party/LwIP/src/core/udp.c ****     }
 768:Middlewares/Third_Party/LwIP/src/core/udp.c ****     if (p->tot_len != 0) {
 1311              		.loc 1 768 10
 1312 00f2 BB68     		ldr	r3, [r7, #8]
 1313 00f4 1B89     		ldrh	r3, [r3, #8]
 1314              		.loc 1 768 8
 1315 00f6 002B     		cmp	r3, #0
 1316 00f8 06D0     		beq	.L91
 769:Middlewares/Third_Party/LwIP/src/core/udp.c ****       /* chain header q in front of given pbuf p (only if p contains data) */
 770:Middlewares/Third_Party/LwIP/src/core/udp.c ****       pbuf_chain(q, p);
 1317              		.loc 1 770 7
 1318 00fa B968     		ldr	r1, [r7, #8]
 1319 00fc F869     		ldr	r0, [r7, #28]
 1320 00fe FFF7FEFF 		bl	pbuf_chain
 1321 0102 01E0     		b	.L91
 1322              	.L88:
 771:Middlewares/Third_Party/LwIP/src/core/udp.c ****     }
 772:Middlewares/Third_Party/LwIP/src/core/udp.c ****     /* first pbuf q points to header pbuf */
 773:Middlewares/Third_Party/LwIP/src/core/udp.c ****     LWIP_DEBUGF(UDP_DEBUG,
 774:Middlewares/Third_Party/LwIP/src/core/udp.c ****                 ("udp_send: added header pbuf %p before given pbuf %p\n", (void *)q, (void *)p));
 775:Middlewares/Third_Party/LwIP/src/core/udp.c ****   } else {
 776:Middlewares/Third_Party/LwIP/src/core/udp.c ****     /* adding space for header within p succeeded */
 777:Middlewares/Third_Party/LwIP/src/core/udp.c ****     /* first pbuf q equals given pbuf */
 778:Middlewares/Third_Party/LwIP/src/core/udp.c ****     q = p;
 1323              		.loc 1 778 7
 1324 0104 BB68     		ldr	r3, [r7, #8]
 1325 0106 FB61     		str	r3, [r7, #28]
 1326              	.L91:
 779:Middlewares/Third_Party/LwIP/src/core/udp.c ****     LWIP_DEBUGF(UDP_DEBUG, ("udp_send: added header in given pbuf %p\n", (void *)p));
 780:Middlewares/Third_Party/LwIP/src/core/udp.c ****   }
 781:Middlewares/Third_Party/LwIP/src/core/udp.c ****   LWIP_ASSERT("check that first pbuf can hold struct udp_hdr",
 1327              		.loc 1 781 3
 1328 0108 FB69     		ldr	r3, [r7, #28]
 1329 010a 5B89     		ldrh	r3, [r3, #10]
 1330 010c 072B     		cmp	r3, #7
 1331 010e 06D8     		bhi	.L92
 1332              		.loc 1 781 3 is_stmt 0 discriminator 1
 1333 0110 264B     		ldr	r3, .L94
 1334 0112 40F20E32 		movw	r2, #782
 1335 0116 2C49     		ldr	r1, .L94+28
 1336 0118 2648     		ldr	r0, .L94+8
 1337 011a FFF7FEFF 		bl	printf
 1338              	.L92:
 782:Middlewares/Third_Party/LwIP/src/core/udp.c ****               (q->len >= sizeof(struct udp_hdr)));
 783:Middlewares/Third_Party/LwIP/src/core/udp.c ****   /* q now represents the packet to be sent */
 784:Middlewares/Third_Party/LwIP/src/core/udp.c ****   udphdr = (struct udp_hdr *)q->payload;
 1339              		.loc 1 784 10 is_stmt 1
 1340 011e FB69     		ldr	r3, [r7, #28]
 1341 0120 5B68     		ldr	r3, [r3, #4]
 1342 0122 7B61     		str	r3, [r7, #20]
 785:Middlewares/Third_Party/LwIP/src/core/udp.c ****   udphdr->src = lwip_htons(pcb->local_port);
 1343              		.loc 1 785 17
 1344 0124 FB68     		ldr	r3, [r7, #12]
ARM GAS  /tmp/ccI5hTuN.s 			page 40


 1345 0126 5B8A     		ldrh	r3, [r3, #18]
 1346 0128 1846     		mov	r0, r3
 1347 012a FFF7FEFF 		bl	lwip_htons
 1348 012e 0346     		mov	r3, r0
 1349 0130 1A46     		mov	r2, r3
 1350              		.loc 1 785 15
 1351 0132 7B69     		ldr	r3, [r7, #20]
 1352 0134 1A80     		strh	r2, [r3]	@ unaligned
 786:Middlewares/Third_Party/LwIP/src/core/udp.c ****   udphdr->dest = lwip_htons(dst_port);
 1353              		.loc 1 786 18
 1354 0136 7B88     		ldrh	r3, [r7, #2]
 1355 0138 1846     		mov	r0, r3
 1356 013a FFF7FEFF 		bl	lwip_htons
 1357 013e 0346     		mov	r3, r0
 1358 0140 1A46     		mov	r2, r3
 1359              		.loc 1 786 16
 1360 0142 7B69     		ldr	r3, [r7, #20]
 1361 0144 5A80     		strh	r2, [r3, #2]	@ unaligned
 787:Middlewares/Third_Party/LwIP/src/core/udp.c ****   /* in UDP, 0 checksum means 'no checksum' */
 788:Middlewares/Third_Party/LwIP/src/core/udp.c ****   udphdr->chksum = 0x0000;
 1362              		.loc 1 788 18
 1363 0146 7B69     		ldr	r3, [r7, #20]
 1364 0148 0022     		movs	r2, #0
 1365 014a 9A71     		strb	r2, [r3, #6]
 1366 014c 0022     		movs	r2, #0
 1367 014e DA71     		strb	r2, [r3, #7]
 789:Middlewares/Third_Party/LwIP/src/core/udp.c **** 
 790:Middlewares/Third_Party/LwIP/src/core/udp.c ****   /* Multicast Loop? */
 791:Middlewares/Third_Party/LwIP/src/core/udp.c **** #if LWIP_MULTICAST_TX_OPTIONS
 792:Middlewares/Third_Party/LwIP/src/core/udp.c ****   if (((pcb->flags & UDP_FLAGS_MULTICAST_LOOP) != 0) && ip_addr_ismulticast(dst_ip)) {
 793:Middlewares/Third_Party/LwIP/src/core/udp.c ****     q->flags |= PBUF_FLAG_MCASTLOOP;
 794:Middlewares/Third_Party/LwIP/src/core/udp.c ****   }
 795:Middlewares/Third_Party/LwIP/src/core/udp.c **** #endif /* LWIP_MULTICAST_TX_OPTIONS */
 796:Middlewares/Third_Party/LwIP/src/core/udp.c **** 
 797:Middlewares/Third_Party/LwIP/src/core/udp.c ****   LWIP_DEBUGF(UDP_DEBUG, ("udp_send: sending datagram of length %"U16_F"\n", q->tot_len));
 798:Middlewares/Third_Party/LwIP/src/core/udp.c **** 
 799:Middlewares/Third_Party/LwIP/src/core/udp.c **** #if LWIP_UDPLITE
 800:Middlewares/Third_Party/LwIP/src/core/udp.c ****   /* UDP Lite protocol? */
 801:Middlewares/Third_Party/LwIP/src/core/udp.c ****   if (pcb->flags & UDP_FLAGS_UDPLITE) {
 802:Middlewares/Third_Party/LwIP/src/core/udp.c ****     u16_t chklen, chklen_hdr;
 803:Middlewares/Third_Party/LwIP/src/core/udp.c ****     LWIP_DEBUGF(UDP_DEBUG, ("udp_send: UDP LITE packet length %"U16_F"\n", q->tot_len));
 804:Middlewares/Third_Party/LwIP/src/core/udp.c ****     /* set UDP message length in UDP header */
 805:Middlewares/Third_Party/LwIP/src/core/udp.c ****     chklen_hdr = chklen = pcb->chksum_len_tx;
 806:Middlewares/Third_Party/LwIP/src/core/udp.c ****     if ((chklen < sizeof(struct udp_hdr)) || (chklen > q->tot_len)) {
 807:Middlewares/Third_Party/LwIP/src/core/udp.c ****       if (chklen != 0) {
 808:Middlewares/Third_Party/LwIP/src/core/udp.c ****         LWIP_DEBUGF(UDP_DEBUG, ("udp_send: UDP LITE pcb->chksum_len is illegal: %"U16_F"\n", chklen
 809:Middlewares/Third_Party/LwIP/src/core/udp.c ****       }
 810:Middlewares/Third_Party/LwIP/src/core/udp.c ****       /* For UDP-Lite, checksum length of 0 means checksum
 811:Middlewares/Third_Party/LwIP/src/core/udp.c ****          over the complete packet. (See RFC 3828 chap. 3.1)
 812:Middlewares/Third_Party/LwIP/src/core/udp.c ****          At least the UDP-Lite header must be covered by the
 813:Middlewares/Third_Party/LwIP/src/core/udp.c ****          checksum, therefore, if chksum_len has an illegal
 814:Middlewares/Third_Party/LwIP/src/core/udp.c ****          value, we generate the checksum over the complete
 815:Middlewares/Third_Party/LwIP/src/core/udp.c ****          packet to be safe. */
 816:Middlewares/Third_Party/LwIP/src/core/udp.c ****       chklen_hdr = 0;
 817:Middlewares/Third_Party/LwIP/src/core/udp.c ****       chklen = q->tot_len;
 818:Middlewares/Third_Party/LwIP/src/core/udp.c ****     }
 819:Middlewares/Third_Party/LwIP/src/core/udp.c ****     udphdr->len = lwip_htons(chklen_hdr);
ARM GAS  /tmp/ccI5hTuN.s 			page 41


 820:Middlewares/Third_Party/LwIP/src/core/udp.c ****     /* calculate checksum */
 821:Middlewares/Third_Party/LwIP/src/core/udp.c **** #if CHECKSUM_GEN_UDP
 822:Middlewares/Third_Party/LwIP/src/core/udp.c ****     IF__NETIF_CHECKSUM_ENABLED(netif, NETIF_CHECKSUM_GEN_UDP) {
 823:Middlewares/Third_Party/LwIP/src/core/udp.c **** #if LWIP_CHECKSUM_ON_COPY
 824:Middlewares/Third_Party/LwIP/src/core/udp.c ****       if (have_chksum) {
 825:Middlewares/Third_Party/LwIP/src/core/udp.c ****         chklen = UDP_HLEN;
 826:Middlewares/Third_Party/LwIP/src/core/udp.c ****       }
 827:Middlewares/Third_Party/LwIP/src/core/udp.c **** #endif /* LWIP_CHECKSUM_ON_COPY */
 828:Middlewares/Third_Party/LwIP/src/core/udp.c ****       udphdr->chksum = ip_chksum_pseudo_partial(q, IP_PROTO_UDPLITE,
 829:Middlewares/Third_Party/LwIP/src/core/udp.c ****                        q->tot_len, chklen, src_ip, dst_ip);
 830:Middlewares/Third_Party/LwIP/src/core/udp.c **** #if LWIP_CHECKSUM_ON_COPY
 831:Middlewares/Third_Party/LwIP/src/core/udp.c ****       if (have_chksum) {
 832:Middlewares/Third_Party/LwIP/src/core/udp.c ****         u32_t acc;
 833:Middlewares/Third_Party/LwIP/src/core/udp.c ****         acc = udphdr->chksum + (u16_t)~(chksum);
 834:Middlewares/Third_Party/LwIP/src/core/udp.c ****         udphdr->chksum = FOLD_U32T(acc);
 835:Middlewares/Third_Party/LwIP/src/core/udp.c ****       }
 836:Middlewares/Third_Party/LwIP/src/core/udp.c **** #endif /* LWIP_CHECKSUM_ON_COPY */
 837:Middlewares/Third_Party/LwIP/src/core/udp.c **** 
 838:Middlewares/Third_Party/LwIP/src/core/udp.c ****       /* chksum zero must become 0xffff, as zero means 'no checksum' */
 839:Middlewares/Third_Party/LwIP/src/core/udp.c ****       if (udphdr->chksum == 0x0000) {
 840:Middlewares/Third_Party/LwIP/src/core/udp.c ****         udphdr->chksum = 0xffff;
 841:Middlewares/Third_Party/LwIP/src/core/udp.c ****       }
 842:Middlewares/Third_Party/LwIP/src/core/udp.c ****     }
 843:Middlewares/Third_Party/LwIP/src/core/udp.c **** #endif /* CHECKSUM_GEN_UDP */
 844:Middlewares/Third_Party/LwIP/src/core/udp.c **** 
 845:Middlewares/Third_Party/LwIP/src/core/udp.c ****     ip_proto = IP_PROTO_UDPLITE;
 846:Middlewares/Third_Party/LwIP/src/core/udp.c ****   } else
 847:Middlewares/Third_Party/LwIP/src/core/udp.c **** #endif /* LWIP_UDPLITE */
 848:Middlewares/Third_Party/LwIP/src/core/udp.c ****   {      /* UDP */
 849:Middlewares/Third_Party/LwIP/src/core/udp.c ****     LWIP_DEBUGF(UDP_DEBUG, ("udp_send: UDP packet length %"U16_F"\n", q->tot_len));
 850:Middlewares/Third_Party/LwIP/src/core/udp.c ****     udphdr->len = lwip_htons(q->tot_len);
 1368              		.loc 1 850 19
 1369 0150 FB69     		ldr	r3, [r7, #28]
 1370 0152 1B89     		ldrh	r3, [r3, #8]
 1371 0154 1846     		mov	r0, r3
 1372 0156 FFF7FEFF 		bl	lwip_htons
 1373 015a 0346     		mov	r3, r0
 1374 015c 1A46     		mov	r2, r3
 1375              		.loc 1 850 17
 1376 015e 7B69     		ldr	r3, [r7, #20]
 1377 0160 9A80     		strh	r2, [r3, #4]	@ unaligned
 851:Middlewares/Third_Party/LwIP/src/core/udp.c ****     /* calculate checksum */
 852:Middlewares/Third_Party/LwIP/src/core/udp.c **** #if CHECKSUM_GEN_UDP
 853:Middlewares/Third_Party/LwIP/src/core/udp.c ****     IF__NETIF_CHECKSUM_ENABLED(netif, NETIF_CHECKSUM_GEN_UDP) {
 854:Middlewares/Third_Party/LwIP/src/core/udp.c ****       /* Checksum is mandatory over IPv6. */
 855:Middlewares/Third_Party/LwIP/src/core/udp.c ****       if (IP_IS_V6(dst_ip) || (pcb->flags & UDP_FLAGS_NOCHKSUM) == 0) {
 856:Middlewares/Third_Party/LwIP/src/core/udp.c ****         u16_t udpchksum;
 857:Middlewares/Third_Party/LwIP/src/core/udp.c **** #if LWIP_CHECKSUM_ON_COPY
 858:Middlewares/Third_Party/LwIP/src/core/udp.c ****         if (have_chksum) {
 859:Middlewares/Third_Party/LwIP/src/core/udp.c ****           u32_t acc;
 860:Middlewares/Third_Party/LwIP/src/core/udp.c ****           udpchksum = ip_chksum_pseudo_partial(q, IP_PROTO_UDP,
 861:Middlewares/Third_Party/LwIP/src/core/udp.c ****                                                q->tot_len, UDP_HLEN, src_ip, dst_ip);
 862:Middlewares/Third_Party/LwIP/src/core/udp.c ****           acc = udpchksum + (u16_t)~(chksum);
 863:Middlewares/Third_Party/LwIP/src/core/udp.c ****           udpchksum = FOLD_U32T(acc);
 864:Middlewares/Third_Party/LwIP/src/core/udp.c ****         } else
 865:Middlewares/Third_Party/LwIP/src/core/udp.c **** #endif /* LWIP_CHECKSUM_ON_COPY */
 866:Middlewares/Third_Party/LwIP/src/core/udp.c ****         {
ARM GAS  /tmp/ccI5hTuN.s 			page 42


 867:Middlewares/Third_Party/LwIP/src/core/udp.c ****           udpchksum = ip_chksum_pseudo(q, IP_PROTO_UDP, q->tot_len,
 868:Middlewares/Third_Party/LwIP/src/core/udp.c ****                                        src_ip, dst_ip);
 869:Middlewares/Third_Party/LwIP/src/core/udp.c ****         }
 870:Middlewares/Third_Party/LwIP/src/core/udp.c **** 
 871:Middlewares/Third_Party/LwIP/src/core/udp.c ****         /* chksum zero must become 0xffff, as zero means 'no checksum' */
 872:Middlewares/Third_Party/LwIP/src/core/udp.c ****         if (udpchksum == 0x0000) {
 873:Middlewares/Third_Party/LwIP/src/core/udp.c ****           udpchksum = 0xffff;
 874:Middlewares/Third_Party/LwIP/src/core/udp.c ****         }
 875:Middlewares/Third_Party/LwIP/src/core/udp.c ****         udphdr->chksum = udpchksum;
 876:Middlewares/Third_Party/LwIP/src/core/udp.c ****       }
 877:Middlewares/Third_Party/LwIP/src/core/udp.c ****     }
 878:Middlewares/Third_Party/LwIP/src/core/udp.c **** #endif /* CHECKSUM_GEN_UDP */
 879:Middlewares/Third_Party/LwIP/src/core/udp.c ****     ip_proto = IP_PROTO_UDP;
 1378              		.loc 1 879 14
 1379 0162 1123     		movs	r3, #17
 1380 0164 FB74     		strb	r3, [r7, #19]
 880:Middlewares/Third_Party/LwIP/src/core/udp.c ****   }
 881:Middlewares/Third_Party/LwIP/src/core/udp.c **** 
 882:Middlewares/Third_Party/LwIP/src/core/udp.c ****   /* Determine TTL to use */
 883:Middlewares/Third_Party/LwIP/src/core/udp.c **** #if LWIP_MULTICAST_TX_OPTIONS
 884:Middlewares/Third_Party/LwIP/src/core/udp.c ****   ttl = (ip_addr_ismulticast(dst_ip) ? udp_get_multicast_ttl(pcb) : pcb->ttl);
 885:Middlewares/Third_Party/LwIP/src/core/udp.c **** #else /* LWIP_MULTICAST_TX_OPTIONS */
 886:Middlewares/Third_Party/LwIP/src/core/udp.c ****   ttl = pcb->ttl;
 1381              		.loc 1 886 7
 1382 0166 FB68     		ldr	r3, [r7, #12]
 1383 0168 DB7A     		ldrb	r3, [r3, #11]
 1384 016a BB74     		strb	r3, [r7, #18]
 887:Middlewares/Third_Party/LwIP/src/core/udp.c **** #endif /* LWIP_MULTICAST_TX_OPTIONS */
 888:Middlewares/Third_Party/LwIP/src/core/udp.c **** 
 889:Middlewares/Third_Party/LwIP/src/core/udp.c ****   LWIP_DEBUGF(UDP_DEBUG, ("udp_send: UDP checksum 0x%04"X16_F"\n", udphdr->chksum));
 890:Middlewares/Third_Party/LwIP/src/core/udp.c ****   LWIP_DEBUGF(UDP_DEBUG, ("udp_send: ip_output_if (,,,,0x%02"X16_F",)\n", (u16_t)ip_proto));
 891:Middlewares/Third_Party/LwIP/src/core/udp.c ****   /* output to IP */
 892:Middlewares/Third_Party/LwIP/src/core/udp.c ****   NETIF_SET_HINTS(netif, &(pcb->netif_hints));
 893:Middlewares/Third_Party/LwIP/src/core/udp.c ****   err = ip_output_if_src(q, src_ip, dst_ip, ttl, pcb->tos, ip_proto, netif);
 1385              		.loc 1 893 9
 1386 016c FB68     		ldr	r3, [r7, #12]
 1387 016e 9B7A     		ldrb	r3, [r3, #10]	@ zero_extendqisi2
 1388 0170 B97C     		ldrb	r1, [r7, #18]	@ zero_extendqisi2
 1389 0172 BA6A     		ldr	r2, [r7, #40]
 1390 0174 0292     		str	r2, [sp, #8]
 1391 0176 FA7C     		ldrb	r2, [r7, #19]	@ zero_extendqisi2
 1392 0178 0192     		str	r2, [sp, #4]
 1393 017a 0093     		str	r3, [sp]
 1394 017c 0B46     		mov	r3, r1
 1395 017e 7A68     		ldr	r2, [r7, #4]
 1396 0180 F96A     		ldr	r1, [r7, #44]
 1397 0182 F869     		ldr	r0, [r7, #28]
 1398 0184 FFF7FEFF 		bl	ip4_output_if_src
 1399 0188 0346     		mov	r3, r0
 1400 018a FB76     		strb	r3, [r7, #27]
 894:Middlewares/Third_Party/LwIP/src/core/udp.c ****   NETIF_RESET_HINTS(netif);
 895:Middlewares/Third_Party/LwIP/src/core/udp.c **** 
 896:Middlewares/Third_Party/LwIP/src/core/udp.c ****   /* @todo: must this be increased even if error occurred? */
 897:Middlewares/Third_Party/LwIP/src/core/udp.c ****   MIB2_STATS_INC(mib2.udpoutdatagrams);
 898:Middlewares/Third_Party/LwIP/src/core/udp.c **** 
 899:Middlewares/Third_Party/LwIP/src/core/udp.c ****   /* did we chain a separate header pbuf earlier? */
 900:Middlewares/Third_Party/LwIP/src/core/udp.c ****   if (q != p) {
ARM GAS  /tmp/ccI5hTuN.s 			page 43


 1401              		.loc 1 900 6
 1402 018c FA69     		ldr	r2, [r7, #28]
 1403 018e BB68     		ldr	r3, [r7, #8]
 1404 0190 9A42     		cmp	r2, r3
 1405 0192 04D0     		beq	.L93
 901:Middlewares/Third_Party/LwIP/src/core/udp.c ****     /* free the header pbuf */
 902:Middlewares/Third_Party/LwIP/src/core/udp.c ****     pbuf_free(q);
 1406              		.loc 1 902 5
 1407 0194 F869     		ldr	r0, [r7, #28]
 1408 0196 FFF7FEFF 		bl	pbuf_free
 903:Middlewares/Third_Party/LwIP/src/core/udp.c ****     q = NULL;
 1409              		.loc 1 903 7
 1410 019a 0023     		movs	r3, #0
 1411 019c FB61     		str	r3, [r7, #28]
 1412              	.L93:
 904:Middlewares/Third_Party/LwIP/src/core/udp.c ****     /* p is still referenced by the caller, and will live on */
 905:Middlewares/Third_Party/LwIP/src/core/udp.c ****   }
 906:Middlewares/Third_Party/LwIP/src/core/udp.c **** 
 907:Middlewares/Third_Party/LwIP/src/core/udp.c ****   UDP_STATS_INC(udp.xmit);
 908:Middlewares/Third_Party/LwIP/src/core/udp.c ****   return err;
 1413              		.loc 1 908 10
 1414 019e 97F91B30 		ldrsb	r3, [r7, #27]
 1415              	.L81:
 909:Middlewares/Third_Party/LwIP/src/core/udp.c **** }
 1416              		.loc 1 909 1
 1417 01a2 1846     		mov	r0, r3
 1418 01a4 2037     		adds	r7, r7, #32
 1419              	.LCFI36:
 1420              		.cfi_def_cfa_offset 8
 1421 01a6 BD46     		mov	sp, r7
 1422              	.LCFI37:
 1423              		.cfi_def_cfa_register 13
 1424              		@ sp needed
 1425 01a8 80BD     		pop	{r7, pc}
 1426              	.L95:
 1427 01aa 00BF     		.align	2
 1428              	.L94:
 1429 01ac 00000000 		.word	.LC0
 1430 01b0 E8010000 		.word	.LC16
 1431 01b4 50000000 		.word	.LC2
 1432 01b8 08020000 		.word	.LC17
 1433 01bc 28020000 		.word	.LC18
 1434 01c0 4C020000 		.word	.LC19
 1435 01c4 70020000 		.word	.LC20
 1436 01c8 94020000 		.word	.LC21
 1437              		.cfi_endproc
 1438              	.LFE140:
 1440              		.section	.rodata
 1441 02c2 0000     		.align	2
 1442              	.LC22:
 1443 02c4 7564705F 		.ascii	"udp_bind: invalid pcb\000"
 1443      62696E64 
 1443      3A20696E 
 1443      76616C69 
 1443      64207063 
 1444              		.section	.text.udp_bind,"ax",%progbits
 1445              		.align	1
ARM GAS  /tmp/ccI5hTuN.s 			page 44


 1446              		.global	udp_bind
 1447              		.syntax unified
 1448              		.thumb
 1449              		.thumb_func
 1450              		.fpu fpv4-sp-d16
 1452              	udp_bind:
 1453              	.LFB141:
 910:Middlewares/Third_Party/LwIP/src/core/udp.c **** 
 911:Middlewares/Third_Party/LwIP/src/core/udp.c **** /**
 912:Middlewares/Third_Party/LwIP/src/core/udp.c ****  * @ingroup udp_raw
 913:Middlewares/Third_Party/LwIP/src/core/udp.c ****  * Bind an UDP PCB.
 914:Middlewares/Third_Party/LwIP/src/core/udp.c ****  * 
 915:Middlewares/Third_Party/LwIP/src/core/udp.c ****  * @param pcb UDP PCB to be bound with a local address ipaddr and port.
 916:Middlewares/Third_Party/LwIP/src/core/udp.c ****  * @param ipaddr local IP address to bind with. Use IP_ANY_TYPE to
 917:Middlewares/Third_Party/LwIP/src/core/udp.c ****  * bind to all local interfaces.
 918:Middlewares/Third_Party/LwIP/src/core/udp.c ****  * @param port local UDP port to bind with. Use 0 to automatically bind
 919:Middlewares/Third_Party/LwIP/src/core/udp.c ****  * to a random port between UDP_LOCAL_PORT_RANGE_START and
 920:Middlewares/Third_Party/LwIP/src/core/udp.c ****  * UDP_LOCAL_PORT_RANGE_END.
 921:Middlewares/Third_Party/LwIP/src/core/udp.c ****  *
 922:Middlewares/Third_Party/LwIP/src/core/udp.c ****  * ipaddr & port are expected to be in the same byte order as in the pcb.
 923:Middlewares/Third_Party/LwIP/src/core/udp.c ****  *
 924:Middlewares/Third_Party/LwIP/src/core/udp.c ****  * @return lwIP error code.
 925:Middlewares/Third_Party/LwIP/src/core/udp.c ****  * - ERR_OK. Successful. No error occurred.
 926:Middlewares/Third_Party/LwIP/src/core/udp.c ****  * - ERR_USE. The specified ipaddr and port are already bound to by
 927:Middlewares/Third_Party/LwIP/src/core/udp.c ****  * another UDP PCB.
 928:Middlewares/Third_Party/LwIP/src/core/udp.c ****  *
 929:Middlewares/Third_Party/LwIP/src/core/udp.c ****  * @see udp_disconnect()
 930:Middlewares/Third_Party/LwIP/src/core/udp.c ****  */
 931:Middlewares/Third_Party/LwIP/src/core/udp.c **** err_t
 932:Middlewares/Third_Party/LwIP/src/core/udp.c **** udp_bind(struct udp_pcb *pcb, const ip_addr_t *ipaddr, u16_t port)
 933:Middlewares/Third_Party/LwIP/src/core/udp.c **** {
 1454              		.loc 1 933 1
 1455              		.cfi_startproc
 1456              		@ args = 0, pretend = 0, frame = 24
 1457              		@ frame_needed = 1, uses_anonymous_args = 0
 1458 0000 80B5     		push	{r7, lr}
 1459              	.LCFI38:
 1460              		.cfi_def_cfa_offset 8
 1461              		.cfi_offset 7, -8
 1462              		.cfi_offset 14, -4
 1463 0002 86B0     		sub	sp, sp, #24
 1464              	.LCFI39:
 1465              		.cfi_def_cfa_offset 32
 1466 0004 00AF     		add	r7, sp, #0
 1467              	.LCFI40:
 1468              		.cfi_def_cfa_register 7
 1469 0006 F860     		str	r0, [r7, #12]
 1470 0008 B960     		str	r1, [r7, #8]
 1471 000a 1346     		mov	r3, r2
 1472 000c FB80     		strh	r3, [r7, #6]	@ movhi
 934:Middlewares/Third_Party/LwIP/src/core/udp.c ****   struct udp_pcb *ipcb;
 935:Middlewares/Third_Party/LwIP/src/core/udp.c ****   u8_t rebind;
 936:Middlewares/Third_Party/LwIP/src/core/udp.c **** #if LWIP_IPV6 && LWIP_IPV6_SCOPES
 937:Middlewares/Third_Party/LwIP/src/core/udp.c ****   ip_addr_t zoned_ipaddr;
 938:Middlewares/Third_Party/LwIP/src/core/udp.c **** #endif /* LWIP_IPV6 && LWIP_IPV6_SCOPES */
 939:Middlewares/Third_Party/LwIP/src/core/udp.c **** 
 940:Middlewares/Third_Party/LwIP/src/core/udp.c ****   LWIP_ASSERT_CORE_LOCKED();
ARM GAS  /tmp/ccI5hTuN.s 			page 45


 941:Middlewares/Third_Party/LwIP/src/core/udp.c **** 
 942:Middlewares/Third_Party/LwIP/src/core/udp.c **** #if LWIP_IPV4
 943:Middlewares/Third_Party/LwIP/src/core/udp.c ****   /* Don't propagate NULL pointer (IPv4 ANY) to subsequent functions */
 944:Middlewares/Third_Party/LwIP/src/core/udp.c ****   if (ipaddr == NULL) {
 1473              		.loc 1 944 6
 1474 000e BB68     		ldr	r3, [r7, #8]
 1475 0010 002B     		cmp	r3, #0
 1476 0012 01D1     		bne	.L97
 945:Middlewares/Third_Party/LwIP/src/core/udp.c ****     ipaddr = IP4_ADDR_ANY;
 1477              		.loc 1 945 12
 1478 0014 394B     		ldr	r3, .L113
 1479 0016 BB60     		str	r3, [r7, #8]
 1480              	.L97:
 946:Middlewares/Third_Party/LwIP/src/core/udp.c ****   }
 947:Middlewares/Third_Party/LwIP/src/core/udp.c **** #else /* LWIP_IPV4 */
 948:Middlewares/Third_Party/LwIP/src/core/udp.c ****   LWIP_ERROR("udp_bind: invalid ipaddr", ipaddr != NULL, return ERR_ARG);
 949:Middlewares/Third_Party/LwIP/src/core/udp.c **** #endif /* LWIP_IPV4 */
 950:Middlewares/Third_Party/LwIP/src/core/udp.c **** 
 951:Middlewares/Third_Party/LwIP/src/core/udp.c ****   LWIP_ERROR("udp_bind: invalid pcb", pcb != NULL, return ERR_ARG);
 1481              		.loc 1 951 3
 1482 0018 FB68     		ldr	r3, [r7, #12]
 1483 001a 002B     		cmp	r3, #0
 1484 001c 09D1     		bne	.L98
 1485              		.loc 1 951 3 is_stmt 0 discriminator 1
 1486 001e 384B     		ldr	r3, .L113+4
 1487 0020 40F2B732 		movw	r2, #951
 1488 0024 3749     		ldr	r1, .L113+8
 1489 0026 3848     		ldr	r0, .L113+12
 1490 0028 FFF7FEFF 		bl	printf
 1491 002c 6FF00F03 		mvn	r3, #15
 1492 0030 60E0     		b	.L99
 1493              	.L98:
 952:Middlewares/Third_Party/LwIP/src/core/udp.c **** 
 953:Middlewares/Third_Party/LwIP/src/core/udp.c ****   LWIP_DEBUGF(UDP_DEBUG | LWIP_DBG_TRACE, ("udp_bind(ipaddr = "));
 954:Middlewares/Third_Party/LwIP/src/core/udp.c ****   ip_addr_debug_print(UDP_DEBUG | LWIP_DBG_TRACE, ipaddr);
 955:Middlewares/Third_Party/LwIP/src/core/udp.c ****   LWIP_DEBUGF(UDP_DEBUG | LWIP_DBG_TRACE, (", port = %"U16_F")\n", port));
 956:Middlewares/Third_Party/LwIP/src/core/udp.c **** 
 957:Middlewares/Third_Party/LwIP/src/core/udp.c ****   rebind = 0;
 1494              		.loc 1 957 10 is_stmt 1
 1495 0032 0023     		movs	r3, #0
 1496 0034 FB74     		strb	r3, [r7, #19]
 958:Middlewares/Third_Party/LwIP/src/core/udp.c ****   /* Check for double bind and rebind of the same pcb */
 959:Middlewares/Third_Party/LwIP/src/core/udp.c ****   for (ipcb = udp_pcbs; ipcb != NULL; ipcb = ipcb->next) {
 1497              		.loc 1 959 13
 1498 0036 354B     		ldr	r3, .L113+16
 1499 0038 1B68     		ldr	r3, [r3]
 1500 003a 7B61     		str	r3, [r7, #20]
 1501              		.loc 1 959 3
 1502 003c 09E0     		b	.L100
 1503              	.L103:
 960:Middlewares/Third_Party/LwIP/src/core/udp.c ****     /* is this UDP PCB already on active list? */
 961:Middlewares/Third_Party/LwIP/src/core/udp.c ****     if (pcb == ipcb) {
 1504              		.loc 1 961 8
 1505 003e FA68     		ldr	r2, [r7, #12]
 1506 0040 7B69     		ldr	r3, [r7, #20]
 1507 0042 9A42     		cmp	r2, r3
 1508 0044 02D1     		bne	.L101
ARM GAS  /tmp/ccI5hTuN.s 			page 46


 962:Middlewares/Third_Party/LwIP/src/core/udp.c ****       rebind = 1;
 1509              		.loc 1 962 14
 1510 0046 0123     		movs	r3, #1
 1511 0048 FB74     		strb	r3, [r7, #19]
 963:Middlewares/Third_Party/LwIP/src/core/udp.c ****       break;
 1512              		.loc 1 963 7
 1513 004a 05E0     		b	.L102
 1514              	.L101:
 959:Middlewares/Third_Party/LwIP/src/core/udp.c ****     /* is this UDP PCB already on active list? */
 1515              		.loc 1 959 44 discriminator 2
 1516 004c 7B69     		ldr	r3, [r7, #20]
 1517 004e DB68     		ldr	r3, [r3, #12]
 1518 0050 7B61     		str	r3, [r7, #20]
 1519              	.L100:
 959:Middlewares/Third_Party/LwIP/src/core/udp.c ****     /* is this UDP PCB already on active list? */
 1520              		.loc 1 959 3 discriminator 1
 1521 0052 7B69     		ldr	r3, [r7, #20]
 1522 0054 002B     		cmp	r3, #0
 1523 0056 F2D1     		bne	.L103
 1524              	.L102:
 964:Middlewares/Third_Party/LwIP/src/core/udp.c ****     }
 965:Middlewares/Third_Party/LwIP/src/core/udp.c ****   }
 966:Middlewares/Third_Party/LwIP/src/core/udp.c **** 
 967:Middlewares/Third_Party/LwIP/src/core/udp.c **** #if LWIP_IPV6 && LWIP_IPV6_SCOPES
 968:Middlewares/Third_Party/LwIP/src/core/udp.c ****   /* If the given IP address should have a zone but doesn't, assign one now.
 969:Middlewares/Third_Party/LwIP/src/core/udp.c ****    * This is legacy support: scope-aware callers should always provide properly
 970:Middlewares/Third_Party/LwIP/src/core/udp.c ****    * zoned source addresses. Do the zone selection before the address-in-use
 971:Middlewares/Third_Party/LwIP/src/core/udp.c ****    * check below; as such we have to make a temporary copy of the address. */
 972:Middlewares/Third_Party/LwIP/src/core/udp.c ****   if (IP_IS_V6(ipaddr) && ip6_addr_lacks_zone(ip_2_ip6(ipaddr), IP6_UNKNOWN)) {
 973:Middlewares/Third_Party/LwIP/src/core/udp.c ****     ip_addr_copy(zoned_ipaddr, *ipaddr);
 974:Middlewares/Third_Party/LwIP/src/core/udp.c ****     ip6_addr_select_zone(ip_2_ip6(&zoned_ipaddr), ip_2_ip6(&zoned_ipaddr));
 975:Middlewares/Third_Party/LwIP/src/core/udp.c ****     ipaddr = &zoned_ipaddr;
 976:Middlewares/Third_Party/LwIP/src/core/udp.c ****   }
 977:Middlewares/Third_Party/LwIP/src/core/udp.c **** #endif /* LWIP_IPV6 && LWIP_IPV6_SCOPES */
 978:Middlewares/Third_Party/LwIP/src/core/udp.c **** 
 979:Middlewares/Third_Party/LwIP/src/core/udp.c ****   /* no port specified? */
 980:Middlewares/Third_Party/LwIP/src/core/udp.c ****   if (port == 0) {
 1525              		.loc 1 980 6
 1526 0058 FB88     		ldrh	r3, [r7, #6]
 1527 005a 002B     		cmp	r3, #0
 1528 005c 09D1     		bne	.L104
 981:Middlewares/Third_Party/LwIP/src/core/udp.c ****     port = udp_new_port();
 1529              		.loc 1 981 12
 1530 005e FFF7FEFF 		bl	udp_new_port
 1531 0062 0346     		mov	r3, r0
 1532 0064 FB80     		strh	r3, [r7, #6]	@ movhi
 982:Middlewares/Third_Party/LwIP/src/core/udp.c ****     if (port == 0) {
 1533              		.loc 1 982 8
 1534 0066 FB88     		ldrh	r3, [r7, #6]
 1535 0068 002B     		cmp	r3, #0
 1536 006a 2CD1     		bne	.L105
 983:Middlewares/Third_Party/LwIP/src/core/udp.c ****       /* no more ports available in local range */
 984:Middlewares/Third_Party/LwIP/src/core/udp.c ****       LWIP_DEBUGF(UDP_DEBUG, ("udp_bind: out of free UDP ports\n"));
 985:Middlewares/Third_Party/LwIP/src/core/udp.c ****       return ERR_USE;
 1537              		.loc 1 985 14
 1538 006c 6FF00703 		mvn	r3, #7
 1539 0070 40E0     		b	.L99
ARM GAS  /tmp/ccI5hTuN.s 			page 47


 1540              	.L104:
 986:Middlewares/Third_Party/LwIP/src/core/udp.c ****     }
 987:Middlewares/Third_Party/LwIP/src/core/udp.c ****   } else {
 988:Middlewares/Third_Party/LwIP/src/core/udp.c ****     for (ipcb = udp_pcbs; ipcb != NULL; ipcb = ipcb->next) {
 1541              		.loc 1 988 15
 1542 0072 264B     		ldr	r3, .L113+16
 1543 0074 1B68     		ldr	r3, [r3]
 1544 0076 7B61     		str	r3, [r7, #20]
 1545              		.loc 1 988 5
 1546 0078 22E0     		b	.L106
 1547              	.L109:
 989:Middlewares/Third_Party/LwIP/src/core/udp.c ****       if (pcb != ipcb) {
 1548              		.loc 1 989 10
 1549 007a FA68     		ldr	r2, [r7, #12]
 1550 007c 7B69     		ldr	r3, [r7, #20]
 1551 007e 9A42     		cmp	r2, r3
 1552 0080 1BD0     		beq	.L107
 990:Middlewares/Third_Party/LwIP/src/core/udp.c ****         /* By default, we don't allow to bind to a port that any other udp
 991:Middlewares/Third_Party/LwIP/src/core/udp.c ****            PCB is already bound to, unless *all* PCBs with that port have tha
 992:Middlewares/Third_Party/LwIP/src/core/udp.c ****            REUSEADDR flag set. */
 993:Middlewares/Third_Party/LwIP/src/core/udp.c **** #if SO_REUSE
 994:Middlewares/Third_Party/LwIP/src/core/udp.c ****         if (!ip_get_option(pcb, SOF_REUSEADDR) ||
 995:Middlewares/Third_Party/LwIP/src/core/udp.c ****             !ip_get_option(ipcb, SOF_REUSEADDR))
 996:Middlewares/Third_Party/LwIP/src/core/udp.c **** #endif /* SO_REUSE */
 997:Middlewares/Third_Party/LwIP/src/core/udp.c ****         {
 998:Middlewares/Third_Party/LwIP/src/core/udp.c ****           /* port matches that of PCB in list and REUSEADDR not set -> reject */
 999:Middlewares/Third_Party/LwIP/src/core/udp.c ****           if ((ipcb->local_port == port) &&
 1553              		.loc 1 999 20
 1554 0082 7B69     		ldr	r3, [r7, #20]
 1555 0084 5B8A     		ldrh	r3, [r3, #18]
 1556              		.loc 1 999 14
 1557 0086 FA88     		ldrh	r2, [r7, #6]
 1558 0088 9A42     		cmp	r2, r3
 1559 008a 16D1     		bne	.L107
1000:Middlewares/Third_Party/LwIP/src/core/udp.c ****               /* IP address matches or any IP used? */
1001:Middlewares/Third_Party/LwIP/src/core/udp.c ****               (ip_addr_cmp(&ipcb->local_ip, ipaddr) || ip_addr_isany(ipaddr) ||
 1560              		.loc 1 1001 16 discriminator 1
 1561 008c 7B69     		ldr	r3, [r7, #20]
 1562 008e 1A68     		ldr	r2, [r3]
 1563 0090 BB68     		ldr	r3, [r7, #8]
 1564 0092 1B68     		ldr	r3, [r3]
 999:Middlewares/Third_Party/LwIP/src/core/udp.c ****               /* IP address matches or any IP used? */
 1565              		.loc 1 999 42 discriminator 1
 1566 0094 9A42     		cmp	r2, r3
 1567 0096 0DD0     		beq	.L108
 1568              		.loc 1 1001 53
 1569 0098 BB68     		ldr	r3, [r7, #8]
 1570 009a 002B     		cmp	r3, #0
 1571 009c 0AD0     		beq	.L108
 1572              		.loc 1 1001 56 discriminator 1
 1573 009e BB68     		ldr	r3, [r7, #8]
 1574 00a0 1B68     		ldr	r3, [r3]
 1575 00a2 002B     		cmp	r3, #0
 1576 00a4 06D0     		beq	.L108
1002:Middlewares/Third_Party/LwIP/src/core/udp.c ****               ip_addr_isany(&ipcb->local_ip))) {
 1577              		.loc 1 1002 15 discriminator 2
 1578 00a6 7B69     		ldr	r3, [r7, #20]
ARM GAS  /tmp/ccI5hTuN.s 			page 48


1001:Middlewares/Third_Party/LwIP/src/core/udp.c ****               ip_addr_isany(&ipcb->local_ip))) {
 1579              		.loc 1 1001 78 discriminator 2
 1580 00a8 002B     		cmp	r3, #0
 1581 00aa 03D0     		beq	.L108
 1582              		.loc 1 1002 15
 1583 00ac 7B69     		ldr	r3, [r7, #20]
 1584 00ae 1B68     		ldr	r3, [r3]
 1585 00b0 002B     		cmp	r3, #0
 1586 00b2 02D1     		bne	.L107
 1587              	.L108:
1003:Middlewares/Third_Party/LwIP/src/core/udp.c ****             /* other PCB already binds to this local IP and port */
1004:Middlewares/Third_Party/LwIP/src/core/udp.c ****             LWIP_DEBUGF(UDP_DEBUG,
1005:Middlewares/Third_Party/LwIP/src/core/udp.c ****                         ("udp_bind: local port %"U16_F" already bound by another pcb\n", port));
1006:Middlewares/Third_Party/LwIP/src/core/udp.c ****             return ERR_USE;
 1588              		.loc 1 1006 20
 1589 00b4 6FF00703 		mvn	r3, #7
 1590 00b8 1CE0     		b	.L99
 1591              	.L107:
 988:Middlewares/Third_Party/LwIP/src/core/udp.c ****       if (pcb != ipcb) {
 1592              		.loc 1 988 46 discriminator 2
 1593 00ba 7B69     		ldr	r3, [r7, #20]
 1594 00bc DB68     		ldr	r3, [r3, #12]
 1595 00be 7B61     		str	r3, [r7, #20]
 1596              	.L106:
 988:Middlewares/Third_Party/LwIP/src/core/udp.c ****       if (pcb != ipcb) {
 1597              		.loc 1 988 5 discriminator 1
 1598 00c0 7B69     		ldr	r3, [r7, #20]
 1599 00c2 002B     		cmp	r3, #0
 1600 00c4 D9D1     		bne	.L109
 1601              	.L105:
1007:Middlewares/Third_Party/LwIP/src/core/udp.c ****           }
1008:Middlewares/Third_Party/LwIP/src/core/udp.c ****         }
1009:Middlewares/Third_Party/LwIP/src/core/udp.c ****       }
1010:Middlewares/Third_Party/LwIP/src/core/udp.c ****     }
1011:Middlewares/Third_Party/LwIP/src/core/udp.c ****   }
1012:Middlewares/Third_Party/LwIP/src/core/udp.c **** 
1013:Middlewares/Third_Party/LwIP/src/core/udp.c ****   ip_addr_set_ipaddr(&pcb->local_ip, ipaddr);
 1602              		.loc 1 1013 3
 1603 00c6 BB68     		ldr	r3, [r7, #8]
 1604 00c8 002B     		cmp	r3, #0
 1605 00ca 02D0     		beq	.L110
 1606              		.loc 1 1013 3 is_stmt 0 discriminator 1
 1607 00cc BB68     		ldr	r3, [r7, #8]
 1608 00ce 1B68     		ldr	r3, [r3]
 1609 00d0 00E0     		b	.L111
 1610              	.L110:
 1611              		.loc 1 1013 3 discriminator 2
 1612 00d2 0023     		movs	r3, #0
 1613              	.L111:
 1614              		.loc 1 1013 3 discriminator 4
 1615 00d4 FA68     		ldr	r2, [r7, #12]
 1616 00d6 1360     		str	r3, [r2]
1014:Middlewares/Third_Party/LwIP/src/core/udp.c **** 
1015:Middlewares/Third_Party/LwIP/src/core/udp.c ****   pcb->local_port = port;
 1617              		.loc 1 1015 19 is_stmt 1 discriminator 4
 1618 00d8 FB68     		ldr	r3, [r7, #12]
 1619 00da FA88     		ldrh	r2, [r7, #6]	@ movhi
ARM GAS  /tmp/ccI5hTuN.s 			page 49


 1620 00dc 5A82     		strh	r2, [r3, #18]	@ movhi
1016:Middlewares/Third_Party/LwIP/src/core/udp.c ****   mib2_udp_bind(pcb);
1017:Middlewares/Third_Party/LwIP/src/core/udp.c ****   /* pcb not active yet? */
1018:Middlewares/Third_Party/LwIP/src/core/udp.c ****   if (rebind == 0) {
 1621              		.loc 1 1018 6 discriminator 4
 1622 00de FB7C     		ldrb	r3, [r7, #19]	@ zero_extendqisi2
 1623 00e0 002B     		cmp	r3, #0
 1624 00e2 06D1     		bne	.L112
1019:Middlewares/Third_Party/LwIP/src/core/udp.c ****     /* place the PCB on the active list if not already there */
1020:Middlewares/Third_Party/LwIP/src/core/udp.c ****     pcb->next = udp_pcbs;
 1625              		.loc 1 1020 15
 1626 00e4 094B     		ldr	r3, .L113+16
 1627 00e6 1A68     		ldr	r2, [r3]
 1628 00e8 FB68     		ldr	r3, [r7, #12]
 1629 00ea DA60     		str	r2, [r3, #12]
1021:Middlewares/Third_Party/LwIP/src/core/udp.c ****     udp_pcbs = pcb;
 1630              		.loc 1 1021 14
 1631 00ec 074A     		ldr	r2, .L113+16
 1632 00ee FB68     		ldr	r3, [r7, #12]
 1633 00f0 1360     		str	r3, [r2]
 1634              	.L112:
1022:Middlewares/Third_Party/LwIP/src/core/udp.c ****   }
1023:Middlewares/Third_Party/LwIP/src/core/udp.c ****   LWIP_DEBUGF(UDP_DEBUG | LWIP_DBG_TRACE | LWIP_DBG_STATE, ("udp_bind: bound to "));
1024:Middlewares/Third_Party/LwIP/src/core/udp.c ****   ip_addr_debug_print_val(UDP_DEBUG | LWIP_DBG_TRACE | LWIP_DBG_STATE, pcb->local_ip);
1025:Middlewares/Third_Party/LwIP/src/core/udp.c ****   LWIP_DEBUGF(UDP_DEBUG | LWIP_DBG_TRACE | LWIP_DBG_STATE, (", port %"U16_F")\n", pcb->local_port))
1026:Middlewares/Third_Party/LwIP/src/core/udp.c ****   return ERR_OK;
 1635              		.loc 1 1026 10
 1636 00f2 0023     		movs	r3, #0
 1637              	.L99:
1027:Middlewares/Third_Party/LwIP/src/core/udp.c **** }
 1638              		.loc 1 1027 1
 1639 00f4 1846     		mov	r0, r3
 1640 00f6 1837     		adds	r7, r7, #24
 1641              	.LCFI41:
 1642              		.cfi_def_cfa_offset 8
 1643 00f8 BD46     		mov	sp, r7
 1644              	.LCFI42:
 1645              		.cfi_def_cfa_register 13
 1646              		@ sp needed
 1647 00fa 80BD     		pop	{r7, pc}
 1648              	.L114:
 1649              		.align	2
 1650              	.L113:
 1651 00fc 00000000 		.word	ip_addr_any
 1652 0100 00000000 		.word	.LC0
 1653 0104 C4020000 		.word	.LC22
 1654 0108 50000000 		.word	.LC2
 1655 010c 00000000 		.word	udp_pcbs
 1656              		.cfi_endproc
 1657              	.LFE141:
 1659              		.section	.text.udp_bind_netif,"ax",%progbits
 1660              		.align	1
 1661              		.global	udp_bind_netif
 1662              		.syntax unified
 1663              		.thumb
 1664              		.thumb_func
 1665              		.fpu fpv4-sp-d16
ARM GAS  /tmp/ccI5hTuN.s 			page 50


 1667              	udp_bind_netif:
 1668              	.LFB142:
1028:Middlewares/Third_Party/LwIP/src/core/udp.c **** 
1029:Middlewares/Third_Party/LwIP/src/core/udp.c **** /**
1030:Middlewares/Third_Party/LwIP/src/core/udp.c ****  * @ingroup udp_raw
1031:Middlewares/Third_Party/LwIP/src/core/udp.c ****  * Bind an UDP PCB to a specific netif.
1032:Middlewares/Third_Party/LwIP/src/core/udp.c ****  * After calling this function, all packets received via this PCB
1033:Middlewares/Third_Party/LwIP/src/core/udp.c ****  * are guaranteed to have come in via the specified netif, and all
1034:Middlewares/Third_Party/LwIP/src/core/udp.c ****  * outgoing packets will go out via the specified netif.
1035:Middlewares/Third_Party/LwIP/src/core/udp.c ****  *
1036:Middlewares/Third_Party/LwIP/src/core/udp.c ****  * @param pcb UDP PCB to be bound.
1037:Middlewares/Third_Party/LwIP/src/core/udp.c ****  * @param netif netif to bind udp pcb to. Can be NULL.
1038:Middlewares/Third_Party/LwIP/src/core/udp.c ****  *
1039:Middlewares/Third_Party/LwIP/src/core/udp.c ****  * @see udp_disconnect()
1040:Middlewares/Third_Party/LwIP/src/core/udp.c ****  */
1041:Middlewares/Third_Party/LwIP/src/core/udp.c **** void
1042:Middlewares/Third_Party/LwIP/src/core/udp.c **** udp_bind_netif(struct udp_pcb *pcb, const struct netif *netif)
1043:Middlewares/Third_Party/LwIP/src/core/udp.c **** {
 1669              		.loc 1 1043 1
 1670              		.cfi_startproc
 1671              		@ args = 0, pretend = 0, frame = 8
 1672              		@ frame_needed = 1, uses_anonymous_args = 0
 1673              		@ link register save eliminated.
 1674 0000 80B4     		push	{r7}
 1675              	.LCFI43:
 1676              		.cfi_def_cfa_offset 4
 1677              		.cfi_offset 7, -4
 1678 0002 83B0     		sub	sp, sp, #12
 1679              	.LCFI44:
 1680              		.cfi_def_cfa_offset 16
 1681 0004 00AF     		add	r7, sp, #0
 1682              	.LCFI45:
 1683              		.cfi_def_cfa_register 7
 1684 0006 7860     		str	r0, [r7, #4]
 1685 0008 3960     		str	r1, [r7]
1044:Middlewares/Third_Party/LwIP/src/core/udp.c ****   LWIP_ASSERT_CORE_LOCKED();
1045:Middlewares/Third_Party/LwIP/src/core/udp.c **** 
1046:Middlewares/Third_Party/LwIP/src/core/udp.c ****   if (netif != NULL) {
 1686              		.loc 1 1046 6
 1687 000a 3B68     		ldr	r3, [r7]
 1688 000c 002B     		cmp	r3, #0
 1689 000e 07D0     		beq	.L116
1047:Middlewares/Third_Party/LwIP/src/core/udp.c ****     pcb->netif_idx = netif_get_index(netif);
 1690              		.loc 1 1047 22
 1691 0010 3B68     		ldr	r3, [r7]
 1692 0012 93F83430 		ldrb	r3, [r3, #52]	@ zero_extendqisi2
 1693 0016 0133     		adds	r3, r3, #1
 1694 0018 DAB2     		uxtb	r2, r3
 1695              		.loc 1 1047 20
 1696 001a 7B68     		ldr	r3, [r7, #4]
 1697 001c 1A72     		strb	r2, [r3, #8]
1048:Middlewares/Third_Party/LwIP/src/core/udp.c ****   } else {
1049:Middlewares/Third_Party/LwIP/src/core/udp.c ****     pcb->netif_idx = NETIF_NO_INDEX;
1050:Middlewares/Third_Party/LwIP/src/core/udp.c ****   }
1051:Middlewares/Third_Party/LwIP/src/core/udp.c **** }
 1698              		.loc 1 1051 1
 1699 001e 02E0     		b	.L118
ARM GAS  /tmp/ccI5hTuN.s 			page 51


 1700              	.L116:
1049:Middlewares/Third_Party/LwIP/src/core/udp.c ****   }
 1701              		.loc 1 1049 20
 1702 0020 7B68     		ldr	r3, [r7, #4]
 1703 0022 0022     		movs	r2, #0
 1704 0024 1A72     		strb	r2, [r3, #8]
 1705              	.L118:
 1706              		.loc 1 1051 1
 1707 0026 00BF     		nop
 1708 0028 0C37     		adds	r7, r7, #12
 1709              	.LCFI46:
 1710              		.cfi_def_cfa_offset 4
 1711 002a BD46     		mov	sp, r7
 1712              	.LCFI47:
 1713              		.cfi_def_cfa_register 13
 1714              		@ sp needed
 1715 002c 5DF8047B 		ldr	r7, [sp], #4
 1716              	.LCFI48:
 1717              		.cfi_restore 7
 1718              		.cfi_def_cfa_offset 0
 1719 0030 7047     		bx	lr
 1720              		.cfi_endproc
 1721              	.LFE142:
 1723              		.section	.rodata
 1724 02da 0000     		.align	2
 1725              	.LC23:
 1726 02dc 7564705F 		.ascii	"udp_connect: invalid pcb\000"
 1726      636F6E6E 
 1726      6563743A 
 1726      20696E76 
 1726      616C6964 
 1727 02f5 000000   		.align	2
 1728              	.LC24:
 1729 02f8 7564705F 		.ascii	"udp_connect: invalid ipaddr\000"
 1729      636F6E6E 
 1729      6563743A 
 1729      20696E76 
 1729      616C6964 
 1730              		.section	.text.udp_connect,"ax",%progbits
 1731              		.align	1
 1732              		.global	udp_connect
 1733              		.syntax unified
 1734              		.thumb
 1735              		.thumb_func
 1736              		.fpu fpv4-sp-d16
 1738              	udp_connect:
 1739              	.LFB143:
1052:Middlewares/Third_Party/LwIP/src/core/udp.c **** 
1053:Middlewares/Third_Party/LwIP/src/core/udp.c **** /**
1054:Middlewares/Third_Party/LwIP/src/core/udp.c ****  * @ingroup udp_raw
1055:Middlewares/Third_Party/LwIP/src/core/udp.c ****  * Sets the remote end of the pcb. This function does not generate any
1056:Middlewares/Third_Party/LwIP/src/core/udp.c ****  * network traffic, but only sets the remote address of the pcb.
1057:Middlewares/Third_Party/LwIP/src/core/udp.c ****  *
1058:Middlewares/Third_Party/LwIP/src/core/udp.c ****  * @param pcb UDP PCB to be connected with remote address ipaddr and port.
1059:Middlewares/Third_Party/LwIP/src/core/udp.c ****  * @param ipaddr remote IP address to connect with.
1060:Middlewares/Third_Party/LwIP/src/core/udp.c ****  * @param port remote UDP port to connect with.
1061:Middlewares/Third_Party/LwIP/src/core/udp.c ****  *
ARM GAS  /tmp/ccI5hTuN.s 			page 52


1062:Middlewares/Third_Party/LwIP/src/core/udp.c ****  * @return lwIP error code
1063:Middlewares/Third_Party/LwIP/src/core/udp.c ****  *
1064:Middlewares/Third_Party/LwIP/src/core/udp.c ****  * ipaddr & port are expected to be in the same byte order as in the pcb.
1065:Middlewares/Third_Party/LwIP/src/core/udp.c ****  *
1066:Middlewares/Third_Party/LwIP/src/core/udp.c ****  * The udp pcb is bound to a random local port if not already bound.
1067:Middlewares/Third_Party/LwIP/src/core/udp.c ****  *
1068:Middlewares/Third_Party/LwIP/src/core/udp.c ****  * @see udp_disconnect()
1069:Middlewares/Third_Party/LwIP/src/core/udp.c ****  */
1070:Middlewares/Third_Party/LwIP/src/core/udp.c **** err_t
1071:Middlewares/Third_Party/LwIP/src/core/udp.c **** udp_connect(struct udp_pcb *pcb, const ip_addr_t *ipaddr, u16_t port)
1072:Middlewares/Third_Party/LwIP/src/core/udp.c **** {
 1740              		.loc 1 1072 1
 1741              		.cfi_startproc
 1742              		@ args = 0, pretend = 0, frame = 24
 1743              		@ frame_needed = 1, uses_anonymous_args = 0
 1744 0000 80B5     		push	{r7, lr}
 1745              	.LCFI49:
 1746              		.cfi_def_cfa_offset 8
 1747              		.cfi_offset 7, -8
 1748              		.cfi_offset 14, -4
 1749 0002 86B0     		sub	sp, sp, #24
 1750              	.LCFI50:
 1751              		.cfi_def_cfa_offset 32
 1752 0004 00AF     		add	r7, sp, #0
 1753              	.LCFI51:
 1754              		.cfi_def_cfa_register 7
 1755 0006 F860     		str	r0, [r7, #12]
 1756 0008 B960     		str	r1, [r7, #8]
 1757 000a 1346     		mov	r3, r2
 1758 000c FB80     		strh	r3, [r7, #6]	@ movhi
1073:Middlewares/Third_Party/LwIP/src/core/udp.c ****   struct udp_pcb *ipcb;
1074:Middlewares/Third_Party/LwIP/src/core/udp.c **** 
1075:Middlewares/Third_Party/LwIP/src/core/udp.c ****   LWIP_ASSERT_CORE_LOCKED();
1076:Middlewares/Third_Party/LwIP/src/core/udp.c **** 
1077:Middlewares/Third_Party/LwIP/src/core/udp.c ****   LWIP_ERROR("udp_connect: invalid pcb", pcb != NULL, return ERR_ARG);
 1759              		.loc 1 1077 3
 1760 000e FB68     		ldr	r3, [r7, #12]
 1761 0010 002B     		cmp	r3, #0
 1762 0012 09D1     		bne	.L120
 1763              		.loc 1 1077 3 is_stmt 0 discriminator 1
 1764 0014 2C4B     		ldr	r3, .L129
 1765 0016 40F23542 		movw	r2, #1077
 1766 001a 2C49     		ldr	r1, .L129+4
 1767 001c 2C48     		ldr	r0, .L129+8
 1768 001e FFF7FEFF 		bl	printf
 1769 0022 6FF00F03 		mvn	r3, #15
 1770 0026 4BE0     		b	.L121
 1771              	.L120:
1078:Middlewares/Third_Party/LwIP/src/core/udp.c ****   LWIP_ERROR("udp_connect: invalid ipaddr", ipaddr != NULL, return ERR_ARG);
 1772              		.loc 1 1078 3 is_stmt 1
 1773 0028 BB68     		ldr	r3, [r7, #8]
 1774 002a 002B     		cmp	r3, #0
 1775 002c 09D1     		bne	.L122
 1776              		.loc 1 1078 3 is_stmt 0 discriminator 1
 1777 002e 264B     		ldr	r3, .L129
 1778 0030 40F23642 		movw	r2, #1078
 1779 0034 2749     		ldr	r1, .L129+12
ARM GAS  /tmp/ccI5hTuN.s 			page 53


 1780 0036 2648     		ldr	r0, .L129+8
 1781 0038 FFF7FEFF 		bl	printf
 1782 003c 6FF00F03 		mvn	r3, #15
 1783 0040 3EE0     		b	.L121
 1784              	.L122:
1079:Middlewares/Third_Party/LwIP/src/core/udp.c **** 
1080:Middlewares/Third_Party/LwIP/src/core/udp.c ****   if (pcb->local_port == 0) {
 1785              		.loc 1 1080 10 is_stmt 1
 1786 0042 FB68     		ldr	r3, [r7, #12]
 1787 0044 5B8A     		ldrh	r3, [r3, #18]
 1788              		.loc 1 1080 6
 1789 0046 002B     		cmp	r3, #0
 1790 0048 0FD1     		bne	.L123
 1791              	.LBB2:
1081:Middlewares/Third_Party/LwIP/src/core/udp.c ****     err_t err = udp_bind(pcb, &pcb->local_ip, pcb->local_port);
 1792              		.loc 1 1081 31
 1793 004a F968     		ldr	r1, [r7, #12]
 1794              		.loc 1 1081 17
 1795 004c FB68     		ldr	r3, [r7, #12]
 1796 004e 5B8A     		ldrh	r3, [r3, #18]
 1797 0050 1A46     		mov	r2, r3
 1798 0052 F868     		ldr	r0, [r7, #12]
 1799 0054 FFF7FEFF 		bl	udp_bind
 1800 0058 0346     		mov	r3, r0
 1801 005a FB74     		strb	r3, [r7, #19]
1082:Middlewares/Third_Party/LwIP/src/core/udp.c ****     if (err != ERR_OK) {
 1802              		.loc 1 1082 8
 1803 005c 97F91330 		ldrsb	r3, [r7, #19]
 1804 0060 002B     		cmp	r3, #0
 1805 0062 02D0     		beq	.L123
1083:Middlewares/Third_Party/LwIP/src/core/udp.c ****       return err;
 1806              		.loc 1 1083 14
 1807 0064 97F91330 		ldrsb	r3, [r7, #19]
 1808 0068 2AE0     		b	.L121
 1809              	.L123:
 1810              	.LBE2:
1084:Middlewares/Third_Party/LwIP/src/core/udp.c ****     }
1085:Middlewares/Third_Party/LwIP/src/core/udp.c ****   }
1086:Middlewares/Third_Party/LwIP/src/core/udp.c **** 
1087:Middlewares/Third_Party/LwIP/src/core/udp.c ****   ip_addr_set_ipaddr(&pcb->remote_ip, ipaddr);
 1811              		.loc 1 1087 3
 1812 006a BB68     		ldr	r3, [r7, #8]
 1813 006c 002B     		cmp	r3, #0
 1814 006e 02D0     		beq	.L124
 1815              		.loc 1 1087 3 is_stmt 0 discriminator 1
 1816 0070 BB68     		ldr	r3, [r7, #8]
 1817 0072 1B68     		ldr	r3, [r3]
 1818 0074 00E0     		b	.L125
 1819              	.L124:
 1820              		.loc 1 1087 3 discriminator 2
 1821 0076 0023     		movs	r3, #0
 1822              	.L125:
 1823              		.loc 1 1087 3 discriminator 4
 1824 0078 FA68     		ldr	r2, [r7, #12]
 1825 007a 5360     		str	r3, [r2, #4]
1088:Middlewares/Third_Party/LwIP/src/core/udp.c **** #if LWIP_IPV6 && LWIP_IPV6_SCOPES
1089:Middlewares/Third_Party/LwIP/src/core/udp.c ****   /* If the given IP address should have a zone but doesn't, assign one now,
ARM GAS  /tmp/ccI5hTuN.s 			page 54


1090:Middlewares/Third_Party/LwIP/src/core/udp.c ****    * using the bound address to make a more informed decision when possible. */
1091:Middlewares/Third_Party/LwIP/src/core/udp.c ****   if (IP_IS_V6(&pcb->remote_ip) &&
1092:Middlewares/Third_Party/LwIP/src/core/udp.c ****       ip6_addr_lacks_zone(ip_2_ip6(&pcb->remote_ip), IP6_UNKNOWN)) {
1093:Middlewares/Third_Party/LwIP/src/core/udp.c ****     ip6_addr_select_zone(ip_2_ip6(&pcb->remote_ip), ip_2_ip6(&pcb->local_ip));
1094:Middlewares/Third_Party/LwIP/src/core/udp.c ****   }
1095:Middlewares/Third_Party/LwIP/src/core/udp.c **** #endif /* LWIP_IPV6 && LWIP_IPV6_SCOPES */
1096:Middlewares/Third_Party/LwIP/src/core/udp.c **** 
1097:Middlewares/Third_Party/LwIP/src/core/udp.c ****   pcb->remote_port = port;
 1826              		.loc 1 1097 20 is_stmt 1 discriminator 4
 1827 007c FB68     		ldr	r3, [r7, #12]
 1828 007e FA88     		ldrh	r2, [r7, #6]	@ movhi
 1829 0080 9A82     		strh	r2, [r3, #20]	@ movhi
1098:Middlewares/Third_Party/LwIP/src/core/udp.c ****   pcb->flags |= UDP_FLAGS_CONNECTED;
 1830              		.loc 1 1098 14 discriminator 4
 1831 0082 FB68     		ldr	r3, [r7, #12]
 1832 0084 1B7C     		ldrb	r3, [r3, #16]	@ zero_extendqisi2
 1833 0086 43F00403 		orr	r3, r3, #4
 1834 008a DAB2     		uxtb	r2, r3
 1835 008c FB68     		ldr	r3, [r7, #12]
 1836 008e 1A74     		strb	r2, [r3, #16]
1099:Middlewares/Third_Party/LwIP/src/core/udp.c **** 
1100:Middlewares/Third_Party/LwIP/src/core/udp.c ****   LWIP_DEBUGF(UDP_DEBUG | LWIP_DBG_TRACE | LWIP_DBG_STATE, ("udp_connect: connected to "));
1101:Middlewares/Third_Party/LwIP/src/core/udp.c ****   ip_addr_debug_print_val(UDP_DEBUG | LWIP_DBG_TRACE | LWIP_DBG_STATE,
1102:Middlewares/Third_Party/LwIP/src/core/udp.c ****                           pcb->remote_ip);
1103:Middlewares/Third_Party/LwIP/src/core/udp.c ****   LWIP_DEBUGF(UDP_DEBUG | LWIP_DBG_TRACE | LWIP_DBG_STATE, (", port %"U16_F")\n", pcb->remote_port)
1104:Middlewares/Third_Party/LwIP/src/core/udp.c **** 
1105:Middlewares/Third_Party/LwIP/src/core/udp.c ****   /* Insert UDP PCB into the list of active UDP PCBs. */
1106:Middlewares/Third_Party/LwIP/src/core/udp.c ****   for (ipcb = udp_pcbs; ipcb != NULL; ipcb = ipcb->next) {
 1837              		.loc 1 1106 13 discriminator 4
 1838 0090 114B     		ldr	r3, .L129+16
 1839 0092 1B68     		ldr	r3, [r3]
 1840 0094 7B61     		str	r3, [r7, #20]
 1841              		.loc 1 1106 3 discriminator 4
 1842 0096 08E0     		b	.L126
 1843              	.L128:
1107:Middlewares/Third_Party/LwIP/src/core/udp.c ****     if (pcb == ipcb) {
 1844              		.loc 1 1107 8
 1845 0098 FA68     		ldr	r2, [r7, #12]
 1846 009a 7B69     		ldr	r3, [r7, #20]
 1847 009c 9A42     		cmp	r2, r3
 1848 009e 01D1     		bne	.L127
1108:Middlewares/Third_Party/LwIP/src/core/udp.c ****       /* already on the list, just return */
1109:Middlewares/Third_Party/LwIP/src/core/udp.c ****       return ERR_OK;
 1849              		.loc 1 1109 14
 1850 00a0 0023     		movs	r3, #0
 1851 00a2 0DE0     		b	.L121
 1852              	.L127:
1106:Middlewares/Third_Party/LwIP/src/core/udp.c ****     if (pcb == ipcb) {
 1853              		.loc 1 1106 44 discriminator 2
 1854 00a4 7B69     		ldr	r3, [r7, #20]
 1855 00a6 DB68     		ldr	r3, [r3, #12]
 1856 00a8 7B61     		str	r3, [r7, #20]
 1857              	.L126:
1106:Middlewares/Third_Party/LwIP/src/core/udp.c ****     if (pcb == ipcb) {
 1858              		.loc 1 1106 3 discriminator 1
 1859 00aa 7B69     		ldr	r3, [r7, #20]
 1860 00ac 002B     		cmp	r3, #0
ARM GAS  /tmp/ccI5hTuN.s 			page 55


 1861 00ae F3D1     		bne	.L128
1110:Middlewares/Third_Party/LwIP/src/core/udp.c ****     }
1111:Middlewares/Third_Party/LwIP/src/core/udp.c ****   }
1112:Middlewares/Third_Party/LwIP/src/core/udp.c ****   /* PCB not yet on the list, add PCB now */
1113:Middlewares/Third_Party/LwIP/src/core/udp.c ****   pcb->next = udp_pcbs;
 1862              		.loc 1 1113 13
 1863 00b0 094B     		ldr	r3, .L129+16
 1864 00b2 1A68     		ldr	r2, [r3]
 1865 00b4 FB68     		ldr	r3, [r7, #12]
 1866 00b6 DA60     		str	r2, [r3, #12]
1114:Middlewares/Third_Party/LwIP/src/core/udp.c ****   udp_pcbs = pcb;
 1867              		.loc 1 1114 12
 1868 00b8 074A     		ldr	r2, .L129+16
 1869 00ba FB68     		ldr	r3, [r7, #12]
 1870 00bc 1360     		str	r3, [r2]
1115:Middlewares/Third_Party/LwIP/src/core/udp.c ****   return ERR_OK;
 1871              		.loc 1 1115 10
 1872 00be 0023     		movs	r3, #0
 1873              	.L121:
1116:Middlewares/Third_Party/LwIP/src/core/udp.c **** }
 1874              		.loc 1 1116 1
 1875 00c0 1846     		mov	r0, r3
 1876 00c2 1837     		adds	r7, r7, #24
 1877              	.LCFI52:
 1878              		.cfi_def_cfa_offset 8
 1879 00c4 BD46     		mov	sp, r7
 1880              	.LCFI53:
 1881              		.cfi_def_cfa_register 13
 1882              		@ sp needed
 1883 00c6 80BD     		pop	{r7, pc}
 1884              	.L130:
 1885              		.align	2
 1886              	.L129:
 1887 00c8 00000000 		.word	.LC0
 1888 00cc DC020000 		.word	.LC23
 1889 00d0 50000000 		.word	.LC2
 1890 00d4 F8020000 		.word	.LC24
 1891 00d8 00000000 		.word	udp_pcbs
 1892              		.cfi_endproc
 1893              	.LFE143:
 1895              		.section	.rodata
 1896              		.align	2
 1897              	.LC25:
 1898 0314 7564705F 		.ascii	"udp_disconnect: invalid pcb\000"
 1898      64697363 
 1898      6F6E6E65 
 1898      63743A20 
 1898      696E7661 
 1899              		.section	.text.udp_disconnect,"ax",%progbits
 1900              		.align	1
 1901              		.global	udp_disconnect
 1902              		.syntax unified
 1903              		.thumb
 1904              		.thumb_func
 1905              		.fpu fpv4-sp-d16
 1907              	udp_disconnect:
 1908              	.LFB144:
ARM GAS  /tmp/ccI5hTuN.s 			page 56


1117:Middlewares/Third_Party/LwIP/src/core/udp.c **** 
1118:Middlewares/Third_Party/LwIP/src/core/udp.c **** /**
1119:Middlewares/Third_Party/LwIP/src/core/udp.c ****  * @ingroup udp_raw
1120:Middlewares/Third_Party/LwIP/src/core/udp.c ****  * Remove the remote end of the pcb. This function does not generate
1121:Middlewares/Third_Party/LwIP/src/core/udp.c ****  * any network traffic, but only removes the remote address of the pcb.
1122:Middlewares/Third_Party/LwIP/src/core/udp.c ****  *
1123:Middlewares/Third_Party/LwIP/src/core/udp.c ****  * @param pcb the udp pcb to disconnect.
1124:Middlewares/Third_Party/LwIP/src/core/udp.c ****  */
1125:Middlewares/Third_Party/LwIP/src/core/udp.c **** void
1126:Middlewares/Third_Party/LwIP/src/core/udp.c **** udp_disconnect(struct udp_pcb *pcb)
1127:Middlewares/Third_Party/LwIP/src/core/udp.c **** {
 1909              		.loc 1 1127 1
 1910              		.cfi_startproc
 1911              		@ args = 0, pretend = 0, frame = 8
 1912              		@ frame_needed = 1, uses_anonymous_args = 0
 1913 0000 80B5     		push	{r7, lr}
 1914              	.LCFI54:
 1915              		.cfi_def_cfa_offset 8
 1916              		.cfi_offset 7, -8
 1917              		.cfi_offset 14, -4
 1918 0002 82B0     		sub	sp, sp, #8
 1919              	.LCFI55:
 1920              		.cfi_def_cfa_offset 16
 1921 0004 00AF     		add	r7, sp, #0
 1922              	.LCFI56:
 1923              		.cfi_def_cfa_register 7
 1924 0006 7860     		str	r0, [r7, #4]
1128:Middlewares/Third_Party/LwIP/src/core/udp.c ****   LWIP_ASSERT_CORE_LOCKED();
1129:Middlewares/Third_Party/LwIP/src/core/udp.c **** 
1130:Middlewares/Third_Party/LwIP/src/core/udp.c ****   LWIP_ERROR("udp_disconnect: invalid pcb", pcb != NULL, return);
 1925              		.loc 1 1130 3
 1926 0008 7B68     		ldr	r3, [r7, #4]
 1927 000a 002B     		cmp	r3, #0
 1928 000c 07D1     		bne	.L132
 1929              		.loc 1 1130 3 is_stmt 0 discriminator 1
 1930 000e 0D4B     		ldr	r3, .L134
 1931 0010 40F26A42 		movw	r2, #1130
 1932 0014 0C49     		ldr	r1, .L134+4
 1933 0016 0D48     		ldr	r0, .L134+8
 1934 0018 FFF7FEFF 		bl	printf
 1935 001c 0FE0     		b	.L131
 1936              	.L132:
1131:Middlewares/Third_Party/LwIP/src/core/udp.c **** 
1132:Middlewares/Third_Party/LwIP/src/core/udp.c ****   /* reset remote address association */
1133:Middlewares/Third_Party/LwIP/src/core/udp.c **** #if LWIP_IPV4 && LWIP_IPV6
1134:Middlewares/Third_Party/LwIP/src/core/udp.c ****   if (IP_IS_ANY_TYPE_VAL(pcb->local_ip)) {
1135:Middlewares/Third_Party/LwIP/src/core/udp.c ****     ip_addr_copy(pcb->remote_ip, *IP_ANY_TYPE);
1136:Middlewares/Third_Party/LwIP/src/core/udp.c ****   } else {
1137:Middlewares/Third_Party/LwIP/src/core/udp.c **** #endif
1138:Middlewares/Third_Party/LwIP/src/core/udp.c ****     ip_addr_set_any(IP_IS_V6_VAL(pcb->remote_ip), &pcb->remote_ip);
 1937              		.loc 1 1138 5 is_stmt 1
 1938 001e 7B68     		ldr	r3, [r7, #4]
 1939 0020 0022     		movs	r2, #0
 1940 0022 5A60     		str	r2, [r3, #4]
1139:Middlewares/Third_Party/LwIP/src/core/udp.c **** #if LWIP_IPV4 && LWIP_IPV6
1140:Middlewares/Third_Party/LwIP/src/core/udp.c ****   }
1141:Middlewares/Third_Party/LwIP/src/core/udp.c **** #endif
ARM GAS  /tmp/ccI5hTuN.s 			page 57


1142:Middlewares/Third_Party/LwIP/src/core/udp.c ****   pcb->remote_port = 0;
 1941              		.loc 1 1142 20
 1942 0024 7B68     		ldr	r3, [r7, #4]
 1943 0026 0022     		movs	r2, #0
 1944 0028 9A82     		strh	r2, [r3, #20]	@ movhi
1143:Middlewares/Third_Party/LwIP/src/core/udp.c ****   pcb->netif_idx = NETIF_NO_INDEX;
 1945              		.loc 1 1143 18
 1946 002a 7B68     		ldr	r3, [r7, #4]
 1947 002c 0022     		movs	r2, #0
 1948 002e 1A72     		strb	r2, [r3, #8]
1144:Middlewares/Third_Party/LwIP/src/core/udp.c ****   /* mark PCB as unconnected */
1145:Middlewares/Third_Party/LwIP/src/core/udp.c ****   udp_clear_flags(pcb, UDP_FLAGS_CONNECTED);
 1949              		.loc 1 1145 3
 1950 0030 7B68     		ldr	r3, [r7, #4]
 1951 0032 1B7C     		ldrb	r3, [r3, #16]	@ zero_extendqisi2
 1952 0034 23F00403 		bic	r3, r3, #4
 1953 0038 DAB2     		uxtb	r2, r3
 1954 003a 7B68     		ldr	r3, [r7, #4]
 1955 003c 1A74     		strb	r2, [r3, #16]
 1956              	.L131:
1146:Middlewares/Third_Party/LwIP/src/core/udp.c **** }
 1957              		.loc 1 1146 1
 1958 003e 0837     		adds	r7, r7, #8
 1959              	.LCFI57:
 1960              		.cfi_def_cfa_offset 8
 1961 0040 BD46     		mov	sp, r7
 1962              	.LCFI58:
 1963              		.cfi_def_cfa_register 13
 1964              		@ sp needed
 1965 0042 80BD     		pop	{r7, pc}
 1966              	.L135:
 1967              		.align	2
 1968              	.L134:
 1969 0044 00000000 		.word	.LC0
 1970 0048 14030000 		.word	.LC25
 1971 004c 50000000 		.word	.LC2
 1972              		.cfi_endproc
 1973              	.LFE144:
 1975              		.section	.rodata
 1976              		.align	2
 1977              	.LC26:
 1978 0330 7564705F 		.ascii	"udp_recv: invalid pcb\000"
 1978      72656376 
 1978      3A20696E 
 1978      76616C69 
 1978      64207063 
 1979              		.section	.text.udp_recv,"ax",%progbits
 1980              		.align	1
 1981              		.global	udp_recv
 1982              		.syntax unified
 1983              		.thumb
 1984              		.thumb_func
 1985              		.fpu fpv4-sp-d16
 1987              	udp_recv:
 1988              	.LFB145:
1147:Middlewares/Third_Party/LwIP/src/core/udp.c **** 
1148:Middlewares/Third_Party/LwIP/src/core/udp.c **** /**
ARM GAS  /tmp/ccI5hTuN.s 			page 58


1149:Middlewares/Third_Party/LwIP/src/core/udp.c ****  * @ingroup udp_raw
1150:Middlewares/Third_Party/LwIP/src/core/udp.c ****  * Set a receive callback for a UDP PCB.
1151:Middlewares/Third_Party/LwIP/src/core/udp.c ****  * This callback will be called when receiving a datagram for the pcb.
1152:Middlewares/Third_Party/LwIP/src/core/udp.c ****  *
1153:Middlewares/Third_Party/LwIP/src/core/udp.c ****  * @param pcb the pcb for which to set the recv callback
1154:Middlewares/Third_Party/LwIP/src/core/udp.c ****  * @param recv function pointer of the callback function
1155:Middlewares/Third_Party/LwIP/src/core/udp.c ****  * @param recv_arg additional argument to pass to the callback function
1156:Middlewares/Third_Party/LwIP/src/core/udp.c ****  */
1157:Middlewares/Third_Party/LwIP/src/core/udp.c **** void
1158:Middlewares/Third_Party/LwIP/src/core/udp.c **** udp_recv(struct udp_pcb *pcb, udp_recv_fn recv, void *recv_arg)
1159:Middlewares/Third_Party/LwIP/src/core/udp.c **** {
 1989              		.loc 1 1159 1
 1990              		.cfi_startproc
 1991              		@ args = 0, pretend = 0, frame = 16
 1992              		@ frame_needed = 1, uses_anonymous_args = 0
 1993 0000 80B5     		push	{r7, lr}
 1994              	.LCFI59:
 1995              		.cfi_def_cfa_offset 8
 1996              		.cfi_offset 7, -8
 1997              		.cfi_offset 14, -4
 1998 0002 84B0     		sub	sp, sp, #16
 1999              	.LCFI60:
 2000              		.cfi_def_cfa_offset 24
 2001 0004 00AF     		add	r7, sp, #0
 2002              	.LCFI61:
 2003              		.cfi_def_cfa_register 7
 2004 0006 F860     		str	r0, [r7, #12]
 2005 0008 B960     		str	r1, [r7, #8]
 2006 000a 7A60     		str	r2, [r7, #4]
1160:Middlewares/Third_Party/LwIP/src/core/udp.c ****   LWIP_ASSERT_CORE_LOCKED();
1161:Middlewares/Third_Party/LwIP/src/core/udp.c **** 
1162:Middlewares/Third_Party/LwIP/src/core/udp.c ****   LWIP_ERROR("udp_recv: invalid pcb", pcb != NULL, return);
 2007              		.loc 1 1162 3
 2008 000c FB68     		ldr	r3, [r7, #12]
 2009 000e 002B     		cmp	r3, #0
 2010 0010 07D1     		bne	.L137
 2011              		.loc 1 1162 3 is_stmt 0 discriminator 1
 2012 0012 084B     		ldr	r3, .L139
 2013 0014 40F28A42 		movw	r2, #1162
 2014 0018 0749     		ldr	r1, .L139+4
 2015 001a 0848     		ldr	r0, .L139+8
 2016 001c FFF7FEFF 		bl	printf
 2017 0020 05E0     		b	.L136
 2018              	.L137:
1163:Middlewares/Third_Party/LwIP/src/core/udp.c **** 
1164:Middlewares/Third_Party/LwIP/src/core/udp.c ****   /* remember recv() callback and user data */
1165:Middlewares/Third_Party/LwIP/src/core/udp.c ****   pcb->recv = recv;
 2019              		.loc 1 1165 13 is_stmt 1
 2020 0022 FB68     		ldr	r3, [r7, #12]
 2021 0024 BA68     		ldr	r2, [r7, #8]
 2022 0026 9A61     		str	r2, [r3, #24]
1166:Middlewares/Third_Party/LwIP/src/core/udp.c ****   pcb->recv_arg = recv_arg;
 2023              		.loc 1 1166 17
 2024 0028 FB68     		ldr	r3, [r7, #12]
 2025 002a 7A68     		ldr	r2, [r7, #4]
 2026 002c DA61     		str	r2, [r3, #28]
 2027              	.L136:
ARM GAS  /tmp/ccI5hTuN.s 			page 59


1167:Middlewares/Third_Party/LwIP/src/core/udp.c **** }
 2028              		.loc 1 1167 1
 2029 002e 1037     		adds	r7, r7, #16
 2030              	.LCFI62:
 2031              		.cfi_def_cfa_offset 8
 2032 0030 BD46     		mov	sp, r7
 2033              	.LCFI63:
 2034              		.cfi_def_cfa_register 13
 2035              		@ sp needed
 2036 0032 80BD     		pop	{r7, pc}
 2037              	.L140:
 2038              		.align	2
 2039              	.L139:
 2040 0034 00000000 		.word	.LC0
 2041 0038 30030000 		.word	.LC26
 2042 003c 50000000 		.word	.LC2
 2043              		.cfi_endproc
 2044              	.LFE145:
 2046              		.section	.rodata
 2047 0346 0000     		.align	2
 2048              	.LC27:
 2049 0348 7564705F 		.ascii	"udp_remove: invalid pcb\000"
 2049      72656D6F 
 2049      76653A20 
 2049      696E7661 
 2049      6C696420 
 2050              		.section	.text.udp_remove,"ax",%progbits
 2051              		.align	1
 2052              		.global	udp_remove
 2053              		.syntax unified
 2054              		.thumb
 2055              		.thumb_func
 2056              		.fpu fpv4-sp-d16
 2058              	udp_remove:
 2059              	.LFB146:
1168:Middlewares/Third_Party/LwIP/src/core/udp.c **** 
1169:Middlewares/Third_Party/LwIP/src/core/udp.c **** /**
1170:Middlewares/Third_Party/LwIP/src/core/udp.c ****  * @ingroup udp_raw
1171:Middlewares/Third_Party/LwIP/src/core/udp.c ****  * Removes and deallocates the pcb.  
1172:Middlewares/Third_Party/LwIP/src/core/udp.c ****  * 
1173:Middlewares/Third_Party/LwIP/src/core/udp.c ****  * @param pcb UDP PCB to be removed. The PCB is removed from the list of
1174:Middlewares/Third_Party/LwIP/src/core/udp.c ****  * UDP PCB's and the data structure is freed from memory.
1175:Middlewares/Third_Party/LwIP/src/core/udp.c ****  *
1176:Middlewares/Third_Party/LwIP/src/core/udp.c ****  * @see udp_new()
1177:Middlewares/Third_Party/LwIP/src/core/udp.c ****  */
1178:Middlewares/Third_Party/LwIP/src/core/udp.c **** void
1179:Middlewares/Third_Party/LwIP/src/core/udp.c **** udp_remove(struct udp_pcb *pcb)
1180:Middlewares/Third_Party/LwIP/src/core/udp.c **** {
 2060              		.loc 1 1180 1
 2061              		.cfi_startproc
 2062              		@ args = 0, pretend = 0, frame = 16
 2063              		@ frame_needed = 1, uses_anonymous_args = 0
 2064 0000 80B5     		push	{r7, lr}
 2065              	.LCFI64:
 2066              		.cfi_def_cfa_offset 8
 2067              		.cfi_offset 7, -8
 2068              		.cfi_offset 14, -4
ARM GAS  /tmp/ccI5hTuN.s 			page 60


 2069 0002 84B0     		sub	sp, sp, #16
 2070              	.LCFI65:
 2071              		.cfi_def_cfa_offset 24
 2072 0004 00AF     		add	r7, sp, #0
 2073              	.LCFI66:
 2074              		.cfi_def_cfa_register 7
 2075 0006 7860     		str	r0, [r7, #4]
1181:Middlewares/Third_Party/LwIP/src/core/udp.c ****   struct udp_pcb *pcb2;
1182:Middlewares/Third_Party/LwIP/src/core/udp.c **** 
1183:Middlewares/Third_Party/LwIP/src/core/udp.c ****   LWIP_ASSERT_CORE_LOCKED();
1184:Middlewares/Third_Party/LwIP/src/core/udp.c **** 
1185:Middlewares/Third_Party/LwIP/src/core/udp.c ****   LWIP_ERROR("udp_remove: invalid pcb", pcb != NULL, return);
 2076              		.loc 1 1185 3
 2077 0008 7B68     		ldr	r3, [r7, #4]
 2078 000a 002B     		cmp	r3, #0
 2079 000c 07D1     		bne	.L142
 2080              		.loc 1 1185 3 is_stmt 0 discriminator 1
 2081 000e 194B     		ldr	r3, .L149
 2082 0010 40F2A142 		movw	r2, #1185
 2083 0014 1849     		ldr	r1, .L149+4
 2084 0016 1948     		ldr	r0, .L149+8
 2085 0018 FFF7FEFF 		bl	printf
 2086 001c 26E0     		b	.L141
 2087              	.L142:
1186:Middlewares/Third_Party/LwIP/src/core/udp.c **** 
1187:Middlewares/Third_Party/LwIP/src/core/udp.c ****   mib2_udp_unbind(pcb);
1188:Middlewares/Third_Party/LwIP/src/core/udp.c ****   /* pcb to be removed is first in list? */
1189:Middlewares/Third_Party/LwIP/src/core/udp.c ****   if (udp_pcbs == pcb) {
 2088              		.loc 1 1189 16 is_stmt 1
 2089 001e 184B     		ldr	r3, .L149+12
 2090 0020 1B68     		ldr	r3, [r3]
 2091              		.loc 1 1189 6
 2092 0022 7A68     		ldr	r2, [r7, #4]
 2093 0024 9A42     		cmp	r2, r3
 2094 0026 05D1     		bne	.L144
1190:Middlewares/Third_Party/LwIP/src/core/udp.c ****     /* make list start at 2nd pcb */
1191:Middlewares/Third_Party/LwIP/src/core/udp.c ****     udp_pcbs = udp_pcbs->next;
 2095              		.loc 1 1191 24
 2096 0028 154B     		ldr	r3, .L149+12
 2097 002a 1B68     		ldr	r3, [r3]
 2098 002c DB68     		ldr	r3, [r3, #12]
 2099              		.loc 1 1191 14
 2100 002e 144A     		ldr	r2, .L149+12
 2101 0030 1360     		str	r3, [r2]
 2102 0032 17E0     		b	.L145
 2103              	.L144:
1192:Middlewares/Third_Party/LwIP/src/core/udp.c ****     /* pcb not 1st in list */
1193:Middlewares/Third_Party/LwIP/src/core/udp.c ****   } else {
1194:Middlewares/Third_Party/LwIP/src/core/udp.c ****     for (pcb2 = udp_pcbs; pcb2 != NULL; pcb2 = pcb2->next) {
 2104              		.loc 1 1194 15
 2105 0034 124B     		ldr	r3, .L149+12
 2106 0036 1B68     		ldr	r3, [r3]
 2107 0038 FB60     		str	r3, [r7, #12]
 2108              		.loc 1 1194 5
 2109 003a 10E0     		b	.L146
 2110              	.L148:
1195:Middlewares/Third_Party/LwIP/src/core/udp.c ****       /* find pcb in udp_pcbs list */
ARM GAS  /tmp/ccI5hTuN.s 			page 61


1196:Middlewares/Third_Party/LwIP/src/core/udp.c ****       if (pcb2->next != NULL && pcb2->next == pcb) {
 2111              		.loc 1 1196 15
 2112 003c FB68     		ldr	r3, [r7, #12]
 2113 003e DB68     		ldr	r3, [r3, #12]
 2114              		.loc 1 1196 10
 2115 0040 002B     		cmp	r3, #0
 2116 0042 09D0     		beq	.L147
 2117              		.loc 1 1196 37 discriminator 1
 2118 0044 FB68     		ldr	r3, [r7, #12]
 2119 0046 DB68     		ldr	r3, [r3, #12]
 2120              		.loc 1 1196 30 discriminator 1
 2121 0048 7A68     		ldr	r2, [r7, #4]
 2122 004a 9A42     		cmp	r2, r3
 2123 004c 04D1     		bne	.L147
1197:Middlewares/Third_Party/LwIP/src/core/udp.c ****         /* remove pcb from list */
1198:Middlewares/Third_Party/LwIP/src/core/udp.c ****         pcb2->next = pcb->next;
 2124              		.loc 1 1198 25
 2125 004e 7B68     		ldr	r3, [r7, #4]
 2126 0050 DA68     		ldr	r2, [r3, #12]
 2127              		.loc 1 1198 20
 2128 0052 FB68     		ldr	r3, [r7, #12]
 2129 0054 DA60     		str	r2, [r3, #12]
1199:Middlewares/Third_Party/LwIP/src/core/udp.c ****         break;
 2130              		.loc 1 1199 9
 2131 0056 05E0     		b	.L145
 2132              	.L147:
1194:Middlewares/Third_Party/LwIP/src/core/udp.c ****       /* find pcb in udp_pcbs list */
 2133              		.loc 1 1194 46 discriminator 2
 2134 0058 FB68     		ldr	r3, [r7, #12]
 2135 005a DB68     		ldr	r3, [r3, #12]
 2136 005c FB60     		str	r3, [r7, #12]
 2137              	.L146:
1194:Middlewares/Third_Party/LwIP/src/core/udp.c ****       /* find pcb in udp_pcbs list */
 2138              		.loc 1 1194 5 discriminator 1
 2139 005e FB68     		ldr	r3, [r7, #12]
 2140 0060 002B     		cmp	r3, #0
 2141 0062 EBD1     		bne	.L148
 2142              	.L145:
1200:Middlewares/Third_Party/LwIP/src/core/udp.c ****       }
1201:Middlewares/Third_Party/LwIP/src/core/udp.c ****     }
1202:Middlewares/Third_Party/LwIP/src/core/udp.c ****   }
1203:Middlewares/Third_Party/LwIP/src/core/udp.c ****   memp_free(MEMP_UDP_PCB, pcb);
 2143              		.loc 1 1203 3
 2144 0064 7968     		ldr	r1, [r7, #4]
 2145 0066 0020     		movs	r0, #0
 2146 0068 FFF7FEFF 		bl	memp_free
 2147              	.L141:
1204:Middlewares/Third_Party/LwIP/src/core/udp.c **** }
 2148              		.loc 1 1204 1
 2149 006c 1037     		adds	r7, r7, #16
 2150              	.LCFI67:
 2151              		.cfi_def_cfa_offset 8
 2152 006e BD46     		mov	sp, r7
 2153              	.LCFI68:
 2154              		.cfi_def_cfa_register 13
 2155              		@ sp needed
 2156 0070 80BD     		pop	{r7, pc}
ARM GAS  /tmp/ccI5hTuN.s 			page 62


 2157              	.L150:
 2158 0072 00BF     		.align	2
 2159              	.L149:
 2160 0074 00000000 		.word	.LC0
 2161 0078 48030000 		.word	.LC27
 2162 007c 50000000 		.word	.LC2
 2163 0080 00000000 		.word	udp_pcbs
 2164              		.cfi_endproc
 2165              	.LFE146:
 2167              		.section	.text.udp_new,"ax",%progbits
 2168              		.align	1
 2169              		.global	udp_new
 2170              		.syntax unified
 2171              		.thumb
 2172              		.thumb_func
 2173              		.fpu fpv4-sp-d16
 2175              	udp_new:
 2176              	.LFB147:
1205:Middlewares/Third_Party/LwIP/src/core/udp.c **** 
1206:Middlewares/Third_Party/LwIP/src/core/udp.c **** /**
1207:Middlewares/Third_Party/LwIP/src/core/udp.c ****  * @ingroup udp_raw
1208:Middlewares/Third_Party/LwIP/src/core/udp.c ****  * Creates a new UDP pcb which can be used for UDP communication. The
1209:Middlewares/Third_Party/LwIP/src/core/udp.c ****  * pcb is not active until it has either been bound to a local address
1210:Middlewares/Third_Party/LwIP/src/core/udp.c ****  * or connected to a remote address.
1211:Middlewares/Third_Party/LwIP/src/core/udp.c ****  *
1212:Middlewares/Third_Party/LwIP/src/core/udp.c ****  * @return The UDP PCB which was created. NULL if the PCB data structure
1213:Middlewares/Third_Party/LwIP/src/core/udp.c ****  * could not be allocated.
1214:Middlewares/Third_Party/LwIP/src/core/udp.c ****  *
1215:Middlewares/Third_Party/LwIP/src/core/udp.c ****  * @see udp_remove()
1216:Middlewares/Third_Party/LwIP/src/core/udp.c ****  */
1217:Middlewares/Third_Party/LwIP/src/core/udp.c **** struct udp_pcb *
1218:Middlewares/Third_Party/LwIP/src/core/udp.c **** udp_new(void)
1219:Middlewares/Third_Party/LwIP/src/core/udp.c **** {
 2177              		.loc 1 1219 1
 2178              		.cfi_startproc
 2179              		@ args = 0, pretend = 0, frame = 8
 2180              		@ frame_needed = 1, uses_anonymous_args = 0
 2181 0000 80B5     		push	{r7, lr}
 2182              	.LCFI69:
 2183              		.cfi_def_cfa_offset 8
 2184              		.cfi_offset 7, -8
 2185              		.cfi_offset 14, -4
 2186 0002 82B0     		sub	sp, sp, #8
 2187              	.LCFI70:
 2188              		.cfi_def_cfa_offset 16
 2189 0004 00AF     		add	r7, sp, #0
 2190              	.LCFI71:
 2191              		.cfi_def_cfa_register 7
1220:Middlewares/Third_Party/LwIP/src/core/udp.c ****   struct udp_pcb *pcb;
1221:Middlewares/Third_Party/LwIP/src/core/udp.c **** 
1222:Middlewares/Third_Party/LwIP/src/core/udp.c ****   LWIP_ASSERT_CORE_LOCKED();
1223:Middlewares/Third_Party/LwIP/src/core/udp.c **** 
1224:Middlewares/Third_Party/LwIP/src/core/udp.c ****   pcb = (struct udp_pcb *)memp_malloc(MEMP_UDP_PCB);
 2192              		.loc 1 1224 27
 2193 0006 0020     		movs	r0, #0
 2194 0008 FFF7FEFF 		bl	memp_malloc
 2195 000c 7860     		str	r0, [r7, #4]
ARM GAS  /tmp/ccI5hTuN.s 			page 63


1225:Middlewares/Third_Party/LwIP/src/core/udp.c ****   /* could allocate UDP PCB? */
1226:Middlewares/Third_Party/LwIP/src/core/udp.c ****   if (pcb != NULL) {
 2196              		.loc 1 1226 6
 2197 000e 7B68     		ldr	r3, [r7, #4]
 2198 0010 002B     		cmp	r3, #0
 2199 0012 07D0     		beq	.L152
1227:Middlewares/Third_Party/LwIP/src/core/udp.c ****     /* UDP Lite: by initializing to all zeroes, chksum_len is set to 0
1228:Middlewares/Third_Party/LwIP/src/core/udp.c ****      * which means checksum is generated over the whole datagram per default
1229:Middlewares/Third_Party/LwIP/src/core/udp.c ****      * (recommended as default by RFC 3828). */
1230:Middlewares/Third_Party/LwIP/src/core/udp.c ****     /* initialize PCB to all zeroes */
1231:Middlewares/Third_Party/LwIP/src/core/udp.c ****     memset(pcb, 0, sizeof(struct udp_pcb));
 2200              		.loc 1 1231 5
 2201 0014 2022     		movs	r2, #32
 2202 0016 0021     		movs	r1, #0
 2203 0018 7868     		ldr	r0, [r7, #4]
 2204 001a FFF7FEFF 		bl	memset
1232:Middlewares/Third_Party/LwIP/src/core/udp.c ****     pcb->ttl = UDP_TTL;
 2205              		.loc 1 1232 14
 2206 001e 7B68     		ldr	r3, [r7, #4]
 2207 0020 FF22     		movs	r2, #255
 2208 0022 DA72     		strb	r2, [r3, #11]
 2209              	.L152:
1233:Middlewares/Third_Party/LwIP/src/core/udp.c **** #if LWIP_MULTICAST_TX_OPTIONS
1234:Middlewares/Third_Party/LwIP/src/core/udp.c ****     udp_set_multicast_ttl(pcb, UDP_TTL);
1235:Middlewares/Third_Party/LwIP/src/core/udp.c **** #endif /* LWIP_MULTICAST_TX_OPTIONS */
1236:Middlewares/Third_Party/LwIP/src/core/udp.c ****   }
1237:Middlewares/Third_Party/LwIP/src/core/udp.c ****   return pcb;
 2210              		.loc 1 1237 10
 2211 0024 7B68     		ldr	r3, [r7, #4]
1238:Middlewares/Third_Party/LwIP/src/core/udp.c **** }
 2212              		.loc 1 1238 1
 2213 0026 1846     		mov	r0, r3
 2214 0028 0837     		adds	r7, r7, #8
 2215              	.LCFI72:
 2216              		.cfi_def_cfa_offset 8
 2217 002a BD46     		mov	sp, r7
 2218              	.LCFI73:
 2219              		.cfi_def_cfa_register 13
 2220              		@ sp needed
 2221 002c 80BD     		pop	{r7, pc}
 2222              		.cfi_endproc
 2223              	.LFE147:
 2225              		.section	.text.udp_new_ip_type,"ax",%progbits
 2226              		.align	1
 2227              		.global	udp_new_ip_type
 2228              		.syntax unified
 2229              		.thumb
 2230              		.thumb_func
 2231              		.fpu fpv4-sp-d16
 2233              	udp_new_ip_type:
 2234              	.LFB148:
1239:Middlewares/Third_Party/LwIP/src/core/udp.c **** 
1240:Middlewares/Third_Party/LwIP/src/core/udp.c **** /**
1241:Middlewares/Third_Party/LwIP/src/core/udp.c ****  * @ingroup udp_raw
1242:Middlewares/Third_Party/LwIP/src/core/udp.c ****  * Create a UDP PCB for specific IP type.
1243:Middlewares/Third_Party/LwIP/src/core/udp.c ****  * The pcb is not active until it has either been bound to a local address
1244:Middlewares/Third_Party/LwIP/src/core/udp.c ****  * or connected to a remote address.
ARM GAS  /tmp/ccI5hTuN.s 			page 64


1245:Middlewares/Third_Party/LwIP/src/core/udp.c ****  * 
1246:Middlewares/Third_Party/LwIP/src/core/udp.c ****  * @param type IP address type, see @ref lwip_ip_addr_type definitions.
1247:Middlewares/Third_Party/LwIP/src/core/udp.c ****  * If you want to listen to IPv4 and IPv6 (dual-stack) packets,
1248:Middlewares/Third_Party/LwIP/src/core/udp.c ****  * supply @ref IPADDR_TYPE_ANY as argument and bind to @ref IP_ANY_TYPE.
1249:Middlewares/Third_Party/LwIP/src/core/udp.c ****  * @return The UDP PCB which was created. NULL if the PCB data structure
1250:Middlewares/Third_Party/LwIP/src/core/udp.c ****  * could not be allocated.
1251:Middlewares/Third_Party/LwIP/src/core/udp.c ****  *
1252:Middlewares/Third_Party/LwIP/src/core/udp.c ****  * @see udp_remove()
1253:Middlewares/Third_Party/LwIP/src/core/udp.c ****  */
1254:Middlewares/Third_Party/LwIP/src/core/udp.c **** struct udp_pcb *
1255:Middlewares/Third_Party/LwIP/src/core/udp.c **** udp_new_ip_type(u8_t type)
1256:Middlewares/Third_Party/LwIP/src/core/udp.c **** {
 2235              		.loc 1 1256 1
 2236              		.cfi_startproc
 2237              		@ args = 0, pretend = 0, frame = 16
 2238              		@ frame_needed = 1, uses_anonymous_args = 0
 2239 0000 80B5     		push	{r7, lr}
 2240              	.LCFI74:
 2241              		.cfi_def_cfa_offset 8
 2242              		.cfi_offset 7, -8
 2243              		.cfi_offset 14, -4
 2244 0002 84B0     		sub	sp, sp, #16
 2245              	.LCFI75:
 2246              		.cfi_def_cfa_offset 24
 2247 0004 00AF     		add	r7, sp, #0
 2248              	.LCFI76:
 2249              		.cfi_def_cfa_register 7
 2250 0006 0346     		mov	r3, r0
 2251 0008 FB71     		strb	r3, [r7, #7]
1257:Middlewares/Third_Party/LwIP/src/core/udp.c ****   struct udp_pcb *pcb;
1258:Middlewares/Third_Party/LwIP/src/core/udp.c **** 
1259:Middlewares/Third_Party/LwIP/src/core/udp.c ****   LWIP_ASSERT_CORE_LOCKED();
1260:Middlewares/Third_Party/LwIP/src/core/udp.c **** 
1261:Middlewares/Third_Party/LwIP/src/core/udp.c ****   pcb = udp_new();
 2252              		.loc 1 1261 9
 2253 000a FFF7FEFF 		bl	udp_new
 2254 000e F860     		str	r0, [r7, #12]
1262:Middlewares/Third_Party/LwIP/src/core/udp.c **** #if LWIP_IPV4 && LWIP_IPV6
1263:Middlewares/Third_Party/LwIP/src/core/udp.c ****   if (pcb != NULL) {
1264:Middlewares/Third_Party/LwIP/src/core/udp.c ****     IP_SET_TYPE_VAL(pcb->local_ip,  type);
1265:Middlewares/Third_Party/LwIP/src/core/udp.c ****     IP_SET_TYPE_VAL(pcb->remote_ip, type);
1266:Middlewares/Third_Party/LwIP/src/core/udp.c ****   }
1267:Middlewares/Third_Party/LwIP/src/core/udp.c **** #else
1268:Middlewares/Third_Party/LwIP/src/core/udp.c ****   LWIP_UNUSED_ARG(type);
1269:Middlewares/Third_Party/LwIP/src/core/udp.c **** #endif /* LWIP_IPV4 && LWIP_IPV6 */
1270:Middlewares/Third_Party/LwIP/src/core/udp.c ****   return pcb;
 2255              		.loc 1 1270 10
 2256 0010 FB68     		ldr	r3, [r7, #12]
1271:Middlewares/Third_Party/LwIP/src/core/udp.c **** }
 2257              		.loc 1 1271 1
 2258 0012 1846     		mov	r0, r3
 2259 0014 1037     		adds	r7, r7, #16
 2260              	.LCFI77:
 2261              		.cfi_def_cfa_offset 8
 2262 0016 BD46     		mov	sp, r7
 2263              	.LCFI78:
 2264              		.cfi_def_cfa_register 13
ARM GAS  /tmp/ccI5hTuN.s 			page 65


 2265              		@ sp needed
 2266 0018 80BD     		pop	{r7, pc}
 2267              		.cfi_endproc
 2268              	.LFE148:
 2270              		.section	.text.udp_netif_ip_addr_changed,"ax",%progbits
 2271              		.align	1
 2272              		.global	udp_netif_ip_addr_changed
 2273              		.syntax unified
 2274              		.thumb
 2275              		.thumb_func
 2276              		.fpu fpv4-sp-d16
 2278              	udp_netif_ip_addr_changed:
 2279              	.LFB149:
1272:Middlewares/Third_Party/LwIP/src/core/udp.c **** 
1273:Middlewares/Third_Party/LwIP/src/core/udp.c **** /** This function is called from netif.c when address is changed
1274:Middlewares/Third_Party/LwIP/src/core/udp.c ****  *
1275:Middlewares/Third_Party/LwIP/src/core/udp.c ****  * @param old_addr IP address of the netif before change
1276:Middlewares/Third_Party/LwIP/src/core/udp.c ****  * @param new_addr IP address of the netif after change
1277:Middlewares/Third_Party/LwIP/src/core/udp.c ****  */
1278:Middlewares/Third_Party/LwIP/src/core/udp.c **** void udp_netif_ip_addr_changed(const ip_addr_t *old_addr, const ip_addr_t *new_addr)
1279:Middlewares/Third_Party/LwIP/src/core/udp.c **** {
 2280              		.loc 1 1279 1
 2281              		.cfi_startproc
 2282              		@ args = 0, pretend = 0, frame = 16
 2283              		@ frame_needed = 1, uses_anonymous_args = 0
 2284              		@ link register save eliminated.
 2285 0000 80B4     		push	{r7}
 2286              	.LCFI79:
 2287              		.cfi_def_cfa_offset 4
 2288              		.cfi_offset 7, -4
 2289 0002 85B0     		sub	sp, sp, #20
 2290              	.LCFI80:
 2291              		.cfi_def_cfa_offset 24
 2292 0004 00AF     		add	r7, sp, #0
 2293              	.LCFI81:
 2294              		.cfi_def_cfa_register 7
 2295 0006 7860     		str	r0, [r7, #4]
 2296 0008 3960     		str	r1, [r7]
1280:Middlewares/Third_Party/LwIP/src/core/udp.c ****   struct udp_pcb *upcb;
1281:Middlewares/Third_Party/LwIP/src/core/udp.c **** 
1282:Middlewares/Third_Party/LwIP/src/core/udp.c ****   if (!ip_addr_isany(old_addr) && !ip_addr_isany(new_addr)) {
 2297              		.loc 1 1282 6
 2298 000a 7B68     		ldr	r3, [r7, #4]
 2299 000c 002B     		cmp	r3, #0
 2300 000e 1ED0     		beq	.L161
 2301              		.loc 1 1282 8 discriminator 1
 2302 0010 7B68     		ldr	r3, [r7, #4]
 2303 0012 1B68     		ldr	r3, [r3]
 2304              		.loc 1 1282 7 discriminator 1
 2305 0014 002B     		cmp	r3, #0
 2306 0016 1AD0     		beq	.L161
 2307              		.loc 1 1282 32 discriminator 2
 2308 0018 3B68     		ldr	r3, [r7]
 2309 001a 002B     		cmp	r3, #0
 2310 001c 17D0     		beq	.L161
 2311              		.loc 1 1282 36 discriminator 3
 2312 001e 3B68     		ldr	r3, [r7]
ARM GAS  /tmp/ccI5hTuN.s 			page 66


 2313 0020 1B68     		ldr	r3, [r3]
 2314              		.loc 1 1282 35 discriminator 3
 2315 0022 002B     		cmp	r3, #0
 2316 0024 13D0     		beq	.L161
1283:Middlewares/Third_Party/LwIP/src/core/udp.c ****     for (upcb = udp_pcbs; upcb != NULL; upcb = upcb->next) {
 2317              		.loc 1 1283 15
 2318 0026 0D4B     		ldr	r3, .L162
 2319 0028 1B68     		ldr	r3, [r3]
 2320 002a FB60     		str	r3, [r7, #12]
 2321              		.loc 1 1283 5
 2322 002c 0CE0     		b	.L158
 2323              	.L160:
1284:Middlewares/Third_Party/LwIP/src/core/udp.c ****       /* PCB bound to current local interface address? */
1285:Middlewares/Third_Party/LwIP/src/core/udp.c ****       if (ip_addr_cmp(&upcb->local_ip, old_addr)) {
 2324              		.loc 1 1285 11
 2325 002e FB68     		ldr	r3, [r7, #12]
 2326 0030 1A68     		ldr	r2, [r3]
 2327 0032 7B68     		ldr	r3, [r7, #4]
 2328 0034 1B68     		ldr	r3, [r3]
 2329              		.loc 1 1285 10
 2330 0036 9A42     		cmp	r2, r3
 2331 0038 03D1     		bne	.L159
1286:Middlewares/Third_Party/LwIP/src/core/udp.c ****         /* The PCB is bound to the old ipaddr and
1287:Middlewares/Third_Party/LwIP/src/core/udp.c ****          * is set to bound to the new one instead */
1288:Middlewares/Third_Party/LwIP/src/core/udp.c ****         ip_addr_copy(upcb->local_ip, *new_addr);
 2332              		.loc 1 1288 9
 2333 003a 3B68     		ldr	r3, [r7]
 2334 003c 1A68     		ldr	r2, [r3]
 2335 003e FB68     		ldr	r3, [r7, #12]
 2336 0040 1A60     		str	r2, [r3]
 2337              	.L159:
1283:Middlewares/Third_Party/LwIP/src/core/udp.c ****       /* PCB bound to current local interface address? */
 2338              		.loc 1 1283 46 discriminator 2
 2339 0042 FB68     		ldr	r3, [r7, #12]
 2340 0044 DB68     		ldr	r3, [r3, #12]
 2341 0046 FB60     		str	r3, [r7, #12]
 2342              	.L158:
1283:Middlewares/Third_Party/LwIP/src/core/udp.c ****       /* PCB bound to current local interface address? */
 2343              		.loc 1 1283 5 discriminator 1
 2344 0048 FB68     		ldr	r3, [r7, #12]
 2345 004a 002B     		cmp	r3, #0
 2346 004c EFD1     		bne	.L160
 2347              	.L161:
1289:Middlewares/Third_Party/LwIP/src/core/udp.c ****       }
1290:Middlewares/Third_Party/LwIP/src/core/udp.c ****     }
1291:Middlewares/Third_Party/LwIP/src/core/udp.c ****   }
1292:Middlewares/Third_Party/LwIP/src/core/udp.c **** }
 2348              		.loc 1 1292 1
 2349 004e 00BF     		nop
 2350 0050 1437     		adds	r7, r7, #20
 2351              	.LCFI82:
 2352              		.cfi_def_cfa_offset 4
 2353 0052 BD46     		mov	sp, r7
 2354              	.LCFI83:
 2355              		.cfi_def_cfa_register 13
 2356              		@ sp needed
 2357 0054 5DF8047B 		ldr	r7, [sp], #4
ARM GAS  /tmp/ccI5hTuN.s 			page 67


 2358              	.LCFI84:
 2359              		.cfi_restore 7
 2360              		.cfi_def_cfa_offset 0
 2361 0058 7047     		bx	lr
 2362              	.L163:
 2363 005a 00BF     		.align	2
 2364              	.L162:
 2365 005c 00000000 		.word	udp_pcbs
 2366              		.cfi_endproc
 2367              	.LFE149:
 2369              		.text
 2370              	.Letext0:
 2371              		.file 2 "/home/mego/microros_ws/firmware/toolchain/arm-none-eabi/include/machine/_default_types.h"
 2372              		.file 3 "/home/mego/microros_ws/firmware/toolchain/arm-none-eabi/include/sys/_stdint.h"
 2373              		.file 4 "Drivers/CMSIS/Include/core_cm4.h"
 2374              		.file 5 "Drivers/CMSIS/Device/ST/STM32F4xx/Include/system_stm32f4xx.h"
 2375              		.file 6 "Drivers/STM32F4xx_HAL_Driver/Inc/stm32f4xx_hal.h"
 2376              		.file 7 "/home/mego/microros_ws/firmware/toolchain/lib/gcc/arm-none-eabi/8.3.1/include/stddef.h"
 2377              		.file 8 "/home/mego/microros_ws/firmware/toolchain/arm-none-eabi/include/sys/_types.h"
 2378              		.file 9 "/home/mego/microros_ws/firmware/toolchain/arm-none-eabi/include/sys/reent.h"
 2379              		.file 10 "/home/mego/microros_ws/firmware/toolchain/arm-none-eabi/include/sys/lock.h"
 2380              		.file 11 "/home/mego/microros_ws/firmware/toolchain/arm-none-eabi/include/stdlib.h"
 2381              		.file 12 "Middlewares/Third_Party/LwIP/src/include/lwip/arch.h"
 2382              		.file 13 "/home/mego/microros_ws/firmware/toolchain/arm-none-eabi/include/ctype.h"
 2383              		.file 14 "Middlewares/Third_Party/LwIP/src/include/lwip/err.h"
 2384              		.file 15 "Middlewares/Third_Party/LwIP/src/include/lwip/pbuf.h"
 2385              		.file 16 "Middlewares/Third_Party/LwIP/src/include/lwip/ip4_addr.h"
 2386              		.file 17 "Middlewares/Third_Party/LwIP/src/include/lwip/ip_addr.h"
 2387              		.file 18 "Middlewares/Third_Party/LwIP/src/include/lwip/memp.h"
 2388              		.file 19 "Middlewares/Third_Party/LwIP/src/include/lwip/priv/memp_priv.h"
 2389              		.file 20 "Middlewares/Third_Party/LwIP/src/include/lwip/netif.h"
 2390              		.file 21 "Middlewares/Third_Party/LwIP/src/include/lwip/prot/ip4.h"
 2391              		.file 22 "Middlewares/Third_Party/LwIP/src/include/lwip/ip.h"
 2392              		.file 23 "Middlewares/Third_Party/LwIP/src/include/lwip/prot/udp.h"
 2393              		.file 24 "Middlewares/Third_Party/LwIP/src/include/lwip/udp.h"
 2394              		.file 25 "Middlewares/Third_Party/LwIP/src/include/lwip/icmp.h"
ARM GAS  /tmp/ccI5hTuN.s 			page 68

