ARM GAS  /tmp/ccXsQpVn.s 			page 1


   1              		.cpu cortex-m4
   2              		.eabi_attribute 27, 1
   3              		.eabi_attribute 28, 1
   4              		.eabi_attribute 20, 1
   5              		.eabi_attribute 21, 1
   6              		.eabi_attribute 23, 3
   7              		.eabi_attribute 24, 1
   8              		.eabi_attribute 25, 1
   9              		.eabi_attribute 26, 1
  10              		.eabi_attribute 30, 6
  11              		.eabi_attribute 34, 1
  12              		.eabi_attribute 18, 4
  13              		.file	"usart.c"
  14              		.text
  15              	.Ltext0:
  16              		.cfi_sections	.debug_frame
  17              		.comm	huart1,64,4
  18              		.section	.text.MX_USART1_UART_Init,"ax",%progbits
  19              		.align	1
  20              		.global	MX_USART1_UART_Init
  21              		.arch armv7e-m
  22              		.syntax unified
  23              		.thumb
  24              		.thumb_func
  25              		.fpu fpv4-sp-d16
  27              	MX_USART1_UART_Init:
  28              	.LFB130:
  29              		.file 1 "Core/Src/usart.c"
   1:Core/Src/usart.c **** /**
   2:Core/Src/usart.c ****   ******************************************************************************
   3:Core/Src/usart.c ****   * @file    usart.c
   4:Core/Src/usart.c ****   * @brief   This file provides code for the configuration
   5:Core/Src/usart.c ****   *          of the USART instances.
   6:Core/Src/usart.c ****   ******************************************************************************
   7:Core/Src/usart.c ****   * @attention
   8:Core/Src/usart.c ****   *
   9:Core/Src/usart.c ****   * <h2><center>&copy; Copyright (c) 2021 STMicroelectronics.
  10:Core/Src/usart.c ****   * All rights reserved.</center></h2>
  11:Core/Src/usart.c ****   *
  12:Core/Src/usart.c ****   * This software component is licensed by ST under Ultimate Liberty license
  13:Core/Src/usart.c ****   * SLA0044, the "License"; You may not use this file except in compliance with
  14:Core/Src/usart.c ****   * the License. You may obtain a copy of the License at:
  15:Core/Src/usart.c ****   *                             www.st.com/SLA0044
  16:Core/Src/usart.c ****   *
  17:Core/Src/usart.c ****   ******************************************************************************
  18:Core/Src/usart.c ****   */
  19:Core/Src/usart.c **** 
  20:Core/Src/usart.c **** /* Includes ------------------------------------------------------------------*/
  21:Core/Src/usart.c **** #include "usart.h"
  22:Core/Src/usart.c **** 
  23:Core/Src/usart.c **** /* USER CODE BEGIN 0 */
  24:Core/Src/usart.c **** 
  25:Core/Src/usart.c **** /* USER CODE END 0 */
  26:Core/Src/usart.c **** 
  27:Core/Src/usart.c **** UART_HandleTypeDef huart1;
  28:Core/Src/usart.c **** 
  29:Core/Src/usart.c **** /* USART1 init function */
ARM GAS  /tmp/ccXsQpVn.s 			page 2


  30:Core/Src/usart.c **** 
  31:Core/Src/usart.c **** void MX_USART1_UART_Init(void)
  32:Core/Src/usart.c **** {
  30              		.loc 1 32 1
  31              		.cfi_startproc
  32              		@ args = 0, pretend = 0, frame = 0
  33              		@ frame_needed = 1, uses_anonymous_args = 0
  34 0000 80B5     		push	{r7, lr}
  35              	.LCFI0:
  36              		.cfi_def_cfa_offset 8
  37              		.cfi_offset 7, -8
  38              		.cfi_offset 14, -4
  39 0002 00AF     		add	r7, sp, #0
  40              	.LCFI1:
  41              		.cfi_def_cfa_register 7
  33:Core/Src/usart.c **** 
  34:Core/Src/usart.c ****   huart1.Instance = USART1;
  42              		.loc 1 34 19
  43 0004 114B     		ldr	r3, .L4
  44 0006 124A     		ldr	r2, .L4+4
  45 0008 1A60     		str	r2, [r3]
  35:Core/Src/usart.c ****   huart1.Init.BaudRate = 115200;
  46              		.loc 1 35 24
  47 000a 104B     		ldr	r3, .L4
  48 000c 4FF4E132 		mov	r2, #115200
  49 0010 5A60     		str	r2, [r3, #4]
  36:Core/Src/usart.c ****   huart1.Init.WordLength = UART_WORDLENGTH_8B;
  50              		.loc 1 36 26
  51 0012 0E4B     		ldr	r3, .L4
  52 0014 0022     		movs	r2, #0
  53 0016 9A60     		str	r2, [r3, #8]
  37:Core/Src/usart.c ****   huart1.Init.StopBits = UART_STOPBITS_1;
  54              		.loc 1 37 24
  55 0018 0C4B     		ldr	r3, .L4
  56 001a 0022     		movs	r2, #0
  57 001c DA60     		str	r2, [r3, #12]
  38:Core/Src/usart.c ****   huart1.Init.Parity = UART_PARITY_NONE;
  58              		.loc 1 38 22
  59 001e 0B4B     		ldr	r3, .L4
  60 0020 0022     		movs	r2, #0
  61 0022 1A61     		str	r2, [r3, #16]
  39:Core/Src/usart.c ****   huart1.Init.Mode = UART_MODE_TX_RX;
  62              		.loc 1 39 20
  63 0024 094B     		ldr	r3, .L4
  64 0026 0C22     		movs	r2, #12
  65 0028 5A61     		str	r2, [r3, #20]
  40:Core/Src/usart.c ****   huart1.Init.HwFlowCtl = UART_HWCONTROL_NONE;
  66              		.loc 1 40 25
  67 002a 084B     		ldr	r3, .L4
  68 002c 0022     		movs	r2, #0
  69 002e 9A61     		str	r2, [r3, #24]
  41:Core/Src/usart.c ****   huart1.Init.OverSampling = UART_OVERSAMPLING_16;
  70              		.loc 1 41 28
  71 0030 064B     		ldr	r3, .L4
  72 0032 0022     		movs	r2, #0
  73 0034 DA61     		str	r2, [r3, #28]
  42:Core/Src/usart.c ****   if (HAL_UART_Init(&huart1) != HAL_OK)
ARM GAS  /tmp/ccXsQpVn.s 			page 3


  74              		.loc 1 42 7
  75 0036 0548     		ldr	r0, .L4
  76 0038 FFF7FEFF 		bl	HAL_UART_Init
  77 003c 0346     		mov	r3, r0
  78              		.loc 1 42 6
  79 003e 002B     		cmp	r3, #0
  80 0040 01D0     		beq	.L3
  43:Core/Src/usart.c ****   {
  44:Core/Src/usart.c ****     Error_Handler();
  81              		.loc 1 44 5
  82 0042 FFF7FEFF 		bl	Error_Handler
  83              	.L3:
  45:Core/Src/usart.c ****   }
  46:Core/Src/usart.c **** 
  47:Core/Src/usart.c **** }
  84              		.loc 1 47 1
  85 0046 00BF     		nop
  86 0048 80BD     		pop	{r7, pc}
  87              	.L5:
  88 004a 00BF     		.align	2
  89              	.L4:
  90 004c 00000000 		.word	huart1
  91 0050 00100140 		.word	1073811456
  92              		.cfi_endproc
  93              	.LFE130:
  95              		.section	.text.HAL_UART_MspInit,"ax",%progbits
  96              		.align	1
  97              		.global	HAL_UART_MspInit
  98              		.syntax unified
  99              		.thumb
 100              		.thumb_func
 101              		.fpu fpv4-sp-d16
 103              	HAL_UART_MspInit:
 104              	.LFB131:
  48:Core/Src/usart.c **** 
  49:Core/Src/usart.c **** void HAL_UART_MspInit(UART_HandleTypeDef* uartHandle)
  50:Core/Src/usart.c **** {
 105              		.loc 1 50 1
 106              		.cfi_startproc
 107              		@ args = 0, pretend = 0, frame = 40
 108              		@ frame_needed = 1, uses_anonymous_args = 0
 109 0000 80B5     		push	{r7, lr}
 110              	.LCFI2:
 111              		.cfi_def_cfa_offset 8
 112              		.cfi_offset 7, -8
 113              		.cfi_offset 14, -4
 114 0002 8AB0     		sub	sp, sp, #40
 115              	.LCFI3:
 116              		.cfi_def_cfa_offset 48
 117 0004 00AF     		add	r7, sp, #0
 118              	.LCFI4:
 119              		.cfi_def_cfa_register 7
 120 0006 7860     		str	r0, [r7, #4]
  51:Core/Src/usart.c **** 
  52:Core/Src/usart.c ****   GPIO_InitTypeDef GPIO_InitStruct = {0};
 121              		.loc 1 52 20
 122 0008 07F11403 		add	r3, r7, #20
ARM GAS  /tmp/ccXsQpVn.s 			page 4


 123 000c 0022     		movs	r2, #0
 124 000e 1A60     		str	r2, [r3]
 125 0010 5A60     		str	r2, [r3, #4]
 126 0012 9A60     		str	r2, [r3, #8]
 127 0014 DA60     		str	r2, [r3, #12]
 128 0016 1A61     		str	r2, [r3, #16]
  53:Core/Src/usart.c ****   if(uartHandle->Instance==USART1)
 129              		.loc 1 53 16
 130 0018 7B68     		ldr	r3, [r7, #4]
 131 001a 1B68     		ldr	r3, [r3]
 132              		.loc 1 53 5
 133 001c 194A     		ldr	r2, .L9
 134 001e 9342     		cmp	r3, r2
 135 0020 2CD1     		bne	.L8
 136              	.LBB2:
  54:Core/Src/usart.c ****   {
  55:Core/Src/usart.c ****   /* USER CODE BEGIN USART1_MspInit 0 */
  56:Core/Src/usart.c **** 
  57:Core/Src/usart.c ****   /* USER CODE END USART1_MspInit 0 */
  58:Core/Src/usart.c ****     /* USART1 clock enable */
  59:Core/Src/usart.c ****     __HAL_RCC_USART1_CLK_ENABLE();
 137              		.loc 1 59 5
 138 0022 0023     		movs	r3, #0
 139 0024 3B61     		str	r3, [r7, #16]
 140 0026 184B     		ldr	r3, .L9+4
 141 0028 5B6C     		ldr	r3, [r3, #68]
 142 002a 174A     		ldr	r2, .L9+4
 143 002c 43F01003 		orr	r3, r3, #16
 144 0030 5364     		str	r3, [r2, #68]
 145 0032 154B     		ldr	r3, .L9+4
 146 0034 5B6C     		ldr	r3, [r3, #68]
 147 0036 03F01003 		and	r3, r3, #16
 148 003a 3B61     		str	r3, [r7, #16]
 149 003c 3B69     		ldr	r3, [r7, #16]
 150              	.LBE2:
 151              	.LBB3:
  60:Core/Src/usart.c **** 
  61:Core/Src/usart.c ****     __HAL_RCC_GPIOA_CLK_ENABLE();
 152              		.loc 1 61 5
 153 003e 0023     		movs	r3, #0
 154 0040 FB60     		str	r3, [r7, #12]
 155 0042 114B     		ldr	r3, .L9+4
 156 0044 1B6B     		ldr	r3, [r3, #48]
 157 0046 104A     		ldr	r2, .L9+4
 158 0048 43F00103 		orr	r3, r3, #1
 159 004c 1363     		str	r3, [r2, #48]
 160 004e 0E4B     		ldr	r3, .L9+4
 161 0050 1B6B     		ldr	r3, [r3, #48]
 162 0052 03F00103 		and	r3, r3, #1
 163 0056 FB60     		str	r3, [r7, #12]
 164 0058 FB68     		ldr	r3, [r7, #12]
 165              	.LBE3:
  62:Core/Src/usart.c ****     /**USART1 GPIO Configuration
  63:Core/Src/usart.c ****     PA9     ------> USART1_TX
  64:Core/Src/usart.c ****     PA10     ------> USART1_RX
  65:Core/Src/usart.c ****     */
  66:Core/Src/usart.c ****     GPIO_InitStruct.Pin = GPIO_PIN_9|GPIO_PIN_10;
ARM GAS  /tmp/ccXsQpVn.s 			page 5


 166              		.loc 1 66 25
 167 005a 4FF4C063 		mov	r3, #1536
 168 005e 7B61     		str	r3, [r7, #20]
  67:Core/Src/usart.c ****     GPIO_InitStruct.Mode = GPIO_MODE_AF_PP;
 169              		.loc 1 67 26
 170 0060 0223     		movs	r3, #2
 171 0062 BB61     		str	r3, [r7, #24]
  68:Core/Src/usart.c ****     GPIO_InitStruct.Pull = GPIO_NOPULL;
 172              		.loc 1 68 26
 173 0064 0023     		movs	r3, #0
 174 0066 FB61     		str	r3, [r7, #28]
  69:Core/Src/usart.c ****     GPIO_InitStruct.Speed = GPIO_SPEED_FREQ_VERY_HIGH;
 175              		.loc 1 69 27
 176 0068 0323     		movs	r3, #3
 177 006a 3B62     		str	r3, [r7, #32]
  70:Core/Src/usart.c ****     GPIO_InitStruct.Alternate = GPIO_AF7_USART1;
 178              		.loc 1 70 31
 179 006c 0723     		movs	r3, #7
 180 006e 7B62     		str	r3, [r7, #36]
  71:Core/Src/usart.c ****     HAL_GPIO_Init(GPIOA, &GPIO_InitStruct);
 181              		.loc 1 71 5
 182 0070 07F11403 		add	r3, r7, #20
 183 0074 1946     		mov	r1, r3
 184 0076 0548     		ldr	r0, .L9+8
 185 0078 FFF7FEFF 		bl	HAL_GPIO_Init
 186              	.L8:
  72:Core/Src/usart.c **** 
  73:Core/Src/usart.c ****   /* USER CODE BEGIN USART1_MspInit 1 */
  74:Core/Src/usart.c **** 
  75:Core/Src/usart.c ****   /* USER CODE END USART1_MspInit 1 */
  76:Core/Src/usart.c ****   }
  77:Core/Src/usart.c **** }
 187              		.loc 1 77 1
 188 007c 00BF     		nop
 189 007e 2837     		adds	r7, r7, #40
 190              	.LCFI5:
 191              		.cfi_def_cfa_offset 8
 192 0080 BD46     		mov	sp, r7
 193              	.LCFI6:
 194              		.cfi_def_cfa_register 13
 195              		@ sp needed
 196 0082 80BD     		pop	{r7, pc}
 197              	.L10:
 198              		.align	2
 199              	.L9:
 200 0084 00100140 		.word	1073811456
 201 0088 00380240 		.word	1073887232
 202 008c 00000240 		.word	1073872896
 203              		.cfi_endproc
 204              	.LFE131:
 206              		.section	.text.HAL_UART_MspDeInit,"ax",%progbits
 207              		.align	1
 208              		.global	HAL_UART_MspDeInit
 209              		.syntax unified
 210              		.thumb
 211              		.thumb_func
 212              		.fpu fpv4-sp-d16
ARM GAS  /tmp/ccXsQpVn.s 			page 6


 214              	HAL_UART_MspDeInit:
 215              	.LFB132:
  78:Core/Src/usart.c **** 
  79:Core/Src/usart.c **** void HAL_UART_MspDeInit(UART_HandleTypeDef* uartHandle)
  80:Core/Src/usart.c **** {
 216              		.loc 1 80 1
 217              		.cfi_startproc
 218              		@ args = 0, pretend = 0, frame = 8
 219              		@ frame_needed = 1, uses_anonymous_args = 0
 220 0000 80B5     		push	{r7, lr}
 221              	.LCFI7:
 222              		.cfi_def_cfa_offset 8
 223              		.cfi_offset 7, -8
 224              		.cfi_offset 14, -4
 225 0002 82B0     		sub	sp, sp, #8
 226              	.LCFI8:
 227              		.cfi_def_cfa_offset 16
 228 0004 00AF     		add	r7, sp, #0
 229              	.LCFI9:
 230              		.cfi_def_cfa_register 7
 231 0006 7860     		str	r0, [r7, #4]
  81:Core/Src/usart.c **** 
  82:Core/Src/usart.c ****   if(uartHandle->Instance==USART1)
 232              		.loc 1 82 16
 233 0008 7B68     		ldr	r3, [r7, #4]
 234 000a 1B68     		ldr	r3, [r3]
 235              		.loc 1 82 5
 236 000c 084A     		ldr	r2, .L14
 237 000e 9342     		cmp	r3, r2
 238 0010 0AD1     		bne	.L13
  83:Core/Src/usart.c ****   {
  84:Core/Src/usart.c ****   /* USER CODE BEGIN USART1_MspDeInit 0 */
  85:Core/Src/usart.c **** 
  86:Core/Src/usart.c ****   /* USER CODE END USART1_MspDeInit 0 */
  87:Core/Src/usart.c ****     /* Peripheral clock disable */
  88:Core/Src/usart.c ****     __HAL_RCC_USART1_CLK_DISABLE();
 239              		.loc 1 88 5
 240 0012 084B     		ldr	r3, .L14+4
 241 0014 5B6C     		ldr	r3, [r3, #68]
 242 0016 074A     		ldr	r2, .L14+4
 243 0018 23F01003 		bic	r3, r3, #16
 244 001c 5364     		str	r3, [r2, #68]
  89:Core/Src/usart.c **** 
  90:Core/Src/usart.c ****     /**USART1 GPIO Configuration
  91:Core/Src/usart.c ****     PA9     ------> USART1_TX
  92:Core/Src/usart.c ****     PA10     ------> USART1_RX
  93:Core/Src/usart.c ****     */
  94:Core/Src/usart.c ****     HAL_GPIO_DeInit(GPIOA, GPIO_PIN_9|GPIO_PIN_10);
 245              		.loc 1 94 5
 246 001e 4FF4C061 		mov	r1, #1536
 247 0022 0548     		ldr	r0, .L14+8
 248 0024 FFF7FEFF 		bl	HAL_GPIO_DeInit
 249              	.L13:
  95:Core/Src/usart.c **** 
  96:Core/Src/usart.c ****   /* USER CODE BEGIN USART1_MspDeInit 1 */
  97:Core/Src/usart.c **** 
  98:Core/Src/usart.c ****   /* USER CODE END USART1_MspDeInit 1 */
ARM GAS  /tmp/ccXsQpVn.s 			page 7


  99:Core/Src/usart.c ****   }
 100:Core/Src/usart.c **** }
 250              		.loc 1 100 1
 251 0028 00BF     		nop
 252 002a 0837     		adds	r7, r7, #8
 253              	.LCFI10:
 254              		.cfi_def_cfa_offset 8
 255 002c BD46     		mov	sp, r7
 256              	.LCFI11:
 257              		.cfi_def_cfa_register 13
 258              		@ sp needed
 259 002e 80BD     		pop	{r7, pc}
 260              	.L15:
 261              		.align	2
 262              	.L14:
 263 0030 00100140 		.word	1073811456
 264 0034 00380240 		.word	1073887232
 265 0038 00000240 		.word	1073872896
 266              		.cfi_endproc
 267              	.LFE132:
 269              		.text
 270              	.Letext0:
 271              		.file 2 "/home/mego-ros2/microros_ws/firmware/toolchain/arm-none-eabi/include/machine/_default_typ
 272              		.file 3 "/home/mego-ros2/microros_ws/firmware/toolchain/arm-none-eabi/include/sys/_stdint.h"
 273              		.file 4 "Drivers/CMSIS/Include/core_cm4.h"
 274              		.file 5 "Drivers/CMSIS/Device/ST/STM32F4xx/Include/system_stm32f4xx.h"
 275              		.file 6 "Drivers/CMSIS/Device/ST/STM32F4xx/Include/stm32f407xx.h"
 276              		.file 7 "Drivers/STM32F4xx_HAL_Driver/Inc/stm32f4xx_hal_def.h"
 277              		.file 8 "Drivers/STM32F4xx_HAL_Driver/Inc/stm32f4xx_hal_gpio.h"
 278              		.file 9 "Drivers/STM32F4xx_HAL_Driver/Inc/stm32f4xx_hal_dma.h"
 279              		.file 10 "Drivers/STM32F4xx_HAL_Driver/Inc/stm32f4xx_hal_uart.h"
 280              		.file 11 "Drivers/STM32F4xx_HAL_Driver/Inc/stm32f4xx_hal.h"
 281              		.file 12 "Core/Inc/usart.h"
ARM GAS  /tmp/ccXsQpVn.s 			page 8

